ARM GAS  /tmp/cce3S0ea.s 			page 1


   1              		.cpu cortex-m4
   2              		.arch armv7e-m
   3              		.fpu fpv4-sp-d16
   4              		.eabi_attribute 27, 1
   5              		.eabi_attribute 28, 1
   6              		.eabi_attribute 20, 1
   7              		.eabi_attribute 21, 1
   8              		.eabi_attribute 23, 3
   9              		.eabi_attribute 24, 1
  10              		.eabi_attribute 25, 1
  11              		.eabi_attribute 26, 1
  12              		.eabi_attribute 30, 6
  13              		.eabi_attribute 34, 1
  14              		.eabi_attribute 18, 4
  15              		.file	"stm32l4xx_hal_can.c"
  16              		.text
  17              	.Ltext0:
  18              		.cfi_sections	.debug_frame
  19              		.section	.text.HAL_CAN_Init,"ax",%progbits
  20              		.align	1
  21              		.global	HAL_CAN_Init
  22              		.syntax unified
  23              		.thumb
  24              		.thumb_func
  26              	HAL_CAN_Init:
  27              	.LFB132:
  28              		.file 1 "Drivers/STM32L4xx_HAL_Driver/Src/stm32l4xx_hal_can.c"
   1:Drivers/STM32L4xx_HAL_Driver/Src/stm32l4xx_hal_can.c **** /**
   2:Drivers/STM32L4xx_HAL_Driver/Src/stm32l4xx_hal_can.c ****   ******************************************************************************
   3:Drivers/STM32L4xx_HAL_Driver/Src/stm32l4xx_hal_can.c ****   * @file    stm32l4xx_hal_can.c
   4:Drivers/STM32L4xx_HAL_Driver/Src/stm32l4xx_hal_can.c ****   * @author  MCD Application Team
   5:Drivers/STM32L4xx_HAL_Driver/Src/stm32l4xx_hal_can.c ****   * @brief   CAN HAL module driver.
   6:Drivers/STM32L4xx_HAL_Driver/Src/stm32l4xx_hal_can.c ****   *          This file provides firmware functions to manage the following
   7:Drivers/STM32L4xx_HAL_Driver/Src/stm32l4xx_hal_can.c ****   *          functionalities of the Controller Area Network (CAN) peripheral:
   8:Drivers/STM32L4xx_HAL_Driver/Src/stm32l4xx_hal_can.c ****   *           + Initialization and de-initialization functions
   9:Drivers/STM32L4xx_HAL_Driver/Src/stm32l4xx_hal_can.c ****   *           + Configuration functions
  10:Drivers/STM32L4xx_HAL_Driver/Src/stm32l4xx_hal_can.c ****   *           + Control functions
  11:Drivers/STM32L4xx_HAL_Driver/Src/stm32l4xx_hal_can.c ****   *           + Interrupts management
  12:Drivers/STM32L4xx_HAL_Driver/Src/stm32l4xx_hal_can.c ****   *           + Callbacks functions
  13:Drivers/STM32L4xx_HAL_Driver/Src/stm32l4xx_hal_can.c ****   *           + Peripheral State and Error functions
  14:Drivers/STM32L4xx_HAL_Driver/Src/stm32l4xx_hal_can.c ****   *
  15:Drivers/STM32L4xx_HAL_Driver/Src/stm32l4xx_hal_can.c ****   ******************************************************************************
  16:Drivers/STM32L4xx_HAL_Driver/Src/stm32l4xx_hal_can.c ****   * @attention
  17:Drivers/STM32L4xx_HAL_Driver/Src/stm32l4xx_hal_can.c ****   *
  18:Drivers/STM32L4xx_HAL_Driver/Src/stm32l4xx_hal_can.c ****   * Copyright (c) 2017 STMicroelectronics.
  19:Drivers/STM32L4xx_HAL_Driver/Src/stm32l4xx_hal_can.c ****   * All rights reserved.
  20:Drivers/STM32L4xx_HAL_Driver/Src/stm32l4xx_hal_can.c ****   *
  21:Drivers/STM32L4xx_HAL_Driver/Src/stm32l4xx_hal_can.c ****   * This software is licensed under terms that can be found in the LICENSE file
  22:Drivers/STM32L4xx_HAL_Driver/Src/stm32l4xx_hal_can.c ****   * in the root directory of this software component.
  23:Drivers/STM32L4xx_HAL_Driver/Src/stm32l4xx_hal_can.c ****   * If no LICENSE file comes with this software, it is provided AS-IS.
  24:Drivers/STM32L4xx_HAL_Driver/Src/stm32l4xx_hal_can.c ****   *
  25:Drivers/STM32L4xx_HAL_Driver/Src/stm32l4xx_hal_can.c ****   ******************************************************************************
  26:Drivers/STM32L4xx_HAL_Driver/Src/stm32l4xx_hal_can.c ****   @verbatim
  27:Drivers/STM32L4xx_HAL_Driver/Src/stm32l4xx_hal_can.c ****   ==============================================================================
  28:Drivers/STM32L4xx_HAL_Driver/Src/stm32l4xx_hal_can.c ****                         ##### How to use this driver #####
  29:Drivers/STM32L4xx_HAL_Driver/Src/stm32l4xx_hal_can.c ****   ==============================================================================
  30:Drivers/STM32L4xx_HAL_Driver/Src/stm32l4xx_hal_can.c ****     [..]
ARM GAS  /tmp/cce3S0ea.s 			page 2


  31:Drivers/STM32L4xx_HAL_Driver/Src/stm32l4xx_hal_can.c ****       (#) Initialize the CAN low level resources by implementing the
  32:Drivers/STM32L4xx_HAL_Driver/Src/stm32l4xx_hal_can.c ****           HAL_CAN_MspInit():
  33:Drivers/STM32L4xx_HAL_Driver/Src/stm32l4xx_hal_can.c ****          (++) Enable the CAN interface clock using __HAL_RCC_CANx_CLK_ENABLE()
  34:Drivers/STM32L4xx_HAL_Driver/Src/stm32l4xx_hal_can.c ****          (++) Configure CAN pins
  35:Drivers/STM32L4xx_HAL_Driver/Src/stm32l4xx_hal_can.c ****              (+++) Enable the clock for the CAN GPIOs
  36:Drivers/STM32L4xx_HAL_Driver/Src/stm32l4xx_hal_can.c ****              (+++) Configure CAN pins as alternate function open-drain
  37:Drivers/STM32L4xx_HAL_Driver/Src/stm32l4xx_hal_can.c ****          (++) In case of using interrupts (e.g. HAL_CAN_ActivateNotification())
  38:Drivers/STM32L4xx_HAL_Driver/Src/stm32l4xx_hal_can.c ****              (+++) Configure the CAN interrupt priority using
  39:Drivers/STM32L4xx_HAL_Driver/Src/stm32l4xx_hal_can.c ****                    HAL_NVIC_SetPriority()
  40:Drivers/STM32L4xx_HAL_Driver/Src/stm32l4xx_hal_can.c ****              (+++) Enable the CAN IRQ handler using HAL_NVIC_EnableIRQ()
  41:Drivers/STM32L4xx_HAL_Driver/Src/stm32l4xx_hal_can.c ****              (+++) In CAN IRQ handler, call HAL_CAN_IRQHandler()
  42:Drivers/STM32L4xx_HAL_Driver/Src/stm32l4xx_hal_can.c **** 
  43:Drivers/STM32L4xx_HAL_Driver/Src/stm32l4xx_hal_can.c ****       (#) Initialize the CAN peripheral using HAL_CAN_Init() function. This
  44:Drivers/STM32L4xx_HAL_Driver/Src/stm32l4xx_hal_can.c ****           function resorts to HAL_CAN_MspInit() for low-level initialization.
  45:Drivers/STM32L4xx_HAL_Driver/Src/stm32l4xx_hal_can.c **** 
  46:Drivers/STM32L4xx_HAL_Driver/Src/stm32l4xx_hal_can.c ****       (#) Configure the reception filters using the following configuration
  47:Drivers/STM32L4xx_HAL_Driver/Src/stm32l4xx_hal_can.c ****           functions:
  48:Drivers/STM32L4xx_HAL_Driver/Src/stm32l4xx_hal_can.c ****             (++) HAL_CAN_ConfigFilter()
  49:Drivers/STM32L4xx_HAL_Driver/Src/stm32l4xx_hal_can.c **** 
  50:Drivers/STM32L4xx_HAL_Driver/Src/stm32l4xx_hal_can.c ****       (#) Start the CAN module using HAL_CAN_Start() function. At this level
  51:Drivers/STM32L4xx_HAL_Driver/Src/stm32l4xx_hal_can.c ****           the node is active on the bus: it receive messages, and can send
  52:Drivers/STM32L4xx_HAL_Driver/Src/stm32l4xx_hal_can.c ****           messages.
  53:Drivers/STM32L4xx_HAL_Driver/Src/stm32l4xx_hal_can.c **** 
  54:Drivers/STM32L4xx_HAL_Driver/Src/stm32l4xx_hal_can.c ****       (#) To manage messages transmission, the following Tx control functions
  55:Drivers/STM32L4xx_HAL_Driver/Src/stm32l4xx_hal_can.c ****           can be used:
  56:Drivers/STM32L4xx_HAL_Driver/Src/stm32l4xx_hal_can.c ****             (++) HAL_CAN_AddTxMessage() to request transmission of a new
  57:Drivers/STM32L4xx_HAL_Driver/Src/stm32l4xx_hal_can.c ****                  message.
  58:Drivers/STM32L4xx_HAL_Driver/Src/stm32l4xx_hal_can.c ****             (++) HAL_CAN_AbortTxRequest() to abort transmission of a pending
  59:Drivers/STM32L4xx_HAL_Driver/Src/stm32l4xx_hal_can.c ****                  message.
  60:Drivers/STM32L4xx_HAL_Driver/Src/stm32l4xx_hal_can.c ****             (++) HAL_CAN_GetTxMailboxesFreeLevel() to get the number of free Tx
  61:Drivers/STM32L4xx_HAL_Driver/Src/stm32l4xx_hal_can.c ****                  mailboxes.
  62:Drivers/STM32L4xx_HAL_Driver/Src/stm32l4xx_hal_can.c ****             (++) HAL_CAN_IsTxMessagePending() to check if a message is pending
  63:Drivers/STM32L4xx_HAL_Driver/Src/stm32l4xx_hal_can.c ****                  in a Tx mailbox.
  64:Drivers/STM32L4xx_HAL_Driver/Src/stm32l4xx_hal_can.c ****             (++) HAL_CAN_GetTxTimestamp() to get the timestamp of Tx message
  65:Drivers/STM32L4xx_HAL_Driver/Src/stm32l4xx_hal_can.c ****                  sent, if time triggered communication mode is enabled.
  66:Drivers/STM32L4xx_HAL_Driver/Src/stm32l4xx_hal_can.c **** 
  67:Drivers/STM32L4xx_HAL_Driver/Src/stm32l4xx_hal_can.c ****       (#) When a message is received into the CAN Rx FIFOs, it can be retrieved
  68:Drivers/STM32L4xx_HAL_Driver/Src/stm32l4xx_hal_can.c ****           using the HAL_CAN_GetRxMessage() function. The function
  69:Drivers/STM32L4xx_HAL_Driver/Src/stm32l4xx_hal_can.c ****           HAL_CAN_GetRxFifoFillLevel() allows to know how many Rx message are
  70:Drivers/STM32L4xx_HAL_Driver/Src/stm32l4xx_hal_can.c ****           stored in the Rx Fifo.
  71:Drivers/STM32L4xx_HAL_Driver/Src/stm32l4xx_hal_can.c **** 
  72:Drivers/STM32L4xx_HAL_Driver/Src/stm32l4xx_hal_can.c ****       (#) Calling the HAL_CAN_Stop() function stops the CAN module.
  73:Drivers/STM32L4xx_HAL_Driver/Src/stm32l4xx_hal_can.c **** 
  74:Drivers/STM32L4xx_HAL_Driver/Src/stm32l4xx_hal_can.c ****       (#) The deinitialization is achieved with HAL_CAN_DeInit() function.
  75:Drivers/STM32L4xx_HAL_Driver/Src/stm32l4xx_hal_can.c **** 
  76:Drivers/STM32L4xx_HAL_Driver/Src/stm32l4xx_hal_can.c **** 
  77:Drivers/STM32L4xx_HAL_Driver/Src/stm32l4xx_hal_can.c ****       *** Polling mode operation ***
  78:Drivers/STM32L4xx_HAL_Driver/Src/stm32l4xx_hal_can.c ****       ==============================
  79:Drivers/STM32L4xx_HAL_Driver/Src/stm32l4xx_hal_can.c ****     [..]
  80:Drivers/STM32L4xx_HAL_Driver/Src/stm32l4xx_hal_can.c ****       (#) Reception:
  81:Drivers/STM32L4xx_HAL_Driver/Src/stm32l4xx_hal_can.c ****             (++) Monitor reception of message using HAL_CAN_GetRxFifoFillLevel()
  82:Drivers/STM32L4xx_HAL_Driver/Src/stm32l4xx_hal_can.c ****                  until at least one message is received.
  83:Drivers/STM32L4xx_HAL_Driver/Src/stm32l4xx_hal_can.c ****             (++) Then get the message using HAL_CAN_GetRxMessage().
  84:Drivers/STM32L4xx_HAL_Driver/Src/stm32l4xx_hal_can.c **** 
  85:Drivers/STM32L4xx_HAL_Driver/Src/stm32l4xx_hal_can.c ****       (#) Transmission:
  86:Drivers/STM32L4xx_HAL_Driver/Src/stm32l4xx_hal_can.c ****             (++) Monitor the Tx mailboxes availability until at least one Tx
  87:Drivers/STM32L4xx_HAL_Driver/Src/stm32l4xx_hal_can.c ****                  mailbox is free, using HAL_CAN_GetTxMailboxesFreeLevel().
ARM GAS  /tmp/cce3S0ea.s 			page 3


  88:Drivers/STM32L4xx_HAL_Driver/Src/stm32l4xx_hal_can.c ****             (++) Then request transmission of a message using
  89:Drivers/STM32L4xx_HAL_Driver/Src/stm32l4xx_hal_can.c ****                  HAL_CAN_AddTxMessage().
  90:Drivers/STM32L4xx_HAL_Driver/Src/stm32l4xx_hal_can.c **** 
  91:Drivers/STM32L4xx_HAL_Driver/Src/stm32l4xx_hal_can.c **** 
  92:Drivers/STM32L4xx_HAL_Driver/Src/stm32l4xx_hal_can.c ****       *** Interrupt mode operation ***
  93:Drivers/STM32L4xx_HAL_Driver/Src/stm32l4xx_hal_can.c ****       ================================
  94:Drivers/STM32L4xx_HAL_Driver/Src/stm32l4xx_hal_can.c ****     [..]
  95:Drivers/STM32L4xx_HAL_Driver/Src/stm32l4xx_hal_can.c ****       (#) Notifications are activated using HAL_CAN_ActivateNotification()
  96:Drivers/STM32L4xx_HAL_Driver/Src/stm32l4xx_hal_can.c ****           function. Then, the process can be controlled through the
  97:Drivers/STM32L4xx_HAL_Driver/Src/stm32l4xx_hal_can.c ****           available user callbacks: HAL_CAN_xxxCallback(), using same APIs
  98:Drivers/STM32L4xx_HAL_Driver/Src/stm32l4xx_hal_can.c ****           HAL_CAN_GetRxMessage() and HAL_CAN_AddTxMessage().
  99:Drivers/STM32L4xx_HAL_Driver/Src/stm32l4xx_hal_can.c **** 
 100:Drivers/STM32L4xx_HAL_Driver/Src/stm32l4xx_hal_can.c ****       (#) Notifications can be deactivated using
 101:Drivers/STM32L4xx_HAL_Driver/Src/stm32l4xx_hal_can.c ****           HAL_CAN_DeactivateNotification() function.
 102:Drivers/STM32L4xx_HAL_Driver/Src/stm32l4xx_hal_can.c **** 
 103:Drivers/STM32L4xx_HAL_Driver/Src/stm32l4xx_hal_can.c ****       (#) Special care should be taken for CAN_IT_RX_FIFO0_MSG_PENDING and
 104:Drivers/STM32L4xx_HAL_Driver/Src/stm32l4xx_hal_can.c ****           CAN_IT_RX_FIFO1_MSG_PENDING notifications. These notifications trig
 105:Drivers/STM32L4xx_HAL_Driver/Src/stm32l4xx_hal_can.c ****           the callbacks HAL_CAN_RxFIFO0MsgPendingCallback() and
 106:Drivers/STM32L4xx_HAL_Driver/Src/stm32l4xx_hal_can.c ****           HAL_CAN_RxFIFO1MsgPendingCallback(). User has two possible options
 107:Drivers/STM32L4xx_HAL_Driver/Src/stm32l4xx_hal_can.c ****           here.
 108:Drivers/STM32L4xx_HAL_Driver/Src/stm32l4xx_hal_can.c ****             (++) Directly get the Rx message in the callback, using
 109:Drivers/STM32L4xx_HAL_Driver/Src/stm32l4xx_hal_can.c ****                  HAL_CAN_GetRxMessage().
 110:Drivers/STM32L4xx_HAL_Driver/Src/stm32l4xx_hal_can.c ****             (++) Or deactivate the notification in the callback without
 111:Drivers/STM32L4xx_HAL_Driver/Src/stm32l4xx_hal_can.c ****                  getting the Rx message. The Rx message can then be got later
 112:Drivers/STM32L4xx_HAL_Driver/Src/stm32l4xx_hal_can.c ****                  using HAL_CAN_GetRxMessage(). Once the Rx message have been
 113:Drivers/STM32L4xx_HAL_Driver/Src/stm32l4xx_hal_can.c ****                  read, the notification can be activated again.
 114:Drivers/STM32L4xx_HAL_Driver/Src/stm32l4xx_hal_can.c **** 
 115:Drivers/STM32L4xx_HAL_Driver/Src/stm32l4xx_hal_can.c **** 
 116:Drivers/STM32L4xx_HAL_Driver/Src/stm32l4xx_hal_can.c ****       *** Sleep mode ***
 117:Drivers/STM32L4xx_HAL_Driver/Src/stm32l4xx_hal_can.c ****       ==================
 118:Drivers/STM32L4xx_HAL_Driver/Src/stm32l4xx_hal_can.c ****     [..]
 119:Drivers/STM32L4xx_HAL_Driver/Src/stm32l4xx_hal_can.c ****       (#) The CAN peripheral can be put in sleep mode (low power), using
 120:Drivers/STM32L4xx_HAL_Driver/Src/stm32l4xx_hal_can.c ****           HAL_CAN_RequestSleep(). The sleep mode will be entered as soon as the
 121:Drivers/STM32L4xx_HAL_Driver/Src/stm32l4xx_hal_can.c ****           current CAN activity (transmission or reception of a CAN frame) will
 122:Drivers/STM32L4xx_HAL_Driver/Src/stm32l4xx_hal_can.c ****           be completed.
 123:Drivers/STM32L4xx_HAL_Driver/Src/stm32l4xx_hal_can.c **** 
 124:Drivers/STM32L4xx_HAL_Driver/Src/stm32l4xx_hal_can.c ****       (#) A notification can be activated to be informed when the sleep mode
 125:Drivers/STM32L4xx_HAL_Driver/Src/stm32l4xx_hal_can.c ****           will be entered.
 126:Drivers/STM32L4xx_HAL_Driver/Src/stm32l4xx_hal_can.c **** 
 127:Drivers/STM32L4xx_HAL_Driver/Src/stm32l4xx_hal_can.c ****       (#) It can be checked if the sleep mode is entered using
 128:Drivers/STM32L4xx_HAL_Driver/Src/stm32l4xx_hal_can.c ****           HAL_CAN_IsSleepActive().
 129:Drivers/STM32L4xx_HAL_Driver/Src/stm32l4xx_hal_can.c ****           Note that the CAN state (accessible from the API HAL_CAN_GetState())
 130:Drivers/STM32L4xx_HAL_Driver/Src/stm32l4xx_hal_can.c ****           is HAL_CAN_STATE_SLEEP_PENDING as soon as the sleep mode request is
 131:Drivers/STM32L4xx_HAL_Driver/Src/stm32l4xx_hal_can.c ****           submitted (the sleep mode is not yet entered), and become
 132:Drivers/STM32L4xx_HAL_Driver/Src/stm32l4xx_hal_can.c ****           HAL_CAN_STATE_SLEEP_ACTIVE when the sleep mode is effective.
 133:Drivers/STM32L4xx_HAL_Driver/Src/stm32l4xx_hal_can.c **** 
 134:Drivers/STM32L4xx_HAL_Driver/Src/stm32l4xx_hal_can.c ****       (#) The wake-up from sleep mode can be triggered by two ways:
 135:Drivers/STM32L4xx_HAL_Driver/Src/stm32l4xx_hal_can.c ****             (++) Using HAL_CAN_WakeUp(). When returning from this function,
 136:Drivers/STM32L4xx_HAL_Driver/Src/stm32l4xx_hal_can.c ****                  the sleep mode is exited (if return status is HAL_OK).
 137:Drivers/STM32L4xx_HAL_Driver/Src/stm32l4xx_hal_can.c ****             (++) When a start of Rx CAN frame is detected by the CAN peripheral,
 138:Drivers/STM32L4xx_HAL_Driver/Src/stm32l4xx_hal_can.c ****                  if automatic wake up mode is enabled.
 139:Drivers/STM32L4xx_HAL_Driver/Src/stm32l4xx_hal_can.c **** 
 140:Drivers/STM32L4xx_HAL_Driver/Src/stm32l4xx_hal_can.c ****   *** Callback registration ***
 141:Drivers/STM32L4xx_HAL_Driver/Src/stm32l4xx_hal_can.c ****   =============================================
 142:Drivers/STM32L4xx_HAL_Driver/Src/stm32l4xx_hal_can.c **** 
 143:Drivers/STM32L4xx_HAL_Driver/Src/stm32l4xx_hal_can.c ****   The compilation define  USE_HAL_CAN_REGISTER_CALLBACKS when set to 1
 144:Drivers/STM32L4xx_HAL_Driver/Src/stm32l4xx_hal_can.c ****   allows the user to configure dynamically the driver callbacks.
ARM GAS  /tmp/cce3S0ea.s 			page 4


 145:Drivers/STM32L4xx_HAL_Driver/Src/stm32l4xx_hal_can.c ****   Use Function HAL_CAN_RegisterCallback() to register an interrupt callback.
 146:Drivers/STM32L4xx_HAL_Driver/Src/stm32l4xx_hal_can.c **** 
 147:Drivers/STM32L4xx_HAL_Driver/Src/stm32l4xx_hal_can.c ****   Function HAL_CAN_RegisterCallback() allows to register following callbacks:
 148:Drivers/STM32L4xx_HAL_Driver/Src/stm32l4xx_hal_can.c ****     (+) TxMailbox0CompleteCallback   : Tx Mailbox 0 Complete Callback.
 149:Drivers/STM32L4xx_HAL_Driver/Src/stm32l4xx_hal_can.c ****     (+) TxMailbox1CompleteCallback   : Tx Mailbox 1 Complete Callback.
 150:Drivers/STM32L4xx_HAL_Driver/Src/stm32l4xx_hal_can.c ****     (+) TxMailbox2CompleteCallback   : Tx Mailbox 2 Complete Callback.
 151:Drivers/STM32L4xx_HAL_Driver/Src/stm32l4xx_hal_can.c ****     (+) TxMailbox0AbortCallback      : Tx Mailbox 0 Abort Callback.
 152:Drivers/STM32L4xx_HAL_Driver/Src/stm32l4xx_hal_can.c ****     (+) TxMailbox1AbortCallback      : Tx Mailbox 1 Abort Callback.
 153:Drivers/STM32L4xx_HAL_Driver/Src/stm32l4xx_hal_can.c ****     (+) TxMailbox2AbortCallback      : Tx Mailbox 2 Abort Callback.
 154:Drivers/STM32L4xx_HAL_Driver/Src/stm32l4xx_hal_can.c ****     (+) RxFifo0MsgPendingCallback    : Rx Fifo 0 Message Pending Callback.
 155:Drivers/STM32L4xx_HAL_Driver/Src/stm32l4xx_hal_can.c ****     (+) RxFifo0FullCallback          : Rx Fifo 0 Full Callback.
 156:Drivers/STM32L4xx_HAL_Driver/Src/stm32l4xx_hal_can.c ****     (+) RxFifo1MsgPendingCallback    : Rx Fifo 1 Message Pending Callback.
 157:Drivers/STM32L4xx_HAL_Driver/Src/stm32l4xx_hal_can.c ****     (+) RxFifo1FullCallback          : Rx Fifo 1 Full Callback.
 158:Drivers/STM32L4xx_HAL_Driver/Src/stm32l4xx_hal_can.c ****     (+) SleepCallback                : Sleep Callback.
 159:Drivers/STM32L4xx_HAL_Driver/Src/stm32l4xx_hal_can.c ****     (+) WakeUpFromRxMsgCallback      : Wake Up From Rx Message Callback.
 160:Drivers/STM32L4xx_HAL_Driver/Src/stm32l4xx_hal_can.c ****     (+) ErrorCallback                : Error Callback.
 161:Drivers/STM32L4xx_HAL_Driver/Src/stm32l4xx_hal_can.c ****     (+) MspInitCallback              : CAN MspInit.
 162:Drivers/STM32L4xx_HAL_Driver/Src/stm32l4xx_hal_can.c ****     (+) MspDeInitCallback            : CAN MspDeInit.
 163:Drivers/STM32L4xx_HAL_Driver/Src/stm32l4xx_hal_can.c ****   This function takes as parameters the HAL peripheral handle, the Callback ID
 164:Drivers/STM32L4xx_HAL_Driver/Src/stm32l4xx_hal_can.c ****   and a pointer to the user callback function.
 165:Drivers/STM32L4xx_HAL_Driver/Src/stm32l4xx_hal_can.c **** 
 166:Drivers/STM32L4xx_HAL_Driver/Src/stm32l4xx_hal_can.c ****   Use function HAL_CAN_UnRegisterCallback() to reset a callback to the default
 167:Drivers/STM32L4xx_HAL_Driver/Src/stm32l4xx_hal_can.c ****   weak function.
 168:Drivers/STM32L4xx_HAL_Driver/Src/stm32l4xx_hal_can.c ****   HAL_CAN_UnRegisterCallback takes as parameters the HAL peripheral handle,
 169:Drivers/STM32L4xx_HAL_Driver/Src/stm32l4xx_hal_can.c ****   and the Callback ID.
 170:Drivers/STM32L4xx_HAL_Driver/Src/stm32l4xx_hal_can.c ****   This function allows to reset following callbacks:
 171:Drivers/STM32L4xx_HAL_Driver/Src/stm32l4xx_hal_can.c ****     (+) TxMailbox0CompleteCallback   : Tx Mailbox 0 Complete Callback.
 172:Drivers/STM32L4xx_HAL_Driver/Src/stm32l4xx_hal_can.c ****     (+) TxMailbox1CompleteCallback   : Tx Mailbox 1 Complete Callback.
 173:Drivers/STM32L4xx_HAL_Driver/Src/stm32l4xx_hal_can.c ****     (+) TxMailbox2CompleteCallback   : Tx Mailbox 2 Complete Callback.
 174:Drivers/STM32L4xx_HAL_Driver/Src/stm32l4xx_hal_can.c ****     (+) TxMailbox0AbortCallback      : Tx Mailbox 0 Abort Callback.
 175:Drivers/STM32L4xx_HAL_Driver/Src/stm32l4xx_hal_can.c ****     (+) TxMailbox1AbortCallback      : Tx Mailbox 1 Abort Callback.
 176:Drivers/STM32L4xx_HAL_Driver/Src/stm32l4xx_hal_can.c ****     (+) TxMailbox2AbortCallback      : Tx Mailbox 2 Abort Callback.
 177:Drivers/STM32L4xx_HAL_Driver/Src/stm32l4xx_hal_can.c ****     (+) RxFifo0MsgPendingCallback    : Rx Fifo 0 Message Pending Callback.
 178:Drivers/STM32L4xx_HAL_Driver/Src/stm32l4xx_hal_can.c ****     (+) RxFifo0FullCallback          : Rx Fifo 0 Full Callback.
 179:Drivers/STM32L4xx_HAL_Driver/Src/stm32l4xx_hal_can.c ****     (+) RxFifo1MsgPendingCallback    : Rx Fifo 1 Message Pending Callback.
 180:Drivers/STM32L4xx_HAL_Driver/Src/stm32l4xx_hal_can.c ****     (+) RxFifo1FullCallback          : Rx Fifo 1 Full Callback.
 181:Drivers/STM32L4xx_HAL_Driver/Src/stm32l4xx_hal_can.c ****     (+) SleepCallback                : Sleep Callback.
 182:Drivers/STM32L4xx_HAL_Driver/Src/stm32l4xx_hal_can.c ****     (+) WakeUpFromRxMsgCallback      : Wake Up From Rx Message Callback.
 183:Drivers/STM32L4xx_HAL_Driver/Src/stm32l4xx_hal_can.c ****     (+) ErrorCallback                : Error Callback.
 184:Drivers/STM32L4xx_HAL_Driver/Src/stm32l4xx_hal_can.c ****     (+) MspInitCallback              : CAN MspInit.
 185:Drivers/STM32L4xx_HAL_Driver/Src/stm32l4xx_hal_can.c ****     (+) MspDeInitCallback            : CAN MspDeInit.
 186:Drivers/STM32L4xx_HAL_Driver/Src/stm32l4xx_hal_can.c **** 
 187:Drivers/STM32L4xx_HAL_Driver/Src/stm32l4xx_hal_can.c ****   By default, after the HAL_CAN_Init() and when the state is HAL_CAN_STATE_RESET,
 188:Drivers/STM32L4xx_HAL_Driver/Src/stm32l4xx_hal_can.c ****   all callbacks are set to the corresponding weak functions:
 189:Drivers/STM32L4xx_HAL_Driver/Src/stm32l4xx_hal_can.c ****   example HAL_CAN_ErrorCallback().
 190:Drivers/STM32L4xx_HAL_Driver/Src/stm32l4xx_hal_can.c ****   Exception done for MspInit and MspDeInit functions that are
 191:Drivers/STM32L4xx_HAL_Driver/Src/stm32l4xx_hal_can.c ****   reset to the legacy weak function in the HAL_CAN_Init()/ HAL_CAN_DeInit() only when
 192:Drivers/STM32L4xx_HAL_Driver/Src/stm32l4xx_hal_can.c ****   these callbacks are null (not registered beforehand).
 193:Drivers/STM32L4xx_HAL_Driver/Src/stm32l4xx_hal_can.c ****   if not, MspInit or MspDeInit are not null, the HAL_CAN_Init()/ HAL_CAN_DeInit()
 194:Drivers/STM32L4xx_HAL_Driver/Src/stm32l4xx_hal_can.c ****   keep and use the user MspInit/MspDeInit callbacks (registered beforehand)
 195:Drivers/STM32L4xx_HAL_Driver/Src/stm32l4xx_hal_can.c **** 
 196:Drivers/STM32L4xx_HAL_Driver/Src/stm32l4xx_hal_can.c ****   Callbacks can be registered/unregistered in HAL_CAN_STATE_READY state only.
 197:Drivers/STM32L4xx_HAL_Driver/Src/stm32l4xx_hal_can.c ****   Exception done MspInit/MspDeInit that can be registered/unregistered
 198:Drivers/STM32L4xx_HAL_Driver/Src/stm32l4xx_hal_can.c ****   in HAL_CAN_STATE_READY or HAL_CAN_STATE_RESET state,
 199:Drivers/STM32L4xx_HAL_Driver/Src/stm32l4xx_hal_can.c ****   thus registered (user) MspInit/DeInit callbacks can be used during the Init/DeInit.
 200:Drivers/STM32L4xx_HAL_Driver/Src/stm32l4xx_hal_can.c ****   In that case first register the MspInit/MspDeInit user callbacks
 201:Drivers/STM32L4xx_HAL_Driver/Src/stm32l4xx_hal_can.c ****   using HAL_CAN_RegisterCallback() before calling HAL_CAN_DeInit()
ARM GAS  /tmp/cce3S0ea.s 			page 5


 202:Drivers/STM32L4xx_HAL_Driver/Src/stm32l4xx_hal_can.c ****   or HAL_CAN_Init() function.
 203:Drivers/STM32L4xx_HAL_Driver/Src/stm32l4xx_hal_can.c **** 
 204:Drivers/STM32L4xx_HAL_Driver/Src/stm32l4xx_hal_can.c ****   When The compilation define USE_HAL_CAN_REGISTER_CALLBACKS is set to 0 or
 205:Drivers/STM32L4xx_HAL_Driver/Src/stm32l4xx_hal_can.c ****   not defined, the callback registration feature is not available and all callbacks
 206:Drivers/STM32L4xx_HAL_Driver/Src/stm32l4xx_hal_can.c ****   are set to the corresponding weak functions.
 207:Drivers/STM32L4xx_HAL_Driver/Src/stm32l4xx_hal_can.c **** 
 208:Drivers/STM32L4xx_HAL_Driver/Src/stm32l4xx_hal_can.c ****   @endverbatim
 209:Drivers/STM32L4xx_HAL_Driver/Src/stm32l4xx_hal_can.c ****   ******************************************************************************
 210:Drivers/STM32L4xx_HAL_Driver/Src/stm32l4xx_hal_can.c ****   */
 211:Drivers/STM32L4xx_HAL_Driver/Src/stm32l4xx_hal_can.c **** 
 212:Drivers/STM32L4xx_HAL_Driver/Src/stm32l4xx_hal_can.c **** /* Includes ------------------------------------------------------------------*/
 213:Drivers/STM32L4xx_HAL_Driver/Src/stm32l4xx_hal_can.c **** #include "stm32l4xx_hal.h"
 214:Drivers/STM32L4xx_HAL_Driver/Src/stm32l4xx_hal_can.c **** 
 215:Drivers/STM32L4xx_HAL_Driver/Src/stm32l4xx_hal_can.c **** /** @addtogroup STM32L4xx_HAL_Driver
 216:Drivers/STM32L4xx_HAL_Driver/Src/stm32l4xx_hal_can.c ****   * @{
 217:Drivers/STM32L4xx_HAL_Driver/Src/stm32l4xx_hal_can.c ****   */
 218:Drivers/STM32L4xx_HAL_Driver/Src/stm32l4xx_hal_can.c **** 
 219:Drivers/STM32L4xx_HAL_Driver/Src/stm32l4xx_hal_can.c **** #if defined(CAN1)
 220:Drivers/STM32L4xx_HAL_Driver/Src/stm32l4xx_hal_can.c **** 
 221:Drivers/STM32L4xx_HAL_Driver/Src/stm32l4xx_hal_can.c **** /** @defgroup CAN CAN
 222:Drivers/STM32L4xx_HAL_Driver/Src/stm32l4xx_hal_can.c ****   * @brief CAN driver modules
 223:Drivers/STM32L4xx_HAL_Driver/Src/stm32l4xx_hal_can.c ****   * @{
 224:Drivers/STM32L4xx_HAL_Driver/Src/stm32l4xx_hal_can.c ****   */
 225:Drivers/STM32L4xx_HAL_Driver/Src/stm32l4xx_hal_can.c **** 
 226:Drivers/STM32L4xx_HAL_Driver/Src/stm32l4xx_hal_can.c **** #ifdef HAL_CAN_MODULE_ENABLED
 227:Drivers/STM32L4xx_HAL_Driver/Src/stm32l4xx_hal_can.c **** 
 228:Drivers/STM32L4xx_HAL_Driver/Src/stm32l4xx_hal_can.c **** #ifdef HAL_CAN_LEGACY_MODULE_ENABLED
 229:Drivers/STM32L4xx_HAL_Driver/Src/stm32l4xx_hal_can.c **** #error "The CAN driver cannot be used with its legacy, Please enable only one CAN module at once"
 230:Drivers/STM32L4xx_HAL_Driver/Src/stm32l4xx_hal_can.c **** #endif /* HAL_CAN_LEGACY_MODULE_ENABLED */
 231:Drivers/STM32L4xx_HAL_Driver/Src/stm32l4xx_hal_can.c **** 
 232:Drivers/STM32L4xx_HAL_Driver/Src/stm32l4xx_hal_can.c **** /* Private typedef -----------------------------------------------------------*/
 233:Drivers/STM32L4xx_HAL_Driver/Src/stm32l4xx_hal_can.c **** /* Private define ------------------------------------------------------------*/
 234:Drivers/STM32L4xx_HAL_Driver/Src/stm32l4xx_hal_can.c **** /** @defgroup CAN_Private_Constants CAN Private Constants
 235:Drivers/STM32L4xx_HAL_Driver/Src/stm32l4xx_hal_can.c ****   * @{
 236:Drivers/STM32L4xx_HAL_Driver/Src/stm32l4xx_hal_can.c ****   */
 237:Drivers/STM32L4xx_HAL_Driver/Src/stm32l4xx_hal_can.c **** #define CAN_TIMEOUT_VALUE 10U
 238:Drivers/STM32L4xx_HAL_Driver/Src/stm32l4xx_hal_can.c **** /**
 239:Drivers/STM32L4xx_HAL_Driver/Src/stm32l4xx_hal_can.c ****   * @}
 240:Drivers/STM32L4xx_HAL_Driver/Src/stm32l4xx_hal_can.c ****   */
 241:Drivers/STM32L4xx_HAL_Driver/Src/stm32l4xx_hal_can.c **** /* Private macro -------------------------------------------------------------*/
 242:Drivers/STM32L4xx_HAL_Driver/Src/stm32l4xx_hal_can.c **** /* Private variables ---------------------------------------------------------*/
 243:Drivers/STM32L4xx_HAL_Driver/Src/stm32l4xx_hal_can.c **** /* Private function prototypes -----------------------------------------------*/
 244:Drivers/STM32L4xx_HAL_Driver/Src/stm32l4xx_hal_can.c **** /* Exported functions --------------------------------------------------------*/
 245:Drivers/STM32L4xx_HAL_Driver/Src/stm32l4xx_hal_can.c **** 
 246:Drivers/STM32L4xx_HAL_Driver/Src/stm32l4xx_hal_can.c **** /** @defgroup CAN_Exported_Functions CAN Exported Functions
 247:Drivers/STM32L4xx_HAL_Driver/Src/stm32l4xx_hal_can.c ****   * @{
 248:Drivers/STM32L4xx_HAL_Driver/Src/stm32l4xx_hal_can.c ****   */
 249:Drivers/STM32L4xx_HAL_Driver/Src/stm32l4xx_hal_can.c **** 
 250:Drivers/STM32L4xx_HAL_Driver/Src/stm32l4xx_hal_can.c **** /** @defgroup CAN_Exported_Functions_Group1 Initialization and de-initialization functions
 251:Drivers/STM32L4xx_HAL_Driver/Src/stm32l4xx_hal_can.c ****  *  @brief    Initialization and Configuration functions
 252:Drivers/STM32L4xx_HAL_Driver/Src/stm32l4xx_hal_can.c ****  *
 253:Drivers/STM32L4xx_HAL_Driver/Src/stm32l4xx_hal_can.c **** @verbatim
 254:Drivers/STM32L4xx_HAL_Driver/Src/stm32l4xx_hal_can.c ****   ==============================================================================
 255:Drivers/STM32L4xx_HAL_Driver/Src/stm32l4xx_hal_can.c ****               ##### Initialization and de-initialization functions #####
 256:Drivers/STM32L4xx_HAL_Driver/Src/stm32l4xx_hal_can.c ****   ==============================================================================
 257:Drivers/STM32L4xx_HAL_Driver/Src/stm32l4xx_hal_can.c ****     [..]  This section provides functions allowing to:
 258:Drivers/STM32L4xx_HAL_Driver/Src/stm32l4xx_hal_can.c ****       (+) HAL_CAN_Init                       : Initialize and configure the CAN.
ARM GAS  /tmp/cce3S0ea.s 			page 6


 259:Drivers/STM32L4xx_HAL_Driver/Src/stm32l4xx_hal_can.c ****       (+) HAL_CAN_DeInit                     : De-initialize the CAN.
 260:Drivers/STM32L4xx_HAL_Driver/Src/stm32l4xx_hal_can.c ****       (+) HAL_CAN_MspInit                    : Initialize the CAN MSP.
 261:Drivers/STM32L4xx_HAL_Driver/Src/stm32l4xx_hal_can.c ****       (+) HAL_CAN_MspDeInit                  : DeInitialize the CAN MSP.
 262:Drivers/STM32L4xx_HAL_Driver/Src/stm32l4xx_hal_can.c **** 
 263:Drivers/STM32L4xx_HAL_Driver/Src/stm32l4xx_hal_can.c **** @endverbatim
 264:Drivers/STM32L4xx_HAL_Driver/Src/stm32l4xx_hal_can.c ****   * @{
 265:Drivers/STM32L4xx_HAL_Driver/Src/stm32l4xx_hal_can.c ****   */
 266:Drivers/STM32L4xx_HAL_Driver/Src/stm32l4xx_hal_can.c **** 
 267:Drivers/STM32L4xx_HAL_Driver/Src/stm32l4xx_hal_can.c **** /**
 268:Drivers/STM32L4xx_HAL_Driver/Src/stm32l4xx_hal_can.c ****   * @brief  Initializes the CAN peripheral according to the specified
 269:Drivers/STM32L4xx_HAL_Driver/Src/stm32l4xx_hal_can.c ****   *         parameters in the CAN_InitStruct.
 270:Drivers/STM32L4xx_HAL_Driver/Src/stm32l4xx_hal_can.c ****   * @param  hcan pointer to a CAN_HandleTypeDef structure that contains
 271:Drivers/STM32L4xx_HAL_Driver/Src/stm32l4xx_hal_can.c ****   *         the configuration information for the specified CAN.
 272:Drivers/STM32L4xx_HAL_Driver/Src/stm32l4xx_hal_can.c ****   * @retval HAL status
 273:Drivers/STM32L4xx_HAL_Driver/Src/stm32l4xx_hal_can.c ****   */
 274:Drivers/STM32L4xx_HAL_Driver/Src/stm32l4xx_hal_can.c **** HAL_StatusTypeDef HAL_CAN_Init(CAN_HandleTypeDef *hcan)
 275:Drivers/STM32L4xx_HAL_Driver/Src/stm32l4xx_hal_can.c **** {
  29              		.loc 1 275 1
  30              		.cfi_startproc
  31              		@ args = 0, pretend = 0, frame = 16
  32              		@ frame_needed = 1, uses_anonymous_args = 0
  33 0000 80B5     		push	{r7, lr}
  34              	.LCFI0:
  35              		.cfi_def_cfa_offset 8
  36              		.cfi_offset 7, -8
  37              		.cfi_offset 14, -4
  38 0002 84B0     		sub	sp, sp, #16
  39              	.LCFI1:
  40              		.cfi_def_cfa_offset 24
  41 0004 00AF     		add	r7, sp, #0
  42              	.LCFI2:
  43              		.cfi_def_cfa_register 7
  44 0006 7860     		str	r0, [r7, #4]
 276:Drivers/STM32L4xx_HAL_Driver/Src/stm32l4xx_hal_can.c ****   uint32_t tickstart;
 277:Drivers/STM32L4xx_HAL_Driver/Src/stm32l4xx_hal_can.c **** 
 278:Drivers/STM32L4xx_HAL_Driver/Src/stm32l4xx_hal_can.c ****   /* Check CAN handle */
 279:Drivers/STM32L4xx_HAL_Driver/Src/stm32l4xx_hal_can.c ****   if (hcan == NULL)
  45              		.loc 1 279 6
  46 0008 7B68     		ldr	r3, [r7, #4]
  47 000a 002B     		cmp	r3, #0
  48 000c 01D1     		bne	.L2
 280:Drivers/STM32L4xx_HAL_Driver/Src/stm32l4xx_hal_can.c ****   {
 281:Drivers/STM32L4xx_HAL_Driver/Src/stm32l4xx_hal_can.c ****     return HAL_ERROR;
  49              		.loc 1 281 12
  50 000e 0123     		movs	r3, #1
  51 0010 EDE0     		b	.L3
  52              	.L2:
 282:Drivers/STM32L4xx_HAL_Driver/Src/stm32l4xx_hal_can.c ****   }
 283:Drivers/STM32L4xx_HAL_Driver/Src/stm32l4xx_hal_can.c **** 
 284:Drivers/STM32L4xx_HAL_Driver/Src/stm32l4xx_hal_can.c ****   /* Check the parameters */
 285:Drivers/STM32L4xx_HAL_Driver/Src/stm32l4xx_hal_can.c ****   assert_param(IS_CAN_ALL_INSTANCE(hcan->Instance));
 286:Drivers/STM32L4xx_HAL_Driver/Src/stm32l4xx_hal_can.c ****   assert_param(IS_FUNCTIONAL_STATE(hcan->Init.TimeTriggeredMode));
 287:Drivers/STM32L4xx_HAL_Driver/Src/stm32l4xx_hal_can.c ****   assert_param(IS_FUNCTIONAL_STATE(hcan->Init.AutoBusOff));
 288:Drivers/STM32L4xx_HAL_Driver/Src/stm32l4xx_hal_can.c ****   assert_param(IS_FUNCTIONAL_STATE(hcan->Init.AutoWakeUp));
 289:Drivers/STM32L4xx_HAL_Driver/Src/stm32l4xx_hal_can.c ****   assert_param(IS_FUNCTIONAL_STATE(hcan->Init.AutoRetransmission));
 290:Drivers/STM32L4xx_HAL_Driver/Src/stm32l4xx_hal_can.c ****   assert_param(IS_FUNCTIONAL_STATE(hcan->Init.ReceiveFifoLocked));
 291:Drivers/STM32L4xx_HAL_Driver/Src/stm32l4xx_hal_can.c ****   assert_param(IS_FUNCTIONAL_STATE(hcan->Init.TransmitFifoPriority));
ARM GAS  /tmp/cce3S0ea.s 			page 7


 292:Drivers/STM32L4xx_HAL_Driver/Src/stm32l4xx_hal_can.c ****   assert_param(IS_CAN_MODE(hcan->Init.Mode));
 293:Drivers/STM32L4xx_HAL_Driver/Src/stm32l4xx_hal_can.c ****   assert_param(IS_CAN_SJW(hcan->Init.SyncJumpWidth));
 294:Drivers/STM32L4xx_HAL_Driver/Src/stm32l4xx_hal_can.c ****   assert_param(IS_CAN_BS1(hcan->Init.TimeSeg1));
 295:Drivers/STM32L4xx_HAL_Driver/Src/stm32l4xx_hal_can.c ****   assert_param(IS_CAN_BS2(hcan->Init.TimeSeg2));
 296:Drivers/STM32L4xx_HAL_Driver/Src/stm32l4xx_hal_can.c ****   assert_param(IS_CAN_PRESCALER(hcan->Init.Prescaler));
 297:Drivers/STM32L4xx_HAL_Driver/Src/stm32l4xx_hal_can.c **** 
 298:Drivers/STM32L4xx_HAL_Driver/Src/stm32l4xx_hal_can.c **** #if USE_HAL_CAN_REGISTER_CALLBACKS == 1
 299:Drivers/STM32L4xx_HAL_Driver/Src/stm32l4xx_hal_can.c ****   if (hcan->State == HAL_CAN_STATE_RESET)
 300:Drivers/STM32L4xx_HAL_Driver/Src/stm32l4xx_hal_can.c ****   {
 301:Drivers/STM32L4xx_HAL_Driver/Src/stm32l4xx_hal_can.c ****     /* Reset callbacks to legacy functions */
 302:Drivers/STM32L4xx_HAL_Driver/Src/stm32l4xx_hal_can.c ****     hcan->RxFifo0MsgPendingCallback  =  HAL_CAN_RxFifo0MsgPendingCallback;  /* Legacy weak RxFifo0M
 303:Drivers/STM32L4xx_HAL_Driver/Src/stm32l4xx_hal_can.c ****     hcan->RxFifo0FullCallback        =  HAL_CAN_RxFifo0FullCallback;        /* Legacy weak RxFifo0F
 304:Drivers/STM32L4xx_HAL_Driver/Src/stm32l4xx_hal_can.c ****     hcan->RxFifo1MsgPendingCallback  =  HAL_CAN_RxFifo1MsgPendingCallback;  /* Legacy weak RxFifo1M
 305:Drivers/STM32L4xx_HAL_Driver/Src/stm32l4xx_hal_can.c ****     hcan->RxFifo1FullCallback        =  HAL_CAN_RxFifo1FullCallback;        /* Legacy weak RxFifo1F
 306:Drivers/STM32L4xx_HAL_Driver/Src/stm32l4xx_hal_can.c ****     hcan->TxMailbox0CompleteCallback =  HAL_CAN_TxMailbox0CompleteCallback; /* Legacy weak TxMailbo
 307:Drivers/STM32L4xx_HAL_Driver/Src/stm32l4xx_hal_can.c ****     hcan->TxMailbox1CompleteCallback =  HAL_CAN_TxMailbox1CompleteCallback; /* Legacy weak TxMailbo
 308:Drivers/STM32L4xx_HAL_Driver/Src/stm32l4xx_hal_can.c ****     hcan->TxMailbox2CompleteCallback =  HAL_CAN_TxMailbox2CompleteCallback; /* Legacy weak TxMailbo
 309:Drivers/STM32L4xx_HAL_Driver/Src/stm32l4xx_hal_can.c ****     hcan->TxMailbox0AbortCallback    =  HAL_CAN_TxMailbox0AbortCallback;    /* Legacy weak TxMailbo
 310:Drivers/STM32L4xx_HAL_Driver/Src/stm32l4xx_hal_can.c ****     hcan->TxMailbox1AbortCallback    =  HAL_CAN_TxMailbox1AbortCallback;    /* Legacy weak TxMailbo
 311:Drivers/STM32L4xx_HAL_Driver/Src/stm32l4xx_hal_can.c ****     hcan->TxMailbox2AbortCallback    =  HAL_CAN_TxMailbox2AbortCallback;    /* Legacy weak TxMailbo
 312:Drivers/STM32L4xx_HAL_Driver/Src/stm32l4xx_hal_can.c ****     hcan->SleepCallback              =  HAL_CAN_SleepCallback;              /* Legacy weak SleepCal
 313:Drivers/STM32L4xx_HAL_Driver/Src/stm32l4xx_hal_can.c ****     hcan->WakeUpFromRxMsgCallback    =  HAL_CAN_WakeUpFromRxMsgCallback;    /* Legacy weak WakeUpFr
 314:Drivers/STM32L4xx_HAL_Driver/Src/stm32l4xx_hal_can.c ****     hcan->ErrorCallback              =  HAL_CAN_ErrorCallback;              /* Legacy weak ErrorCal
 315:Drivers/STM32L4xx_HAL_Driver/Src/stm32l4xx_hal_can.c **** 
 316:Drivers/STM32L4xx_HAL_Driver/Src/stm32l4xx_hal_can.c ****     if (hcan->MspInitCallback == NULL)
 317:Drivers/STM32L4xx_HAL_Driver/Src/stm32l4xx_hal_can.c ****     {
 318:Drivers/STM32L4xx_HAL_Driver/Src/stm32l4xx_hal_can.c ****       hcan->MspInitCallback = HAL_CAN_MspInit; /* Legacy weak MspInit */
 319:Drivers/STM32L4xx_HAL_Driver/Src/stm32l4xx_hal_can.c ****     }
 320:Drivers/STM32L4xx_HAL_Driver/Src/stm32l4xx_hal_can.c **** 
 321:Drivers/STM32L4xx_HAL_Driver/Src/stm32l4xx_hal_can.c ****     /* Init the low level hardware: CLOCK, NVIC */
 322:Drivers/STM32L4xx_HAL_Driver/Src/stm32l4xx_hal_can.c ****     hcan->MspInitCallback(hcan);
 323:Drivers/STM32L4xx_HAL_Driver/Src/stm32l4xx_hal_can.c ****   }
 324:Drivers/STM32L4xx_HAL_Driver/Src/stm32l4xx_hal_can.c **** 
 325:Drivers/STM32L4xx_HAL_Driver/Src/stm32l4xx_hal_can.c **** #else
 326:Drivers/STM32L4xx_HAL_Driver/Src/stm32l4xx_hal_can.c ****   if (hcan->State == HAL_CAN_STATE_RESET)
  53              		.loc 1 326 11
  54 0012 7B68     		ldr	r3, [r7, #4]
  55 0014 93F82030 		ldrb	r3, [r3, #32]
  56 0018 DBB2     		uxtb	r3, r3
  57              		.loc 1 326 6
  58 001a 002B     		cmp	r3, #0
  59 001c 02D1     		bne	.L4
 327:Drivers/STM32L4xx_HAL_Driver/Src/stm32l4xx_hal_can.c ****   {
 328:Drivers/STM32L4xx_HAL_Driver/Src/stm32l4xx_hal_can.c ****     /* Init the low level hardware: CLOCK, NVIC */
 329:Drivers/STM32L4xx_HAL_Driver/Src/stm32l4xx_hal_can.c ****     HAL_CAN_MspInit(hcan);
  60              		.loc 1 329 5
  61 001e 7868     		ldr	r0, [r7, #4]
  62 0020 FFF7FEFF 		bl	HAL_CAN_MspInit
  63              	.L4:
 330:Drivers/STM32L4xx_HAL_Driver/Src/stm32l4xx_hal_can.c ****   }
 331:Drivers/STM32L4xx_HAL_Driver/Src/stm32l4xx_hal_can.c **** #endif /* (USE_HAL_CAN_REGISTER_CALLBACKS) */
 332:Drivers/STM32L4xx_HAL_Driver/Src/stm32l4xx_hal_can.c **** 
 333:Drivers/STM32L4xx_HAL_Driver/Src/stm32l4xx_hal_can.c ****   /* Request initialisation */
 334:Drivers/STM32L4xx_HAL_Driver/Src/stm32l4xx_hal_can.c ****   SET_BIT(hcan->Instance->MCR, CAN_MCR_INRQ);
  64              		.loc 1 334 3
  65 0024 7B68     		ldr	r3, [r7, #4]
  66 0026 1B68     		ldr	r3, [r3]
ARM GAS  /tmp/cce3S0ea.s 			page 8


  67 0028 1A68     		ldr	r2, [r3]
  68 002a 7B68     		ldr	r3, [r7, #4]
  69 002c 1B68     		ldr	r3, [r3]
  70 002e 42F00102 		orr	r2, r2, #1
  71 0032 1A60     		str	r2, [r3]
 335:Drivers/STM32L4xx_HAL_Driver/Src/stm32l4xx_hal_can.c **** 
 336:Drivers/STM32L4xx_HAL_Driver/Src/stm32l4xx_hal_can.c ****   /* Get tick */
 337:Drivers/STM32L4xx_HAL_Driver/Src/stm32l4xx_hal_can.c ****   tickstart = HAL_GetTick();
  72              		.loc 1 337 15
  73 0034 FFF7FEFF 		bl	HAL_GetTick
  74 0038 F860     		str	r0, [r7, #12]
 338:Drivers/STM32L4xx_HAL_Driver/Src/stm32l4xx_hal_can.c **** 
 339:Drivers/STM32L4xx_HAL_Driver/Src/stm32l4xx_hal_can.c ****   /* Wait initialisation acknowledge */
 340:Drivers/STM32L4xx_HAL_Driver/Src/stm32l4xx_hal_can.c ****   while ((hcan->Instance->MSR & CAN_MSR_INAK) == 0U)
  75              		.loc 1 340 9
  76 003a 12E0     		b	.L5
  77              	.L6:
 341:Drivers/STM32L4xx_HAL_Driver/Src/stm32l4xx_hal_can.c ****   {
 342:Drivers/STM32L4xx_HAL_Driver/Src/stm32l4xx_hal_can.c ****     if ((HAL_GetTick() - tickstart) > CAN_TIMEOUT_VALUE)
  78              		.loc 1 342 10
  79 003c FFF7FEFF 		bl	HAL_GetTick
  80 0040 0246     		mov	r2, r0
  81              		.loc 1 342 24
  82 0042 FB68     		ldr	r3, [r7, #12]
  83 0044 D31A     		subs	r3, r2, r3
  84              		.loc 1 342 8
  85 0046 0A2B     		cmp	r3, #10
  86 0048 0BD9     		bls	.L5
 343:Drivers/STM32L4xx_HAL_Driver/Src/stm32l4xx_hal_can.c ****     {
 344:Drivers/STM32L4xx_HAL_Driver/Src/stm32l4xx_hal_can.c ****       /* Update error code */
 345:Drivers/STM32L4xx_HAL_Driver/Src/stm32l4xx_hal_can.c ****       hcan->ErrorCode |= HAL_CAN_ERROR_TIMEOUT;
  87              		.loc 1 345 23
  88 004a 7B68     		ldr	r3, [r7, #4]
  89 004c 5B6A     		ldr	r3, [r3, #36]
  90 004e 43F40032 		orr	r2, r3, #131072
  91 0052 7B68     		ldr	r3, [r7, #4]
  92 0054 5A62     		str	r2, [r3, #36]
 346:Drivers/STM32L4xx_HAL_Driver/Src/stm32l4xx_hal_can.c **** 
 347:Drivers/STM32L4xx_HAL_Driver/Src/stm32l4xx_hal_can.c ****       /* Change CAN state */
 348:Drivers/STM32L4xx_HAL_Driver/Src/stm32l4xx_hal_can.c ****       hcan->State = HAL_CAN_STATE_ERROR;
  93              		.loc 1 348 19
  94 0056 7B68     		ldr	r3, [r7, #4]
  95 0058 0522     		movs	r2, #5
  96 005a 83F82020 		strb	r2, [r3, #32]
 349:Drivers/STM32L4xx_HAL_Driver/Src/stm32l4xx_hal_can.c **** 
 350:Drivers/STM32L4xx_HAL_Driver/Src/stm32l4xx_hal_can.c ****       return HAL_ERROR;
  97              		.loc 1 350 14
  98 005e 0123     		movs	r3, #1
  99 0060 C5E0     		b	.L3
 100              	.L5:
 340:Drivers/STM32L4xx_HAL_Driver/Src/stm32l4xx_hal_can.c ****   {
 101              		.loc 1 340 15
 102 0062 7B68     		ldr	r3, [r7, #4]
 103 0064 1B68     		ldr	r3, [r3]
 340:Drivers/STM32L4xx_HAL_Driver/Src/stm32l4xx_hal_can.c ****   {
 104              		.loc 1 340 25
 105 0066 5B68     		ldr	r3, [r3, #4]
ARM GAS  /tmp/cce3S0ea.s 			page 9


 340:Drivers/STM32L4xx_HAL_Driver/Src/stm32l4xx_hal_can.c ****   {
 106              		.loc 1 340 31
 107 0068 03F00103 		and	r3, r3, #1
 340:Drivers/STM32L4xx_HAL_Driver/Src/stm32l4xx_hal_can.c ****   {
 108              		.loc 1 340 9
 109 006c 002B     		cmp	r3, #0
 110 006e E5D0     		beq	.L6
 351:Drivers/STM32L4xx_HAL_Driver/Src/stm32l4xx_hal_can.c ****     }
 352:Drivers/STM32L4xx_HAL_Driver/Src/stm32l4xx_hal_can.c ****   }
 353:Drivers/STM32L4xx_HAL_Driver/Src/stm32l4xx_hal_can.c **** 
 354:Drivers/STM32L4xx_HAL_Driver/Src/stm32l4xx_hal_can.c ****   /* Exit from sleep mode */
 355:Drivers/STM32L4xx_HAL_Driver/Src/stm32l4xx_hal_can.c ****   CLEAR_BIT(hcan->Instance->MCR, CAN_MCR_SLEEP);
 111              		.loc 1 355 3
 112 0070 7B68     		ldr	r3, [r7, #4]
 113 0072 1B68     		ldr	r3, [r3]
 114 0074 1A68     		ldr	r2, [r3]
 115 0076 7B68     		ldr	r3, [r7, #4]
 116 0078 1B68     		ldr	r3, [r3]
 117 007a 22F00202 		bic	r2, r2, #2
 118 007e 1A60     		str	r2, [r3]
 356:Drivers/STM32L4xx_HAL_Driver/Src/stm32l4xx_hal_can.c **** 
 357:Drivers/STM32L4xx_HAL_Driver/Src/stm32l4xx_hal_can.c ****   /* Get tick */
 358:Drivers/STM32L4xx_HAL_Driver/Src/stm32l4xx_hal_can.c ****   tickstart = HAL_GetTick();
 119              		.loc 1 358 15
 120 0080 FFF7FEFF 		bl	HAL_GetTick
 121 0084 F860     		str	r0, [r7, #12]
 359:Drivers/STM32L4xx_HAL_Driver/Src/stm32l4xx_hal_can.c **** 
 360:Drivers/STM32L4xx_HAL_Driver/Src/stm32l4xx_hal_can.c ****   /* Check Sleep mode leave acknowledge */
 361:Drivers/STM32L4xx_HAL_Driver/Src/stm32l4xx_hal_can.c ****   while ((hcan->Instance->MSR & CAN_MSR_SLAK) != 0U)
 122              		.loc 1 361 9
 123 0086 12E0     		b	.L7
 124              	.L8:
 362:Drivers/STM32L4xx_HAL_Driver/Src/stm32l4xx_hal_can.c ****   {
 363:Drivers/STM32L4xx_HAL_Driver/Src/stm32l4xx_hal_can.c ****     if ((HAL_GetTick() - tickstart) > CAN_TIMEOUT_VALUE)
 125              		.loc 1 363 10
 126 0088 FFF7FEFF 		bl	HAL_GetTick
 127 008c 0246     		mov	r2, r0
 128              		.loc 1 363 24
 129 008e FB68     		ldr	r3, [r7, #12]
 130 0090 D31A     		subs	r3, r2, r3
 131              		.loc 1 363 8
 132 0092 0A2B     		cmp	r3, #10
 133 0094 0BD9     		bls	.L7
 364:Drivers/STM32L4xx_HAL_Driver/Src/stm32l4xx_hal_can.c ****     {
 365:Drivers/STM32L4xx_HAL_Driver/Src/stm32l4xx_hal_can.c ****       /* Update error code */
 366:Drivers/STM32L4xx_HAL_Driver/Src/stm32l4xx_hal_can.c ****       hcan->ErrorCode |= HAL_CAN_ERROR_TIMEOUT;
 134              		.loc 1 366 23
 135 0096 7B68     		ldr	r3, [r7, #4]
 136 0098 5B6A     		ldr	r3, [r3, #36]
 137 009a 43F40032 		orr	r2, r3, #131072
 138 009e 7B68     		ldr	r3, [r7, #4]
 139 00a0 5A62     		str	r2, [r3, #36]
 367:Drivers/STM32L4xx_HAL_Driver/Src/stm32l4xx_hal_can.c **** 
 368:Drivers/STM32L4xx_HAL_Driver/Src/stm32l4xx_hal_can.c ****       /* Change CAN state */
 369:Drivers/STM32L4xx_HAL_Driver/Src/stm32l4xx_hal_can.c ****       hcan->State = HAL_CAN_STATE_ERROR;
 140              		.loc 1 369 19
 141 00a2 7B68     		ldr	r3, [r7, #4]
ARM GAS  /tmp/cce3S0ea.s 			page 10


 142 00a4 0522     		movs	r2, #5
 143 00a6 83F82020 		strb	r2, [r3, #32]
 370:Drivers/STM32L4xx_HAL_Driver/Src/stm32l4xx_hal_can.c **** 
 371:Drivers/STM32L4xx_HAL_Driver/Src/stm32l4xx_hal_can.c ****       return HAL_ERROR;
 144              		.loc 1 371 14
 145 00aa 0123     		movs	r3, #1
 146 00ac 9FE0     		b	.L3
 147              	.L7:
 361:Drivers/STM32L4xx_HAL_Driver/Src/stm32l4xx_hal_can.c ****   {
 148              		.loc 1 361 15
 149 00ae 7B68     		ldr	r3, [r7, #4]
 150 00b0 1B68     		ldr	r3, [r3]
 361:Drivers/STM32L4xx_HAL_Driver/Src/stm32l4xx_hal_can.c ****   {
 151              		.loc 1 361 25
 152 00b2 5B68     		ldr	r3, [r3, #4]
 361:Drivers/STM32L4xx_HAL_Driver/Src/stm32l4xx_hal_can.c ****   {
 153              		.loc 1 361 31
 154 00b4 03F00203 		and	r3, r3, #2
 361:Drivers/STM32L4xx_HAL_Driver/Src/stm32l4xx_hal_can.c ****   {
 155              		.loc 1 361 9
 156 00b8 002B     		cmp	r3, #0
 157 00ba E5D1     		bne	.L8
 372:Drivers/STM32L4xx_HAL_Driver/Src/stm32l4xx_hal_can.c ****     }
 373:Drivers/STM32L4xx_HAL_Driver/Src/stm32l4xx_hal_can.c ****   }
 374:Drivers/STM32L4xx_HAL_Driver/Src/stm32l4xx_hal_can.c **** 
 375:Drivers/STM32L4xx_HAL_Driver/Src/stm32l4xx_hal_can.c ****   /* Set the time triggered communication mode */
 376:Drivers/STM32L4xx_HAL_Driver/Src/stm32l4xx_hal_can.c ****   if (hcan->Init.TimeTriggeredMode == ENABLE)
 158              		.loc 1 376 17
 159 00bc 7B68     		ldr	r3, [r7, #4]
 160 00be 1B7E     		ldrb	r3, [r3, #24]	@ zero_extendqisi2
 161              		.loc 1 376 6
 162 00c0 012B     		cmp	r3, #1
 163 00c2 08D1     		bne	.L9
 377:Drivers/STM32L4xx_HAL_Driver/Src/stm32l4xx_hal_can.c ****   {
 378:Drivers/STM32L4xx_HAL_Driver/Src/stm32l4xx_hal_can.c ****     SET_BIT(hcan->Instance->MCR, CAN_MCR_TTCM);
 164              		.loc 1 378 5
 165 00c4 7B68     		ldr	r3, [r7, #4]
 166 00c6 1B68     		ldr	r3, [r3]
 167 00c8 1A68     		ldr	r2, [r3]
 168 00ca 7B68     		ldr	r3, [r7, #4]
 169 00cc 1B68     		ldr	r3, [r3]
 170 00ce 42F08002 		orr	r2, r2, #128
 171 00d2 1A60     		str	r2, [r3]
 172 00d4 07E0     		b	.L10
 173              	.L9:
 379:Drivers/STM32L4xx_HAL_Driver/Src/stm32l4xx_hal_can.c ****   }
 380:Drivers/STM32L4xx_HAL_Driver/Src/stm32l4xx_hal_can.c ****   else
 381:Drivers/STM32L4xx_HAL_Driver/Src/stm32l4xx_hal_can.c ****   {
 382:Drivers/STM32L4xx_HAL_Driver/Src/stm32l4xx_hal_can.c ****     CLEAR_BIT(hcan->Instance->MCR, CAN_MCR_TTCM);
 174              		.loc 1 382 5
 175 00d6 7B68     		ldr	r3, [r7, #4]
 176 00d8 1B68     		ldr	r3, [r3]
 177 00da 1A68     		ldr	r2, [r3]
 178 00dc 7B68     		ldr	r3, [r7, #4]
 179 00de 1B68     		ldr	r3, [r3]
 180 00e0 22F08002 		bic	r2, r2, #128
 181 00e4 1A60     		str	r2, [r3]
ARM GAS  /tmp/cce3S0ea.s 			page 11


 182              	.L10:
 383:Drivers/STM32L4xx_HAL_Driver/Src/stm32l4xx_hal_can.c ****   }
 384:Drivers/STM32L4xx_HAL_Driver/Src/stm32l4xx_hal_can.c **** 
 385:Drivers/STM32L4xx_HAL_Driver/Src/stm32l4xx_hal_can.c ****   /* Set the automatic bus-off management */
 386:Drivers/STM32L4xx_HAL_Driver/Src/stm32l4xx_hal_can.c ****   if (hcan->Init.AutoBusOff == ENABLE)
 183              		.loc 1 386 17
 184 00e6 7B68     		ldr	r3, [r7, #4]
 185 00e8 5B7E     		ldrb	r3, [r3, #25]	@ zero_extendqisi2
 186              		.loc 1 386 6
 187 00ea 012B     		cmp	r3, #1
 188 00ec 08D1     		bne	.L11
 387:Drivers/STM32L4xx_HAL_Driver/Src/stm32l4xx_hal_can.c ****   {
 388:Drivers/STM32L4xx_HAL_Driver/Src/stm32l4xx_hal_can.c ****     SET_BIT(hcan->Instance->MCR, CAN_MCR_ABOM);
 189              		.loc 1 388 5
 190 00ee 7B68     		ldr	r3, [r7, #4]
 191 00f0 1B68     		ldr	r3, [r3]
 192 00f2 1A68     		ldr	r2, [r3]
 193 00f4 7B68     		ldr	r3, [r7, #4]
 194 00f6 1B68     		ldr	r3, [r3]
 195 00f8 42F04002 		orr	r2, r2, #64
 196 00fc 1A60     		str	r2, [r3]
 197 00fe 07E0     		b	.L12
 198              	.L11:
 389:Drivers/STM32L4xx_HAL_Driver/Src/stm32l4xx_hal_can.c ****   }
 390:Drivers/STM32L4xx_HAL_Driver/Src/stm32l4xx_hal_can.c ****   else
 391:Drivers/STM32L4xx_HAL_Driver/Src/stm32l4xx_hal_can.c ****   {
 392:Drivers/STM32L4xx_HAL_Driver/Src/stm32l4xx_hal_can.c ****     CLEAR_BIT(hcan->Instance->MCR, CAN_MCR_ABOM);
 199              		.loc 1 392 5
 200 0100 7B68     		ldr	r3, [r7, #4]
 201 0102 1B68     		ldr	r3, [r3]
 202 0104 1A68     		ldr	r2, [r3]
 203 0106 7B68     		ldr	r3, [r7, #4]
 204 0108 1B68     		ldr	r3, [r3]
 205 010a 22F04002 		bic	r2, r2, #64
 206 010e 1A60     		str	r2, [r3]
 207              	.L12:
 393:Drivers/STM32L4xx_HAL_Driver/Src/stm32l4xx_hal_can.c ****   }
 394:Drivers/STM32L4xx_HAL_Driver/Src/stm32l4xx_hal_can.c **** 
 395:Drivers/STM32L4xx_HAL_Driver/Src/stm32l4xx_hal_can.c ****   /* Set the automatic wake-up mode */
 396:Drivers/STM32L4xx_HAL_Driver/Src/stm32l4xx_hal_can.c ****   if (hcan->Init.AutoWakeUp == ENABLE)
 208              		.loc 1 396 17
 209 0110 7B68     		ldr	r3, [r7, #4]
 210 0112 9B7E     		ldrb	r3, [r3, #26]	@ zero_extendqisi2
 211              		.loc 1 396 6
 212 0114 012B     		cmp	r3, #1
 213 0116 08D1     		bne	.L13
 397:Drivers/STM32L4xx_HAL_Driver/Src/stm32l4xx_hal_can.c ****   {
 398:Drivers/STM32L4xx_HAL_Driver/Src/stm32l4xx_hal_can.c ****     SET_BIT(hcan->Instance->MCR, CAN_MCR_AWUM);
 214              		.loc 1 398 5
 215 0118 7B68     		ldr	r3, [r7, #4]
 216 011a 1B68     		ldr	r3, [r3]
 217 011c 1A68     		ldr	r2, [r3]
 218 011e 7B68     		ldr	r3, [r7, #4]
 219 0120 1B68     		ldr	r3, [r3]
 220 0122 42F02002 		orr	r2, r2, #32
 221 0126 1A60     		str	r2, [r3]
 222 0128 07E0     		b	.L14
ARM GAS  /tmp/cce3S0ea.s 			page 12


 223              	.L13:
 399:Drivers/STM32L4xx_HAL_Driver/Src/stm32l4xx_hal_can.c ****   }
 400:Drivers/STM32L4xx_HAL_Driver/Src/stm32l4xx_hal_can.c ****   else
 401:Drivers/STM32L4xx_HAL_Driver/Src/stm32l4xx_hal_can.c ****   {
 402:Drivers/STM32L4xx_HAL_Driver/Src/stm32l4xx_hal_can.c ****     CLEAR_BIT(hcan->Instance->MCR, CAN_MCR_AWUM);
 224              		.loc 1 402 5
 225 012a 7B68     		ldr	r3, [r7, #4]
 226 012c 1B68     		ldr	r3, [r3]
 227 012e 1A68     		ldr	r2, [r3]
 228 0130 7B68     		ldr	r3, [r7, #4]
 229 0132 1B68     		ldr	r3, [r3]
 230 0134 22F02002 		bic	r2, r2, #32
 231 0138 1A60     		str	r2, [r3]
 232              	.L14:
 403:Drivers/STM32L4xx_HAL_Driver/Src/stm32l4xx_hal_can.c ****   }
 404:Drivers/STM32L4xx_HAL_Driver/Src/stm32l4xx_hal_can.c **** 
 405:Drivers/STM32L4xx_HAL_Driver/Src/stm32l4xx_hal_can.c ****   /* Set the automatic retransmission */
 406:Drivers/STM32L4xx_HAL_Driver/Src/stm32l4xx_hal_can.c ****   if (hcan->Init.AutoRetransmission == ENABLE)
 233              		.loc 1 406 17
 234 013a 7B68     		ldr	r3, [r7, #4]
 235 013c DB7E     		ldrb	r3, [r3, #27]	@ zero_extendqisi2
 236              		.loc 1 406 6
 237 013e 012B     		cmp	r3, #1
 238 0140 08D1     		bne	.L15
 407:Drivers/STM32L4xx_HAL_Driver/Src/stm32l4xx_hal_can.c ****   {
 408:Drivers/STM32L4xx_HAL_Driver/Src/stm32l4xx_hal_can.c ****     CLEAR_BIT(hcan->Instance->MCR, CAN_MCR_NART);
 239              		.loc 1 408 5
 240 0142 7B68     		ldr	r3, [r7, #4]
 241 0144 1B68     		ldr	r3, [r3]
 242 0146 1A68     		ldr	r2, [r3]
 243 0148 7B68     		ldr	r3, [r7, #4]
 244 014a 1B68     		ldr	r3, [r3]
 245 014c 22F01002 		bic	r2, r2, #16
 246 0150 1A60     		str	r2, [r3]
 247 0152 07E0     		b	.L16
 248              	.L15:
 409:Drivers/STM32L4xx_HAL_Driver/Src/stm32l4xx_hal_can.c ****   }
 410:Drivers/STM32L4xx_HAL_Driver/Src/stm32l4xx_hal_can.c ****   else
 411:Drivers/STM32L4xx_HAL_Driver/Src/stm32l4xx_hal_can.c ****   {
 412:Drivers/STM32L4xx_HAL_Driver/Src/stm32l4xx_hal_can.c ****     SET_BIT(hcan->Instance->MCR, CAN_MCR_NART);
 249              		.loc 1 412 5
 250 0154 7B68     		ldr	r3, [r7, #4]
 251 0156 1B68     		ldr	r3, [r3]
 252 0158 1A68     		ldr	r2, [r3]
 253 015a 7B68     		ldr	r3, [r7, #4]
 254 015c 1B68     		ldr	r3, [r3]
 255 015e 42F01002 		orr	r2, r2, #16
 256 0162 1A60     		str	r2, [r3]
 257              	.L16:
 413:Drivers/STM32L4xx_HAL_Driver/Src/stm32l4xx_hal_can.c ****   }
 414:Drivers/STM32L4xx_HAL_Driver/Src/stm32l4xx_hal_can.c **** 
 415:Drivers/STM32L4xx_HAL_Driver/Src/stm32l4xx_hal_can.c ****   /* Set the receive FIFO locked mode */
 416:Drivers/STM32L4xx_HAL_Driver/Src/stm32l4xx_hal_can.c ****   if (hcan->Init.ReceiveFifoLocked == ENABLE)
 258              		.loc 1 416 17
 259 0164 7B68     		ldr	r3, [r7, #4]
 260 0166 1B7F     		ldrb	r3, [r3, #28]	@ zero_extendqisi2
 261              		.loc 1 416 6
ARM GAS  /tmp/cce3S0ea.s 			page 13


 262 0168 012B     		cmp	r3, #1
 263 016a 08D1     		bne	.L17
 417:Drivers/STM32L4xx_HAL_Driver/Src/stm32l4xx_hal_can.c ****   {
 418:Drivers/STM32L4xx_HAL_Driver/Src/stm32l4xx_hal_can.c ****     SET_BIT(hcan->Instance->MCR, CAN_MCR_RFLM);
 264              		.loc 1 418 5
 265 016c 7B68     		ldr	r3, [r7, #4]
 266 016e 1B68     		ldr	r3, [r3]
 267 0170 1A68     		ldr	r2, [r3]
 268 0172 7B68     		ldr	r3, [r7, #4]
 269 0174 1B68     		ldr	r3, [r3]
 270 0176 42F00802 		orr	r2, r2, #8
 271 017a 1A60     		str	r2, [r3]
 272 017c 07E0     		b	.L18
 273              	.L17:
 419:Drivers/STM32L4xx_HAL_Driver/Src/stm32l4xx_hal_can.c ****   }
 420:Drivers/STM32L4xx_HAL_Driver/Src/stm32l4xx_hal_can.c ****   else
 421:Drivers/STM32L4xx_HAL_Driver/Src/stm32l4xx_hal_can.c ****   {
 422:Drivers/STM32L4xx_HAL_Driver/Src/stm32l4xx_hal_can.c ****     CLEAR_BIT(hcan->Instance->MCR, CAN_MCR_RFLM);
 274              		.loc 1 422 5
 275 017e 7B68     		ldr	r3, [r7, #4]
 276 0180 1B68     		ldr	r3, [r3]
 277 0182 1A68     		ldr	r2, [r3]
 278 0184 7B68     		ldr	r3, [r7, #4]
 279 0186 1B68     		ldr	r3, [r3]
 280 0188 22F00802 		bic	r2, r2, #8
 281 018c 1A60     		str	r2, [r3]
 282              	.L18:
 423:Drivers/STM32L4xx_HAL_Driver/Src/stm32l4xx_hal_can.c ****   }
 424:Drivers/STM32L4xx_HAL_Driver/Src/stm32l4xx_hal_can.c **** 
 425:Drivers/STM32L4xx_HAL_Driver/Src/stm32l4xx_hal_can.c ****   /* Set the transmit FIFO priority */
 426:Drivers/STM32L4xx_HAL_Driver/Src/stm32l4xx_hal_can.c ****   if (hcan->Init.TransmitFifoPriority == ENABLE)
 283              		.loc 1 426 17
 284 018e 7B68     		ldr	r3, [r7, #4]
 285 0190 5B7F     		ldrb	r3, [r3, #29]	@ zero_extendqisi2
 286              		.loc 1 426 6
 287 0192 012B     		cmp	r3, #1
 288 0194 08D1     		bne	.L19
 427:Drivers/STM32L4xx_HAL_Driver/Src/stm32l4xx_hal_can.c ****   {
 428:Drivers/STM32L4xx_HAL_Driver/Src/stm32l4xx_hal_can.c ****     SET_BIT(hcan->Instance->MCR, CAN_MCR_TXFP);
 289              		.loc 1 428 5
 290 0196 7B68     		ldr	r3, [r7, #4]
 291 0198 1B68     		ldr	r3, [r3]
 292 019a 1A68     		ldr	r2, [r3]
 293 019c 7B68     		ldr	r3, [r7, #4]
 294 019e 1B68     		ldr	r3, [r3]
 295 01a0 42F00402 		orr	r2, r2, #4
 296 01a4 1A60     		str	r2, [r3]
 297 01a6 07E0     		b	.L20
 298              	.L19:
 429:Drivers/STM32L4xx_HAL_Driver/Src/stm32l4xx_hal_can.c ****   }
 430:Drivers/STM32L4xx_HAL_Driver/Src/stm32l4xx_hal_can.c ****   else
 431:Drivers/STM32L4xx_HAL_Driver/Src/stm32l4xx_hal_can.c ****   {
 432:Drivers/STM32L4xx_HAL_Driver/Src/stm32l4xx_hal_can.c ****     CLEAR_BIT(hcan->Instance->MCR, CAN_MCR_TXFP);
 299              		.loc 1 432 5
 300 01a8 7B68     		ldr	r3, [r7, #4]
 301 01aa 1B68     		ldr	r3, [r3]
 302 01ac 1A68     		ldr	r2, [r3]
ARM GAS  /tmp/cce3S0ea.s 			page 14


 303 01ae 7B68     		ldr	r3, [r7, #4]
 304 01b0 1B68     		ldr	r3, [r3]
 305 01b2 22F00402 		bic	r2, r2, #4
 306 01b6 1A60     		str	r2, [r3]
 307              	.L20:
 433:Drivers/STM32L4xx_HAL_Driver/Src/stm32l4xx_hal_can.c ****   }
 434:Drivers/STM32L4xx_HAL_Driver/Src/stm32l4xx_hal_can.c **** 
 435:Drivers/STM32L4xx_HAL_Driver/Src/stm32l4xx_hal_can.c ****   /* Set the bit timing register */
 436:Drivers/STM32L4xx_HAL_Driver/Src/stm32l4xx_hal_can.c ****   WRITE_REG(hcan->Instance->BTR, (uint32_t)(hcan->Init.Mode           |
 308              		.loc 1 436 3
 309 01b8 7B68     		ldr	r3, [r7, #4]
 310 01ba 9A68     		ldr	r2, [r3, #8]
 311 01bc 7B68     		ldr	r3, [r7, #4]
 312 01be DB68     		ldr	r3, [r3, #12]
 313 01c0 1A43     		orrs	r2, r2, r3
 314 01c2 7B68     		ldr	r3, [r7, #4]
 315 01c4 1B69     		ldr	r3, [r3, #16]
 316 01c6 1A43     		orrs	r2, r2, r3
 317 01c8 7B68     		ldr	r3, [r7, #4]
 318 01ca 5B69     		ldr	r3, [r3, #20]
 319 01cc 42EA0301 		orr	r1, r2, r3
 320 01d0 7B68     		ldr	r3, [r7, #4]
 321 01d2 5B68     		ldr	r3, [r3, #4]
 322 01d4 5A1E     		subs	r2, r3, #1
 323 01d6 7B68     		ldr	r3, [r7, #4]
 324 01d8 1B68     		ldr	r3, [r3]
 325 01da 0A43     		orrs	r2, r2, r1
 326 01dc DA61     		str	r2, [r3, #28]
 437:Drivers/STM32L4xx_HAL_Driver/Src/stm32l4xx_hal_can.c ****                                             hcan->Init.SyncJumpWidth  |
 438:Drivers/STM32L4xx_HAL_Driver/Src/stm32l4xx_hal_can.c ****                                             hcan->Init.TimeSeg1       |
 439:Drivers/STM32L4xx_HAL_Driver/Src/stm32l4xx_hal_can.c ****                                             hcan->Init.TimeSeg2       |
 440:Drivers/STM32L4xx_HAL_Driver/Src/stm32l4xx_hal_can.c ****                                             (hcan->Init.Prescaler - 1U)));
 441:Drivers/STM32L4xx_HAL_Driver/Src/stm32l4xx_hal_can.c **** 
 442:Drivers/STM32L4xx_HAL_Driver/Src/stm32l4xx_hal_can.c ****   /* Initialize the error code */
 443:Drivers/STM32L4xx_HAL_Driver/Src/stm32l4xx_hal_can.c ****   hcan->ErrorCode = HAL_CAN_ERROR_NONE;
 327              		.loc 1 443 19
 328 01de 7B68     		ldr	r3, [r7, #4]
 329 01e0 0022     		movs	r2, #0
 330 01e2 5A62     		str	r2, [r3, #36]
 444:Drivers/STM32L4xx_HAL_Driver/Src/stm32l4xx_hal_can.c **** 
 445:Drivers/STM32L4xx_HAL_Driver/Src/stm32l4xx_hal_can.c ****   /* Initialize the CAN state */
 446:Drivers/STM32L4xx_HAL_Driver/Src/stm32l4xx_hal_can.c ****   hcan->State = HAL_CAN_STATE_READY;
 331              		.loc 1 446 15
 332 01e4 7B68     		ldr	r3, [r7, #4]
 333 01e6 0122     		movs	r2, #1
 334 01e8 83F82020 		strb	r2, [r3, #32]
 447:Drivers/STM32L4xx_HAL_Driver/Src/stm32l4xx_hal_can.c **** 
 448:Drivers/STM32L4xx_HAL_Driver/Src/stm32l4xx_hal_can.c ****   /* Return function status */
 449:Drivers/STM32L4xx_HAL_Driver/Src/stm32l4xx_hal_can.c ****   return HAL_OK;
 335              		.loc 1 449 10
 336 01ec 0023     		movs	r3, #0
 337              	.L3:
 450:Drivers/STM32L4xx_HAL_Driver/Src/stm32l4xx_hal_can.c **** }
 338              		.loc 1 450 1
 339 01ee 1846     		mov	r0, r3
 340 01f0 1037     		adds	r7, r7, #16
 341              	.LCFI3:
ARM GAS  /tmp/cce3S0ea.s 			page 15


 342              		.cfi_def_cfa_offset 8
 343 01f2 BD46     		mov	sp, r7
 344              	.LCFI4:
 345              		.cfi_def_cfa_register 13
 346              		@ sp needed
 347 01f4 80BD     		pop	{r7, pc}
 348              		.cfi_endproc
 349              	.LFE132:
 351              		.section	.text.HAL_CAN_DeInit,"ax",%progbits
 352              		.align	1
 353              		.global	HAL_CAN_DeInit
 354              		.syntax unified
 355              		.thumb
 356              		.thumb_func
 358              	HAL_CAN_DeInit:
 359              	.LFB133:
 451:Drivers/STM32L4xx_HAL_Driver/Src/stm32l4xx_hal_can.c **** 
 452:Drivers/STM32L4xx_HAL_Driver/Src/stm32l4xx_hal_can.c **** /**
 453:Drivers/STM32L4xx_HAL_Driver/Src/stm32l4xx_hal_can.c ****   * @brief  Deinitializes the CAN peripheral registers to their default
 454:Drivers/STM32L4xx_HAL_Driver/Src/stm32l4xx_hal_can.c ****   *         reset values.
 455:Drivers/STM32L4xx_HAL_Driver/Src/stm32l4xx_hal_can.c ****   * @param  hcan pointer to a CAN_HandleTypeDef structure that contains
 456:Drivers/STM32L4xx_HAL_Driver/Src/stm32l4xx_hal_can.c ****   *         the configuration information for the specified CAN.
 457:Drivers/STM32L4xx_HAL_Driver/Src/stm32l4xx_hal_can.c ****   * @retval HAL status
 458:Drivers/STM32L4xx_HAL_Driver/Src/stm32l4xx_hal_can.c ****   */
 459:Drivers/STM32L4xx_HAL_Driver/Src/stm32l4xx_hal_can.c **** HAL_StatusTypeDef HAL_CAN_DeInit(CAN_HandleTypeDef *hcan)
 460:Drivers/STM32L4xx_HAL_Driver/Src/stm32l4xx_hal_can.c **** {
 360              		.loc 1 460 1
 361              		.cfi_startproc
 362              		@ args = 0, pretend = 0, frame = 8
 363              		@ frame_needed = 1, uses_anonymous_args = 0
 364 0000 80B5     		push	{r7, lr}
 365              	.LCFI5:
 366              		.cfi_def_cfa_offset 8
 367              		.cfi_offset 7, -8
 368              		.cfi_offset 14, -4
 369 0002 82B0     		sub	sp, sp, #8
 370              	.LCFI6:
 371              		.cfi_def_cfa_offset 16
 372 0004 00AF     		add	r7, sp, #0
 373              	.LCFI7:
 374              		.cfi_def_cfa_register 7
 375 0006 7860     		str	r0, [r7, #4]
 461:Drivers/STM32L4xx_HAL_Driver/Src/stm32l4xx_hal_can.c ****   /* Check CAN handle */
 462:Drivers/STM32L4xx_HAL_Driver/Src/stm32l4xx_hal_can.c ****   if (hcan == NULL)
 376              		.loc 1 462 6
 377 0008 7B68     		ldr	r3, [r7, #4]
 378 000a 002B     		cmp	r3, #0
 379 000c 01D1     		bne	.L22
 463:Drivers/STM32L4xx_HAL_Driver/Src/stm32l4xx_hal_can.c ****   {
 464:Drivers/STM32L4xx_HAL_Driver/Src/stm32l4xx_hal_can.c ****     return HAL_ERROR;
 380              		.loc 1 464 12
 381 000e 0123     		movs	r3, #1
 382 0010 15E0     		b	.L23
 383              	.L22:
 465:Drivers/STM32L4xx_HAL_Driver/Src/stm32l4xx_hal_can.c ****   }
 466:Drivers/STM32L4xx_HAL_Driver/Src/stm32l4xx_hal_can.c **** 
 467:Drivers/STM32L4xx_HAL_Driver/Src/stm32l4xx_hal_can.c ****   /* Check the parameters */
ARM GAS  /tmp/cce3S0ea.s 			page 16


 468:Drivers/STM32L4xx_HAL_Driver/Src/stm32l4xx_hal_can.c ****   assert_param(IS_CAN_ALL_INSTANCE(hcan->Instance));
 469:Drivers/STM32L4xx_HAL_Driver/Src/stm32l4xx_hal_can.c **** 
 470:Drivers/STM32L4xx_HAL_Driver/Src/stm32l4xx_hal_can.c ****   /* Stop the CAN module */
 471:Drivers/STM32L4xx_HAL_Driver/Src/stm32l4xx_hal_can.c ****   (void)HAL_CAN_Stop(hcan);
 384              		.loc 1 471 9
 385 0012 7868     		ldr	r0, [r7, #4]
 386 0014 FFF7FEFF 		bl	HAL_CAN_Stop
 472:Drivers/STM32L4xx_HAL_Driver/Src/stm32l4xx_hal_can.c **** 
 473:Drivers/STM32L4xx_HAL_Driver/Src/stm32l4xx_hal_can.c **** #if USE_HAL_CAN_REGISTER_CALLBACKS == 1
 474:Drivers/STM32L4xx_HAL_Driver/Src/stm32l4xx_hal_can.c ****   if (hcan->MspDeInitCallback == NULL)
 475:Drivers/STM32L4xx_HAL_Driver/Src/stm32l4xx_hal_can.c ****   {
 476:Drivers/STM32L4xx_HAL_Driver/Src/stm32l4xx_hal_can.c ****     hcan->MspDeInitCallback = HAL_CAN_MspDeInit; /* Legacy weak MspDeInit */
 477:Drivers/STM32L4xx_HAL_Driver/Src/stm32l4xx_hal_can.c ****   }
 478:Drivers/STM32L4xx_HAL_Driver/Src/stm32l4xx_hal_can.c **** 
 479:Drivers/STM32L4xx_HAL_Driver/Src/stm32l4xx_hal_can.c ****   /* DeInit the low level hardware: CLOCK, NVIC */
 480:Drivers/STM32L4xx_HAL_Driver/Src/stm32l4xx_hal_can.c ****   hcan->MspDeInitCallback(hcan);
 481:Drivers/STM32L4xx_HAL_Driver/Src/stm32l4xx_hal_can.c **** 
 482:Drivers/STM32L4xx_HAL_Driver/Src/stm32l4xx_hal_can.c **** #else
 483:Drivers/STM32L4xx_HAL_Driver/Src/stm32l4xx_hal_can.c ****   /* DeInit the low level hardware: CLOCK, NVIC */
 484:Drivers/STM32L4xx_HAL_Driver/Src/stm32l4xx_hal_can.c ****   HAL_CAN_MspDeInit(hcan);
 387              		.loc 1 484 3
 388 0018 7868     		ldr	r0, [r7, #4]
 389 001a FFF7FEFF 		bl	HAL_CAN_MspDeInit
 485:Drivers/STM32L4xx_HAL_Driver/Src/stm32l4xx_hal_can.c **** #endif /* (USE_HAL_CAN_REGISTER_CALLBACKS) */
 486:Drivers/STM32L4xx_HAL_Driver/Src/stm32l4xx_hal_can.c **** 
 487:Drivers/STM32L4xx_HAL_Driver/Src/stm32l4xx_hal_can.c ****   /* Reset the CAN peripheral */
 488:Drivers/STM32L4xx_HAL_Driver/Src/stm32l4xx_hal_can.c ****   SET_BIT(hcan->Instance->MCR, CAN_MCR_RESET);
 390              		.loc 1 488 3
 391 001e 7B68     		ldr	r3, [r7, #4]
 392 0020 1B68     		ldr	r3, [r3]
 393 0022 1A68     		ldr	r2, [r3]
 394 0024 7B68     		ldr	r3, [r7, #4]
 395 0026 1B68     		ldr	r3, [r3]
 396 0028 42F40042 		orr	r2, r2, #32768
 397 002c 1A60     		str	r2, [r3]
 489:Drivers/STM32L4xx_HAL_Driver/Src/stm32l4xx_hal_can.c **** 
 490:Drivers/STM32L4xx_HAL_Driver/Src/stm32l4xx_hal_can.c ****   /* Reset the CAN ErrorCode */
 491:Drivers/STM32L4xx_HAL_Driver/Src/stm32l4xx_hal_can.c ****   hcan->ErrorCode = HAL_CAN_ERROR_NONE;
 398              		.loc 1 491 19
 399 002e 7B68     		ldr	r3, [r7, #4]
 400 0030 0022     		movs	r2, #0
 401 0032 5A62     		str	r2, [r3, #36]
 492:Drivers/STM32L4xx_HAL_Driver/Src/stm32l4xx_hal_can.c **** 
 493:Drivers/STM32L4xx_HAL_Driver/Src/stm32l4xx_hal_can.c ****   /* Change CAN state */
 494:Drivers/STM32L4xx_HAL_Driver/Src/stm32l4xx_hal_can.c ****   hcan->State = HAL_CAN_STATE_RESET;
 402              		.loc 1 494 15
 403 0034 7B68     		ldr	r3, [r7, #4]
 404 0036 0022     		movs	r2, #0
 405 0038 83F82020 		strb	r2, [r3, #32]
 495:Drivers/STM32L4xx_HAL_Driver/Src/stm32l4xx_hal_can.c **** 
 496:Drivers/STM32L4xx_HAL_Driver/Src/stm32l4xx_hal_can.c ****   /* Return function status */
 497:Drivers/STM32L4xx_HAL_Driver/Src/stm32l4xx_hal_can.c ****   return HAL_OK;
 406              		.loc 1 497 10
 407 003c 0023     		movs	r3, #0
 408              	.L23:
 498:Drivers/STM32L4xx_HAL_Driver/Src/stm32l4xx_hal_can.c **** }
 409              		.loc 1 498 1
ARM GAS  /tmp/cce3S0ea.s 			page 17


 410 003e 1846     		mov	r0, r3
 411 0040 0837     		adds	r7, r7, #8
 412              	.LCFI8:
 413              		.cfi_def_cfa_offset 8
 414 0042 BD46     		mov	sp, r7
 415              	.LCFI9:
 416              		.cfi_def_cfa_register 13
 417              		@ sp needed
 418 0044 80BD     		pop	{r7, pc}
 419              		.cfi_endproc
 420              	.LFE133:
 422              		.section	.text.HAL_CAN_MspInit,"ax",%progbits
 423              		.align	1
 424              		.weak	HAL_CAN_MspInit
 425              		.syntax unified
 426              		.thumb
 427              		.thumb_func
 429              	HAL_CAN_MspInit:
 430              	.LFB134:
 499:Drivers/STM32L4xx_HAL_Driver/Src/stm32l4xx_hal_can.c **** 
 500:Drivers/STM32L4xx_HAL_Driver/Src/stm32l4xx_hal_can.c **** /**
 501:Drivers/STM32L4xx_HAL_Driver/Src/stm32l4xx_hal_can.c ****   * @brief  Initializes the CAN MSP.
 502:Drivers/STM32L4xx_HAL_Driver/Src/stm32l4xx_hal_can.c ****   * @param  hcan pointer to a CAN_HandleTypeDef structure that contains
 503:Drivers/STM32L4xx_HAL_Driver/Src/stm32l4xx_hal_can.c ****   *         the configuration information for the specified CAN.
 504:Drivers/STM32L4xx_HAL_Driver/Src/stm32l4xx_hal_can.c ****   * @retval None
 505:Drivers/STM32L4xx_HAL_Driver/Src/stm32l4xx_hal_can.c ****   */
 506:Drivers/STM32L4xx_HAL_Driver/Src/stm32l4xx_hal_can.c **** __weak void HAL_CAN_MspInit(CAN_HandleTypeDef *hcan)
 507:Drivers/STM32L4xx_HAL_Driver/Src/stm32l4xx_hal_can.c **** {
 431              		.loc 1 507 1
 432              		.cfi_startproc
 433              		@ args = 0, pretend = 0, frame = 8
 434              		@ frame_needed = 1, uses_anonymous_args = 0
 435              		@ link register save eliminated.
 436 0000 80B4     		push	{r7}
 437              	.LCFI10:
 438              		.cfi_def_cfa_offset 4
 439              		.cfi_offset 7, -4
 440 0002 83B0     		sub	sp, sp, #12
 441              	.LCFI11:
 442              		.cfi_def_cfa_offset 16
 443 0004 00AF     		add	r7, sp, #0
 444              	.LCFI12:
 445              		.cfi_def_cfa_register 7
 446 0006 7860     		str	r0, [r7, #4]
 508:Drivers/STM32L4xx_HAL_Driver/Src/stm32l4xx_hal_can.c ****   /* Prevent unused argument(s) compilation warning */
 509:Drivers/STM32L4xx_HAL_Driver/Src/stm32l4xx_hal_can.c ****   UNUSED(hcan);
 510:Drivers/STM32L4xx_HAL_Driver/Src/stm32l4xx_hal_can.c **** 
 511:Drivers/STM32L4xx_HAL_Driver/Src/stm32l4xx_hal_can.c ****   /* NOTE : This function Should not be modified, when the callback is needed,
 512:Drivers/STM32L4xx_HAL_Driver/Src/stm32l4xx_hal_can.c ****             the HAL_CAN_MspInit could be implemented in the user file
 513:Drivers/STM32L4xx_HAL_Driver/Src/stm32l4xx_hal_can.c ****    */
 514:Drivers/STM32L4xx_HAL_Driver/Src/stm32l4xx_hal_can.c **** }
 447              		.loc 1 514 1
 448 0008 00BF     		nop
 449 000a 0C37     		adds	r7, r7, #12
 450              	.LCFI13:
 451              		.cfi_def_cfa_offset 4
 452 000c BD46     		mov	sp, r7
ARM GAS  /tmp/cce3S0ea.s 			page 18


 453              	.LCFI14:
 454              		.cfi_def_cfa_register 13
 455              		@ sp needed
 456 000e 5DF8047B 		ldr	r7, [sp], #4
 457              	.LCFI15:
 458              		.cfi_restore 7
 459              		.cfi_def_cfa_offset 0
 460 0012 7047     		bx	lr
 461              		.cfi_endproc
 462              	.LFE134:
 464              		.section	.text.HAL_CAN_MspDeInit,"ax",%progbits
 465              		.align	1
 466              		.weak	HAL_CAN_MspDeInit
 467              		.syntax unified
 468              		.thumb
 469              		.thumb_func
 471              	HAL_CAN_MspDeInit:
 472              	.LFB135:
 515:Drivers/STM32L4xx_HAL_Driver/Src/stm32l4xx_hal_can.c **** 
 516:Drivers/STM32L4xx_HAL_Driver/Src/stm32l4xx_hal_can.c **** /**
 517:Drivers/STM32L4xx_HAL_Driver/Src/stm32l4xx_hal_can.c ****   * @brief  DeInitializes the CAN MSP.
 518:Drivers/STM32L4xx_HAL_Driver/Src/stm32l4xx_hal_can.c ****   * @param  hcan pointer to a CAN_HandleTypeDef structure that contains
 519:Drivers/STM32L4xx_HAL_Driver/Src/stm32l4xx_hal_can.c ****   *         the configuration information for the specified CAN.
 520:Drivers/STM32L4xx_HAL_Driver/Src/stm32l4xx_hal_can.c ****   * @retval None
 521:Drivers/STM32L4xx_HAL_Driver/Src/stm32l4xx_hal_can.c ****   */
 522:Drivers/STM32L4xx_HAL_Driver/Src/stm32l4xx_hal_can.c **** __weak void HAL_CAN_MspDeInit(CAN_HandleTypeDef *hcan)
 523:Drivers/STM32L4xx_HAL_Driver/Src/stm32l4xx_hal_can.c **** {
 473              		.loc 1 523 1
 474              		.cfi_startproc
 475              		@ args = 0, pretend = 0, frame = 8
 476              		@ frame_needed = 1, uses_anonymous_args = 0
 477              		@ link register save eliminated.
 478 0000 80B4     		push	{r7}
 479              	.LCFI16:
 480              		.cfi_def_cfa_offset 4
 481              		.cfi_offset 7, -4
 482 0002 83B0     		sub	sp, sp, #12
 483              	.LCFI17:
 484              		.cfi_def_cfa_offset 16
 485 0004 00AF     		add	r7, sp, #0
 486              	.LCFI18:
 487              		.cfi_def_cfa_register 7
 488 0006 7860     		str	r0, [r7, #4]
 524:Drivers/STM32L4xx_HAL_Driver/Src/stm32l4xx_hal_can.c ****   /* Prevent unused argument(s) compilation warning */
 525:Drivers/STM32L4xx_HAL_Driver/Src/stm32l4xx_hal_can.c ****   UNUSED(hcan);
 526:Drivers/STM32L4xx_HAL_Driver/Src/stm32l4xx_hal_can.c **** 
 527:Drivers/STM32L4xx_HAL_Driver/Src/stm32l4xx_hal_can.c ****   /* NOTE : This function Should not be modified, when the callback is needed,
 528:Drivers/STM32L4xx_HAL_Driver/Src/stm32l4xx_hal_can.c ****             the HAL_CAN_MspDeInit could be implemented in the user file
 529:Drivers/STM32L4xx_HAL_Driver/Src/stm32l4xx_hal_can.c ****    */
 530:Drivers/STM32L4xx_HAL_Driver/Src/stm32l4xx_hal_can.c **** }
 489              		.loc 1 530 1
 490 0008 00BF     		nop
 491 000a 0C37     		adds	r7, r7, #12
 492              	.LCFI19:
 493              		.cfi_def_cfa_offset 4
 494 000c BD46     		mov	sp, r7
 495              	.LCFI20:
ARM GAS  /tmp/cce3S0ea.s 			page 19


 496              		.cfi_def_cfa_register 13
 497              		@ sp needed
 498 000e 5DF8047B 		ldr	r7, [sp], #4
 499              	.LCFI21:
 500              		.cfi_restore 7
 501              		.cfi_def_cfa_offset 0
 502 0012 7047     		bx	lr
 503              		.cfi_endproc
 504              	.LFE135:
 506              		.section	.text.HAL_CAN_ConfigFilter,"ax",%progbits
 507              		.align	1
 508              		.global	HAL_CAN_ConfigFilter
 509              		.syntax unified
 510              		.thumb
 511              		.thumb_func
 513              	HAL_CAN_ConfigFilter:
 514              	.LFB136:
 531:Drivers/STM32L4xx_HAL_Driver/Src/stm32l4xx_hal_can.c **** 
 532:Drivers/STM32L4xx_HAL_Driver/Src/stm32l4xx_hal_can.c **** #if USE_HAL_CAN_REGISTER_CALLBACKS == 1
 533:Drivers/STM32L4xx_HAL_Driver/Src/stm32l4xx_hal_can.c **** /**
 534:Drivers/STM32L4xx_HAL_Driver/Src/stm32l4xx_hal_can.c ****   * @brief  Register a CAN CallBack.
 535:Drivers/STM32L4xx_HAL_Driver/Src/stm32l4xx_hal_can.c ****   *         To be used instead of the weak predefined callback
 536:Drivers/STM32L4xx_HAL_Driver/Src/stm32l4xx_hal_can.c ****   * @param  hcan pointer to a CAN_HandleTypeDef structure that contains
 537:Drivers/STM32L4xx_HAL_Driver/Src/stm32l4xx_hal_can.c ****   *         the configuration information for CAN module
 538:Drivers/STM32L4xx_HAL_Driver/Src/stm32l4xx_hal_can.c ****   * @param  CallbackID ID of the callback to be registered
 539:Drivers/STM32L4xx_HAL_Driver/Src/stm32l4xx_hal_can.c ****   *         This parameter can be one of the following values:
 540:Drivers/STM32L4xx_HAL_Driver/Src/stm32l4xx_hal_can.c ****   *           @arg @ref HAL_CAN_TX_MAILBOX0_COMPLETE_CB_ID Tx Mailbox 0 Complete callback ID
 541:Drivers/STM32L4xx_HAL_Driver/Src/stm32l4xx_hal_can.c ****   *           @arg @ref HAL_CAN_TX_MAILBOX1_COMPLETE_CB_ID Tx Mailbox 1 Complete callback ID
 542:Drivers/STM32L4xx_HAL_Driver/Src/stm32l4xx_hal_can.c ****   *           @arg @ref HAL_CAN_TX_MAILBOX2_COMPLETE_CB_ID Tx Mailbox 2 Complete callback ID
 543:Drivers/STM32L4xx_HAL_Driver/Src/stm32l4xx_hal_can.c ****   *           @arg @ref HAL_CAN_TX_MAILBOX0_ABORT_CB_ID Tx Mailbox 0 Abort callback ID
 544:Drivers/STM32L4xx_HAL_Driver/Src/stm32l4xx_hal_can.c ****   *           @arg @ref HAL_CAN_TX_MAILBOX1_ABORT_CB_ID Tx Mailbox 1 Abort callback ID
 545:Drivers/STM32L4xx_HAL_Driver/Src/stm32l4xx_hal_can.c ****   *           @arg @ref HAL_CAN_TX_MAILBOX2_ABORT_CB_ID Tx Mailbox 2 Abort callback ID
 546:Drivers/STM32L4xx_HAL_Driver/Src/stm32l4xx_hal_can.c ****   *           @arg @ref HAL_CAN_RX_FIFO0_MSG_PENDING_CB_ID Rx Fifo 0 message pending callback ID
 547:Drivers/STM32L4xx_HAL_Driver/Src/stm32l4xx_hal_can.c ****   *           @arg @ref HAL_CAN_RX_FIFO0_FULL_CB_ID Rx Fifo 0 full callback ID
 548:Drivers/STM32L4xx_HAL_Driver/Src/stm32l4xx_hal_can.c ****   *           @arg @ref HAL_CAN_RX_FIFO1_MSG_PENDING_CB_ID Rx Fifo 1 message pending callback ID
 549:Drivers/STM32L4xx_HAL_Driver/Src/stm32l4xx_hal_can.c ****   *           @arg @ref HAL_CAN_RX_FIFO1_FULL_CB_ID Rx Fifo 1 full callback ID
 550:Drivers/STM32L4xx_HAL_Driver/Src/stm32l4xx_hal_can.c ****   *           @arg @ref HAL_CAN_SLEEP_CB_ID Sleep callback ID
 551:Drivers/STM32L4xx_HAL_Driver/Src/stm32l4xx_hal_can.c ****   *           @arg @ref HAL_CAN_WAKEUP_FROM_RX_MSG_CB_ID Wake Up from Rx message callback ID
 552:Drivers/STM32L4xx_HAL_Driver/Src/stm32l4xx_hal_can.c ****   *           @arg @ref HAL_CAN_ERROR_CB_ID Error callback ID
 553:Drivers/STM32L4xx_HAL_Driver/Src/stm32l4xx_hal_can.c ****   *           @arg @ref HAL_CAN_MSPINIT_CB_ID MspInit callback ID
 554:Drivers/STM32L4xx_HAL_Driver/Src/stm32l4xx_hal_can.c ****   *           @arg @ref HAL_CAN_MSPDEINIT_CB_ID MspDeInit callback ID
 555:Drivers/STM32L4xx_HAL_Driver/Src/stm32l4xx_hal_can.c ****   * @param  pCallback pointer to the Callback function
 556:Drivers/STM32L4xx_HAL_Driver/Src/stm32l4xx_hal_can.c ****   * @retval HAL status
 557:Drivers/STM32L4xx_HAL_Driver/Src/stm32l4xx_hal_can.c ****   */
 558:Drivers/STM32L4xx_HAL_Driver/Src/stm32l4xx_hal_can.c **** HAL_StatusTypeDef HAL_CAN_RegisterCallback(CAN_HandleTypeDef *hcan, HAL_CAN_CallbackIDTypeDef Callb
 559:Drivers/STM32L4xx_HAL_Driver/Src/stm32l4xx_hal_can.c ****                                            void (* pCallback)(CAN_HandleTypeDef *_hcan))
 560:Drivers/STM32L4xx_HAL_Driver/Src/stm32l4xx_hal_can.c **** {
 561:Drivers/STM32L4xx_HAL_Driver/Src/stm32l4xx_hal_can.c ****   HAL_StatusTypeDef status = HAL_OK;
 562:Drivers/STM32L4xx_HAL_Driver/Src/stm32l4xx_hal_can.c **** 
 563:Drivers/STM32L4xx_HAL_Driver/Src/stm32l4xx_hal_can.c ****   if (pCallback == NULL)
 564:Drivers/STM32L4xx_HAL_Driver/Src/stm32l4xx_hal_can.c ****   {
 565:Drivers/STM32L4xx_HAL_Driver/Src/stm32l4xx_hal_can.c ****     /* Update the error code */
 566:Drivers/STM32L4xx_HAL_Driver/Src/stm32l4xx_hal_can.c ****     hcan->ErrorCode |= HAL_CAN_ERROR_INVALID_CALLBACK;
 567:Drivers/STM32L4xx_HAL_Driver/Src/stm32l4xx_hal_can.c **** 
 568:Drivers/STM32L4xx_HAL_Driver/Src/stm32l4xx_hal_can.c ****     return HAL_ERROR;
 569:Drivers/STM32L4xx_HAL_Driver/Src/stm32l4xx_hal_can.c ****   }
 570:Drivers/STM32L4xx_HAL_Driver/Src/stm32l4xx_hal_can.c **** 
ARM GAS  /tmp/cce3S0ea.s 			page 20


 571:Drivers/STM32L4xx_HAL_Driver/Src/stm32l4xx_hal_can.c ****   if (hcan->State == HAL_CAN_STATE_READY)
 572:Drivers/STM32L4xx_HAL_Driver/Src/stm32l4xx_hal_can.c ****   {
 573:Drivers/STM32L4xx_HAL_Driver/Src/stm32l4xx_hal_can.c ****     switch (CallbackID)
 574:Drivers/STM32L4xx_HAL_Driver/Src/stm32l4xx_hal_can.c ****     {
 575:Drivers/STM32L4xx_HAL_Driver/Src/stm32l4xx_hal_can.c ****       case HAL_CAN_TX_MAILBOX0_COMPLETE_CB_ID :
 576:Drivers/STM32L4xx_HAL_Driver/Src/stm32l4xx_hal_can.c ****         hcan->TxMailbox0CompleteCallback = pCallback;
 577:Drivers/STM32L4xx_HAL_Driver/Src/stm32l4xx_hal_can.c ****         break;
 578:Drivers/STM32L4xx_HAL_Driver/Src/stm32l4xx_hal_can.c **** 
 579:Drivers/STM32L4xx_HAL_Driver/Src/stm32l4xx_hal_can.c ****       case HAL_CAN_TX_MAILBOX1_COMPLETE_CB_ID :
 580:Drivers/STM32L4xx_HAL_Driver/Src/stm32l4xx_hal_can.c ****         hcan->TxMailbox1CompleteCallback = pCallback;
 581:Drivers/STM32L4xx_HAL_Driver/Src/stm32l4xx_hal_can.c ****         break;
 582:Drivers/STM32L4xx_HAL_Driver/Src/stm32l4xx_hal_can.c **** 
 583:Drivers/STM32L4xx_HAL_Driver/Src/stm32l4xx_hal_can.c ****       case HAL_CAN_TX_MAILBOX2_COMPLETE_CB_ID :
 584:Drivers/STM32L4xx_HAL_Driver/Src/stm32l4xx_hal_can.c ****         hcan->TxMailbox2CompleteCallback = pCallback;
 585:Drivers/STM32L4xx_HAL_Driver/Src/stm32l4xx_hal_can.c ****         break;
 586:Drivers/STM32L4xx_HAL_Driver/Src/stm32l4xx_hal_can.c **** 
 587:Drivers/STM32L4xx_HAL_Driver/Src/stm32l4xx_hal_can.c ****       case HAL_CAN_TX_MAILBOX0_ABORT_CB_ID :
 588:Drivers/STM32L4xx_HAL_Driver/Src/stm32l4xx_hal_can.c ****         hcan->TxMailbox0AbortCallback = pCallback;
 589:Drivers/STM32L4xx_HAL_Driver/Src/stm32l4xx_hal_can.c ****         break;
 590:Drivers/STM32L4xx_HAL_Driver/Src/stm32l4xx_hal_can.c **** 
 591:Drivers/STM32L4xx_HAL_Driver/Src/stm32l4xx_hal_can.c ****       case HAL_CAN_TX_MAILBOX1_ABORT_CB_ID :
 592:Drivers/STM32L4xx_HAL_Driver/Src/stm32l4xx_hal_can.c ****         hcan->TxMailbox1AbortCallback = pCallback;
 593:Drivers/STM32L4xx_HAL_Driver/Src/stm32l4xx_hal_can.c ****         break;
 594:Drivers/STM32L4xx_HAL_Driver/Src/stm32l4xx_hal_can.c **** 
 595:Drivers/STM32L4xx_HAL_Driver/Src/stm32l4xx_hal_can.c ****       case HAL_CAN_TX_MAILBOX2_ABORT_CB_ID :
 596:Drivers/STM32L4xx_HAL_Driver/Src/stm32l4xx_hal_can.c ****         hcan->TxMailbox2AbortCallback = pCallback;
 597:Drivers/STM32L4xx_HAL_Driver/Src/stm32l4xx_hal_can.c ****         break;
 598:Drivers/STM32L4xx_HAL_Driver/Src/stm32l4xx_hal_can.c **** 
 599:Drivers/STM32L4xx_HAL_Driver/Src/stm32l4xx_hal_can.c ****       case HAL_CAN_RX_FIFO0_MSG_PENDING_CB_ID :
 600:Drivers/STM32L4xx_HAL_Driver/Src/stm32l4xx_hal_can.c ****         hcan->RxFifo0MsgPendingCallback = pCallback;
 601:Drivers/STM32L4xx_HAL_Driver/Src/stm32l4xx_hal_can.c ****         break;
 602:Drivers/STM32L4xx_HAL_Driver/Src/stm32l4xx_hal_can.c **** 
 603:Drivers/STM32L4xx_HAL_Driver/Src/stm32l4xx_hal_can.c ****       case HAL_CAN_RX_FIFO0_FULL_CB_ID :
 604:Drivers/STM32L4xx_HAL_Driver/Src/stm32l4xx_hal_can.c ****         hcan->RxFifo0FullCallback = pCallback;
 605:Drivers/STM32L4xx_HAL_Driver/Src/stm32l4xx_hal_can.c ****         break;
 606:Drivers/STM32L4xx_HAL_Driver/Src/stm32l4xx_hal_can.c **** 
 607:Drivers/STM32L4xx_HAL_Driver/Src/stm32l4xx_hal_can.c ****       case HAL_CAN_RX_FIFO1_MSG_PENDING_CB_ID :
 608:Drivers/STM32L4xx_HAL_Driver/Src/stm32l4xx_hal_can.c ****         hcan->RxFifo1MsgPendingCallback = pCallback;
 609:Drivers/STM32L4xx_HAL_Driver/Src/stm32l4xx_hal_can.c ****         break;
 610:Drivers/STM32L4xx_HAL_Driver/Src/stm32l4xx_hal_can.c **** 
 611:Drivers/STM32L4xx_HAL_Driver/Src/stm32l4xx_hal_can.c ****       case HAL_CAN_RX_FIFO1_FULL_CB_ID :
 612:Drivers/STM32L4xx_HAL_Driver/Src/stm32l4xx_hal_can.c ****         hcan->RxFifo1FullCallback = pCallback;
 613:Drivers/STM32L4xx_HAL_Driver/Src/stm32l4xx_hal_can.c ****         break;
 614:Drivers/STM32L4xx_HAL_Driver/Src/stm32l4xx_hal_can.c **** 
 615:Drivers/STM32L4xx_HAL_Driver/Src/stm32l4xx_hal_can.c ****       case HAL_CAN_SLEEP_CB_ID :
 616:Drivers/STM32L4xx_HAL_Driver/Src/stm32l4xx_hal_can.c ****         hcan->SleepCallback = pCallback;
 617:Drivers/STM32L4xx_HAL_Driver/Src/stm32l4xx_hal_can.c ****         break;
 618:Drivers/STM32L4xx_HAL_Driver/Src/stm32l4xx_hal_can.c **** 
 619:Drivers/STM32L4xx_HAL_Driver/Src/stm32l4xx_hal_can.c ****       case HAL_CAN_WAKEUP_FROM_RX_MSG_CB_ID :
 620:Drivers/STM32L4xx_HAL_Driver/Src/stm32l4xx_hal_can.c ****         hcan->WakeUpFromRxMsgCallback = pCallback;
 621:Drivers/STM32L4xx_HAL_Driver/Src/stm32l4xx_hal_can.c ****         break;
 622:Drivers/STM32L4xx_HAL_Driver/Src/stm32l4xx_hal_can.c **** 
 623:Drivers/STM32L4xx_HAL_Driver/Src/stm32l4xx_hal_can.c ****       case HAL_CAN_ERROR_CB_ID :
 624:Drivers/STM32L4xx_HAL_Driver/Src/stm32l4xx_hal_can.c ****         hcan->ErrorCallback = pCallback;
 625:Drivers/STM32L4xx_HAL_Driver/Src/stm32l4xx_hal_can.c ****         break;
 626:Drivers/STM32L4xx_HAL_Driver/Src/stm32l4xx_hal_can.c **** 
 627:Drivers/STM32L4xx_HAL_Driver/Src/stm32l4xx_hal_can.c ****       case HAL_CAN_MSPINIT_CB_ID :
ARM GAS  /tmp/cce3S0ea.s 			page 21


 628:Drivers/STM32L4xx_HAL_Driver/Src/stm32l4xx_hal_can.c ****         hcan->MspInitCallback = pCallback;
 629:Drivers/STM32L4xx_HAL_Driver/Src/stm32l4xx_hal_can.c ****         break;
 630:Drivers/STM32L4xx_HAL_Driver/Src/stm32l4xx_hal_can.c **** 
 631:Drivers/STM32L4xx_HAL_Driver/Src/stm32l4xx_hal_can.c ****       case HAL_CAN_MSPDEINIT_CB_ID :
 632:Drivers/STM32L4xx_HAL_Driver/Src/stm32l4xx_hal_can.c ****         hcan->MspDeInitCallback = pCallback;
 633:Drivers/STM32L4xx_HAL_Driver/Src/stm32l4xx_hal_can.c ****         break;
 634:Drivers/STM32L4xx_HAL_Driver/Src/stm32l4xx_hal_can.c **** 
 635:Drivers/STM32L4xx_HAL_Driver/Src/stm32l4xx_hal_can.c ****       default :
 636:Drivers/STM32L4xx_HAL_Driver/Src/stm32l4xx_hal_can.c ****         /* Update the error code */
 637:Drivers/STM32L4xx_HAL_Driver/Src/stm32l4xx_hal_can.c ****         hcan->ErrorCode |= HAL_CAN_ERROR_INVALID_CALLBACK;
 638:Drivers/STM32L4xx_HAL_Driver/Src/stm32l4xx_hal_can.c **** 
 639:Drivers/STM32L4xx_HAL_Driver/Src/stm32l4xx_hal_can.c ****         /* Return error status */
 640:Drivers/STM32L4xx_HAL_Driver/Src/stm32l4xx_hal_can.c ****         status =  HAL_ERROR;
 641:Drivers/STM32L4xx_HAL_Driver/Src/stm32l4xx_hal_can.c ****         break;
 642:Drivers/STM32L4xx_HAL_Driver/Src/stm32l4xx_hal_can.c ****     }
 643:Drivers/STM32L4xx_HAL_Driver/Src/stm32l4xx_hal_can.c ****   }
 644:Drivers/STM32L4xx_HAL_Driver/Src/stm32l4xx_hal_can.c ****   else if (hcan->State == HAL_CAN_STATE_RESET)
 645:Drivers/STM32L4xx_HAL_Driver/Src/stm32l4xx_hal_can.c ****   {
 646:Drivers/STM32L4xx_HAL_Driver/Src/stm32l4xx_hal_can.c ****     switch (CallbackID)
 647:Drivers/STM32L4xx_HAL_Driver/Src/stm32l4xx_hal_can.c ****     {
 648:Drivers/STM32L4xx_HAL_Driver/Src/stm32l4xx_hal_can.c ****       case HAL_CAN_MSPINIT_CB_ID :
 649:Drivers/STM32L4xx_HAL_Driver/Src/stm32l4xx_hal_can.c ****         hcan->MspInitCallback = pCallback;
 650:Drivers/STM32L4xx_HAL_Driver/Src/stm32l4xx_hal_can.c ****         break;
 651:Drivers/STM32L4xx_HAL_Driver/Src/stm32l4xx_hal_can.c **** 
 652:Drivers/STM32L4xx_HAL_Driver/Src/stm32l4xx_hal_can.c ****       case HAL_CAN_MSPDEINIT_CB_ID :
 653:Drivers/STM32L4xx_HAL_Driver/Src/stm32l4xx_hal_can.c ****         hcan->MspDeInitCallback = pCallback;
 654:Drivers/STM32L4xx_HAL_Driver/Src/stm32l4xx_hal_can.c ****         break;
 655:Drivers/STM32L4xx_HAL_Driver/Src/stm32l4xx_hal_can.c **** 
 656:Drivers/STM32L4xx_HAL_Driver/Src/stm32l4xx_hal_can.c ****       default :
 657:Drivers/STM32L4xx_HAL_Driver/Src/stm32l4xx_hal_can.c ****         /* Update the error code */
 658:Drivers/STM32L4xx_HAL_Driver/Src/stm32l4xx_hal_can.c ****         hcan->ErrorCode |= HAL_CAN_ERROR_INVALID_CALLBACK;
 659:Drivers/STM32L4xx_HAL_Driver/Src/stm32l4xx_hal_can.c **** 
 660:Drivers/STM32L4xx_HAL_Driver/Src/stm32l4xx_hal_can.c ****         /* Return error status */
 661:Drivers/STM32L4xx_HAL_Driver/Src/stm32l4xx_hal_can.c ****         status =  HAL_ERROR;
 662:Drivers/STM32L4xx_HAL_Driver/Src/stm32l4xx_hal_can.c ****         break;
 663:Drivers/STM32L4xx_HAL_Driver/Src/stm32l4xx_hal_can.c ****     }
 664:Drivers/STM32L4xx_HAL_Driver/Src/stm32l4xx_hal_can.c ****   }
 665:Drivers/STM32L4xx_HAL_Driver/Src/stm32l4xx_hal_can.c ****   else
 666:Drivers/STM32L4xx_HAL_Driver/Src/stm32l4xx_hal_can.c ****   {
 667:Drivers/STM32L4xx_HAL_Driver/Src/stm32l4xx_hal_can.c ****     /* Update the error code */
 668:Drivers/STM32L4xx_HAL_Driver/Src/stm32l4xx_hal_can.c ****     hcan->ErrorCode |= HAL_CAN_ERROR_INVALID_CALLBACK;
 669:Drivers/STM32L4xx_HAL_Driver/Src/stm32l4xx_hal_can.c **** 
 670:Drivers/STM32L4xx_HAL_Driver/Src/stm32l4xx_hal_can.c ****     /* Return error status */
 671:Drivers/STM32L4xx_HAL_Driver/Src/stm32l4xx_hal_can.c ****     status =  HAL_ERROR;
 672:Drivers/STM32L4xx_HAL_Driver/Src/stm32l4xx_hal_can.c ****   }
 673:Drivers/STM32L4xx_HAL_Driver/Src/stm32l4xx_hal_can.c **** 
 674:Drivers/STM32L4xx_HAL_Driver/Src/stm32l4xx_hal_can.c ****   return status;
 675:Drivers/STM32L4xx_HAL_Driver/Src/stm32l4xx_hal_can.c **** }
 676:Drivers/STM32L4xx_HAL_Driver/Src/stm32l4xx_hal_can.c **** 
 677:Drivers/STM32L4xx_HAL_Driver/Src/stm32l4xx_hal_can.c **** /**
 678:Drivers/STM32L4xx_HAL_Driver/Src/stm32l4xx_hal_can.c ****   * @brief  Unregister a CAN CallBack.
 679:Drivers/STM32L4xx_HAL_Driver/Src/stm32l4xx_hal_can.c ****   *         CAN callback is redirected to the weak predefined callback
 680:Drivers/STM32L4xx_HAL_Driver/Src/stm32l4xx_hal_can.c ****   * @param  hcan pointer to a CAN_HandleTypeDef structure that contains
 681:Drivers/STM32L4xx_HAL_Driver/Src/stm32l4xx_hal_can.c ****   *         the configuration information for CAN module
 682:Drivers/STM32L4xx_HAL_Driver/Src/stm32l4xx_hal_can.c ****   * @param  CallbackID ID of the callback to be unregistered
 683:Drivers/STM32L4xx_HAL_Driver/Src/stm32l4xx_hal_can.c ****   *         This parameter can be one of the following values:
 684:Drivers/STM32L4xx_HAL_Driver/Src/stm32l4xx_hal_can.c ****   *           @arg @ref HAL_CAN_TX_MAILBOX0_COMPLETE_CB_ID Tx Mailbox 0 Complete callback ID
ARM GAS  /tmp/cce3S0ea.s 			page 22


 685:Drivers/STM32L4xx_HAL_Driver/Src/stm32l4xx_hal_can.c ****   *           @arg @ref HAL_CAN_TX_MAILBOX1_COMPLETE_CB_ID Tx Mailbox 1 Complete callback ID
 686:Drivers/STM32L4xx_HAL_Driver/Src/stm32l4xx_hal_can.c ****   *           @arg @ref HAL_CAN_TX_MAILBOX2_COMPLETE_CB_ID Tx Mailbox 2 Complete callback ID
 687:Drivers/STM32L4xx_HAL_Driver/Src/stm32l4xx_hal_can.c ****   *           @arg @ref HAL_CAN_TX_MAILBOX0_ABORT_CB_ID Tx Mailbox 0 Abort callback ID
 688:Drivers/STM32L4xx_HAL_Driver/Src/stm32l4xx_hal_can.c ****   *           @arg @ref HAL_CAN_TX_MAILBOX1_ABORT_CB_ID Tx Mailbox 1 Abort callback ID
 689:Drivers/STM32L4xx_HAL_Driver/Src/stm32l4xx_hal_can.c ****   *           @arg @ref HAL_CAN_TX_MAILBOX2_ABORT_CB_ID Tx Mailbox 2 Abort callback ID
 690:Drivers/STM32L4xx_HAL_Driver/Src/stm32l4xx_hal_can.c ****   *           @arg @ref HAL_CAN_RX_FIFO0_MSG_PENDING_CB_ID Rx Fifo 0 message pending callback ID
 691:Drivers/STM32L4xx_HAL_Driver/Src/stm32l4xx_hal_can.c ****   *           @arg @ref HAL_CAN_RX_FIFO0_FULL_CB_ID Rx Fifo 0 full callback ID
 692:Drivers/STM32L4xx_HAL_Driver/Src/stm32l4xx_hal_can.c ****   *           @arg @ref HAL_CAN_RX_FIFO1_MSG_PENDING_CB_ID Rx Fifo 1 message pending callback ID
 693:Drivers/STM32L4xx_HAL_Driver/Src/stm32l4xx_hal_can.c ****   *           @arg @ref HAL_CAN_RX_FIFO1_FULL_CB_ID Rx Fifo 1 full callback ID
 694:Drivers/STM32L4xx_HAL_Driver/Src/stm32l4xx_hal_can.c ****   *           @arg @ref HAL_CAN_SLEEP_CB_ID Sleep callback ID
 695:Drivers/STM32L4xx_HAL_Driver/Src/stm32l4xx_hal_can.c ****   *           @arg @ref HAL_CAN_WAKEUP_FROM_RX_MSG_CB_ID Wake Up from Rx message callback ID
 696:Drivers/STM32L4xx_HAL_Driver/Src/stm32l4xx_hal_can.c ****   *           @arg @ref HAL_CAN_ERROR_CB_ID Error callback ID
 697:Drivers/STM32L4xx_HAL_Driver/Src/stm32l4xx_hal_can.c ****   *           @arg @ref HAL_CAN_MSPINIT_CB_ID MspInit callback ID
 698:Drivers/STM32L4xx_HAL_Driver/Src/stm32l4xx_hal_can.c ****   *           @arg @ref HAL_CAN_MSPDEINIT_CB_ID MspDeInit callback ID
 699:Drivers/STM32L4xx_HAL_Driver/Src/stm32l4xx_hal_can.c ****   * @retval HAL status
 700:Drivers/STM32L4xx_HAL_Driver/Src/stm32l4xx_hal_can.c ****   */
 701:Drivers/STM32L4xx_HAL_Driver/Src/stm32l4xx_hal_can.c **** HAL_StatusTypeDef HAL_CAN_UnRegisterCallback(CAN_HandleTypeDef *hcan, HAL_CAN_CallbackIDTypeDef Cal
 702:Drivers/STM32L4xx_HAL_Driver/Src/stm32l4xx_hal_can.c **** {
 703:Drivers/STM32L4xx_HAL_Driver/Src/stm32l4xx_hal_can.c ****   HAL_StatusTypeDef status = HAL_OK;
 704:Drivers/STM32L4xx_HAL_Driver/Src/stm32l4xx_hal_can.c **** 
 705:Drivers/STM32L4xx_HAL_Driver/Src/stm32l4xx_hal_can.c ****   if (hcan->State == HAL_CAN_STATE_READY)
 706:Drivers/STM32L4xx_HAL_Driver/Src/stm32l4xx_hal_can.c ****   {
 707:Drivers/STM32L4xx_HAL_Driver/Src/stm32l4xx_hal_can.c ****     switch (CallbackID)
 708:Drivers/STM32L4xx_HAL_Driver/Src/stm32l4xx_hal_can.c ****     {
 709:Drivers/STM32L4xx_HAL_Driver/Src/stm32l4xx_hal_can.c ****       case HAL_CAN_TX_MAILBOX0_COMPLETE_CB_ID :
 710:Drivers/STM32L4xx_HAL_Driver/Src/stm32l4xx_hal_can.c ****         hcan->TxMailbox0CompleteCallback = HAL_CAN_TxMailbox0CompleteCallback;
 711:Drivers/STM32L4xx_HAL_Driver/Src/stm32l4xx_hal_can.c ****         break;
 712:Drivers/STM32L4xx_HAL_Driver/Src/stm32l4xx_hal_can.c **** 
 713:Drivers/STM32L4xx_HAL_Driver/Src/stm32l4xx_hal_can.c ****       case HAL_CAN_TX_MAILBOX1_COMPLETE_CB_ID :
 714:Drivers/STM32L4xx_HAL_Driver/Src/stm32l4xx_hal_can.c ****         hcan->TxMailbox1CompleteCallback = HAL_CAN_TxMailbox1CompleteCallback;
 715:Drivers/STM32L4xx_HAL_Driver/Src/stm32l4xx_hal_can.c ****         break;
 716:Drivers/STM32L4xx_HAL_Driver/Src/stm32l4xx_hal_can.c **** 
 717:Drivers/STM32L4xx_HAL_Driver/Src/stm32l4xx_hal_can.c ****       case HAL_CAN_TX_MAILBOX2_COMPLETE_CB_ID :
 718:Drivers/STM32L4xx_HAL_Driver/Src/stm32l4xx_hal_can.c ****         hcan->TxMailbox2CompleteCallback = HAL_CAN_TxMailbox2CompleteCallback;
 719:Drivers/STM32L4xx_HAL_Driver/Src/stm32l4xx_hal_can.c ****         break;
 720:Drivers/STM32L4xx_HAL_Driver/Src/stm32l4xx_hal_can.c **** 
 721:Drivers/STM32L4xx_HAL_Driver/Src/stm32l4xx_hal_can.c ****       case HAL_CAN_TX_MAILBOX0_ABORT_CB_ID :
 722:Drivers/STM32L4xx_HAL_Driver/Src/stm32l4xx_hal_can.c ****         hcan->TxMailbox0AbortCallback = HAL_CAN_TxMailbox0AbortCallback;
 723:Drivers/STM32L4xx_HAL_Driver/Src/stm32l4xx_hal_can.c ****         break;
 724:Drivers/STM32L4xx_HAL_Driver/Src/stm32l4xx_hal_can.c **** 
 725:Drivers/STM32L4xx_HAL_Driver/Src/stm32l4xx_hal_can.c ****       case HAL_CAN_TX_MAILBOX1_ABORT_CB_ID :
 726:Drivers/STM32L4xx_HAL_Driver/Src/stm32l4xx_hal_can.c ****         hcan->TxMailbox1AbortCallback = HAL_CAN_TxMailbox1AbortCallback;
 727:Drivers/STM32L4xx_HAL_Driver/Src/stm32l4xx_hal_can.c ****         break;
 728:Drivers/STM32L4xx_HAL_Driver/Src/stm32l4xx_hal_can.c **** 
 729:Drivers/STM32L4xx_HAL_Driver/Src/stm32l4xx_hal_can.c ****       case HAL_CAN_TX_MAILBOX2_ABORT_CB_ID :
 730:Drivers/STM32L4xx_HAL_Driver/Src/stm32l4xx_hal_can.c ****         hcan->TxMailbox2AbortCallback = HAL_CAN_TxMailbox2AbortCallback;
 731:Drivers/STM32L4xx_HAL_Driver/Src/stm32l4xx_hal_can.c ****         break;
 732:Drivers/STM32L4xx_HAL_Driver/Src/stm32l4xx_hal_can.c **** 
 733:Drivers/STM32L4xx_HAL_Driver/Src/stm32l4xx_hal_can.c ****       case HAL_CAN_RX_FIFO0_MSG_PENDING_CB_ID :
 734:Drivers/STM32L4xx_HAL_Driver/Src/stm32l4xx_hal_can.c ****         hcan->RxFifo0MsgPendingCallback = HAL_CAN_RxFifo0MsgPendingCallback;
 735:Drivers/STM32L4xx_HAL_Driver/Src/stm32l4xx_hal_can.c ****         break;
 736:Drivers/STM32L4xx_HAL_Driver/Src/stm32l4xx_hal_can.c **** 
 737:Drivers/STM32L4xx_HAL_Driver/Src/stm32l4xx_hal_can.c ****       case HAL_CAN_RX_FIFO0_FULL_CB_ID :
 738:Drivers/STM32L4xx_HAL_Driver/Src/stm32l4xx_hal_can.c ****         hcan->RxFifo0FullCallback = HAL_CAN_RxFifo0FullCallback;
 739:Drivers/STM32L4xx_HAL_Driver/Src/stm32l4xx_hal_can.c ****         break;
 740:Drivers/STM32L4xx_HAL_Driver/Src/stm32l4xx_hal_can.c **** 
 741:Drivers/STM32L4xx_HAL_Driver/Src/stm32l4xx_hal_can.c ****       case HAL_CAN_RX_FIFO1_MSG_PENDING_CB_ID :
ARM GAS  /tmp/cce3S0ea.s 			page 23


 742:Drivers/STM32L4xx_HAL_Driver/Src/stm32l4xx_hal_can.c ****         hcan->RxFifo1MsgPendingCallback = HAL_CAN_RxFifo1MsgPendingCallback;
 743:Drivers/STM32L4xx_HAL_Driver/Src/stm32l4xx_hal_can.c ****         break;
 744:Drivers/STM32L4xx_HAL_Driver/Src/stm32l4xx_hal_can.c **** 
 745:Drivers/STM32L4xx_HAL_Driver/Src/stm32l4xx_hal_can.c ****       case HAL_CAN_RX_FIFO1_FULL_CB_ID :
 746:Drivers/STM32L4xx_HAL_Driver/Src/stm32l4xx_hal_can.c ****         hcan->RxFifo1FullCallback = HAL_CAN_RxFifo1FullCallback;
 747:Drivers/STM32L4xx_HAL_Driver/Src/stm32l4xx_hal_can.c ****         break;
 748:Drivers/STM32L4xx_HAL_Driver/Src/stm32l4xx_hal_can.c **** 
 749:Drivers/STM32L4xx_HAL_Driver/Src/stm32l4xx_hal_can.c ****       case HAL_CAN_SLEEP_CB_ID :
 750:Drivers/STM32L4xx_HAL_Driver/Src/stm32l4xx_hal_can.c ****         hcan->SleepCallback = HAL_CAN_SleepCallback;
 751:Drivers/STM32L4xx_HAL_Driver/Src/stm32l4xx_hal_can.c ****         break;
 752:Drivers/STM32L4xx_HAL_Driver/Src/stm32l4xx_hal_can.c **** 
 753:Drivers/STM32L4xx_HAL_Driver/Src/stm32l4xx_hal_can.c ****       case HAL_CAN_WAKEUP_FROM_RX_MSG_CB_ID :
 754:Drivers/STM32L4xx_HAL_Driver/Src/stm32l4xx_hal_can.c ****         hcan->WakeUpFromRxMsgCallback = HAL_CAN_WakeUpFromRxMsgCallback;
 755:Drivers/STM32L4xx_HAL_Driver/Src/stm32l4xx_hal_can.c ****         break;
 756:Drivers/STM32L4xx_HAL_Driver/Src/stm32l4xx_hal_can.c **** 
 757:Drivers/STM32L4xx_HAL_Driver/Src/stm32l4xx_hal_can.c ****       case HAL_CAN_ERROR_CB_ID :
 758:Drivers/STM32L4xx_HAL_Driver/Src/stm32l4xx_hal_can.c ****         hcan->ErrorCallback = HAL_CAN_ErrorCallback;
 759:Drivers/STM32L4xx_HAL_Driver/Src/stm32l4xx_hal_can.c ****         break;
 760:Drivers/STM32L4xx_HAL_Driver/Src/stm32l4xx_hal_can.c **** 
 761:Drivers/STM32L4xx_HAL_Driver/Src/stm32l4xx_hal_can.c ****       case HAL_CAN_MSPINIT_CB_ID :
 762:Drivers/STM32L4xx_HAL_Driver/Src/stm32l4xx_hal_can.c ****         hcan->MspInitCallback = HAL_CAN_MspInit;
 763:Drivers/STM32L4xx_HAL_Driver/Src/stm32l4xx_hal_can.c ****         break;
 764:Drivers/STM32L4xx_HAL_Driver/Src/stm32l4xx_hal_can.c **** 
 765:Drivers/STM32L4xx_HAL_Driver/Src/stm32l4xx_hal_can.c ****       case HAL_CAN_MSPDEINIT_CB_ID :
 766:Drivers/STM32L4xx_HAL_Driver/Src/stm32l4xx_hal_can.c ****         hcan->MspDeInitCallback = HAL_CAN_MspDeInit;
 767:Drivers/STM32L4xx_HAL_Driver/Src/stm32l4xx_hal_can.c ****         break;
 768:Drivers/STM32L4xx_HAL_Driver/Src/stm32l4xx_hal_can.c **** 
 769:Drivers/STM32L4xx_HAL_Driver/Src/stm32l4xx_hal_can.c ****       default :
 770:Drivers/STM32L4xx_HAL_Driver/Src/stm32l4xx_hal_can.c ****         /* Update the error code */
 771:Drivers/STM32L4xx_HAL_Driver/Src/stm32l4xx_hal_can.c ****         hcan->ErrorCode |= HAL_CAN_ERROR_INVALID_CALLBACK;
 772:Drivers/STM32L4xx_HAL_Driver/Src/stm32l4xx_hal_can.c **** 
 773:Drivers/STM32L4xx_HAL_Driver/Src/stm32l4xx_hal_can.c ****         /* Return error status */
 774:Drivers/STM32L4xx_HAL_Driver/Src/stm32l4xx_hal_can.c ****         status =  HAL_ERROR;
 775:Drivers/STM32L4xx_HAL_Driver/Src/stm32l4xx_hal_can.c ****         break;
 776:Drivers/STM32L4xx_HAL_Driver/Src/stm32l4xx_hal_can.c ****     }
 777:Drivers/STM32L4xx_HAL_Driver/Src/stm32l4xx_hal_can.c ****   }
 778:Drivers/STM32L4xx_HAL_Driver/Src/stm32l4xx_hal_can.c ****   else if (hcan->State == HAL_CAN_STATE_RESET)
 779:Drivers/STM32L4xx_HAL_Driver/Src/stm32l4xx_hal_can.c ****   {
 780:Drivers/STM32L4xx_HAL_Driver/Src/stm32l4xx_hal_can.c ****     switch (CallbackID)
 781:Drivers/STM32L4xx_HAL_Driver/Src/stm32l4xx_hal_can.c ****     {
 782:Drivers/STM32L4xx_HAL_Driver/Src/stm32l4xx_hal_can.c ****       case HAL_CAN_MSPINIT_CB_ID :
 783:Drivers/STM32L4xx_HAL_Driver/Src/stm32l4xx_hal_can.c ****         hcan->MspInitCallback = HAL_CAN_MspInit;
 784:Drivers/STM32L4xx_HAL_Driver/Src/stm32l4xx_hal_can.c ****         break;
 785:Drivers/STM32L4xx_HAL_Driver/Src/stm32l4xx_hal_can.c **** 
 786:Drivers/STM32L4xx_HAL_Driver/Src/stm32l4xx_hal_can.c ****       case HAL_CAN_MSPDEINIT_CB_ID :
 787:Drivers/STM32L4xx_HAL_Driver/Src/stm32l4xx_hal_can.c ****         hcan->MspDeInitCallback = HAL_CAN_MspDeInit;
 788:Drivers/STM32L4xx_HAL_Driver/Src/stm32l4xx_hal_can.c ****         break;
 789:Drivers/STM32L4xx_HAL_Driver/Src/stm32l4xx_hal_can.c **** 
 790:Drivers/STM32L4xx_HAL_Driver/Src/stm32l4xx_hal_can.c ****       default :
 791:Drivers/STM32L4xx_HAL_Driver/Src/stm32l4xx_hal_can.c ****         /* Update the error code */
 792:Drivers/STM32L4xx_HAL_Driver/Src/stm32l4xx_hal_can.c ****         hcan->ErrorCode |= HAL_CAN_ERROR_INVALID_CALLBACK;
 793:Drivers/STM32L4xx_HAL_Driver/Src/stm32l4xx_hal_can.c **** 
 794:Drivers/STM32L4xx_HAL_Driver/Src/stm32l4xx_hal_can.c ****         /* Return error status */
 795:Drivers/STM32L4xx_HAL_Driver/Src/stm32l4xx_hal_can.c ****         status =  HAL_ERROR;
 796:Drivers/STM32L4xx_HAL_Driver/Src/stm32l4xx_hal_can.c ****         break;
 797:Drivers/STM32L4xx_HAL_Driver/Src/stm32l4xx_hal_can.c ****     }
 798:Drivers/STM32L4xx_HAL_Driver/Src/stm32l4xx_hal_can.c ****   }
ARM GAS  /tmp/cce3S0ea.s 			page 24


 799:Drivers/STM32L4xx_HAL_Driver/Src/stm32l4xx_hal_can.c ****   else
 800:Drivers/STM32L4xx_HAL_Driver/Src/stm32l4xx_hal_can.c ****   {
 801:Drivers/STM32L4xx_HAL_Driver/Src/stm32l4xx_hal_can.c ****     /* Update the error code */
 802:Drivers/STM32L4xx_HAL_Driver/Src/stm32l4xx_hal_can.c ****     hcan->ErrorCode |= HAL_CAN_ERROR_INVALID_CALLBACK;
 803:Drivers/STM32L4xx_HAL_Driver/Src/stm32l4xx_hal_can.c **** 
 804:Drivers/STM32L4xx_HAL_Driver/Src/stm32l4xx_hal_can.c ****     /* Return error status */
 805:Drivers/STM32L4xx_HAL_Driver/Src/stm32l4xx_hal_can.c ****     status =  HAL_ERROR;
 806:Drivers/STM32L4xx_HAL_Driver/Src/stm32l4xx_hal_can.c ****   }
 807:Drivers/STM32L4xx_HAL_Driver/Src/stm32l4xx_hal_can.c **** 
 808:Drivers/STM32L4xx_HAL_Driver/Src/stm32l4xx_hal_can.c ****   return status;
 809:Drivers/STM32L4xx_HAL_Driver/Src/stm32l4xx_hal_can.c **** }
 810:Drivers/STM32L4xx_HAL_Driver/Src/stm32l4xx_hal_can.c **** #endif /* USE_HAL_CAN_REGISTER_CALLBACKS */
 811:Drivers/STM32L4xx_HAL_Driver/Src/stm32l4xx_hal_can.c **** 
 812:Drivers/STM32L4xx_HAL_Driver/Src/stm32l4xx_hal_can.c **** /**
 813:Drivers/STM32L4xx_HAL_Driver/Src/stm32l4xx_hal_can.c ****   * @}
 814:Drivers/STM32L4xx_HAL_Driver/Src/stm32l4xx_hal_can.c ****   */
 815:Drivers/STM32L4xx_HAL_Driver/Src/stm32l4xx_hal_can.c **** 
 816:Drivers/STM32L4xx_HAL_Driver/Src/stm32l4xx_hal_can.c **** /** @defgroup CAN_Exported_Functions_Group2 Configuration functions
 817:Drivers/STM32L4xx_HAL_Driver/Src/stm32l4xx_hal_can.c ****  *  @brief    Configuration functions.
 818:Drivers/STM32L4xx_HAL_Driver/Src/stm32l4xx_hal_can.c ****  *
 819:Drivers/STM32L4xx_HAL_Driver/Src/stm32l4xx_hal_can.c **** @verbatim
 820:Drivers/STM32L4xx_HAL_Driver/Src/stm32l4xx_hal_can.c ****   ==============================================================================
 821:Drivers/STM32L4xx_HAL_Driver/Src/stm32l4xx_hal_can.c ****               ##### Configuration functions #####
 822:Drivers/STM32L4xx_HAL_Driver/Src/stm32l4xx_hal_can.c ****   ==============================================================================
 823:Drivers/STM32L4xx_HAL_Driver/Src/stm32l4xx_hal_can.c ****     [..]  This section provides functions allowing to:
 824:Drivers/STM32L4xx_HAL_Driver/Src/stm32l4xx_hal_can.c ****       (+) HAL_CAN_ConfigFilter            : Configure the CAN reception filters
 825:Drivers/STM32L4xx_HAL_Driver/Src/stm32l4xx_hal_can.c **** 
 826:Drivers/STM32L4xx_HAL_Driver/Src/stm32l4xx_hal_can.c **** @endverbatim
 827:Drivers/STM32L4xx_HAL_Driver/Src/stm32l4xx_hal_can.c ****   * @{
 828:Drivers/STM32L4xx_HAL_Driver/Src/stm32l4xx_hal_can.c ****   */
 829:Drivers/STM32L4xx_HAL_Driver/Src/stm32l4xx_hal_can.c **** 
 830:Drivers/STM32L4xx_HAL_Driver/Src/stm32l4xx_hal_can.c **** /**
 831:Drivers/STM32L4xx_HAL_Driver/Src/stm32l4xx_hal_can.c ****   * @brief  Configures the CAN reception filter according to the specified
 832:Drivers/STM32L4xx_HAL_Driver/Src/stm32l4xx_hal_can.c ****   *         parameters in the CAN_FilterInitStruct.
 833:Drivers/STM32L4xx_HAL_Driver/Src/stm32l4xx_hal_can.c ****   * @param  hcan pointer to a CAN_HandleTypeDef structure that contains
 834:Drivers/STM32L4xx_HAL_Driver/Src/stm32l4xx_hal_can.c ****   *         the configuration information for the specified CAN.
 835:Drivers/STM32L4xx_HAL_Driver/Src/stm32l4xx_hal_can.c ****   * @param  sFilterConfig pointer to a CAN_FilterTypeDef structure that
 836:Drivers/STM32L4xx_HAL_Driver/Src/stm32l4xx_hal_can.c ****   *         contains the filter configuration information.
 837:Drivers/STM32L4xx_HAL_Driver/Src/stm32l4xx_hal_can.c ****   * @retval None
 838:Drivers/STM32L4xx_HAL_Driver/Src/stm32l4xx_hal_can.c ****   */
 839:Drivers/STM32L4xx_HAL_Driver/Src/stm32l4xx_hal_can.c **** HAL_StatusTypeDef HAL_CAN_ConfigFilter(CAN_HandleTypeDef *hcan, const CAN_FilterTypeDef *sFilterCon
 840:Drivers/STM32L4xx_HAL_Driver/Src/stm32l4xx_hal_can.c **** {
 515              		.loc 1 840 1
 516              		.cfi_startproc
 517              		@ args = 0, pretend = 0, frame = 24
 518              		@ frame_needed = 1, uses_anonymous_args = 0
 519              		@ link register save eliminated.
 520 0000 80B4     		push	{r7}
 521              	.LCFI22:
 522              		.cfi_def_cfa_offset 4
 523              		.cfi_offset 7, -4
 524 0002 87B0     		sub	sp, sp, #28
 525              	.LCFI23:
 526              		.cfi_def_cfa_offset 32
 527 0004 00AF     		add	r7, sp, #0
 528              	.LCFI24:
 529              		.cfi_def_cfa_register 7
ARM GAS  /tmp/cce3S0ea.s 			page 25


 530 0006 7860     		str	r0, [r7, #4]
 531 0008 3960     		str	r1, [r7]
 841:Drivers/STM32L4xx_HAL_Driver/Src/stm32l4xx_hal_can.c ****   uint32_t filternbrbitpos;
 842:Drivers/STM32L4xx_HAL_Driver/Src/stm32l4xx_hal_can.c ****   CAN_TypeDef *can_ip = hcan->Instance;
 532              		.loc 1 842 16
 533 000a 7B68     		ldr	r3, [r7, #4]
 534 000c 1B68     		ldr	r3, [r3]
 535 000e 7B61     		str	r3, [r7, #20]
 843:Drivers/STM32L4xx_HAL_Driver/Src/stm32l4xx_hal_can.c ****   HAL_CAN_StateTypeDef state = hcan->State;
 536              		.loc 1 843 24
 537 0010 7B68     		ldr	r3, [r7, #4]
 538 0012 93F82030 		ldrb	r3, [r3, #32]
 539 0016 FB74     		strb	r3, [r7, #19]
 844:Drivers/STM32L4xx_HAL_Driver/Src/stm32l4xx_hal_can.c **** 
 845:Drivers/STM32L4xx_HAL_Driver/Src/stm32l4xx_hal_can.c ****   if ((state == HAL_CAN_STATE_READY) ||
 540              		.loc 1 845 6
 541 0018 FB7C     		ldrb	r3, [r7, #19]	@ zero_extendqisi2
 542 001a 012B     		cmp	r3, #1
 543 001c 03D0     		beq	.L27
 544              		.loc 1 845 38 discriminator 1
 545 001e FB7C     		ldrb	r3, [r7, #19]	@ zero_extendqisi2
 546 0020 022B     		cmp	r3, #2
 547 0022 40F0AA80 		bne	.L28
 548              	.L27:
 846:Drivers/STM32L4xx_HAL_Driver/Src/stm32l4xx_hal_can.c ****       (state == HAL_CAN_STATE_LISTENING))
 847:Drivers/STM32L4xx_HAL_Driver/Src/stm32l4xx_hal_can.c ****   {
 848:Drivers/STM32L4xx_HAL_Driver/Src/stm32l4xx_hal_can.c ****     /* Check the parameters */
 849:Drivers/STM32L4xx_HAL_Driver/Src/stm32l4xx_hal_can.c ****     assert_param(IS_CAN_FILTER_ID_HALFWORD(sFilterConfig->FilterIdHigh));
 850:Drivers/STM32L4xx_HAL_Driver/Src/stm32l4xx_hal_can.c ****     assert_param(IS_CAN_FILTER_ID_HALFWORD(sFilterConfig->FilterIdLow));
 851:Drivers/STM32L4xx_HAL_Driver/Src/stm32l4xx_hal_can.c ****     assert_param(IS_CAN_FILTER_ID_HALFWORD(sFilterConfig->FilterMaskIdHigh));
 852:Drivers/STM32L4xx_HAL_Driver/Src/stm32l4xx_hal_can.c ****     assert_param(IS_CAN_FILTER_ID_HALFWORD(sFilterConfig->FilterMaskIdLow));
 853:Drivers/STM32L4xx_HAL_Driver/Src/stm32l4xx_hal_can.c ****     assert_param(IS_CAN_FILTER_MODE(sFilterConfig->FilterMode));
 854:Drivers/STM32L4xx_HAL_Driver/Src/stm32l4xx_hal_can.c ****     assert_param(IS_CAN_FILTER_SCALE(sFilterConfig->FilterScale));
 855:Drivers/STM32L4xx_HAL_Driver/Src/stm32l4xx_hal_can.c ****     assert_param(IS_CAN_FILTER_FIFO(sFilterConfig->FilterFIFOAssignment));
 856:Drivers/STM32L4xx_HAL_Driver/Src/stm32l4xx_hal_can.c ****     assert_param(IS_CAN_FILTER_ACTIVATION(sFilterConfig->FilterActivation));
 857:Drivers/STM32L4xx_HAL_Driver/Src/stm32l4xx_hal_can.c **** 
 858:Drivers/STM32L4xx_HAL_Driver/Src/stm32l4xx_hal_can.c **** #if   defined(CAN2)
 859:Drivers/STM32L4xx_HAL_Driver/Src/stm32l4xx_hal_can.c ****     /* CAN1 and CAN2 are dual instances with 28 common filters banks */
 860:Drivers/STM32L4xx_HAL_Driver/Src/stm32l4xx_hal_can.c ****     /* Select master instance to access the filter banks */
 861:Drivers/STM32L4xx_HAL_Driver/Src/stm32l4xx_hal_can.c ****     can_ip = CAN1;
 862:Drivers/STM32L4xx_HAL_Driver/Src/stm32l4xx_hal_can.c **** 
 863:Drivers/STM32L4xx_HAL_Driver/Src/stm32l4xx_hal_can.c ****     /* Check the parameters */
 864:Drivers/STM32L4xx_HAL_Driver/Src/stm32l4xx_hal_can.c ****     assert_param(IS_CAN_FILTER_BANK_DUAL(sFilterConfig->FilterBank));
 865:Drivers/STM32L4xx_HAL_Driver/Src/stm32l4xx_hal_can.c ****     assert_param(IS_CAN_FILTER_BANK_DUAL(sFilterConfig->SlaveStartFilterBank));
 866:Drivers/STM32L4xx_HAL_Driver/Src/stm32l4xx_hal_can.c **** #else
 867:Drivers/STM32L4xx_HAL_Driver/Src/stm32l4xx_hal_can.c ****     /* CAN1 is single instance with 14 dedicated filters banks */
 868:Drivers/STM32L4xx_HAL_Driver/Src/stm32l4xx_hal_can.c **** 
 869:Drivers/STM32L4xx_HAL_Driver/Src/stm32l4xx_hal_can.c ****     /* Check the parameters */
 870:Drivers/STM32L4xx_HAL_Driver/Src/stm32l4xx_hal_can.c ****     assert_param(IS_CAN_FILTER_BANK_SINGLE(sFilterConfig->FilterBank));
 871:Drivers/STM32L4xx_HAL_Driver/Src/stm32l4xx_hal_can.c **** #endif
 872:Drivers/STM32L4xx_HAL_Driver/Src/stm32l4xx_hal_can.c **** 
 873:Drivers/STM32L4xx_HAL_Driver/Src/stm32l4xx_hal_can.c ****     /* Initialisation mode for the filter */
 874:Drivers/STM32L4xx_HAL_Driver/Src/stm32l4xx_hal_can.c ****     SET_BIT(can_ip->FMR, CAN_FMR_FINIT);
 549              		.loc 1 874 5
 550 0026 7B69     		ldr	r3, [r7, #20]
 551 0028 D3F80032 		ldr	r3, [r3, #512]
 552 002c 43F00102 		orr	r2, r3, #1
ARM GAS  /tmp/cce3S0ea.s 			page 26


 553 0030 7B69     		ldr	r3, [r7, #20]
 554 0032 C3F80022 		str	r2, [r3, #512]
 875:Drivers/STM32L4xx_HAL_Driver/Src/stm32l4xx_hal_can.c **** 
 876:Drivers/STM32L4xx_HAL_Driver/Src/stm32l4xx_hal_can.c **** #if   defined(CAN2)
 877:Drivers/STM32L4xx_HAL_Driver/Src/stm32l4xx_hal_can.c ****     /* Select the start filter number of CAN2 slave instance */
 878:Drivers/STM32L4xx_HAL_Driver/Src/stm32l4xx_hal_can.c ****     CLEAR_BIT(can_ip->FMR, CAN_FMR_CAN2SB);
 879:Drivers/STM32L4xx_HAL_Driver/Src/stm32l4xx_hal_can.c ****     SET_BIT(can_ip->FMR, sFilterConfig->SlaveStartFilterBank << CAN_FMR_CAN2SB_Pos);
 880:Drivers/STM32L4xx_HAL_Driver/Src/stm32l4xx_hal_can.c **** 
 881:Drivers/STM32L4xx_HAL_Driver/Src/stm32l4xx_hal_can.c **** #endif
 882:Drivers/STM32L4xx_HAL_Driver/Src/stm32l4xx_hal_can.c ****     /* Convert filter number into bit position */
 883:Drivers/STM32L4xx_HAL_Driver/Src/stm32l4xx_hal_can.c ****     filternbrbitpos = (uint32_t)1 << (sFilterConfig->FilterBank & 0x1FU);
 555              		.loc 1 883 52
 556 0036 3B68     		ldr	r3, [r7]
 557 0038 5B69     		ldr	r3, [r3, #20]
 558              		.loc 1 883 65
 559 003a 03F01F03 		and	r3, r3, #31
 560              		.loc 1 883 21
 561 003e 0122     		movs	r2, #1
 562 0040 02FA03F3 		lsl	r3, r2, r3
 563 0044 FB60     		str	r3, [r7, #12]
 884:Drivers/STM32L4xx_HAL_Driver/Src/stm32l4xx_hal_can.c **** 
 885:Drivers/STM32L4xx_HAL_Driver/Src/stm32l4xx_hal_can.c ****     /* Filter Deactivation */
 886:Drivers/STM32L4xx_HAL_Driver/Src/stm32l4xx_hal_can.c ****     CLEAR_BIT(can_ip->FA1R, filternbrbitpos);
 564              		.loc 1 886 5
 565 0046 7B69     		ldr	r3, [r7, #20]
 566 0048 D3F81C22 		ldr	r2, [r3, #540]
 567 004c FB68     		ldr	r3, [r7, #12]
 568 004e DB43     		mvns	r3, r3
 569 0050 1A40     		ands	r2, r2, r3
 570 0052 7B69     		ldr	r3, [r7, #20]
 571 0054 C3F81C22 		str	r2, [r3, #540]
 887:Drivers/STM32L4xx_HAL_Driver/Src/stm32l4xx_hal_can.c **** 
 888:Drivers/STM32L4xx_HAL_Driver/Src/stm32l4xx_hal_can.c ****     /* Filter Scale */
 889:Drivers/STM32L4xx_HAL_Driver/Src/stm32l4xx_hal_can.c ****     if (sFilterConfig->FilterScale == CAN_FILTERSCALE_16BIT)
 572              		.loc 1 889 22
 573 0058 3B68     		ldr	r3, [r7]
 574 005a DB69     		ldr	r3, [r3, #28]
 575              		.loc 1 889 8
 576 005c 002B     		cmp	r3, #0
 577 005e 23D1     		bne	.L29
 890:Drivers/STM32L4xx_HAL_Driver/Src/stm32l4xx_hal_can.c ****     {
 891:Drivers/STM32L4xx_HAL_Driver/Src/stm32l4xx_hal_can.c ****       /* 16-bit scale for the filter */
 892:Drivers/STM32L4xx_HAL_Driver/Src/stm32l4xx_hal_can.c ****       CLEAR_BIT(can_ip->FS1R, filternbrbitpos);
 578              		.loc 1 892 7
 579 0060 7B69     		ldr	r3, [r7, #20]
 580 0062 D3F80C22 		ldr	r2, [r3, #524]
 581 0066 FB68     		ldr	r3, [r7, #12]
 582 0068 DB43     		mvns	r3, r3
 583 006a 1A40     		ands	r2, r2, r3
 584 006c 7B69     		ldr	r3, [r7, #20]
 585 006e C3F80C22 		str	r2, [r3, #524]
 893:Drivers/STM32L4xx_HAL_Driver/Src/stm32l4xx_hal_can.c **** 
 894:Drivers/STM32L4xx_HAL_Driver/Src/stm32l4xx_hal_can.c ****       /* First 16-bit identifier and First 16-bit mask */
 895:Drivers/STM32L4xx_HAL_Driver/Src/stm32l4xx_hal_can.c ****       /* Or First 16-bit identifier and Second 16-bit identifier */
 896:Drivers/STM32L4xx_HAL_Driver/Src/stm32l4xx_hal_can.c ****       can_ip->sFilterRegister[sFilterConfig->FilterBank].FR1 =
 897:Drivers/STM32L4xx_HAL_Driver/Src/stm32l4xx_hal_can.c ****         ((0x0000FFFFU & (uint32_t)sFilterConfig->FilterMaskIdLow) << 16U) |
 586              		.loc 1 897 48
ARM GAS  /tmp/cce3S0ea.s 			page 27


 587 0072 3B68     		ldr	r3, [r7]
 588 0074 DB68     		ldr	r3, [r3, #12]
 589              		.loc 1 897 67
 590 0076 1904     		lsls	r1, r3, #16
 898:Drivers/STM32L4xx_HAL_Driver/Src/stm32l4xx_hal_can.c ****         (0x0000FFFFU & (uint32_t)sFilterConfig->FilterIdLow);
 591              		.loc 1 898 47
 592 0078 3B68     		ldr	r3, [r7]
 593 007a 5B68     		ldr	r3, [r3, #4]
 594              		.loc 1 898 22
 595 007c 9BB2     		uxth	r3, r3
 896:Drivers/STM32L4xx_HAL_Driver/Src/stm32l4xx_hal_can.c ****         ((0x0000FFFFU & (uint32_t)sFilterConfig->FilterMaskIdLow) << 16U) |
 596              		.loc 1 896 44
 597 007e 3A68     		ldr	r2, [r7]
 598 0080 5269     		ldr	r2, [r2, #20]
 897:Drivers/STM32L4xx_HAL_Driver/Src/stm32l4xx_hal_can.c ****         (0x0000FFFFU & (uint32_t)sFilterConfig->FilterIdLow);
 599              		.loc 1 897 75
 600 0082 1943     		orrs	r1, r1, r3
 896:Drivers/STM32L4xx_HAL_Driver/Src/stm32l4xx_hal_can.c ****         ((0x0000FFFFU & (uint32_t)sFilterConfig->FilterMaskIdLow) << 16U) |
 601              		.loc 1 896 62
 602 0084 7B69     		ldr	r3, [r7, #20]
 603 0086 4832     		adds	r2, r2, #72
 604 0088 43F83210 		str	r1, [r3, r2, lsl #3]
 899:Drivers/STM32L4xx_HAL_Driver/Src/stm32l4xx_hal_can.c **** 
 900:Drivers/STM32L4xx_HAL_Driver/Src/stm32l4xx_hal_can.c ****       /* Second 16-bit identifier and Second 16-bit mask */
 901:Drivers/STM32L4xx_HAL_Driver/Src/stm32l4xx_hal_can.c ****       /* Or Third 16-bit identifier and Fourth 16-bit identifier */
 902:Drivers/STM32L4xx_HAL_Driver/Src/stm32l4xx_hal_can.c ****       can_ip->sFilterRegister[sFilterConfig->FilterBank].FR2 =
 903:Drivers/STM32L4xx_HAL_Driver/Src/stm32l4xx_hal_can.c ****         ((0x0000FFFFU & (uint32_t)sFilterConfig->FilterMaskIdHigh) << 16U) |
 605              		.loc 1 903 48
 606 008c 3B68     		ldr	r3, [r7]
 607 008e 9B68     		ldr	r3, [r3, #8]
 608              		.loc 1 903 68
 609 0090 1904     		lsls	r1, r3, #16
 904:Drivers/STM32L4xx_HAL_Driver/Src/stm32l4xx_hal_can.c ****         (0x0000FFFFU & (uint32_t)sFilterConfig->FilterIdHigh);
 610              		.loc 1 904 47
 611 0092 3B68     		ldr	r3, [r7]
 612 0094 1B68     		ldr	r3, [r3]
 613              		.loc 1 904 22
 614 0096 9AB2     		uxth	r2, r3
 902:Drivers/STM32L4xx_HAL_Driver/Src/stm32l4xx_hal_can.c ****         ((0x0000FFFFU & (uint32_t)sFilterConfig->FilterMaskIdHigh) << 16U) |
 615              		.loc 1 902 44
 616 0098 3B68     		ldr	r3, [r7]
 617 009a 5B69     		ldr	r3, [r3, #20]
 903:Drivers/STM32L4xx_HAL_Driver/Src/stm32l4xx_hal_can.c ****         (0x0000FFFFU & (uint32_t)sFilterConfig->FilterIdHigh);
 618              		.loc 1 903 76
 619 009c 0A43     		orrs	r2, r2, r1
 902:Drivers/STM32L4xx_HAL_Driver/Src/stm32l4xx_hal_can.c ****         ((0x0000FFFFU & (uint32_t)sFilterConfig->FilterMaskIdHigh) << 16U) |
 620              		.loc 1 902 62
 621 009e 7969     		ldr	r1, [r7, #20]
 622 00a0 4833     		adds	r3, r3, #72
 623 00a2 DB00     		lsls	r3, r3, #3
 624 00a4 0B44     		add	r3, r3, r1
 625 00a6 5A60     		str	r2, [r3, #4]
 626              	.L29:
 905:Drivers/STM32L4xx_HAL_Driver/Src/stm32l4xx_hal_can.c ****     }
 906:Drivers/STM32L4xx_HAL_Driver/Src/stm32l4xx_hal_can.c **** 
 907:Drivers/STM32L4xx_HAL_Driver/Src/stm32l4xx_hal_can.c ****     if (sFilterConfig->FilterScale == CAN_FILTERSCALE_32BIT)
 627              		.loc 1 907 22
ARM GAS  /tmp/cce3S0ea.s 			page 28


 628 00a8 3B68     		ldr	r3, [r7]
 629 00aa DB69     		ldr	r3, [r3, #28]
 630              		.loc 1 907 8
 631 00ac 012B     		cmp	r3, #1
 632 00ae 22D1     		bne	.L30
 908:Drivers/STM32L4xx_HAL_Driver/Src/stm32l4xx_hal_can.c ****     {
 909:Drivers/STM32L4xx_HAL_Driver/Src/stm32l4xx_hal_can.c ****       /* 32-bit scale for the filter */
 910:Drivers/STM32L4xx_HAL_Driver/Src/stm32l4xx_hal_can.c ****       SET_BIT(can_ip->FS1R, filternbrbitpos);
 633              		.loc 1 910 7
 634 00b0 7B69     		ldr	r3, [r7, #20]
 635 00b2 D3F80C22 		ldr	r2, [r3, #524]
 636 00b6 FB68     		ldr	r3, [r7, #12]
 637 00b8 1A43     		orrs	r2, r2, r3
 638 00ba 7B69     		ldr	r3, [r7, #20]
 639 00bc C3F80C22 		str	r2, [r3, #524]
 911:Drivers/STM32L4xx_HAL_Driver/Src/stm32l4xx_hal_can.c **** 
 912:Drivers/STM32L4xx_HAL_Driver/Src/stm32l4xx_hal_can.c ****       /* 32-bit identifier or First 32-bit identifier */
 913:Drivers/STM32L4xx_HAL_Driver/Src/stm32l4xx_hal_can.c ****       can_ip->sFilterRegister[sFilterConfig->FilterBank].FR1 =
 914:Drivers/STM32L4xx_HAL_Driver/Src/stm32l4xx_hal_can.c ****         ((0x0000FFFFU & (uint32_t)sFilterConfig->FilterIdHigh) << 16U) |
 640              		.loc 1 914 48
 641 00c0 3B68     		ldr	r3, [r7]
 642 00c2 1B68     		ldr	r3, [r3]
 643              		.loc 1 914 64
 644 00c4 1904     		lsls	r1, r3, #16
 915:Drivers/STM32L4xx_HAL_Driver/Src/stm32l4xx_hal_can.c ****         (0x0000FFFFU & (uint32_t)sFilterConfig->FilterIdLow);
 645              		.loc 1 915 47
 646 00c6 3B68     		ldr	r3, [r7]
 647 00c8 5B68     		ldr	r3, [r3, #4]
 648              		.loc 1 915 22
 649 00ca 9BB2     		uxth	r3, r3
 913:Drivers/STM32L4xx_HAL_Driver/Src/stm32l4xx_hal_can.c ****         ((0x0000FFFFU & (uint32_t)sFilterConfig->FilterIdHigh) << 16U) |
 650              		.loc 1 913 44
 651 00cc 3A68     		ldr	r2, [r7]
 652 00ce 5269     		ldr	r2, [r2, #20]
 914:Drivers/STM32L4xx_HAL_Driver/Src/stm32l4xx_hal_can.c ****         (0x0000FFFFU & (uint32_t)sFilterConfig->FilterIdLow);
 653              		.loc 1 914 72
 654 00d0 1943     		orrs	r1, r1, r3
 913:Drivers/STM32L4xx_HAL_Driver/Src/stm32l4xx_hal_can.c ****         ((0x0000FFFFU & (uint32_t)sFilterConfig->FilterIdHigh) << 16U) |
 655              		.loc 1 913 62
 656 00d2 7B69     		ldr	r3, [r7, #20]
 657 00d4 4832     		adds	r2, r2, #72
 658 00d6 43F83210 		str	r1, [r3, r2, lsl #3]
 916:Drivers/STM32L4xx_HAL_Driver/Src/stm32l4xx_hal_can.c **** 
 917:Drivers/STM32L4xx_HAL_Driver/Src/stm32l4xx_hal_can.c ****       /* 32-bit mask or Second 32-bit identifier */
 918:Drivers/STM32L4xx_HAL_Driver/Src/stm32l4xx_hal_can.c ****       can_ip->sFilterRegister[sFilterConfig->FilterBank].FR2 =
 919:Drivers/STM32L4xx_HAL_Driver/Src/stm32l4xx_hal_can.c ****         ((0x0000FFFFU & (uint32_t)sFilterConfig->FilterMaskIdHigh) << 16U) |
 659              		.loc 1 919 48
 660 00da 3B68     		ldr	r3, [r7]
 661 00dc 9B68     		ldr	r3, [r3, #8]
 662              		.loc 1 919 68
 663 00de 1904     		lsls	r1, r3, #16
 920:Drivers/STM32L4xx_HAL_Driver/Src/stm32l4xx_hal_can.c ****         (0x0000FFFFU & (uint32_t)sFilterConfig->FilterMaskIdLow);
 664              		.loc 1 920 47
 665 00e0 3B68     		ldr	r3, [r7]
 666 00e2 DB68     		ldr	r3, [r3, #12]
 667              		.loc 1 920 22
 668 00e4 9AB2     		uxth	r2, r3
ARM GAS  /tmp/cce3S0ea.s 			page 29


 918:Drivers/STM32L4xx_HAL_Driver/Src/stm32l4xx_hal_can.c ****         ((0x0000FFFFU & (uint32_t)sFilterConfig->FilterMaskIdHigh) << 16U) |
 669              		.loc 1 918 44
 670 00e6 3B68     		ldr	r3, [r7]
 671 00e8 5B69     		ldr	r3, [r3, #20]
 919:Drivers/STM32L4xx_HAL_Driver/Src/stm32l4xx_hal_can.c ****         (0x0000FFFFU & (uint32_t)sFilterConfig->FilterMaskIdLow);
 672              		.loc 1 919 76
 673 00ea 0A43     		orrs	r2, r2, r1
 918:Drivers/STM32L4xx_HAL_Driver/Src/stm32l4xx_hal_can.c ****         ((0x0000FFFFU & (uint32_t)sFilterConfig->FilterMaskIdHigh) << 16U) |
 674              		.loc 1 918 62
 675 00ec 7969     		ldr	r1, [r7, #20]
 676 00ee 4833     		adds	r3, r3, #72
 677 00f0 DB00     		lsls	r3, r3, #3
 678 00f2 0B44     		add	r3, r3, r1
 679 00f4 5A60     		str	r2, [r3, #4]
 680              	.L30:
 921:Drivers/STM32L4xx_HAL_Driver/Src/stm32l4xx_hal_can.c ****     }
 922:Drivers/STM32L4xx_HAL_Driver/Src/stm32l4xx_hal_can.c **** 
 923:Drivers/STM32L4xx_HAL_Driver/Src/stm32l4xx_hal_can.c ****     /* Filter Mode */
 924:Drivers/STM32L4xx_HAL_Driver/Src/stm32l4xx_hal_can.c ****     if (sFilterConfig->FilterMode == CAN_FILTERMODE_IDMASK)
 681              		.loc 1 924 22
 682 00f6 3B68     		ldr	r3, [r7]
 683 00f8 9B69     		ldr	r3, [r3, #24]
 684              		.loc 1 924 8
 685 00fa 002B     		cmp	r3, #0
 686 00fc 09D1     		bne	.L31
 925:Drivers/STM32L4xx_HAL_Driver/Src/stm32l4xx_hal_can.c ****     {
 926:Drivers/STM32L4xx_HAL_Driver/Src/stm32l4xx_hal_can.c ****       /* Id/Mask mode for the filter*/
 927:Drivers/STM32L4xx_HAL_Driver/Src/stm32l4xx_hal_can.c ****       CLEAR_BIT(can_ip->FM1R, filternbrbitpos);
 687              		.loc 1 927 7
 688 00fe 7B69     		ldr	r3, [r7, #20]
 689 0100 D3F80422 		ldr	r2, [r3, #516]
 690 0104 FB68     		ldr	r3, [r7, #12]
 691 0106 DB43     		mvns	r3, r3
 692 0108 1A40     		ands	r2, r2, r3
 693 010a 7B69     		ldr	r3, [r7, #20]
 694 010c C3F80422 		str	r2, [r3, #516]
 695 0110 07E0     		b	.L32
 696              	.L31:
 928:Drivers/STM32L4xx_HAL_Driver/Src/stm32l4xx_hal_can.c ****     }
 929:Drivers/STM32L4xx_HAL_Driver/Src/stm32l4xx_hal_can.c ****     else /* CAN_FilterInitStruct->CAN_FilterMode == CAN_FilterMode_IdList */
 930:Drivers/STM32L4xx_HAL_Driver/Src/stm32l4xx_hal_can.c ****     {
 931:Drivers/STM32L4xx_HAL_Driver/Src/stm32l4xx_hal_can.c ****       /* Identifier list mode for the filter*/
 932:Drivers/STM32L4xx_HAL_Driver/Src/stm32l4xx_hal_can.c ****       SET_BIT(can_ip->FM1R, filternbrbitpos);
 697              		.loc 1 932 7
 698 0112 7B69     		ldr	r3, [r7, #20]
 699 0114 D3F80422 		ldr	r2, [r3, #516]
 700 0118 FB68     		ldr	r3, [r7, #12]
 701 011a 1A43     		orrs	r2, r2, r3
 702 011c 7B69     		ldr	r3, [r7, #20]
 703 011e C3F80422 		str	r2, [r3, #516]
 704              	.L32:
 933:Drivers/STM32L4xx_HAL_Driver/Src/stm32l4xx_hal_can.c ****     }
 934:Drivers/STM32L4xx_HAL_Driver/Src/stm32l4xx_hal_can.c **** 
 935:Drivers/STM32L4xx_HAL_Driver/Src/stm32l4xx_hal_can.c ****     /* Filter FIFO assignment */
 936:Drivers/STM32L4xx_HAL_Driver/Src/stm32l4xx_hal_can.c ****     if (sFilterConfig->FilterFIFOAssignment == CAN_FILTER_FIFO0)
 705              		.loc 1 936 22
 706 0122 3B68     		ldr	r3, [r7]
ARM GAS  /tmp/cce3S0ea.s 			page 30


 707 0124 1B69     		ldr	r3, [r3, #16]
 708              		.loc 1 936 8
 709 0126 002B     		cmp	r3, #0
 710 0128 09D1     		bne	.L33
 937:Drivers/STM32L4xx_HAL_Driver/Src/stm32l4xx_hal_can.c ****     {
 938:Drivers/STM32L4xx_HAL_Driver/Src/stm32l4xx_hal_can.c ****       /* FIFO 0 assignation for the filter */
 939:Drivers/STM32L4xx_HAL_Driver/Src/stm32l4xx_hal_can.c ****       CLEAR_BIT(can_ip->FFA1R, filternbrbitpos);
 711              		.loc 1 939 7
 712 012a 7B69     		ldr	r3, [r7, #20]
 713 012c D3F81422 		ldr	r2, [r3, #532]
 714 0130 FB68     		ldr	r3, [r7, #12]
 715 0132 DB43     		mvns	r3, r3
 716 0134 1A40     		ands	r2, r2, r3
 717 0136 7B69     		ldr	r3, [r7, #20]
 718 0138 C3F81422 		str	r2, [r3, #532]
 719 013c 07E0     		b	.L34
 720              	.L33:
 940:Drivers/STM32L4xx_HAL_Driver/Src/stm32l4xx_hal_can.c ****     }
 941:Drivers/STM32L4xx_HAL_Driver/Src/stm32l4xx_hal_can.c ****     else
 942:Drivers/STM32L4xx_HAL_Driver/Src/stm32l4xx_hal_can.c ****     {
 943:Drivers/STM32L4xx_HAL_Driver/Src/stm32l4xx_hal_can.c ****       /* FIFO 1 assignation for the filter */
 944:Drivers/STM32L4xx_HAL_Driver/Src/stm32l4xx_hal_can.c ****       SET_BIT(can_ip->FFA1R, filternbrbitpos);
 721              		.loc 1 944 7
 722 013e 7B69     		ldr	r3, [r7, #20]
 723 0140 D3F81422 		ldr	r2, [r3, #532]
 724 0144 FB68     		ldr	r3, [r7, #12]
 725 0146 1A43     		orrs	r2, r2, r3
 726 0148 7B69     		ldr	r3, [r7, #20]
 727 014a C3F81422 		str	r2, [r3, #532]
 728              	.L34:
 945:Drivers/STM32L4xx_HAL_Driver/Src/stm32l4xx_hal_can.c ****     }
 946:Drivers/STM32L4xx_HAL_Driver/Src/stm32l4xx_hal_can.c **** 
 947:Drivers/STM32L4xx_HAL_Driver/Src/stm32l4xx_hal_can.c ****     /* Filter activation */
 948:Drivers/STM32L4xx_HAL_Driver/Src/stm32l4xx_hal_can.c ****     if (sFilterConfig->FilterActivation == CAN_FILTER_ENABLE)
 729              		.loc 1 948 22
 730 014e 3B68     		ldr	r3, [r7]
 731 0150 1B6A     		ldr	r3, [r3, #32]
 732              		.loc 1 948 8
 733 0152 012B     		cmp	r3, #1
 734 0154 07D1     		bne	.L35
 949:Drivers/STM32L4xx_HAL_Driver/Src/stm32l4xx_hal_can.c ****     {
 950:Drivers/STM32L4xx_HAL_Driver/Src/stm32l4xx_hal_can.c ****       SET_BIT(can_ip->FA1R, filternbrbitpos);
 735              		.loc 1 950 7
 736 0156 7B69     		ldr	r3, [r7, #20]
 737 0158 D3F81C22 		ldr	r2, [r3, #540]
 738 015c FB68     		ldr	r3, [r7, #12]
 739 015e 1A43     		orrs	r2, r2, r3
 740 0160 7B69     		ldr	r3, [r7, #20]
 741 0162 C3F81C22 		str	r2, [r3, #540]
 742              	.L35:
 951:Drivers/STM32L4xx_HAL_Driver/Src/stm32l4xx_hal_can.c ****     }
 952:Drivers/STM32L4xx_HAL_Driver/Src/stm32l4xx_hal_can.c **** 
 953:Drivers/STM32L4xx_HAL_Driver/Src/stm32l4xx_hal_can.c ****     /* Leave the initialisation mode for the filter */
 954:Drivers/STM32L4xx_HAL_Driver/Src/stm32l4xx_hal_can.c ****     CLEAR_BIT(can_ip->FMR, CAN_FMR_FINIT);
 743              		.loc 1 954 5
 744 0166 7B69     		ldr	r3, [r7, #20]
 745 0168 D3F80032 		ldr	r3, [r3, #512]
ARM GAS  /tmp/cce3S0ea.s 			page 31


 746 016c 23F00102 		bic	r2, r3, #1
 747 0170 7B69     		ldr	r3, [r7, #20]
 748 0172 C3F80022 		str	r2, [r3, #512]
 955:Drivers/STM32L4xx_HAL_Driver/Src/stm32l4xx_hal_can.c **** 
 956:Drivers/STM32L4xx_HAL_Driver/Src/stm32l4xx_hal_can.c ****     /* Return function status */
 957:Drivers/STM32L4xx_HAL_Driver/Src/stm32l4xx_hal_can.c ****     return HAL_OK;
 749              		.loc 1 957 12
 750 0176 0023     		movs	r3, #0
 751 0178 06E0     		b	.L36
 752              	.L28:
 958:Drivers/STM32L4xx_HAL_Driver/Src/stm32l4xx_hal_can.c ****   }
 959:Drivers/STM32L4xx_HAL_Driver/Src/stm32l4xx_hal_can.c ****   else
 960:Drivers/STM32L4xx_HAL_Driver/Src/stm32l4xx_hal_can.c ****   {
 961:Drivers/STM32L4xx_HAL_Driver/Src/stm32l4xx_hal_can.c ****     /* Update error code */
 962:Drivers/STM32L4xx_HAL_Driver/Src/stm32l4xx_hal_can.c ****     hcan->ErrorCode |= HAL_CAN_ERROR_NOT_INITIALIZED;
 753              		.loc 1 962 21
 754 017a 7B68     		ldr	r3, [r7, #4]
 755 017c 5B6A     		ldr	r3, [r3, #36]
 756 017e 43F48022 		orr	r2, r3, #262144
 757 0182 7B68     		ldr	r3, [r7, #4]
 758 0184 5A62     		str	r2, [r3, #36]
 963:Drivers/STM32L4xx_HAL_Driver/Src/stm32l4xx_hal_can.c **** 
 964:Drivers/STM32L4xx_HAL_Driver/Src/stm32l4xx_hal_can.c ****     return HAL_ERROR;
 759              		.loc 1 964 12
 760 0186 0123     		movs	r3, #1
 761              	.L36:
 965:Drivers/STM32L4xx_HAL_Driver/Src/stm32l4xx_hal_can.c ****   }
 966:Drivers/STM32L4xx_HAL_Driver/Src/stm32l4xx_hal_can.c **** }
 762              		.loc 1 966 1
 763 0188 1846     		mov	r0, r3
 764 018a 1C37     		adds	r7, r7, #28
 765              	.LCFI25:
 766              		.cfi_def_cfa_offset 4
 767 018c BD46     		mov	sp, r7
 768              	.LCFI26:
 769              		.cfi_def_cfa_register 13
 770              		@ sp needed
 771 018e 5DF8047B 		ldr	r7, [sp], #4
 772              	.LCFI27:
 773              		.cfi_restore 7
 774              		.cfi_def_cfa_offset 0
 775 0192 7047     		bx	lr
 776              		.cfi_endproc
 777              	.LFE136:
 779              		.section	.text.HAL_CAN_Start,"ax",%progbits
 780              		.align	1
 781              		.global	HAL_CAN_Start
 782              		.syntax unified
 783              		.thumb
 784              		.thumb_func
 786              	HAL_CAN_Start:
 787              	.LFB137:
 967:Drivers/STM32L4xx_HAL_Driver/Src/stm32l4xx_hal_can.c **** 
 968:Drivers/STM32L4xx_HAL_Driver/Src/stm32l4xx_hal_can.c **** /**
 969:Drivers/STM32L4xx_HAL_Driver/Src/stm32l4xx_hal_can.c ****   * @}
 970:Drivers/STM32L4xx_HAL_Driver/Src/stm32l4xx_hal_can.c ****   */
 971:Drivers/STM32L4xx_HAL_Driver/Src/stm32l4xx_hal_can.c **** 
ARM GAS  /tmp/cce3S0ea.s 			page 32


 972:Drivers/STM32L4xx_HAL_Driver/Src/stm32l4xx_hal_can.c **** /** @defgroup CAN_Exported_Functions_Group3 Control functions
 973:Drivers/STM32L4xx_HAL_Driver/Src/stm32l4xx_hal_can.c ****  *  @brief    Control functions
 974:Drivers/STM32L4xx_HAL_Driver/Src/stm32l4xx_hal_can.c ****  *
 975:Drivers/STM32L4xx_HAL_Driver/Src/stm32l4xx_hal_can.c **** @verbatim
 976:Drivers/STM32L4xx_HAL_Driver/Src/stm32l4xx_hal_can.c ****   ==============================================================================
 977:Drivers/STM32L4xx_HAL_Driver/Src/stm32l4xx_hal_can.c ****                       ##### Control functions #####
 978:Drivers/STM32L4xx_HAL_Driver/Src/stm32l4xx_hal_can.c ****   ==============================================================================
 979:Drivers/STM32L4xx_HAL_Driver/Src/stm32l4xx_hal_can.c ****     [..]  This section provides functions allowing to:
 980:Drivers/STM32L4xx_HAL_Driver/Src/stm32l4xx_hal_can.c ****       (+) HAL_CAN_Start                    : Start the CAN module
 981:Drivers/STM32L4xx_HAL_Driver/Src/stm32l4xx_hal_can.c ****       (+) HAL_CAN_Stop                     : Stop the CAN module
 982:Drivers/STM32L4xx_HAL_Driver/Src/stm32l4xx_hal_can.c ****       (+) HAL_CAN_RequestSleep             : Request sleep mode entry.
 983:Drivers/STM32L4xx_HAL_Driver/Src/stm32l4xx_hal_can.c ****       (+) HAL_CAN_WakeUp                   : Wake up from sleep mode.
 984:Drivers/STM32L4xx_HAL_Driver/Src/stm32l4xx_hal_can.c ****       (+) HAL_CAN_IsSleepActive            : Check is sleep mode is active.
 985:Drivers/STM32L4xx_HAL_Driver/Src/stm32l4xx_hal_can.c ****       (+) HAL_CAN_AddTxMessage             : Add a message to the Tx mailboxes
 986:Drivers/STM32L4xx_HAL_Driver/Src/stm32l4xx_hal_can.c ****                                              and activate the corresponding
 987:Drivers/STM32L4xx_HAL_Driver/Src/stm32l4xx_hal_can.c ****                                              transmission request
 988:Drivers/STM32L4xx_HAL_Driver/Src/stm32l4xx_hal_can.c ****       (+) HAL_CAN_AbortTxRequest           : Abort transmission request
 989:Drivers/STM32L4xx_HAL_Driver/Src/stm32l4xx_hal_can.c ****       (+) HAL_CAN_GetTxMailboxesFreeLevel  : Return Tx mailboxes free level
 990:Drivers/STM32L4xx_HAL_Driver/Src/stm32l4xx_hal_can.c ****       (+) HAL_CAN_IsTxMessagePending       : Check if a transmission request is
 991:Drivers/STM32L4xx_HAL_Driver/Src/stm32l4xx_hal_can.c ****                                              pending on the selected Tx mailbox
 992:Drivers/STM32L4xx_HAL_Driver/Src/stm32l4xx_hal_can.c ****       (+) HAL_CAN_GetRxMessage             : Get a CAN frame from the Rx FIFO
 993:Drivers/STM32L4xx_HAL_Driver/Src/stm32l4xx_hal_can.c ****       (+) HAL_CAN_GetRxFifoFillLevel       : Return Rx FIFO fill level
 994:Drivers/STM32L4xx_HAL_Driver/Src/stm32l4xx_hal_can.c **** 
 995:Drivers/STM32L4xx_HAL_Driver/Src/stm32l4xx_hal_can.c **** @endverbatim
 996:Drivers/STM32L4xx_HAL_Driver/Src/stm32l4xx_hal_can.c ****   * @{
 997:Drivers/STM32L4xx_HAL_Driver/Src/stm32l4xx_hal_can.c ****   */
 998:Drivers/STM32L4xx_HAL_Driver/Src/stm32l4xx_hal_can.c **** 
 999:Drivers/STM32L4xx_HAL_Driver/Src/stm32l4xx_hal_can.c **** /**
1000:Drivers/STM32L4xx_HAL_Driver/Src/stm32l4xx_hal_can.c ****   * @brief  Start the CAN module.
1001:Drivers/STM32L4xx_HAL_Driver/Src/stm32l4xx_hal_can.c ****   * @param  hcan pointer to an CAN_HandleTypeDef structure that contains
1002:Drivers/STM32L4xx_HAL_Driver/Src/stm32l4xx_hal_can.c ****   *         the configuration information for the specified CAN.
1003:Drivers/STM32L4xx_HAL_Driver/Src/stm32l4xx_hal_can.c ****   * @retval HAL status
1004:Drivers/STM32L4xx_HAL_Driver/Src/stm32l4xx_hal_can.c ****   */
1005:Drivers/STM32L4xx_HAL_Driver/Src/stm32l4xx_hal_can.c **** HAL_StatusTypeDef HAL_CAN_Start(CAN_HandleTypeDef *hcan)
1006:Drivers/STM32L4xx_HAL_Driver/Src/stm32l4xx_hal_can.c **** {
 788              		.loc 1 1006 1
 789              		.cfi_startproc
 790              		@ args = 0, pretend = 0, frame = 16
 791              		@ frame_needed = 1, uses_anonymous_args = 0
 792 0000 80B5     		push	{r7, lr}
 793              	.LCFI28:
 794              		.cfi_def_cfa_offset 8
 795              		.cfi_offset 7, -8
 796              		.cfi_offset 14, -4
 797 0002 84B0     		sub	sp, sp, #16
 798              	.LCFI29:
 799              		.cfi_def_cfa_offset 24
 800 0004 00AF     		add	r7, sp, #0
 801              	.LCFI30:
 802              		.cfi_def_cfa_register 7
 803 0006 7860     		str	r0, [r7, #4]
1007:Drivers/STM32L4xx_HAL_Driver/Src/stm32l4xx_hal_can.c ****   uint32_t tickstart;
1008:Drivers/STM32L4xx_HAL_Driver/Src/stm32l4xx_hal_can.c **** 
1009:Drivers/STM32L4xx_HAL_Driver/Src/stm32l4xx_hal_can.c ****   if (hcan->State == HAL_CAN_STATE_READY)
 804              		.loc 1 1009 11
 805 0008 7B68     		ldr	r3, [r7, #4]
 806 000a 93F82030 		ldrb	r3, [r3, #32]
ARM GAS  /tmp/cce3S0ea.s 			page 33


 807 000e DBB2     		uxtb	r3, r3
 808              		.loc 1 1009 6
 809 0010 012B     		cmp	r3, #1
 810 0012 2ED1     		bne	.L38
1010:Drivers/STM32L4xx_HAL_Driver/Src/stm32l4xx_hal_can.c ****   {
1011:Drivers/STM32L4xx_HAL_Driver/Src/stm32l4xx_hal_can.c ****     /* Change CAN peripheral state */
1012:Drivers/STM32L4xx_HAL_Driver/Src/stm32l4xx_hal_can.c ****     hcan->State = HAL_CAN_STATE_LISTENING;
 811              		.loc 1 1012 17
 812 0014 7B68     		ldr	r3, [r7, #4]
 813 0016 0222     		movs	r2, #2
 814 0018 83F82020 		strb	r2, [r3, #32]
1013:Drivers/STM32L4xx_HAL_Driver/Src/stm32l4xx_hal_can.c **** 
1014:Drivers/STM32L4xx_HAL_Driver/Src/stm32l4xx_hal_can.c ****     /* Request leave initialisation */
1015:Drivers/STM32L4xx_HAL_Driver/Src/stm32l4xx_hal_can.c ****     CLEAR_BIT(hcan->Instance->MCR, CAN_MCR_INRQ);
 815              		.loc 1 1015 5
 816 001c 7B68     		ldr	r3, [r7, #4]
 817 001e 1B68     		ldr	r3, [r3]
 818 0020 1A68     		ldr	r2, [r3]
 819 0022 7B68     		ldr	r3, [r7, #4]
 820 0024 1B68     		ldr	r3, [r3]
 821 0026 22F00102 		bic	r2, r2, #1
 822 002a 1A60     		str	r2, [r3]
1016:Drivers/STM32L4xx_HAL_Driver/Src/stm32l4xx_hal_can.c **** 
1017:Drivers/STM32L4xx_HAL_Driver/Src/stm32l4xx_hal_can.c ****     /* Get tick */
1018:Drivers/STM32L4xx_HAL_Driver/Src/stm32l4xx_hal_can.c ****     tickstart = HAL_GetTick();
 823              		.loc 1 1018 17
 824 002c FFF7FEFF 		bl	HAL_GetTick
 825 0030 F860     		str	r0, [r7, #12]
1019:Drivers/STM32L4xx_HAL_Driver/Src/stm32l4xx_hal_can.c **** 
1020:Drivers/STM32L4xx_HAL_Driver/Src/stm32l4xx_hal_can.c ****     /* Wait the acknowledge */
1021:Drivers/STM32L4xx_HAL_Driver/Src/stm32l4xx_hal_can.c ****     while ((hcan->Instance->MSR & CAN_MSR_INAK) != 0U)
 826              		.loc 1 1021 11
 827 0032 12E0     		b	.L39
 828              	.L41:
1022:Drivers/STM32L4xx_HAL_Driver/Src/stm32l4xx_hal_can.c ****     {
1023:Drivers/STM32L4xx_HAL_Driver/Src/stm32l4xx_hal_can.c ****       /* Check for the Timeout */
1024:Drivers/STM32L4xx_HAL_Driver/Src/stm32l4xx_hal_can.c ****       if ((HAL_GetTick() - tickstart) > CAN_TIMEOUT_VALUE)
 829              		.loc 1 1024 12
 830 0034 FFF7FEFF 		bl	HAL_GetTick
 831 0038 0246     		mov	r2, r0
 832              		.loc 1 1024 26
 833 003a FB68     		ldr	r3, [r7, #12]
 834 003c D31A     		subs	r3, r2, r3
 835              		.loc 1 1024 10
 836 003e 0A2B     		cmp	r3, #10
 837 0040 0BD9     		bls	.L39
1025:Drivers/STM32L4xx_HAL_Driver/Src/stm32l4xx_hal_can.c ****       {
1026:Drivers/STM32L4xx_HAL_Driver/Src/stm32l4xx_hal_can.c ****         /* Update error code */
1027:Drivers/STM32L4xx_HAL_Driver/Src/stm32l4xx_hal_can.c ****         hcan->ErrorCode |= HAL_CAN_ERROR_TIMEOUT;
 838              		.loc 1 1027 25
 839 0042 7B68     		ldr	r3, [r7, #4]
 840 0044 5B6A     		ldr	r3, [r3, #36]
 841 0046 43F40032 		orr	r2, r3, #131072
 842 004a 7B68     		ldr	r3, [r7, #4]
 843 004c 5A62     		str	r2, [r3, #36]
1028:Drivers/STM32L4xx_HAL_Driver/Src/stm32l4xx_hal_can.c **** 
1029:Drivers/STM32L4xx_HAL_Driver/Src/stm32l4xx_hal_can.c ****         /* Change CAN state */
ARM GAS  /tmp/cce3S0ea.s 			page 34


1030:Drivers/STM32L4xx_HAL_Driver/Src/stm32l4xx_hal_can.c ****         hcan->State = HAL_CAN_STATE_ERROR;
 844              		.loc 1 1030 21
 845 004e 7B68     		ldr	r3, [r7, #4]
 846 0050 0522     		movs	r2, #5
 847 0052 83F82020 		strb	r2, [r3, #32]
1031:Drivers/STM32L4xx_HAL_Driver/Src/stm32l4xx_hal_can.c **** 
1032:Drivers/STM32L4xx_HAL_Driver/Src/stm32l4xx_hal_can.c ****         return HAL_ERROR;
 848              		.loc 1 1032 16
 849 0056 0123     		movs	r3, #1
 850 0058 12E0     		b	.L40
 851              	.L39:
1021:Drivers/STM32L4xx_HAL_Driver/Src/stm32l4xx_hal_can.c ****     {
 852              		.loc 1 1021 17
 853 005a 7B68     		ldr	r3, [r7, #4]
 854 005c 1B68     		ldr	r3, [r3]
1021:Drivers/STM32L4xx_HAL_Driver/Src/stm32l4xx_hal_can.c ****     {
 855              		.loc 1 1021 27
 856 005e 5B68     		ldr	r3, [r3, #4]
1021:Drivers/STM32L4xx_HAL_Driver/Src/stm32l4xx_hal_can.c ****     {
 857              		.loc 1 1021 33
 858 0060 03F00103 		and	r3, r3, #1
1021:Drivers/STM32L4xx_HAL_Driver/Src/stm32l4xx_hal_can.c ****     {
 859              		.loc 1 1021 11
 860 0064 002B     		cmp	r3, #0
 861 0066 E5D1     		bne	.L41
1033:Drivers/STM32L4xx_HAL_Driver/Src/stm32l4xx_hal_can.c ****       }
1034:Drivers/STM32L4xx_HAL_Driver/Src/stm32l4xx_hal_can.c ****     }
1035:Drivers/STM32L4xx_HAL_Driver/Src/stm32l4xx_hal_can.c **** 
1036:Drivers/STM32L4xx_HAL_Driver/Src/stm32l4xx_hal_can.c ****     /* Reset the CAN ErrorCode */
1037:Drivers/STM32L4xx_HAL_Driver/Src/stm32l4xx_hal_can.c ****     hcan->ErrorCode = HAL_CAN_ERROR_NONE;
 862              		.loc 1 1037 21
 863 0068 7B68     		ldr	r3, [r7, #4]
 864 006a 0022     		movs	r2, #0
 865 006c 5A62     		str	r2, [r3, #36]
1038:Drivers/STM32L4xx_HAL_Driver/Src/stm32l4xx_hal_can.c **** 
1039:Drivers/STM32L4xx_HAL_Driver/Src/stm32l4xx_hal_can.c ****     /* Return function status */
1040:Drivers/STM32L4xx_HAL_Driver/Src/stm32l4xx_hal_can.c ****     return HAL_OK;
 866              		.loc 1 1040 12
 867 006e 0023     		movs	r3, #0
 868 0070 06E0     		b	.L40
 869              	.L38:
1041:Drivers/STM32L4xx_HAL_Driver/Src/stm32l4xx_hal_can.c ****   }
1042:Drivers/STM32L4xx_HAL_Driver/Src/stm32l4xx_hal_can.c ****   else
1043:Drivers/STM32L4xx_HAL_Driver/Src/stm32l4xx_hal_can.c ****   {
1044:Drivers/STM32L4xx_HAL_Driver/Src/stm32l4xx_hal_can.c ****     /* Update error code */
1045:Drivers/STM32L4xx_HAL_Driver/Src/stm32l4xx_hal_can.c ****     hcan->ErrorCode |= HAL_CAN_ERROR_NOT_READY;
 870              		.loc 1 1045 21
 871 0072 7B68     		ldr	r3, [r7, #4]
 872 0074 5B6A     		ldr	r3, [r3, #36]
 873 0076 43F40022 		orr	r2, r3, #524288
 874 007a 7B68     		ldr	r3, [r7, #4]
 875 007c 5A62     		str	r2, [r3, #36]
1046:Drivers/STM32L4xx_HAL_Driver/Src/stm32l4xx_hal_can.c **** 
1047:Drivers/STM32L4xx_HAL_Driver/Src/stm32l4xx_hal_can.c ****     return HAL_ERROR;
 876              		.loc 1 1047 12
 877 007e 0123     		movs	r3, #1
 878              	.L40:
ARM GAS  /tmp/cce3S0ea.s 			page 35


1048:Drivers/STM32L4xx_HAL_Driver/Src/stm32l4xx_hal_can.c ****   }
1049:Drivers/STM32L4xx_HAL_Driver/Src/stm32l4xx_hal_can.c **** }
 879              		.loc 1 1049 1
 880 0080 1846     		mov	r0, r3
 881 0082 1037     		adds	r7, r7, #16
 882              	.LCFI31:
 883              		.cfi_def_cfa_offset 8
 884 0084 BD46     		mov	sp, r7
 885              	.LCFI32:
 886              		.cfi_def_cfa_register 13
 887              		@ sp needed
 888 0086 80BD     		pop	{r7, pc}
 889              		.cfi_endproc
 890              	.LFE137:
 892              		.section	.text.HAL_CAN_Stop,"ax",%progbits
 893              		.align	1
 894              		.global	HAL_CAN_Stop
 895              		.syntax unified
 896              		.thumb
 897              		.thumb_func
 899              	HAL_CAN_Stop:
 900              	.LFB138:
1050:Drivers/STM32L4xx_HAL_Driver/Src/stm32l4xx_hal_can.c **** 
1051:Drivers/STM32L4xx_HAL_Driver/Src/stm32l4xx_hal_can.c **** /**
1052:Drivers/STM32L4xx_HAL_Driver/Src/stm32l4xx_hal_can.c ****   * @brief  Stop the CAN module and enable access to configuration registers.
1053:Drivers/STM32L4xx_HAL_Driver/Src/stm32l4xx_hal_can.c ****   * @param  hcan pointer to an CAN_HandleTypeDef structure that contains
1054:Drivers/STM32L4xx_HAL_Driver/Src/stm32l4xx_hal_can.c ****   *         the configuration information for the specified CAN.
1055:Drivers/STM32L4xx_HAL_Driver/Src/stm32l4xx_hal_can.c ****   * @retval HAL status
1056:Drivers/STM32L4xx_HAL_Driver/Src/stm32l4xx_hal_can.c ****   */
1057:Drivers/STM32L4xx_HAL_Driver/Src/stm32l4xx_hal_can.c **** HAL_StatusTypeDef HAL_CAN_Stop(CAN_HandleTypeDef *hcan)
1058:Drivers/STM32L4xx_HAL_Driver/Src/stm32l4xx_hal_can.c **** {
 901              		.loc 1 1058 1
 902              		.cfi_startproc
 903              		@ args = 0, pretend = 0, frame = 16
 904              		@ frame_needed = 1, uses_anonymous_args = 0
 905 0000 80B5     		push	{r7, lr}
 906              	.LCFI33:
 907              		.cfi_def_cfa_offset 8
 908              		.cfi_offset 7, -8
 909              		.cfi_offset 14, -4
 910 0002 84B0     		sub	sp, sp, #16
 911              	.LCFI34:
 912              		.cfi_def_cfa_offset 24
 913 0004 00AF     		add	r7, sp, #0
 914              	.LCFI35:
 915              		.cfi_def_cfa_register 7
 916 0006 7860     		str	r0, [r7, #4]
1059:Drivers/STM32L4xx_HAL_Driver/Src/stm32l4xx_hal_can.c ****   uint32_t tickstart;
1060:Drivers/STM32L4xx_HAL_Driver/Src/stm32l4xx_hal_can.c **** 
1061:Drivers/STM32L4xx_HAL_Driver/Src/stm32l4xx_hal_can.c ****   if (hcan->State == HAL_CAN_STATE_LISTENING)
 917              		.loc 1 1061 11
 918 0008 7B68     		ldr	r3, [r7, #4]
 919 000a 93F82030 		ldrb	r3, [r3, #32]
 920 000e DBB2     		uxtb	r3, r3
 921              		.loc 1 1061 6
 922 0010 022B     		cmp	r3, #2
 923 0012 33D1     		bne	.L43
ARM GAS  /tmp/cce3S0ea.s 			page 36


1062:Drivers/STM32L4xx_HAL_Driver/Src/stm32l4xx_hal_can.c ****   {
1063:Drivers/STM32L4xx_HAL_Driver/Src/stm32l4xx_hal_can.c ****     /* Request initialisation */
1064:Drivers/STM32L4xx_HAL_Driver/Src/stm32l4xx_hal_can.c ****     SET_BIT(hcan->Instance->MCR, CAN_MCR_INRQ);
 924              		.loc 1 1064 5
 925 0014 7B68     		ldr	r3, [r7, #4]
 926 0016 1B68     		ldr	r3, [r3]
 927 0018 1A68     		ldr	r2, [r3]
 928 001a 7B68     		ldr	r3, [r7, #4]
 929 001c 1B68     		ldr	r3, [r3]
 930 001e 42F00102 		orr	r2, r2, #1
 931 0022 1A60     		str	r2, [r3]
1065:Drivers/STM32L4xx_HAL_Driver/Src/stm32l4xx_hal_can.c **** 
1066:Drivers/STM32L4xx_HAL_Driver/Src/stm32l4xx_hal_can.c ****     /* Get tick */
1067:Drivers/STM32L4xx_HAL_Driver/Src/stm32l4xx_hal_can.c ****     tickstart = HAL_GetTick();
 932              		.loc 1 1067 17
 933 0024 FFF7FEFF 		bl	HAL_GetTick
 934 0028 F860     		str	r0, [r7, #12]
1068:Drivers/STM32L4xx_HAL_Driver/Src/stm32l4xx_hal_can.c **** 
1069:Drivers/STM32L4xx_HAL_Driver/Src/stm32l4xx_hal_can.c ****     /* Wait the acknowledge */
1070:Drivers/STM32L4xx_HAL_Driver/Src/stm32l4xx_hal_can.c ****     while ((hcan->Instance->MSR & CAN_MSR_INAK) == 0U)
 935              		.loc 1 1070 11
 936 002a 12E0     		b	.L44
 937              	.L46:
1071:Drivers/STM32L4xx_HAL_Driver/Src/stm32l4xx_hal_can.c ****     {
1072:Drivers/STM32L4xx_HAL_Driver/Src/stm32l4xx_hal_can.c ****       /* Check for the Timeout */
1073:Drivers/STM32L4xx_HAL_Driver/Src/stm32l4xx_hal_can.c ****       if ((HAL_GetTick() - tickstart) > CAN_TIMEOUT_VALUE)
 938              		.loc 1 1073 12
 939 002c FFF7FEFF 		bl	HAL_GetTick
 940 0030 0246     		mov	r2, r0
 941              		.loc 1 1073 26
 942 0032 FB68     		ldr	r3, [r7, #12]
 943 0034 D31A     		subs	r3, r2, r3
 944              		.loc 1 1073 10
 945 0036 0A2B     		cmp	r3, #10
 946 0038 0BD9     		bls	.L44
1074:Drivers/STM32L4xx_HAL_Driver/Src/stm32l4xx_hal_can.c ****       {
1075:Drivers/STM32L4xx_HAL_Driver/Src/stm32l4xx_hal_can.c ****         /* Update error code */
1076:Drivers/STM32L4xx_HAL_Driver/Src/stm32l4xx_hal_can.c ****         hcan->ErrorCode |= HAL_CAN_ERROR_TIMEOUT;
 947              		.loc 1 1076 25
 948 003a 7B68     		ldr	r3, [r7, #4]
 949 003c 5B6A     		ldr	r3, [r3, #36]
 950 003e 43F40032 		orr	r2, r3, #131072
 951 0042 7B68     		ldr	r3, [r7, #4]
 952 0044 5A62     		str	r2, [r3, #36]
1077:Drivers/STM32L4xx_HAL_Driver/Src/stm32l4xx_hal_can.c **** 
1078:Drivers/STM32L4xx_HAL_Driver/Src/stm32l4xx_hal_can.c ****         /* Change CAN state */
1079:Drivers/STM32L4xx_HAL_Driver/Src/stm32l4xx_hal_can.c ****         hcan->State = HAL_CAN_STATE_ERROR;
 953              		.loc 1 1079 21
 954 0046 7B68     		ldr	r3, [r7, #4]
 955 0048 0522     		movs	r2, #5
 956 004a 83F82020 		strb	r2, [r3, #32]
1080:Drivers/STM32L4xx_HAL_Driver/Src/stm32l4xx_hal_can.c **** 
1081:Drivers/STM32L4xx_HAL_Driver/Src/stm32l4xx_hal_can.c ****         return HAL_ERROR;
 957              		.loc 1 1081 16
 958 004e 0123     		movs	r3, #1
 959 0050 1BE0     		b	.L45
 960              	.L44:
ARM GAS  /tmp/cce3S0ea.s 			page 37


1070:Drivers/STM32L4xx_HAL_Driver/Src/stm32l4xx_hal_can.c ****     {
 961              		.loc 1 1070 17
 962 0052 7B68     		ldr	r3, [r7, #4]
 963 0054 1B68     		ldr	r3, [r3]
1070:Drivers/STM32L4xx_HAL_Driver/Src/stm32l4xx_hal_can.c ****     {
 964              		.loc 1 1070 27
 965 0056 5B68     		ldr	r3, [r3, #4]
1070:Drivers/STM32L4xx_HAL_Driver/Src/stm32l4xx_hal_can.c ****     {
 966              		.loc 1 1070 33
 967 0058 03F00103 		and	r3, r3, #1
1070:Drivers/STM32L4xx_HAL_Driver/Src/stm32l4xx_hal_can.c ****     {
 968              		.loc 1 1070 11
 969 005c 002B     		cmp	r3, #0
 970 005e E5D0     		beq	.L46
1082:Drivers/STM32L4xx_HAL_Driver/Src/stm32l4xx_hal_can.c ****       }
1083:Drivers/STM32L4xx_HAL_Driver/Src/stm32l4xx_hal_can.c ****     }
1084:Drivers/STM32L4xx_HAL_Driver/Src/stm32l4xx_hal_can.c **** 
1085:Drivers/STM32L4xx_HAL_Driver/Src/stm32l4xx_hal_can.c ****     /* Exit from sleep mode */
1086:Drivers/STM32L4xx_HAL_Driver/Src/stm32l4xx_hal_can.c ****     CLEAR_BIT(hcan->Instance->MCR, CAN_MCR_SLEEP);
 971              		.loc 1 1086 5
 972 0060 7B68     		ldr	r3, [r7, #4]
 973 0062 1B68     		ldr	r3, [r3]
 974 0064 1A68     		ldr	r2, [r3]
 975 0066 7B68     		ldr	r3, [r7, #4]
 976 0068 1B68     		ldr	r3, [r3]
 977 006a 22F00202 		bic	r2, r2, #2
 978 006e 1A60     		str	r2, [r3]
1087:Drivers/STM32L4xx_HAL_Driver/Src/stm32l4xx_hal_can.c **** 
1088:Drivers/STM32L4xx_HAL_Driver/Src/stm32l4xx_hal_can.c ****     /* Change CAN peripheral state */
1089:Drivers/STM32L4xx_HAL_Driver/Src/stm32l4xx_hal_can.c ****     hcan->State = HAL_CAN_STATE_READY;
 979              		.loc 1 1089 17
 980 0070 7B68     		ldr	r3, [r7, #4]
 981 0072 0122     		movs	r2, #1
 982 0074 83F82020 		strb	r2, [r3, #32]
1090:Drivers/STM32L4xx_HAL_Driver/Src/stm32l4xx_hal_can.c **** 
1091:Drivers/STM32L4xx_HAL_Driver/Src/stm32l4xx_hal_can.c ****     /* Return function status */
1092:Drivers/STM32L4xx_HAL_Driver/Src/stm32l4xx_hal_can.c ****     return HAL_OK;
 983              		.loc 1 1092 12
 984 0078 0023     		movs	r3, #0
 985 007a 06E0     		b	.L45
 986              	.L43:
1093:Drivers/STM32L4xx_HAL_Driver/Src/stm32l4xx_hal_can.c ****   }
1094:Drivers/STM32L4xx_HAL_Driver/Src/stm32l4xx_hal_can.c ****   else
1095:Drivers/STM32L4xx_HAL_Driver/Src/stm32l4xx_hal_can.c ****   {
1096:Drivers/STM32L4xx_HAL_Driver/Src/stm32l4xx_hal_can.c ****     /* Update error code */
1097:Drivers/STM32L4xx_HAL_Driver/Src/stm32l4xx_hal_can.c ****     hcan->ErrorCode |= HAL_CAN_ERROR_NOT_STARTED;
 987              		.loc 1 1097 21
 988 007c 7B68     		ldr	r3, [r7, #4]
 989 007e 5B6A     		ldr	r3, [r3, #36]
 990 0080 43F48012 		orr	r2, r3, #1048576
 991 0084 7B68     		ldr	r3, [r7, #4]
 992 0086 5A62     		str	r2, [r3, #36]
1098:Drivers/STM32L4xx_HAL_Driver/Src/stm32l4xx_hal_can.c **** 
1099:Drivers/STM32L4xx_HAL_Driver/Src/stm32l4xx_hal_can.c ****     return HAL_ERROR;
 993              		.loc 1 1099 12
 994 0088 0123     		movs	r3, #1
 995              	.L45:
ARM GAS  /tmp/cce3S0ea.s 			page 38


1100:Drivers/STM32L4xx_HAL_Driver/Src/stm32l4xx_hal_can.c ****   }
1101:Drivers/STM32L4xx_HAL_Driver/Src/stm32l4xx_hal_can.c **** }
 996              		.loc 1 1101 1
 997 008a 1846     		mov	r0, r3
 998 008c 1037     		adds	r7, r7, #16
 999              	.LCFI36:
 1000              		.cfi_def_cfa_offset 8
 1001 008e BD46     		mov	sp, r7
 1002              	.LCFI37:
 1003              		.cfi_def_cfa_register 13
 1004              		@ sp needed
 1005 0090 80BD     		pop	{r7, pc}
 1006              		.cfi_endproc
 1007              	.LFE138:
 1009              		.section	.text.HAL_CAN_RequestSleep,"ax",%progbits
 1010              		.align	1
 1011              		.global	HAL_CAN_RequestSleep
 1012              		.syntax unified
 1013              		.thumb
 1014              		.thumb_func
 1016              	HAL_CAN_RequestSleep:
 1017              	.LFB139:
1102:Drivers/STM32L4xx_HAL_Driver/Src/stm32l4xx_hal_can.c **** 
1103:Drivers/STM32L4xx_HAL_Driver/Src/stm32l4xx_hal_can.c **** /**
1104:Drivers/STM32L4xx_HAL_Driver/Src/stm32l4xx_hal_can.c ****   * @brief  Request the sleep mode (low power) entry.
1105:Drivers/STM32L4xx_HAL_Driver/Src/stm32l4xx_hal_can.c ****   *         When returning from this function, Sleep mode will be entered
1106:Drivers/STM32L4xx_HAL_Driver/Src/stm32l4xx_hal_can.c ****   *         as soon as the current CAN activity (transmission or reception
1107:Drivers/STM32L4xx_HAL_Driver/Src/stm32l4xx_hal_can.c ****   *         of a CAN frame) has been completed.
1108:Drivers/STM32L4xx_HAL_Driver/Src/stm32l4xx_hal_can.c ****   * @param  hcan pointer to a CAN_HandleTypeDef structure that contains
1109:Drivers/STM32L4xx_HAL_Driver/Src/stm32l4xx_hal_can.c ****   *         the configuration information for the specified CAN.
1110:Drivers/STM32L4xx_HAL_Driver/Src/stm32l4xx_hal_can.c ****   * @retval HAL status.
1111:Drivers/STM32L4xx_HAL_Driver/Src/stm32l4xx_hal_can.c ****   */
1112:Drivers/STM32L4xx_HAL_Driver/Src/stm32l4xx_hal_can.c **** HAL_StatusTypeDef HAL_CAN_RequestSleep(CAN_HandleTypeDef *hcan)
1113:Drivers/STM32L4xx_HAL_Driver/Src/stm32l4xx_hal_can.c **** {
 1018              		.loc 1 1113 1
 1019              		.cfi_startproc
 1020              		@ args = 0, pretend = 0, frame = 16
 1021              		@ frame_needed = 1, uses_anonymous_args = 0
 1022              		@ link register save eliminated.
 1023 0000 80B4     		push	{r7}
 1024              	.LCFI38:
 1025              		.cfi_def_cfa_offset 4
 1026              		.cfi_offset 7, -4
 1027 0002 85B0     		sub	sp, sp, #20
 1028              	.LCFI39:
 1029              		.cfi_def_cfa_offset 24
 1030 0004 00AF     		add	r7, sp, #0
 1031              	.LCFI40:
 1032              		.cfi_def_cfa_register 7
 1033 0006 7860     		str	r0, [r7, #4]
1114:Drivers/STM32L4xx_HAL_Driver/Src/stm32l4xx_hal_can.c ****   HAL_CAN_StateTypeDef state = hcan->State;
 1034              		.loc 1 1114 24
 1035 0008 7B68     		ldr	r3, [r7, #4]
 1036 000a 93F82030 		ldrb	r3, [r3, #32]
 1037 000e FB73     		strb	r3, [r7, #15]
1115:Drivers/STM32L4xx_HAL_Driver/Src/stm32l4xx_hal_can.c **** 
1116:Drivers/STM32L4xx_HAL_Driver/Src/stm32l4xx_hal_can.c ****   if ((state == HAL_CAN_STATE_READY) ||
ARM GAS  /tmp/cce3S0ea.s 			page 39


 1038              		.loc 1 1116 6
 1039 0010 FB7B     		ldrb	r3, [r7, #15]	@ zero_extendqisi2
 1040 0012 012B     		cmp	r3, #1
 1041 0014 02D0     		beq	.L48
 1042              		.loc 1 1116 38 discriminator 1
 1043 0016 FB7B     		ldrb	r3, [r7, #15]	@ zero_extendqisi2
 1044 0018 022B     		cmp	r3, #2
 1045 001a 09D1     		bne	.L49
 1046              	.L48:
1117:Drivers/STM32L4xx_HAL_Driver/Src/stm32l4xx_hal_can.c ****       (state == HAL_CAN_STATE_LISTENING))
1118:Drivers/STM32L4xx_HAL_Driver/Src/stm32l4xx_hal_can.c ****   {
1119:Drivers/STM32L4xx_HAL_Driver/Src/stm32l4xx_hal_can.c ****     /* Request Sleep mode */
1120:Drivers/STM32L4xx_HAL_Driver/Src/stm32l4xx_hal_can.c ****     SET_BIT(hcan->Instance->MCR, CAN_MCR_SLEEP);
 1047              		.loc 1 1120 5
 1048 001c 7B68     		ldr	r3, [r7, #4]
 1049 001e 1B68     		ldr	r3, [r3]
 1050 0020 1A68     		ldr	r2, [r3]
 1051 0022 7B68     		ldr	r3, [r7, #4]
 1052 0024 1B68     		ldr	r3, [r3]
 1053 0026 42F00202 		orr	r2, r2, #2
 1054 002a 1A60     		str	r2, [r3]
1121:Drivers/STM32L4xx_HAL_Driver/Src/stm32l4xx_hal_can.c **** 
1122:Drivers/STM32L4xx_HAL_Driver/Src/stm32l4xx_hal_can.c ****     /* Return function status */
1123:Drivers/STM32L4xx_HAL_Driver/Src/stm32l4xx_hal_can.c ****     return HAL_OK;
 1055              		.loc 1 1123 12
 1056 002c 0023     		movs	r3, #0
 1057 002e 06E0     		b	.L50
 1058              	.L49:
1124:Drivers/STM32L4xx_HAL_Driver/Src/stm32l4xx_hal_can.c ****   }
1125:Drivers/STM32L4xx_HAL_Driver/Src/stm32l4xx_hal_can.c ****   else
1126:Drivers/STM32L4xx_HAL_Driver/Src/stm32l4xx_hal_can.c ****   {
1127:Drivers/STM32L4xx_HAL_Driver/Src/stm32l4xx_hal_can.c ****     /* Update error code */
1128:Drivers/STM32L4xx_HAL_Driver/Src/stm32l4xx_hal_can.c ****     hcan->ErrorCode |= HAL_CAN_ERROR_NOT_INITIALIZED;
 1059              		.loc 1 1128 21
 1060 0030 7B68     		ldr	r3, [r7, #4]
 1061 0032 5B6A     		ldr	r3, [r3, #36]
 1062 0034 43F48022 		orr	r2, r3, #262144
 1063 0038 7B68     		ldr	r3, [r7, #4]
 1064 003a 5A62     		str	r2, [r3, #36]
1129:Drivers/STM32L4xx_HAL_Driver/Src/stm32l4xx_hal_can.c **** 
1130:Drivers/STM32L4xx_HAL_Driver/Src/stm32l4xx_hal_can.c ****     /* Return function status */
1131:Drivers/STM32L4xx_HAL_Driver/Src/stm32l4xx_hal_can.c ****     return HAL_ERROR;
 1065              		.loc 1 1131 12
 1066 003c 0123     		movs	r3, #1
 1067              	.L50:
1132:Drivers/STM32L4xx_HAL_Driver/Src/stm32l4xx_hal_can.c ****   }
1133:Drivers/STM32L4xx_HAL_Driver/Src/stm32l4xx_hal_can.c **** }
 1068              		.loc 1 1133 1
 1069 003e 1846     		mov	r0, r3
 1070 0040 1437     		adds	r7, r7, #20
 1071              	.LCFI41:
 1072              		.cfi_def_cfa_offset 4
 1073 0042 BD46     		mov	sp, r7
 1074              	.LCFI42:
 1075              		.cfi_def_cfa_register 13
 1076              		@ sp needed
 1077 0044 5DF8047B 		ldr	r7, [sp], #4
ARM GAS  /tmp/cce3S0ea.s 			page 40


 1078              	.LCFI43:
 1079              		.cfi_restore 7
 1080              		.cfi_def_cfa_offset 0
 1081 0048 7047     		bx	lr
 1082              		.cfi_endproc
 1083              	.LFE139:
 1085              		.section	.text.HAL_CAN_WakeUp,"ax",%progbits
 1086              		.align	1
 1087              		.global	HAL_CAN_WakeUp
 1088              		.syntax unified
 1089              		.thumb
 1090              		.thumb_func
 1092              	HAL_CAN_WakeUp:
 1093              	.LFB140:
1134:Drivers/STM32L4xx_HAL_Driver/Src/stm32l4xx_hal_can.c **** 
1135:Drivers/STM32L4xx_HAL_Driver/Src/stm32l4xx_hal_can.c **** /**
1136:Drivers/STM32L4xx_HAL_Driver/Src/stm32l4xx_hal_can.c ****   * @brief  Wake up from sleep mode.
1137:Drivers/STM32L4xx_HAL_Driver/Src/stm32l4xx_hal_can.c ****   *         When returning with HAL_OK status from this function, Sleep mode
1138:Drivers/STM32L4xx_HAL_Driver/Src/stm32l4xx_hal_can.c ****   *         is exited.
1139:Drivers/STM32L4xx_HAL_Driver/Src/stm32l4xx_hal_can.c ****   * @param  hcan pointer to a CAN_HandleTypeDef structure that contains
1140:Drivers/STM32L4xx_HAL_Driver/Src/stm32l4xx_hal_can.c ****   *         the configuration information for the specified CAN.
1141:Drivers/STM32L4xx_HAL_Driver/Src/stm32l4xx_hal_can.c ****   * @retval HAL status.
1142:Drivers/STM32L4xx_HAL_Driver/Src/stm32l4xx_hal_can.c ****   */
1143:Drivers/STM32L4xx_HAL_Driver/Src/stm32l4xx_hal_can.c **** HAL_StatusTypeDef HAL_CAN_WakeUp(CAN_HandleTypeDef *hcan)
1144:Drivers/STM32L4xx_HAL_Driver/Src/stm32l4xx_hal_can.c **** {
 1094              		.loc 1 1144 1
 1095              		.cfi_startproc
 1096              		@ args = 0, pretend = 0, frame = 24
 1097              		@ frame_needed = 1, uses_anonymous_args = 0
 1098              		@ link register save eliminated.
 1099 0000 80B4     		push	{r7}
 1100              	.LCFI44:
 1101              		.cfi_def_cfa_offset 4
 1102              		.cfi_offset 7, -4
 1103 0002 87B0     		sub	sp, sp, #28
 1104              	.LCFI45:
 1105              		.cfi_def_cfa_offset 32
 1106 0004 00AF     		add	r7, sp, #0
 1107              	.LCFI46:
 1108              		.cfi_def_cfa_register 7
 1109 0006 7860     		str	r0, [r7, #4]
1145:Drivers/STM32L4xx_HAL_Driver/Src/stm32l4xx_hal_can.c ****   __IO uint32_t count = 0;
 1110              		.loc 1 1145 17
 1111 0008 0023     		movs	r3, #0
 1112 000a FB60     		str	r3, [r7, #12]
1146:Drivers/STM32L4xx_HAL_Driver/Src/stm32l4xx_hal_can.c ****   uint32_t timeout = 1000000U;
 1113              		.loc 1 1146 12
 1114 000c 1C4B     		ldr	r3, .L57
 1115 000e 7B61     		str	r3, [r7, #20]
1147:Drivers/STM32L4xx_HAL_Driver/Src/stm32l4xx_hal_can.c ****   HAL_CAN_StateTypeDef state = hcan->State;
 1116              		.loc 1 1147 24
 1117 0010 7B68     		ldr	r3, [r7, #4]
 1118 0012 93F82030 		ldrb	r3, [r3, #32]
 1119 0016 FB74     		strb	r3, [r7, #19]
1148:Drivers/STM32L4xx_HAL_Driver/Src/stm32l4xx_hal_can.c **** 
1149:Drivers/STM32L4xx_HAL_Driver/Src/stm32l4xx_hal_can.c ****   if ((state == HAL_CAN_STATE_READY) ||
 1120              		.loc 1 1149 6
ARM GAS  /tmp/cce3S0ea.s 			page 41


 1121 0018 FB7C     		ldrb	r3, [r7, #19]	@ zero_extendqisi2
 1122 001a 012B     		cmp	r3, #1
 1123 001c 02D0     		beq	.L52
 1124              		.loc 1 1149 38 discriminator 1
 1125 001e FB7C     		ldrb	r3, [r7, #19]	@ zero_extendqisi2
 1126 0020 022B     		cmp	r3, #2
 1127 0022 1FD1     		bne	.L53
 1128              	.L52:
1150:Drivers/STM32L4xx_HAL_Driver/Src/stm32l4xx_hal_can.c ****       (state == HAL_CAN_STATE_LISTENING))
1151:Drivers/STM32L4xx_HAL_Driver/Src/stm32l4xx_hal_can.c ****   {
1152:Drivers/STM32L4xx_HAL_Driver/Src/stm32l4xx_hal_can.c ****     /* Wake up request */
1153:Drivers/STM32L4xx_HAL_Driver/Src/stm32l4xx_hal_can.c ****     CLEAR_BIT(hcan->Instance->MCR, CAN_MCR_SLEEP);
 1129              		.loc 1 1153 5
 1130 0024 7B68     		ldr	r3, [r7, #4]
 1131 0026 1B68     		ldr	r3, [r3]
 1132 0028 1A68     		ldr	r2, [r3]
 1133 002a 7B68     		ldr	r3, [r7, #4]
 1134 002c 1B68     		ldr	r3, [r3]
 1135 002e 22F00202 		bic	r2, r2, #2
 1136 0032 1A60     		str	r2, [r3]
 1137              	.L56:
1154:Drivers/STM32L4xx_HAL_Driver/Src/stm32l4xx_hal_can.c **** 
1155:Drivers/STM32L4xx_HAL_Driver/Src/stm32l4xx_hal_can.c ****     /* Wait sleep mode is exited */
1156:Drivers/STM32L4xx_HAL_Driver/Src/stm32l4xx_hal_can.c ****     do
1157:Drivers/STM32L4xx_HAL_Driver/Src/stm32l4xx_hal_can.c ****     {
1158:Drivers/STM32L4xx_HAL_Driver/Src/stm32l4xx_hal_can.c ****       /* Increment counter */
1159:Drivers/STM32L4xx_HAL_Driver/Src/stm32l4xx_hal_can.c ****       count++;
 1138              		.loc 1 1159 12
 1139 0034 FB68     		ldr	r3, [r7, #12]
 1140 0036 0133     		adds	r3, r3, #1
 1141 0038 FB60     		str	r3, [r7, #12]
1160:Drivers/STM32L4xx_HAL_Driver/Src/stm32l4xx_hal_can.c **** 
1161:Drivers/STM32L4xx_HAL_Driver/Src/stm32l4xx_hal_can.c ****       /* Check if timeout is reached */
1162:Drivers/STM32L4xx_HAL_Driver/Src/stm32l4xx_hal_can.c ****       if (count > timeout)
 1142              		.loc 1 1162 17
 1143 003a FB68     		ldr	r3, [r7, #12]
 1144              		.loc 1 1162 10
 1145 003c 7A69     		ldr	r2, [r7, #20]
 1146 003e 9A42     		cmp	r2, r3
 1147 0040 07D2     		bcs	.L54
1163:Drivers/STM32L4xx_HAL_Driver/Src/stm32l4xx_hal_can.c ****       {
1164:Drivers/STM32L4xx_HAL_Driver/Src/stm32l4xx_hal_can.c ****         /* Update error code */
1165:Drivers/STM32L4xx_HAL_Driver/Src/stm32l4xx_hal_can.c ****         hcan->ErrorCode |= HAL_CAN_ERROR_TIMEOUT;
 1148              		.loc 1 1165 25
 1149 0042 7B68     		ldr	r3, [r7, #4]
 1150 0044 5B6A     		ldr	r3, [r3, #36]
 1151 0046 43F40032 		orr	r2, r3, #131072
 1152 004a 7B68     		ldr	r3, [r7, #4]
 1153 004c 5A62     		str	r2, [r3, #36]
1166:Drivers/STM32L4xx_HAL_Driver/Src/stm32l4xx_hal_can.c **** 
1167:Drivers/STM32L4xx_HAL_Driver/Src/stm32l4xx_hal_can.c ****         return HAL_ERROR;
 1154              		.loc 1 1167 16
 1155 004e 0123     		movs	r3, #1
 1156 0050 0FE0     		b	.L55
 1157              	.L54:
1168:Drivers/STM32L4xx_HAL_Driver/Src/stm32l4xx_hal_can.c ****       }
1169:Drivers/STM32L4xx_HAL_Driver/Src/stm32l4xx_hal_can.c ****     }
ARM GAS  /tmp/cce3S0ea.s 			page 42


1170:Drivers/STM32L4xx_HAL_Driver/Src/stm32l4xx_hal_can.c ****     while ((hcan->Instance->MSR & CAN_MSR_SLAK) != 0U);
 1158              		.loc 1 1170 17
 1159 0052 7B68     		ldr	r3, [r7, #4]
 1160 0054 1B68     		ldr	r3, [r3]
 1161              		.loc 1 1170 27
 1162 0056 5B68     		ldr	r3, [r3, #4]
 1163              		.loc 1 1170 33
 1164 0058 03F00203 		and	r3, r3, #2
 1165              		.loc 1 1170 5
 1166 005c 002B     		cmp	r3, #0
 1167 005e E9D1     		bne	.L56
1171:Drivers/STM32L4xx_HAL_Driver/Src/stm32l4xx_hal_can.c **** 
1172:Drivers/STM32L4xx_HAL_Driver/Src/stm32l4xx_hal_can.c ****     /* Return function status */
1173:Drivers/STM32L4xx_HAL_Driver/Src/stm32l4xx_hal_can.c ****     return HAL_OK;
 1168              		.loc 1 1173 12
 1169 0060 0023     		movs	r3, #0
 1170 0062 06E0     		b	.L55
 1171              	.L53:
1174:Drivers/STM32L4xx_HAL_Driver/Src/stm32l4xx_hal_can.c ****   }
1175:Drivers/STM32L4xx_HAL_Driver/Src/stm32l4xx_hal_can.c ****   else
1176:Drivers/STM32L4xx_HAL_Driver/Src/stm32l4xx_hal_can.c ****   {
1177:Drivers/STM32L4xx_HAL_Driver/Src/stm32l4xx_hal_can.c ****     /* Update error code */
1178:Drivers/STM32L4xx_HAL_Driver/Src/stm32l4xx_hal_can.c ****     hcan->ErrorCode |= HAL_CAN_ERROR_NOT_INITIALIZED;
 1172              		.loc 1 1178 21
 1173 0064 7B68     		ldr	r3, [r7, #4]
 1174 0066 5B6A     		ldr	r3, [r3, #36]
 1175 0068 43F48022 		orr	r2, r3, #262144
 1176 006c 7B68     		ldr	r3, [r7, #4]
 1177 006e 5A62     		str	r2, [r3, #36]
1179:Drivers/STM32L4xx_HAL_Driver/Src/stm32l4xx_hal_can.c **** 
1180:Drivers/STM32L4xx_HAL_Driver/Src/stm32l4xx_hal_can.c ****     return HAL_ERROR;
 1178              		.loc 1 1180 12
 1179 0070 0123     		movs	r3, #1
 1180              	.L55:
1181:Drivers/STM32L4xx_HAL_Driver/Src/stm32l4xx_hal_can.c ****   }
1182:Drivers/STM32L4xx_HAL_Driver/Src/stm32l4xx_hal_can.c **** }
 1181              		.loc 1 1182 1
 1182 0072 1846     		mov	r0, r3
 1183 0074 1C37     		adds	r7, r7, #28
 1184              	.LCFI47:
 1185              		.cfi_def_cfa_offset 4
 1186 0076 BD46     		mov	sp, r7
 1187              	.LCFI48:
 1188              		.cfi_def_cfa_register 13
 1189              		@ sp needed
 1190 0078 5DF8047B 		ldr	r7, [sp], #4
 1191              	.LCFI49:
 1192              		.cfi_restore 7
 1193              		.cfi_def_cfa_offset 0
 1194 007c 7047     		bx	lr
 1195              	.L58:
 1196 007e 00BF     		.align	2
 1197              	.L57:
 1198 0080 40420F00 		.word	1000000
 1199              		.cfi_endproc
 1200              	.LFE140:
 1202              		.section	.text.HAL_CAN_IsSleepActive,"ax",%progbits
ARM GAS  /tmp/cce3S0ea.s 			page 43


 1203              		.align	1
 1204              		.global	HAL_CAN_IsSleepActive
 1205              		.syntax unified
 1206              		.thumb
 1207              		.thumb_func
 1209              	HAL_CAN_IsSleepActive:
 1210              	.LFB141:
1183:Drivers/STM32L4xx_HAL_Driver/Src/stm32l4xx_hal_can.c **** 
1184:Drivers/STM32L4xx_HAL_Driver/Src/stm32l4xx_hal_can.c **** /**
1185:Drivers/STM32L4xx_HAL_Driver/Src/stm32l4xx_hal_can.c ****   * @brief  Check is sleep mode is active.
1186:Drivers/STM32L4xx_HAL_Driver/Src/stm32l4xx_hal_can.c ****   * @param  hcan pointer to a CAN_HandleTypeDef structure that contains
1187:Drivers/STM32L4xx_HAL_Driver/Src/stm32l4xx_hal_can.c ****   *         the configuration information for the specified CAN.
1188:Drivers/STM32L4xx_HAL_Driver/Src/stm32l4xx_hal_can.c ****   * @retval Status
1189:Drivers/STM32L4xx_HAL_Driver/Src/stm32l4xx_hal_can.c ****   *          - 0 : Sleep mode is not active.
1190:Drivers/STM32L4xx_HAL_Driver/Src/stm32l4xx_hal_can.c ****   *          - 1 : Sleep mode is active.
1191:Drivers/STM32L4xx_HAL_Driver/Src/stm32l4xx_hal_can.c ****   */
1192:Drivers/STM32L4xx_HAL_Driver/Src/stm32l4xx_hal_can.c **** uint32_t HAL_CAN_IsSleepActive(const CAN_HandleTypeDef *hcan)
1193:Drivers/STM32L4xx_HAL_Driver/Src/stm32l4xx_hal_can.c **** {
 1211              		.loc 1 1193 1
 1212              		.cfi_startproc
 1213              		@ args = 0, pretend = 0, frame = 16
 1214              		@ frame_needed = 1, uses_anonymous_args = 0
 1215              		@ link register save eliminated.
 1216 0000 80B4     		push	{r7}
 1217              	.LCFI50:
 1218              		.cfi_def_cfa_offset 4
 1219              		.cfi_offset 7, -4
 1220 0002 85B0     		sub	sp, sp, #20
 1221              	.LCFI51:
 1222              		.cfi_def_cfa_offset 24
 1223 0004 00AF     		add	r7, sp, #0
 1224              	.LCFI52:
 1225              		.cfi_def_cfa_register 7
 1226 0006 7860     		str	r0, [r7, #4]
1194:Drivers/STM32L4xx_HAL_Driver/Src/stm32l4xx_hal_can.c ****   uint32_t status = 0U;
 1227              		.loc 1 1194 12
 1228 0008 0023     		movs	r3, #0
 1229 000a FB60     		str	r3, [r7, #12]
1195:Drivers/STM32L4xx_HAL_Driver/Src/stm32l4xx_hal_can.c ****   HAL_CAN_StateTypeDef state = hcan->State;
 1230              		.loc 1 1195 24
 1231 000c 7B68     		ldr	r3, [r7, #4]
 1232 000e 93F82030 		ldrb	r3, [r3, #32]
 1233 0012 FB72     		strb	r3, [r7, #11]
1196:Drivers/STM32L4xx_HAL_Driver/Src/stm32l4xx_hal_can.c **** 
1197:Drivers/STM32L4xx_HAL_Driver/Src/stm32l4xx_hal_can.c ****   if ((state == HAL_CAN_STATE_READY) ||
 1234              		.loc 1 1197 6
 1235 0014 FB7A     		ldrb	r3, [r7, #11]	@ zero_extendqisi2
 1236 0016 012B     		cmp	r3, #1
 1237 0018 02D0     		beq	.L60
 1238              		.loc 1 1197 38 discriminator 1
 1239 001a FB7A     		ldrb	r3, [r7, #11]	@ zero_extendqisi2
 1240 001c 022B     		cmp	r3, #2
 1241 001e 08D1     		bne	.L61
 1242              	.L60:
1198:Drivers/STM32L4xx_HAL_Driver/Src/stm32l4xx_hal_can.c ****       (state == HAL_CAN_STATE_LISTENING))
1199:Drivers/STM32L4xx_HAL_Driver/Src/stm32l4xx_hal_can.c ****   {
1200:Drivers/STM32L4xx_HAL_Driver/Src/stm32l4xx_hal_can.c ****     /* Check Sleep mode */
ARM GAS  /tmp/cce3S0ea.s 			page 44


1201:Drivers/STM32L4xx_HAL_Driver/Src/stm32l4xx_hal_can.c ****     if ((hcan->Instance->MSR & CAN_MSR_SLAK) != 0U)
 1243              		.loc 1 1201 14
 1244 0020 7B68     		ldr	r3, [r7, #4]
 1245 0022 1B68     		ldr	r3, [r3]
 1246              		.loc 1 1201 24
 1247 0024 5B68     		ldr	r3, [r3, #4]
 1248              		.loc 1 1201 30
 1249 0026 03F00203 		and	r3, r3, #2
 1250              		.loc 1 1201 8
 1251 002a 002B     		cmp	r3, #0
 1252 002c 01D0     		beq	.L61
1202:Drivers/STM32L4xx_HAL_Driver/Src/stm32l4xx_hal_can.c ****     {
1203:Drivers/STM32L4xx_HAL_Driver/Src/stm32l4xx_hal_can.c ****       status = 1U;
 1253              		.loc 1 1203 14
 1254 002e 0123     		movs	r3, #1
 1255 0030 FB60     		str	r3, [r7, #12]
 1256              	.L61:
1204:Drivers/STM32L4xx_HAL_Driver/Src/stm32l4xx_hal_can.c ****     }
1205:Drivers/STM32L4xx_HAL_Driver/Src/stm32l4xx_hal_can.c ****   }
1206:Drivers/STM32L4xx_HAL_Driver/Src/stm32l4xx_hal_can.c **** 
1207:Drivers/STM32L4xx_HAL_Driver/Src/stm32l4xx_hal_can.c ****   /* Return function status */
1208:Drivers/STM32L4xx_HAL_Driver/Src/stm32l4xx_hal_can.c ****   return status;
 1257              		.loc 1 1208 10
 1258 0032 FB68     		ldr	r3, [r7, #12]
1209:Drivers/STM32L4xx_HAL_Driver/Src/stm32l4xx_hal_can.c **** }
 1259              		.loc 1 1209 1
 1260 0034 1846     		mov	r0, r3
 1261 0036 1437     		adds	r7, r7, #20
 1262              	.LCFI53:
 1263              		.cfi_def_cfa_offset 4
 1264 0038 BD46     		mov	sp, r7
 1265              	.LCFI54:
 1266              		.cfi_def_cfa_register 13
 1267              		@ sp needed
 1268 003a 5DF8047B 		ldr	r7, [sp], #4
 1269              	.LCFI55:
 1270              		.cfi_restore 7
 1271              		.cfi_def_cfa_offset 0
 1272 003e 7047     		bx	lr
 1273              		.cfi_endproc
 1274              	.LFE141:
 1276              		.section	.text.HAL_CAN_AddTxMessage,"ax",%progbits
 1277              		.align	1
 1278              		.global	HAL_CAN_AddTxMessage
 1279              		.syntax unified
 1280              		.thumb
 1281              		.thumb_func
 1283              	HAL_CAN_AddTxMessage:
 1284              	.LFB142:
1210:Drivers/STM32L4xx_HAL_Driver/Src/stm32l4xx_hal_can.c **** 
1211:Drivers/STM32L4xx_HAL_Driver/Src/stm32l4xx_hal_can.c **** /**
1212:Drivers/STM32L4xx_HAL_Driver/Src/stm32l4xx_hal_can.c ****   * @brief  Add a message to the first free Tx mailbox and activate the
1213:Drivers/STM32L4xx_HAL_Driver/Src/stm32l4xx_hal_can.c ****   *         corresponding transmission request.
1214:Drivers/STM32L4xx_HAL_Driver/Src/stm32l4xx_hal_can.c ****   * @param  hcan pointer to a CAN_HandleTypeDef structure that contains
1215:Drivers/STM32L4xx_HAL_Driver/Src/stm32l4xx_hal_can.c ****   *         the configuration information for the specified CAN.
1216:Drivers/STM32L4xx_HAL_Driver/Src/stm32l4xx_hal_can.c ****   * @param  pHeader pointer to a CAN_TxHeaderTypeDef structure.
1217:Drivers/STM32L4xx_HAL_Driver/Src/stm32l4xx_hal_can.c ****   * @param  aData array containing the payload of the Tx frame.
ARM GAS  /tmp/cce3S0ea.s 			page 45


1218:Drivers/STM32L4xx_HAL_Driver/Src/stm32l4xx_hal_can.c ****   * @param  pTxMailbox pointer to a variable where the function will return
1219:Drivers/STM32L4xx_HAL_Driver/Src/stm32l4xx_hal_can.c ****   *         the TxMailbox used to store the Tx message.
1220:Drivers/STM32L4xx_HAL_Driver/Src/stm32l4xx_hal_can.c ****   *         This parameter can be a value of @arg CAN_Tx_Mailboxes.
1221:Drivers/STM32L4xx_HAL_Driver/Src/stm32l4xx_hal_can.c ****   * @retval HAL status
1222:Drivers/STM32L4xx_HAL_Driver/Src/stm32l4xx_hal_can.c ****   */
1223:Drivers/STM32L4xx_HAL_Driver/Src/stm32l4xx_hal_can.c **** HAL_StatusTypeDef HAL_CAN_AddTxMessage(CAN_HandleTypeDef *hcan, const CAN_TxHeaderTypeDef *pHeader,
1224:Drivers/STM32L4xx_HAL_Driver/Src/stm32l4xx_hal_can.c ****                                        const uint8_t aData[], uint32_t *pTxMailbox)
1225:Drivers/STM32L4xx_HAL_Driver/Src/stm32l4xx_hal_can.c **** {
 1285              		.loc 1 1225 1
 1286              		.cfi_startproc
 1287              		@ args = 0, pretend = 0, frame = 32
 1288              		@ frame_needed = 1, uses_anonymous_args = 0
 1289              		@ link register save eliminated.
 1290 0000 80B4     		push	{r7}
 1291              	.LCFI56:
 1292              		.cfi_def_cfa_offset 4
 1293              		.cfi_offset 7, -4
 1294 0002 89B0     		sub	sp, sp, #36
 1295              	.LCFI57:
 1296              		.cfi_def_cfa_offset 40
 1297 0004 00AF     		add	r7, sp, #0
 1298              	.LCFI58:
 1299              		.cfi_def_cfa_register 7
 1300 0006 F860     		str	r0, [r7, #12]
 1301 0008 B960     		str	r1, [r7, #8]
 1302 000a 7A60     		str	r2, [r7, #4]
 1303 000c 3B60     		str	r3, [r7]
1226:Drivers/STM32L4xx_HAL_Driver/Src/stm32l4xx_hal_can.c ****   uint32_t transmitmailbox;
1227:Drivers/STM32L4xx_HAL_Driver/Src/stm32l4xx_hal_can.c ****   HAL_CAN_StateTypeDef state = hcan->State;
 1304              		.loc 1 1227 24
 1305 000e FB68     		ldr	r3, [r7, #12]
 1306 0010 93F82030 		ldrb	r3, [r3, #32]
 1307 0014 FB77     		strb	r3, [r7, #31]
1228:Drivers/STM32L4xx_HAL_Driver/Src/stm32l4xx_hal_can.c ****   uint32_t tsr = READ_REG(hcan->Instance->TSR);
 1308              		.loc 1 1228 18
 1309 0016 FB68     		ldr	r3, [r7, #12]
 1310 0018 1B68     		ldr	r3, [r3]
 1311              		.loc 1 1228 12
 1312 001a 9B68     		ldr	r3, [r3, #8]
 1313 001c BB61     		str	r3, [r7, #24]
1229:Drivers/STM32L4xx_HAL_Driver/Src/stm32l4xx_hal_can.c **** 
1230:Drivers/STM32L4xx_HAL_Driver/Src/stm32l4xx_hal_can.c ****   /* Check the parameters */
1231:Drivers/STM32L4xx_HAL_Driver/Src/stm32l4xx_hal_can.c ****   assert_param(IS_CAN_IDTYPE(pHeader->IDE));
1232:Drivers/STM32L4xx_HAL_Driver/Src/stm32l4xx_hal_can.c ****   assert_param(IS_CAN_RTR(pHeader->RTR));
1233:Drivers/STM32L4xx_HAL_Driver/Src/stm32l4xx_hal_can.c ****   assert_param(IS_CAN_DLC(pHeader->DLC));
1234:Drivers/STM32L4xx_HAL_Driver/Src/stm32l4xx_hal_can.c ****   if (pHeader->IDE == CAN_ID_STD)
1235:Drivers/STM32L4xx_HAL_Driver/Src/stm32l4xx_hal_can.c ****   {
1236:Drivers/STM32L4xx_HAL_Driver/Src/stm32l4xx_hal_can.c ****     assert_param(IS_CAN_STDID(pHeader->StdId));
1237:Drivers/STM32L4xx_HAL_Driver/Src/stm32l4xx_hal_can.c ****   }
1238:Drivers/STM32L4xx_HAL_Driver/Src/stm32l4xx_hal_can.c ****   else
1239:Drivers/STM32L4xx_HAL_Driver/Src/stm32l4xx_hal_can.c ****   {
1240:Drivers/STM32L4xx_HAL_Driver/Src/stm32l4xx_hal_can.c ****     assert_param(IS_CAN_EXTID(pHeader->ExtId));
1241:Drivers/STM32L4xx_HAL_Driver/Src/stm32l4xx_hal_can.c ****   }
1242:Drivers/STM32L4xx_HAL_Driver/Src/stm32l4xx_hal_can.c ****   assert_param(IS_FUNCTIONAL_STATE(pHeader->TransmitGlobalTime));
1243:Drivers/STM32L4xx_HAL_Driver/Src/stm32l4xx_hal_can.c **** 
1244:Drivers/STM32L4xx_HAL_Driver/Src/stm32l4xx_hal_can.c ****   if ((state == HAL_CAN_STATE_READY) ||
 1314              		.loc 1 1244 6
ARM GAS  /tmp/cce3S0ea.s 			page 46


 1315 001e FB7F     		ldrb	r3, [r7, #31]	@ zero_extendqisi2
 1316 0020 012B     		cmp	r3, #1
 1317 0022 03D0     		beq	.L64
 1318              		.loc 1 1244 38 discriminator 1
 1319 0024 FB7F     		ldrb	r3, [r7, #31]	@ zero_extendqisi2
 1320 0026 022B     		cmp	r3, #2
 1321 0028 40F0AD80 		bne	.L65
 1322              	.L64:
1245:Drivers/STM32L4xx_HAL_Driver/Src/stm32l4xx_hal_can.c ****       (state == HAL_CAN_STATE_LISTENING))
1246:Drivers/STM32L4xx_HAL_Driver/Src/stm32l4xx_hal_can.c ****   {
1247:Drivers/STM32L4xx_HAL_Driver/Src/stm32l4xx_hal_can.c ****     /* Check that all the Tx mailboxes are not full */
1248:Drivers/STM32L4xx_HAL_Driver/Src/stm32l4xx_hal_can.c ****     if (((tsr & CAN_TSR_TME0) != 0U) ||
 1323              		.loc 1 1248 15
 1324 002c BB69     		ldr	r3, [r7, #24]
 1325 002e 03F08063 		and	r3, r3, #67108864
 1326              		.loc 1 1248 8
 1327 0032 002B     		cmp	r3, #0
 1328 0034 0AD1     		bne	.L66
1249:Drivers/STM32L4xx_HAL_Driver/Src/stm32l4xx_hal_can.c ****         ((tsr & CAN_TSR_TME1) != 0U) ||
 1329              		.loc 1 1249 15 discriminator 1
 1330 0036 BB69     		ldr	r3, [r7, #24]
 1331 0038 03F00063 		and	r3, r3, #134217728
1248:Drivers/STM32L4xx_HAL_Driver/Src/stm32l4xx_hal_can.c ****         ((tsr & CAN_TSR_TME1) != 0U) ||
 1332              		.loc 1 1248 38 discriminator 1
 1333 003c 002B     		cmp	r3, #0
 1334 003e 05D1     		bne	.L66
1250:Drivers/STM32L4xx_HAL_Driver/Src/stm32l4xx_hal_can.c ****         ((tsr & CAN_TSR_TME2) != 0U))
 1335              		.loc 1 1250 15
 1336 0040 BB69     		ldr	r3, [r7, #24]
 1337 0042 03F08053 		and	r3, r3, #268435456
1249:Drivers/STM32L4xx_HAL_Driver/Src/stm32l4xx_hal_can.c ****         ((tsr & CAN_TSR_TME1) != 0U) ||
 1338              		.loc 1 1249 38
 1339 0046 002B     		cmp	r3, #0
 1340 0048 00F09580 		beq	.L67
 1341              	.L66:
1251:Drivers/STM32L4xx_HAL_Driver/Src/stm32l4xx_hal_can.c ****     {
1252:Drivers/STM32L4xx_HAL_Driver/Src/stm32l4xx_hal_can.c ****       /* Select an empty transmit mailbox */
1253:Drivers/STM32L4xx_HAL_Driver/Src/stm32l4xx_hal_can.c ****       transmitmailbox = (tsr & CAN_TSR_CODE) >> CAN_TSR_CODE_Pos;
 1342              		.loc 1 1253 46
 1343 004c BB69     		ldr	r3, [r7, #24]
 1344 004e 1B0E     		lsrs	r3, r3, #24
 1345              		.loc 1 1253 23
 1346 0050 03F00303 		and	r3, r3, #3
 1347 0054 7B61     		str	r3, [r7, #20]
1254:Drivers/STM32L4xx_HAL_Driver/Src/stm32l4xx_hal_can.c **** 
1255:Drivers/STM32L4xx_HAL_Driver/Src/stm32l4xx_hal_can.c ****       /* Store the Tx mailbox */
1256:Drivers/STM32L4xx_HAL_Driver/Src/stm32l4xx_hal_can.c ****       *pTxMailbox = (uint32_t)1 << transmitmailbox;
 1348              		.loc 1 1256 33
 1349 0056 0122     		movs	r2, #1
 1350 0058 7B69     		ldr	r3, [r7, #20]
 1351 005a 9A40     		lsls	r2, r2, r3
 1352              		.loc 1 1256 19
 1353 005c 3B68     		ldr	r3, [r7]
 1354 005e 1A60     		str	r2, [r3]
1257:Drivers/STM32L4xx_HAL_Driver/Src/stm32l4xx_hal_can.c **** 
1258:Drivers/STM32L4xx_HAL_Driver/Src/stm32l4xx_hal_can.c ****       /* Set up the Id */
1259:Drivers/STM32L4xx_HAL_Driver/Src/stm32l4xx_hal_can.c ****       if (pHeader->IDE == CAN_ID_STD)
ARM GAS  /tmp/cce3S0ea.s 			page 47


 1355              		.loc 1 1259 18
 1356 0060 BB68     		ldr	r3, [r7, #8]
 1357 0062 9B68     		ldr	r3, [r3, #8]
 1358              		.loc 1 1259 10
 1359 0064 002B     		cmp	r3, #0
 1360 0066 0DD1     		bne	.L68
1260:Drivers/STM32L4xx_HAL_Driver/Src/stm32l4xx_hal_can.c ****       {
1261:Drivers/STM32L4xx_HAL_Driver/Src/stm32l4xx_hal_can.c ****         hcan->Instance->sTxMailBox[transmitmailbox].TIR = ((pHeader->StdId << CAN_TI0R_STID_Pos) |
 1361              		.loc 1 1261 68
 1362 0068 BB68     		ldr	r3, [r7, #8]
 1363 006a 1B68     		ldr	r3, [r3]
 1364              		.loc 1 1261 76
 1365 006c 5A05     		lsls	r2, r3, #21
1262:Drivers/STM32L4xx_HAL_Driver/Src/stm32l4xx_hal_can.c ****                                                            pHeader->RTR);
 1366              		.loc 1 1262 67
 1367 006e BB68     		ldr	r3, [r7, #8]
 1368 0070 DB68     		ldr	r3, [r3, #12]
1261:Drivers/STM32L4xx_HAL_Driver/Src/stm32l4xx_hal_can.c ****                                                            pHeader->RTR);
 1369              		.loc 1 1261 13
 1370 0072 F968     		ldr	r1, [r7, #12]
 1371 0074 0968     		ldr	r1, [r1]
1261:Drivers/STM32L4xx_HAL_Driver/Src/stm32l4xx_hal_can.c ****                                                            pHeader->RTR);
 1372              		.loc 1 1261 98
 1373 0076 1A43     		orrs	r2, r2, r3
1261:Drivers/STM32L4xx_HAL_Driver/Src/stm32l4xx_hal_can.c ****                                                            pHeader->RTR);
 1374              		.loc 1 1261 57
 1375 0078 7B69     		ldr	r3, [r7, #20]
 1376 007a 1833     		adds	r3, r3, #24
 1377 007c 1B01     		lsls	r3, r3, #4
 1378 007e 0B44     		add	r3, r3, r1
 1379 0080 1A60     		str	r2, [r3]
 1380 0082 0FE0     		b	.L69
 1381              	.L68:
1263:Drivers/STM32L4xx_HAL_Driver/Src/stm32l4xx_hal_can.c ****       }
1264:Drivers/STM32L4xx_HAL_Driver/Src/stm32l4xx_hal_can.c ****       else
1265:Drivers/STM32L4xx_HAL_Driver/Src/stm32l4xx_hal_can.c ****       {
1266:Drivers/STM32L4xx_HAL_Driver/Src/stm32l4xx_hal_can.c ****         hcan->Instance->sTxMailBox[transmitmailbox].TIR = ((pHeader->ExtId << CAN_TI0R_EXID_Pos) |
 1382              		.loc 1 1266 68
 1383 0084 BB68     		ldr	r3, [r7, #8]
 1384 0086 5B68     		ldr	r3, [r3, #4]
 1385              		.loc 1 1266 76
 1386 0088 DA00     		lsls	r2, r3, #3
1267:Drivers/STM32L4xx_HAL_Driver/Src/stm32l4xx_hal_can.c ****                                                            pHeader->IDE |
 1387              		.loc 1 1267 67
 1388 008a BB68     		ldr	r3, [r7, #8]
 1389 008c 9B68     		ldr	r3, [r3, #8]
1266:Drivers/STM32L4xx_HAL_Driver/Src/stm32l4xx_hal_can.c ****                                                            pHeader->IDE |
 1390              		.loc 1 1266 98
 1391 008e 1A43     		orrs	r2, r2, r3
1268:Drivers/STM32L4xx_HAL_Driver/Src/stm32l4xx_hal_can.c ****                                                            pHeader->RTR);
 1392              		.loc 1 1268 67
 1393 0090 BB68     		ldr	r3, [r7, #8]
 1394 0092 DB68     		ldr	r3, [r3, #12]
1266:Drivers/STM32L4xx_HAL_Driver/Src/stm32l4xx_hal_can.c ****                                                            pHeader->IDE |
 1395              		.loc 1 1266 13
 1396 0094 F968     		ldr	r1, [r7, #12]
 1397 0096 0968     		ldr	r1, [r1]
ARM GAS  /tmp/cce3S0ea.s 			page 48


1267:Drivers/STM32L4xx_HAL_Driver/Src/stm32l4xx_hal_can.c ****                                                            pHeader->IDE |
 1398              		.loc 1 1267 73
 1399 0098 1A43     		orrs	r2, r2, r3
1266:Drivers/STM32L4xx_HAL_Driver/Src/stm32l4xx_hal_can.c ****                                                            pHeader->IDE |
 1400              		.loc 1 1266 57
 1401 009a 7B69     		ldr	r3, [r7, #20]
 1402 009c 1833     		adds	r3, r3, #24
 1403 009e 1B01     		lsls	r3, r3, #4
 1404 00a0 0B44     		add	r3, r3, r1
 1405 00a2 1A60     		str	r2, [r3]
 1406              	.L69:
1269:Drivers/STM32L4xx_HAL_Driver/Src/stm32l4xx_hal_can.c ****       }
1270:Drivers/STM32L4xx_HAL_Driver/Src/stm32l4xx_hal_can.c **** 
1271:Drivers/STM32L4xx_HAL_Driver/Src/stm32l4xx_hal_can.c ****       /* Set up the DLC */
1272:Drivers/STM32L4xx_HAL_Driver/Src/stm32l4xx_hal_can.c ****       hcan->Instance->sTxMailBox[transmitmailbox].TDTR = (pHeader->DLC);
 1407              		.loc 1 1272 11
 1408 00a4 FB68     		ldr	r3, [r7, #12]
 1409 00a6 1968     		ldr	r1, [r3]
 1410              		.loc 1 1272 66
 1411 00a8 BB68     		ldr	r3, [r7, #8]
 1412 00aa 1A69     		ldr	r2, [r3, #16]
 1413              		.loc 1 1272 56
 1414 00ac 7B69     		ldr	r3, [r7, #20]
 1415 00ae 1833     		adds	r3, r3, #24
 1416 00b0 1B01     		lsls	r3, r3, #4
 1417 00b2 0B44     		add	r3, r3, r1
 1418 00b4 0433     		adds	r3, r3, #4
 1419 00b6 1A60     		str	r2, [r3]
1273:Drivers/STM32L4xx_HAL_Driver/Src/stm32l4xx_hal_can.c **** 
1274:Drivers/STM32L4xx_HAL_Driver/Src/stm32l4xx_hal_can.c ****       /* Set up the Transmit Global Time mode */
1275:Drivers/STM32L4xx_HAL_Driver/Src/stm32l4xx_hal_can.c ****       if (pHeader->TransmitGlobalTime == ENABLE)
 1420              		.loc 1 1275 18
 1421 00b8 BB68     		ldr	r3, [r7, #8]
 1422 00ba 1B7D     		ldrb	r3, [r3, #20]	@ zero_extendqisi2
 1423              		.loc 1 1275 10
 1424 00bc 012B     		cmp	r3, #1
 1425 00be 11D1     		bne	.L70
1276:Drivers/STM32L4xx_HAL_Driver/Src/stm32l4xx_hal_can.c ****       {
1277:Drivers/STM32L4xx_HAL_Driver/Src/stm32l4xx_hal_can.c ****         SET_BIT(hcan->Instance->sTxMailBox[transmitmailbox].TDTR, CAN_TDT0R_TGT);
 1426              		.loc 1 1277 9
 1427 00c0 FB68     		ldr	r3, [r7, #12]
 1428 00c2 1A68     		ldr	r2, [r3]
 1429 00c4 7B69     		ldr	r3, [r7, #20]
 1430 00c6 1833     		adds	r3, r3, #24
 1431 00c8 1B01     		lsls	r3, r3, #4
 1432 00ca 1344     		add	r3, r3, r2
 1433 00cc 0433     		adds	r3, r3, #4
 1434 00ce 1B68     		ldr	r3, [r3]
 1435 00d0 FA68     		ldr	r2, [r7, #12]
 1436 00d2 1168     		ldr	r1, [r2]
 1437 00d4 43F48072 		orr	r2, r3, #256
 1438 00d8 7B69     		ldr	r3, [r7, #20]
 1439 00da 1833     		adds	r3, r3, #24
 1440 00dc 1B01     		lsls	r3, r3, #4
 1441 00de 0B44     		add	r3, r3, r1
 1442 00e0 0433     		adds	r3, r3, #4
 1443 00e2 1A60     		str	r2, [r3]
ARM GAS  /tmp/cce3S0ea.s 			page 49


 1444              	.L70:
1278:Drivers/STM32L4xx_HAL_Driver/Src/stm32l4xx_hal_can.c ****       }
1279:Drivers/STM32L4xx_HAL_Driver/Src/stm32l4xx_hal_can.c **** 
1280:Drivers/STM32L4xx_HAL_Driver/Src/stm32l4xx_hal_can.c ****       /* Set up the data field */
1281:Drivers/STM32L4xx_HAL_Driver/Src/stm32l4xx_hal_can.c ****       WRITE_REG(hcan->Instance->sTxMailBox[transmitmailbox].TDHR,
 1445              		.loc 1 1281 7
 1446 00e4 7B68     		ldr	r3, [r7, #4]
 1447 00e6 0733     		adds	r3, r3, #7
 1448 00e8 1B78     		ldrb	r3, [r3]	@ zero_extendqisi2
 1449 00ea 1A06     		lsls	r2, r3, #24
 1450 00ec 7B68     		ldr	r3, [r7, #4]
 1451 00ee 0633     		adds	r3, r3, #6
 1452 00f0 1B78     		ldrb	r3, [r3]	@ zero_extendqisi2
 1453 00f2 1B04     		lsls	r3, r3, #16
 1454 00f4 1A43     		orrs	r2, r2, r3
 1455 00f6 7B68     		ldr	r3, [r7, #4]
 1456 00f8 0533     		adds	r3, r3, #5
 1457 00fa 1B78     		ldrb	r3, [r3]	@ zero_extendqisi2
 1458 00fc 1B02     		lsls	r3, r3, #8
 1459 00fe 1343     		orrs	r3, r3, r2
 1460 0100 7A68     		ldr	r2, [r7, #4]
 1461 0102 0432     		adds	r2, r2, #4
 1462 0104 1278     		ldrb	r2, [r2]	@ zero_extendqisi2
 1463 0106 1046     		mov	r0, r2
 1464 0108 FA68     		ldr	r2, [r7, #12]
 1465 010a 1168     		ldr	r1, [r2]
 1466 010c 43EA0002 		orr	r2, r3, r0
 1467 0110 7B69     		ldr	r3, [r7, #20]
 1468 0112 1B01     		lsls	r3, r3, #4
 1469 0114 0B44     		add	r3, r3, r1
 1470 0116 03F5C673 		add	r3, r3, #396
 1471 011a 1A60     		str	r2, [r3]
1282:Drivers/STM32L4xx_HAL_Driver/Src/stm32l4xx_hal_can.c ****                 ((uint32_t)aData[7] << CAN_TDH0R_DATA7_Pos) |
1283:Drivers/STM32L4xx_HAL_Driver/Src/stm32l4xx_hal_can.c ****                 ((uint32_t)aData[6] << CAN_TDH0R_DATA6_Pos) |
1284:Drivers/STM32L4xx_HAL_Driver/Src/stm32l4xx_hal_can.c ****                 ((uint32_t)aData[5] << CAN_TDH0R_DATA5_Pos) |
1285:Drivers/STM32L4xx_HAL_Driver/Src/stm32l4xx_hal_can.c ****                 ((uint32_t)aData[4] << CAN_TDH0R_DATA4_Pos));
1286:Drivers/STM32L4xx_HAL_Driver/Src/stm32l4xx_hal_can.c ****       WRITE_REG(hcan->Instance->sTxMailBox[transmitmailbox].TDLR,
 1472              		.loc 1 1286 7
 1473 011c 7B68     		ldr	r3, [r7, #4]
 1474 011e 0333     		adds	r3, r3, #3
 1475 0120 1B78     		ldrb	r3, [r3]	@ zero_extendqisi2
 1476 0122 1A06     		lsls	r2, r3, #24
 1477 0124 7B68     		ldr	r3, [r7, #4]
 1478 0126 0233     		adds	r3, r3, #2
 1479 0128 1B78     		ldrb	r3, [r3]	@ zero_extendqisi2
 1480 012a 1B04     		lsls	r3, r3, #16
 1481 012c 1A43     		orrs	r2, r2, r3
 1482 012e 7B68     		ldr	r3, [r7, #4]
 1483 0130 0133     		adds	r3, r3, #1
 1484 0132 1B78     		ldrb	r3, [r3]	@ zero_extendqisi2
 1485 0134 1B02     		lsls	r3, r3, #8
 1486 0136 1343     		orrs	r3, r3, r2
 1487 0138 7A68     		ldr	r2, [r7, #4]
 1488 013a 1278     		ldrb	r2, [r2]	@ zero_extendqisi2
 1489 013c 1046     		mov	r0, r2
 1490 013e FA68     		ldr	r2, [r7, #12]
 1491 0140 1168     		ldr	r1, [r2]
ARM GAS  /tmp/cce3S0ea.s 			page 50


 1492 0142 43EA0002 		orr	r2, r3, r0
 1493 0146 7B69     		ldr	r3, [r7, #20]
 1494 0148 1B01     		lsls	r3, r3, #4
 1495 014a 0B44     		add	r3, r3, r1
 1496 014c 03F5C473 		add	r3, r3, #392
 1497 0150 1A60     		str	r2, [r3]
1287:Drivers/STM32L4xx_HAL_Driver/Src/stm32l4xx_hal_can.c ****                 ((uint32_t)aData[3] << CAN_TDL0R_DATA3_Pos) |
1288:Drivers/STM32L4xx_HAL_Driver/Src/stm32l4xx_hal_can.c ****                 ((uint32_t)aData[2] << CAN_TDL0R_DATA2_Pos) |
1289:Drivers/STM32L4xx_HAL_Driver/Src/stm32l4xx_hal_can.c ****                 ((uint32_t)aData[1] << CAN_TDL0R_DATA1_Pos) |
1290:Drivers/STM32L4xx_HAL_Driver/Src/stm32l4xx_hal_can.c ****                 ((uint32_t)aData[0] << CAN_TDL0R_DATA0_Pos));
1291:Drivers/STM32L4xx_HAL_Driver/Src/stm32l4xx_hal_can.c **** 
1292:Drivers/STM32L4xx_HAL_Driver/Src/stm32l4xx_hal_can.c ****       /* Request transmission */
1293:Drivers/STM32L4xx_HAL_Driver/Src/stm32l4xx_hal_can.c ****       SET_BIT(hcan->Instance->sTxMailBox[transmitmailbox].TIR, CAN_TI0R_TXRQ);
 1498              		.loc 1 1293 7
 1499 0152 FB68     		ldr	r3, [r7, #12]
 1500 0154 1A68     		ldr	r2, [r3]
 1501 0156 7B69     		ldr	r3, [r7, #20]
 1502 0158 1833     		adds	r3, r3, #24
 1503 015a 1B01     		lsls	r3, r3, #4
 1504 015c 1344     		add	r3, r3, r2
 1505 015e 1B68     		ldr	r3, [r3]
 1506 0160 FA68     		ldr	r2, [r7, #12]
 1507 0162 1168     		ldr	r1, [r2]
 1508 0164 43F00102 		orr	r2, r3, #1
 1509 0168 7B69     		ldr	r3, [r7, #20]
 1510 016a 1833     		adds	r3, r3, #24
 1511 016c 1B01     		lsls	r3, r3, #4
 1512 016e 0B44     		add	r3, r3, r1
 1513 0170 1A60     		str	r2, [r3]
1294:Drivers/STM32L4xx_HAL_Driver/Src/stm32l4xx_hal_can.c **** 
1295:Drivers/STM32L4xx_HAL_Driver/Src/stm32l4xx_hal_can.c ****       /* Return function status */
1296:Drivers/STM32L4xx_HAL_Driver/Src/stm32l4xx_hal_can.c ****       return HAL_OK;
 1514              		.loc 1 1296 14
 1515 0172 0023     		movs	r3, #0
 1516 0174 0EE0     		b	.L71
 1517              	.L67:
1297:Drivers/STM32L4xx_HAL_Driver/Src/stm32l4xx_hal_can.c ****     }
1298:Drivers/STM32L4xx_HAL_Driver/Src/stm32l4xx_hal_can.c ****     else
1299:Drivers/STM32L4xx_HAL_Driver/Src/stm32l4xx_hal_can.c ****     {
1300:Drivers/STM32L4xx_HAL_Driver/Src/stm32l4xx_hal_can.c ****       /* Update error code */
1301:Drivers/STM32L4xx_HAL_Driver/Src/stm32l4xx_hal_can.c ****       hcan->ErrorCode |= HAL_CAN_ERROR_PARAM;
 1518              		.loc 1 1301 23
 1519 0176 FB68     		ldr	r3, [r7, #12]
 1520 0178 5B6A     		ldr	r3, [r3, #36]
 1521 017a 43F40012 		orr	r2, r3, #2097152
 1522 017e FB68     		ldr	r3, [r7, #12]
 1523 0180 5A62     		str	r2, [r3, #36]
1302:Drivers/STM32L4xx_HAL_Driver/Src/stm32l4xx_hal_can.c **** 
1303:Drivers/STM32L4xx_HAL_Driver/Src/stm32l4xx_hal_can.c ****       return HAL_ERROR;
 1524              		.loc 1 1303 14
 1525 0182 0123     		movs	r3, #1
 1526 0184 06E0     		b	.L71
 1527              	.L65:
1304:Drivers/STM32L4xx_HAL_Driver/Src/stm32l4xx_hal_can.c ****     }
1305:Drivers/STM32L4xx_HAL_Driver/Src/stm32l4xx_hal_can.c ****   }
1306:Drivers/STM32L4xx_HAL_Driver/Src/stm32l4xx_hal_can.c ****   else
1307:Drivers/STM32L4xx_HAL_Driver/Src/stm32l4xx_hal_can.c ****   {
ARM GAS  /tmp/cce3S0ea.s 			page 51


1308:Drivers/STM32L4xx_HAL_Driver/Src/stm32l4xx_hal_can.c ****     /* Update error code */
1309:Drivers/STM32L4xx_HAL_Driver/Src/stm32l4xx_hal_can.c ****     hcan->ErrorCode |= HAL_CAN_ERROR_NOT_INITIALIZED;
 1528              		.loc 1 1309 21
 1529 0186 FB68     		ldr	r3, [r7, #12]
 1530 0188 5B6A     		ldr	r3, [r3, #36]
 1531 018a 43F48022 		orr	r2, r3, #262144
 1532 018e FB68     		ldr	r3, [r7, #12]
 1533 0190 5A62     		str	r2, [r3, #36]
1310:Drivers/STM32L4xx_HAL_Driver/Src/stm32l4xx_hal_can.c **** 
1311:Drivers/STM32L4xx_HAL_Driver/Src/stm32l4xx_hal_can.c ****     return HAL_ERROR;
 1534              		.loc 1 1311 12
 1535 0192 0123     		movs	r3, #1
 1536              	.L71:
1312:Drivers/STM32L4xx_HAL_Driver/Src/stm32l4xx_hal_can.c ****   }
1313:Drivers/STM32L4xx_HAL_Driver/Src/stm32l4xx_hal_can.c **** }
 1537              		.loc 1 1313 1
 1538 0194 1846     		mov	r0, r3
 1539 0196 2437     		adds	r7, r7, #36
 1540              	.LCFI59:
 1541              		.cfi_def_cfa_offset 4
 1542 0198 BD46     		mov	sp, r7
 1543              	.LCFI60:
 1544              		.cfi_def_cfa_register 13
 1545              		@ sp needed
 1546 019a 5DF8047B 		ldr	r7, [sp], #4
 1547              	.LCFI61:
 1548              		.cfi_restore 7
 1549              		.cfi_def_cfa_offset 0
 1550 019e 7047     		bx	lr
 1551              		.cfi_endproc
 1552              	.LFE142:
 1554              		.section	.text.HAL_CAN_AbortTxRequest,"ax",%progbits
 1555              		.align	1
 1556              		.global	HAL_CAN_AbortTxRequest
 1557              		.syntax unified
 1558              		.thumb
 1559              		.thumb_func
 1561              	HAL_CAN_AbortTxRequest:
 1562              	.LFB143:
1314:Drivers/STM32L4xx_HAL_Driver/Src/stm32l4xx_hal_can.c **** 
1315:Drivers/STM32L4xx_HAL_Driver/Src/stm32l4xx_hal_can.c **** /**
1316:Drivers/STM32L4xx_HAL_Driver/Src/stm32l4xx_hal_can.c ****   * @brief  Abort transmission requests
1317:Drivers/STM32L4xx_HAL_Driver/Src/stm32l4xx_hal_can.c ****   * @param  hcan pointer to an CAN_HandleTypeDef structure that contains
1318:Drivers/STM32L4xx_HAL_Driver/Src/stm32l4xx_hal_can.c ****   *         the configuration information for the specified CAN.
1319:Drivers/STM32L4xx_HAL_Driver/Src/stm32l4xx_hal_can.c ****   * @param  TxMailboxes List of the Tx Mailboxes to abort.
1320:Drivers/STM32L4xx_HAL_Driver/Src/stm32l4xx_hal_can.c ****   *         This parameter can be any combination of @arg CAN_Tx_Mailboxes.
1321:Drivers/STM32L4xx_HAL_Driver/Src/stm32l4xx_hal_can.c ****   * @retval HAL status
1322:Drivers/STM32L4xx_HAL_Driver/Src/stm32l4xx_hal_can.c ****   */
1323:Drivers/STM32L4xx_HAL_Driver/Src/stm32l4xx_hal_can.c **** HAL_StatusTypeDef HAL_CAN_AbortTxRequest(CAN_HandleTypeDef *hcan, uint32_t TxMailboxes)
1324:Drivers/STM32L4xx_HAL_Driver/Src/stm32l4xx_hal_can.c **** {
 1563              		.loc 1 1324 1
 1564              		.cfi_startproc
 1565              		@ args = 0, pretend = 0, frame = 16
 1566              		@ frame_needed = 1, uses_anonymous_args = 0
 1567              		@ link register save eliminated.
 1568 0000 80B4     		push	{r7}
 1569              	.LCFI62:
ARM GAS  /tmp/cce3S0ea.s 			page 52


 1570              		.cfi_def_cfa_offset 4
 1571              		.cfi_offset 7, -4
 1572 0002 85B0     		sub	sp, sp, #20
 1573              	.LCFI63:
 1574              		.cfi_def_cfa_offset 24
 1575 0004 00AF     		add	r7, sp, #0
 1576              	.LCFI64:
 1577              		.cfi_def_cfa_register 7
 1578 0006 7860     		str	r0, [r7, #4]
 1579 0008 3960     		str	r1, [r7]
1325:Drivers/STM32L4xx_HAL_Driver/Src/stm32l4xx_hal_can.c ****   HAL_CAN_StateTypeDef state = hcan->State;
 1580              		.loc 1 1325 24
 1581 000a 7B68     		ldr	r3, [r7, #4]
 1582 000c 93F82030 		ldrb	r3, [r3, #32]
 1583 0010 FB73     		strb	r3, [r7, #15]
1326:Drivers/STM32L4xx_HAL_Driver/Src/stm32l4xx_hal_can.c **** 
1327:Drivers/STM32L4xx_HAL_Driver/Src/stm32l4xx_hal_can.c ****   /* Check function parameters */
1328:Drivers/STM32L4xx_HAL_Driver/Src/stm32l4xx_hal_can.c ****   assert_param(IS_CAN_TX_MAILBOX_LIST(TxMailboxes));
1329:Drivers/STM32L4xx_HAL_Driver/Src/stm32l4xx_hal_can.c **** 
1330:Drivers/STM32L4xx_HAL_Driver/Src/stm32l4xx_hal_can.c ****   if ((state == HAL_CAN_STATE_READY) ||
 1584              		.loc 1 1330 6
 1585 0012 FB7B     		ldrb	r3, [r7, #15]	@ zero_extendqisi2
 1586 0014 012B     		cmp	r3, #1
 1587 0016 02D0     		beq	.L73
 1588              		.loc 1 1330 38 discriminator 1
 1589 0018 FB7B     		ldrb	r3, [r7, #15]	@ zero_extendqisi2
 1590 001a 022B     		cmp	r3, #2
 1591 001c 28D1     		bne	.L74
 1592              	.L73:
1331:Drivers/STM32L4xx_HAL_Driver/Src/stm32l4xx_hal_can.c ****       (state == HAL_CAN_STATE_LISTENING))
1332:Drivers/STM32L4xx_HAL_Driver/Src/stm32l4xx_hal_can.c ****   {
1333:Drivers/STM32L4xx_HAL_Driver/Src/stm32l4xx_hal_can.c ****     /* Check Tx Mailbox 0 */
1334:Drivers/STM32L4xx_HAL_Driver/Src/stm32l4xx_hal_can.c ****     if ((TxMailboxes & CAN_TX_MAILBOX0) != 0U)
 1593              		.loc 1 1334 22
 1594 001e 3B68     		ldr	r3, [r7]
 1595 0020 03F00103 		and	r3, r3, #1
 1596              		.loc 1 1334 8
 1597 0024 002B     		cmp	r3, #0
 1598 0026 07D0     		beq	.L75
1335:Drivers/STM32L4xx_HAL_Driver/Src/stm32l4xx_hal_can.c ****     {
1336:Drivers/STM32L4xx_HAL_Driver/Src/stm32l4xx_hal_can.c ****       /* Add cancellation request for Tx Mailbox 0 */
1337:Drivers/STM32L4xx_HAL_Driver/Src/stm32l4xx_hal_can.c ****       SET_BIT(hcan->Instance->TSR, CAN_TSR_ABRQ0);
 1599              		.loc 1 1337 7
 1600 0028 7B68     		ldr	r3, [r7, #4]
 1601 002a 1B68     		ldr	r3, [r3]
 1602 002c 9A68     		ldr	r2, [r3, #8]
 1603 002e 7B68     		ldr	r3, [r7, #4]
 1604 0030 1B68     		ldr	r3, [r3]
 1605 0032 42F08002 		orr	r2, r2, #128
 1606 0036 9A60     		str	r2, [r3, #8]
 1607              	.L75:
1338:Drivers/STM32L4xx_HAL_Driver/Src/stm32l4xx_hal_can.c ****     }
1339:Drivers/STM32L4xx_HAL_Driver/Src/stm32l4xx_hal_can.c **** 
1340:Drivers/STM32L4xx_HAL_Driver/Src/stm32l4xx_hal_can.c ****     /* Check Tx Mailbox 1 */
1341:Drivers/STM32L4xx_HAL_Driver/Src/stm32l4xx_hal_can.c ****     if ((TxMailboxes & CAN_TX_MAILBOX1) != 0U)
 1608              		.loc 1 1341 22
 1609 0038 3B68     		ldr	r3, [r7]
ARM GAS  /tmp/cce3S0ea.s 			page 53


 1610 003a 03F00203 		and	r3, r3, #2
 1611              		.loc 1 1341 8
 1612 003e 002B     		cmp	r3, #0
 1613 0040 07D0     		beq	.L76
1342:Drivers/STM32L4xx_HAL_Driver/Src/stm32l4xx_hal_can.c ****     {
1343:Drivers/STM32L4xx_HAL_Driver/Src/stm32l4xx_hal_can.c ****       /* Add cancellation request for Tx Mailbox 1 */
1344:Drivers/STM32L4xx_HAL_Driver/Src/stm32l4xx_hal_can.c ****       SET_BIT(hcan->Instance->TSR, CAN_TSR_ABRQ1);
 1614              		.loc 1 1344 7
 1615 0042 7B68     		ldr	r3, [r7, #4]
 1616 0044 1B68     		ldr	r3, [r3]
 1617 0046 9A68     		ldr	r2, [r3, #8]
 1618 0048 7B68     		ldr	r3, [r7, #4]
 1619 004a 1B68     		ldr	r3, [r3]
 1620 004c 42F40042 		orr	r2, r2, #32768
 1621 0050 9A60     		str	r2, [r3, #8]
 1622              	.L76:
1345:Drivers/STM32L4xx_HAL_Driver/Src/stm32l4xx_hal_can.c ****     }
1346:Drivers/STM32L4xx_HAL_Driver/Src/stm32l4xx_hal_can.c **** 
1347:Drivers/STM32L4xx_HAL_Driver/Src/stm32l4xx_hal_can.c ****     /* Check Tx Mailbox 2 */
1348:Drivers/STM32L4xx_HAL_Driver/Src/stm32l4xx_hal_can.c ****     if ((TxMailboxes & CAN_TX_MAILBOX2) != 0U)
 1623              		.loc 1 1348 22
 1624 0052 3B68     		ldr	r3, [r7]
 1625 0054 03F00403 		and	r3, r3, #4
 1626              		.loc 1 1348 8
 1627 0058 002B     		cmp	r3, #0
 1628 005a 07D0     		beq	.L77
1349:Drivers/STM32L4xx_HAL_Driver/Src/stm32l4xx_hal_can.c ****     {
1350:Drivers/STM32L4xx_HAL_Driver/Src/stm32l4xx_hal_can.c ****       /* Add cancellation request for Tx Mailbox 2 */
1351:Drivers/STM32L4xx_HAL_Driver/Src/stm32l4xx_hal_can.c ****       SET_BIT(hcan->Instance->TSR, CAN_TSR_ABRQ2);
 1629              		.loc 1 1351 7
 1630 005c 7B68     		ldr	r3, [r7, #4]
 1631 005e 1B68     		ldr	r3, [r3]
 1632 0060 9A68     		ldr	r2, [r3, #8]
 1633 0062 7B68     		ldr	r3, [r7, #4]
 1634 0064 1B68     		ldr	r3, [r3]
 1635 0066 42F40002 		orr	r2, r2, #8388608
 1636 006a 9A60     		str	r2, [r3, #8]
 1637              	.L77:
1352:Drivers/STM32L4xx_HAL_Driver/Src/stm32l4xx_hal_can.c ****     }
1353:Drivers/STM32L4xx_HAL_Driver/Src/stm32l4xx_hal_can.c **** 
1354:Drivers/STM32L4xx_HAL_Driver/Src/stm32l4xx_hal_can.c ****     /* Return function status */
1355:Drivers/STM32L4xx_HAL_Driver/Src/stm32l4xx_hal_can.c ****     return HAL_OK;
 1638              		.loc 1 1355 12
 1639 006c 0023     		movs	r3, #0
 1640 006e 06E0     		b	.L78
 1641              	.L74:
1356:Drivers/STM32L4xx_HAL_Driver/Src/stm32l4xx_hal_can.c ****   }
1357:Drivers/STM32L4xx_HAL_Driver/Src/stm32l4xx_hal_can.c ****   else
1358:Drivers/STM32L4xx_HAL_Driver/Src/stm32l4xx_hal_can.c ****   {
1359:Drivers/STM32L4xx_HAL_Driver/Src/stm32l4xx_hal_can.c ****     /* Update error code */
1360:Drivers/STM32L4xx_HAL_Driver/Src/stm32l4xx_hal_can.c ****     hcan->ErrorCode |= HAL_CAN_ERROR_NOT_INITIALIZED;
 1642              		.loc 1 1360 21
 1643 0070 7B68     		ldr	r3, [r7, #4]
 1644 0072 5B6A     		ldr	r3, [r3, #36]
 1645 0074 43F48022 		orr	r2, r3, #262144
 1646 0078 7B68     		ldr	r3, [r7, #4]
 1647 007a 5A62     		str	r2, [r3, #36]
ARM GAS  /tmp/cce3S0ea.s 			page 54


1361:Drivers/STM32L4xx_HAL_Driver/Src/stm32l4xx_hal_can.c **** 
1362:Drivers/STM32L4xx_HAL_Driver/Src/stm32l4xx_hal_can.c ****     return HAL_ERROR;
 1648              		.loc 1 1362 12
 1649 007c 0123     		movs	r3, #1
 1650              	.L78:
1363:Drivers/STM32L4xx_HAL_Driver/Src/stm32l4xx_hal_can.c ****   }
1364:Drivers/STM32L4xx_HAL_Driver/Src/stm32l4xx_hal_can.c **** }
 1651              		.loc 1 1364 1
 1652 007e 1846     		mov	r0, r3
 1653 0080 1437     		adds	r7, r7, #20
 1654              	.LCFI65:
 1655              		.cfi_def_cfa_offset 4
 1656 0082 BD46     		mov	sp, r7
 1657              	.LCFI66:
 1658              		.cfi_def_cfa_register 13
 1659              		@ sp needed
 1660 0084 5DF8047B 		ldr	r7, [sp], #4
 1661              	.LCFI67:
 1662              		.cfi_restore 7
 1663              		.cfi_def_cfa_offset 0
 1664 0088 7047     		bx	lr
 1665              		.cfi_endproc
 1666              	.LFE143:
 1668              		.section	.text.HAL_CAN_GetTxMailboxesFreeLevel,"ax",%progbits
 1669              		.align	1
 1670              		.global	HAL_CAN_GetTxMailboxesFreeLevel
 1671              		.syntax unified
 1672              		.thumb
 1673              		.thumb_func
 1675              	HAL_CAN_GetTxMailboxesFreeLevel:
 1676              	.LFB144:
1365:Drivers/STM32L4xx_HAL_Driver/Src/stm32l4xx_hal_can.c **** 
1366:Drivers/STM32L4xx_HAL_Driver/Src/stm32l4xx_hal_can.c **** /**
1367:Drivers/STM32L4xx_HAL_Driver/Src/stm32l4xx_hal_can.c ****   * @brief  Return Tx Mailboxes free level: number of free Tx Mailboxes.
1368:Drivers/STM32L4xx_HAL_Driver/Src/stm32l4xx_hal_can.c ****   * @param  hcan pointer to a CAN_HandleTypeDef structure that contains
1369:Drivers/STM32L4xx_HAL_Driver/Src/stm32l4xx_hal_can.c ****   *         the configuration information for the specified CAN.
1370:Drivers/STM32L4xx_HAL_Driver/Src/stm32l4xx_hal_can.c ****   * @retval Number of free Tx Mailboxes.
1371:Drivers/STM32L4xx_HAL_Driver/Src/stm32l4xx_hal_can.c ****   */
1372:Drivers/STM32L4xx_HAL_Driver/Src/stm32l4xx_hal_can.c **** uint32_t HAL_CAN_GetTxMailboxesFreeLevel(const CAN_HandleTypeDef *hcan)
1373:Drivers/STM32L4xx_HAL_Driver/Src/stm32l4xx_hal_can.c **** {
 1677              		.loc 1 1373 1
 1678              		.cfi_startproc
 1679              		@ args = 0, pretend = 0, frame = 16
 1680              		@ frame_needed = 1, uses_anonymous_args = 0
 1681              		@ link register save eliminated.
 1682 0000 80B4     		push	{r7}
 1683              	.LCFI68:
 1684              		.cfi_def_cfa_offset 4
 1685              		.cfi_offset 7, -4
 1686 0002 85B0     		sub	sp, sp, #20
 1687              	.LCFI69:
 1688              		.cfi_def_cfa_offset 24
 1689 0004 00AF     		add	r7, sp, #0
 1690              	.LCFI70:
 1691              		.cfi_def_cfa_register 7
 1692 0006 7860     		str	r0, [r7, #4]
1374:Drivers/STM32L4xx_HAL_Driver/Src/stm32l4xx_hal_can.c ****   uint32_t freelevel = 0U;
ARM GAS  /tmp/cce3S0ea.s 			page 55


 1693              		.loc 1 1374 12
 1694 0008 0023     		movs	r3, #0
 1695 000a FB60     		str	r3, [r7, #12]
1375:Drivers/STM32L4xx_HAL_Driver/Src/stm32l4xx_hal_can.c ****   HAL_CAN_StateTypeDef state = hcan->State;
 1696              		.loc 1 1375 24
 1697 000c 7B68     		ldr	r3, [r7, #4]
 1698 000e 93F82030 		ldrb	r3, [r3, #32]
 1699 0012 FB72     		strb	r3, [r7, #11]
1376:Drivers/STM32L4xx_HAL_Driver/Src/stm32l4xx_hal_can.c **** 
1377:Drivers/STM32L4xx_HAL_Driver/Src/stm32l4xx_hal_can.c ****   if ((state == HAL_CAN_STATE_READY) ||
 1700              		.loc 1 1377 6
 1701 0014 FB7A     		ldrb	r3, [r7, #11]	@ zero_extendqisi2
 1702 0016 012B     		cmp	r3, #1
 1703 0018 02D0     		beq	.L80
 1704              		.loc 1 1377 38 discriminator 1
 1705 001a FB7A     		ldrb	r3, [r7, #11]	@ zero_extendqisi2
 1706 001c 022B     		cmp	r3, #2
 1707 001e 1DD1     		bne	.L81
 1708              	.L80:
1378:Drivers/STM32L4xx_HAL_Driver/Src/stm32l4xx_hal_can.c ****       (state == HAL_CAN_STATE_LISTENING))
1379:Drivers/STM32L4xx_HAL_Driver/Src/stm32l4xx_hal_can.c ****   {
1380:Drivers/STM32L4xx_HAL_Driver/Src/stm32l4xx_hal_can.c ****     /* Check Tx Mailbox 0 status */
1381:Drivers/STM32L4xx_HAL_Driver/Src/stm32l4xx_hal_can.c ****     if ((hcan->Instance->TSR & CAN_TSR_TME0) != 0U)
 1709              		.loc 1 1381 14
 1710 0020 7B68     		ldr	r3, [r7, #4]
 1711 0022 1B68     		ldr	r3, [r3]
 1712              		.loc 1 1381 24
 1713 0024 9B68     		ldr	r3, [r3, #8]
 1714              		.loc 1 1381 30
 1715 0026 03F08063 		and	r3, r3, #67108864
 1716              		.loc 1 1381 8
 1717 002a 002B     		cmp	r3, #0
 1718 002c 02D0     		beq	.L82
1382:Drivers/STM32L4xx_HAL_Driver/Src/stm32l4xx_hal_can.c ****     {
1383:Drivers/STM32L4xx_HAL_Driver/Src/stm32l4xx_hal_can.c ****       freelevel++;
 1719              		.loc 1 1383 16
 1720 002e FB68     		ldr	r3, [r7, #12]
 1721 0030 0133     		adds	r3, r3, #1
 1722 0032 FB60     		str	r3, [r7, #12]
 1723              	.L82:
1384:Drivers/STM32L4xx_HAL_Driver/Src/stm32l4xx_hal_can.c ****     }
1385:Drivers/STM32L4xx_HAL_Driver/Src/stm32l4xx_hal_can.c **** 
1386:Drivers/STM32L4xx_HAL_Driver/Src/stm32l4xx_hal_can.c ****     /* Check Tx Mailbox 1 status */
1387:Drivers/STM32L4xx_HAL_Driver/Src/stm32l4xx_hal_can.c ****     if ((hcan->Instance->TSR & CAN_TSR_TME1) != 0U)
 1724              		.loc 1 1387 14
 1725 0034 7B68     		ldr	r3, [r7, #4]
 1726 0036 1B68     		ldr	r3, [r3]
 1727              		.loc 1 1387 24
 1728 0038 9B68     		ldr	r3, [r3, #8]
 1729              		.loc 1 1387 30
 1730 003a 03F00063 		and	r3, r3, #134217728
 1731              		.loc 1 1387 8
 1732 003e 002B     		cmp	r3, #0
 1733 0040 02D0     		beq	.L83
1388:Drivers/STM32L4xx_HAL_Driver/Src/stm32l4xx_hal_can.c ****     {
1389:Drivers/STM32L4xx_HAL_Driver/Src/stm32l4xx_hal_can.c ****       freelevel++;
 1734              		.loc 1 1389 16
ARM GAS  /tmp/cce3S0ea.s 			page 56


 1735 0042 FB68     		ldr	r3, [r7, #12]
 1736 0044 0133     		adds	r3, r3, #1
 1737 0046 FB60     		str	r3, [r7, #12]
 1738              	.L83:
1390:Drivers/STM32L4xx_HAL_Driver/Src/stm32l4xx_hal_can.c ****     }
1391:Drivers/STM32L4xx_HAL_Driver/Src/stm32l4xx_hal_can.c **** 
1392:Drivers/STM32L4xx_HAL_Driver/Src/stm32l4xx_hal_can.c ****     /* Check Tx Mailbox 2 status */
1393:Drivers/STM32L4xx_HAL_Driver/Src/stm32l4xx_hal_can.c ****     if ((hcan->Instance->TSR & CAN_TSR_TME2) != 0U)
 1739              		.loc 1 1393 14
 1740 0048 7B68     		ldr	r3, [r7, #4]
 1741 004a 1B68     		ldr	r3, [r3]
 1742              		.loc 1 1393 24
 1743 004c 9B68     		ldr	r3, [r3, #8]
 1744              		.loc 1 1393 30
 1745 004e 03F08053 		and	r3, r3, #268435456
 1746              		.loc 1 1393 8
 1747 0052 002B     		cmp	r3, #0
 1748 0054 02D0     		beq	.L81
1394:Drivers/STM32L4xx_HAL_Driver/Src/stm32l4xx_hal_can.c ****     {
1395:Drivers/STM32L4xx_HAL_Driver/Src/stm32l4xx_hal_can.c ****       freelevel++;
 1749              		.loc 1 1395 16
 1750 0056 FB68     		ldr	r3, [r7, #12]
 1751 0058 0133     		adds	r3, r3, #1
 1752 005a FB60     		str	r3, [r7, #12]
 1753              	.L81:
1396:Drivers/STM32L4xx_HAL_Driver/Src/stm32l4xx_hal_can.c ****     }
1397:Drivers/STM32L4xx_HAL_Driver/Src/stm32l4xx_hal_can.c ****   }
1398:Drivers/STM32L4xx_HAL_Driver/Src/stm32l4xx_hal_can.c **** 
1399:Drivers/STM32L4xx_HAL_Driver/Src/stm32l4xx_hal_can.c ****   /* Return Tx Mailboxes free level */
1400:Drivers/STM32L4xx_HAL_Driver/Src/stm32l4xx_hal_can.c ****   return freelevel;
 1754              		.loc 1 1400 10
 1755 005c FB68     		ldr	r3, [r7, #12]
1401:Drivers/STM32L4xx_HAL_Driver/Src/stm32l4xx_hal_can.c **** }
 1756              		.loc 1 1401 1
 1757 005e 1846     		mov	r0, r3
 1758 0060 1437     		adds	r7, r7, #20
 1759              	.LCFI71:
 1760              		.cfi_def_cfa_offset 4
 1761 0062 BD46     		mov	sp, r7
 1762              	.LCFI72:
 1763              		.cfi_def_cfa_register 13
 1764              		@ sp needed
 1765 0064 5DF8047B 		ldr	r7, [sp], #4
 1766              	.LCFI73:
 1767              		.cfi_restore 7
 1768              		.cfi_def_cfa_offset 0
 1769 0068 7047     		bx	lr
 1770              		.cfi_endproc
 1771              	.LFE144:
 1773              		.section	.text.HAL_CAN_IsTxMessagePending,"ax",%progbits
 1774              		.align	1
 1775              		.global	HAL_CAN_IsTxMessagePending
 1776              		.syntax unified
 1777              		.thumb
 1778              		.thumb_func
 1780              	HAL_CAN_IsTxMessagePending:
 1781              	.LFB145:
ARM GAS  /tmp/cce3S0ea.s 			page 57


1402:Drivers/STM32L4xx_HAL_Driver/Src/stm32l4xx_hal_can.c **** 
1403:Drivers/STM32L4xx_HAL_Driver/Src/stm32l4xx_hal_can.c **** /**
1404:Drivers/STM32L4xx_HAL_Driver/Src/stm32l4xx_hal_can.c ****   * @brief  Check if a transmission request is pending on the selected Tx
1405:Drivers/STM32L4xx_HAL_Driver/Src/stm32l4xx_hal_can.c ****   *         Mailboxes.
1406:Drivers/STM32L4xx_HAL_Driver/Src/stm32l4xx_hal_can.c ****   * @param  hcan pointer to an CAN_HandleTypeDef structure that contains
1407:Drivers/STM32L4xx_HAL_Driver/Src/stm32l4xx_hal_can.c ****   *         the configuration information for the specified CAN.
1408:Drivers/STM32L4xx_HAL_Driver/Src/stm32l4xx_hal_can.c ****   * @param  TxMailboxes List of Tx Mailboxes to check.
1409:Drivers/STM32L4xx_HAL_Driver/Src/stm32l4xx_hal_can.c ****   *         This parameter can be any combination of @arg CAN_Tx_Mailboxes.
1410:Drivers/STM32L4xx_HAL_Driver/Src/stm32l4xx_hal_can.c ****   * @retval Status
1411:Drivers/STM32L4xx_HAL_Driver/Src/stm32l4xx_hal_can.c ****   *          - 0 : No pending transmission request on any selected Tx Mailboxes.
1412:Drivers/STM32L4xx_HAL_Driver/Src/stm32l4xx_hal_can.c ****   *          - 1 : Pending transmission request on at least one of the selected
1413:Drivers/STM32L4xx_HAL_Driver/Src/stm32l4xx_hal_can.c ****   *                Tx Mailbox.
1414:Drivers/STM32L4xx_HAL_Driver/Src/stm32l4xx_hal_can.c ****   */
1415:Drivers/STM32L4xx_HAL_Driver/Src/stm32l4xx_hal_can.c **** uint32_t HAL_CAN_IsTxMessagePending(const CAN_HandleTypeDef *hcan, uint32_t TxMailboxes)
1416:Drivers/STM32L4xx_HAL_Driver/Src/stm32l4xx_hal_can.c **** {
 1782              		.loc 1 1416 1
 1783              		.cfi_startproc
 1784              		@ args = 0, pretend = 0, frame = 16
 1785              		@ frame_needed = 1, uses_anonymous_args = 0
 1786              		@ link register save eliminated.
 1787 0000 80B4     		push	{r7}
 1788              	.LCFI74:
 1789              		.cfi_def_cfa_offset 4
 1790              		.cfi_offset 7, -4
 1791 0002 85B0     		sub	sp, sp, #20
 1792              	.LCFI75:
 1793              		.cfi_def_cfa_offset 24
 1794 0004 00AF     		add	r7, sp, #0
 1795              	.LCFI76:
 1796              		.cfi_def_cfa_register 7
 1797 0006 7860     		str	r0, [r7, #4]
 1798 0008 3960     		str	r1, [r7]
1417:Drivers/STM32L4xx_HAL_Driver/Src/stm32l4xx_hal_can.c ****   uint32_t status = 0U;
 1799              		.loc 1 1417 12
 1800 000a 0023     		movs	r3, #0
 1801 000c FB60     		str	r3, [r7, #12]
1418:Drivers/STM32L4xx_HAL_Driver/Src/stm32l4xx_hal_can.c ****   HAL_CAN_StateTypeDef state = hcan->State;
 1802              		.loc 1 1418 24
 1803 000e 7B68     		ldr	r3, [r7, #4]
 1804 0010 93F82030 		ldrb	r3, [r3, #32]
 1805 0014 FB72     		strb	r3, [r7, #11]
1419:Drivers/STM32L4xx_HAL_Driver/Src/stm32l4xx_hal_can.c **** 
1420:Drivers/STM32L4xx_HAL_Driver/Src/stm32l4xx_hal_can.c ****   /* Check function parameters */
1421:Drivers/STM32L4xx_HAL_Driver/Src/stm32l4xx_hal_can.c ****   assert_param(IS_CAN_TX_MAILBOX_LIST(TxMailboxes));
1422:Drivers/STM32L4xx_HAL_Driver/Src/stm32l4xx_hal_can.c **** 
1423:Drivers/STM32L4xx_HAL_Driver/Src/stm32l4xx_hal_can.c ****   if ((state == HAL_CAN_STATE_READY) ||
 1806              		.loc 1 1423 6
 1807 0016 FB7A     		ldrb	r3, [r7, #11]	@ zero_extendqisi2
 1808 0018 012B     		cmp	r3, #1
 1809 001a 02D0     		beq	.L86
 1810              		.loc 1 1423 38 discriminator 1
 1811 001c FB7A     		ldrb	r3, [r7, #11]	@ zero_extendqisi2
 1812 001e 022B     		cmp	r3, #2
 1813 0020 0BD1     		bne	.L87
 1814              	.L86:
1424:Drivers/STM32L4xx_HAL_Driver/Src/stm32l4xx_hal_can.c ****       (state == HAL_CAN_STATE_LISTENING))
1425:Drivers/STM32L4xx_HAL_Driver/Src/stm32l4xx_hal_can.c ****   {
ARM GAS  /tmp/cce3S0ea.s 			page 58


1426:Drivers/STM32L4xx_HAL_Driver/Src/stm32l4xx_hal_can.c ****     /* Check pending transmission request on the selected Tx Mailboxes */
1427:Drivers/STM32L4xx_HAL_Driver/Src/stm32l4xx_hal_can.c ****     if ((hcan->Instance->TSR & (TxMailboxes << CAN_TSR_TME0_Pos)) != (TxMailboxes << CAN_TSR_TME0_P
 1815              		.loc 1 1427 14
 1816 0022 7B68     		ldr	r3, [r7, #4]
 1817 0024 1B68     		ldr	r3, [r3]
 1818              		.loc 1 1427 24
 1819 0026 9A68     		ldr	r2, [r3, #8]
 1820              		.loc 1 1427 45
 1821 0028 3B68     		ldr	r3, [r7]
 1822 002a 9B06     		lsls	r3, r3, #26
 1823              		.loc 1 1427 30
 1824 002c 1A40     		ands	r2, r2, r3
 1825              		.loc 1 1427 83
 1826 002e 3B68     		ldr	r3, [r7]
 1827 0030 9B06     		lsls	r3, r3, #26
 1828              		.loc 1 1427 8
 1829 0032 9A42     		cmp	r2, r3
 1830 0034 01D0     		beq	.L87
1428:Drivers/STM32L4xx_HAL_Driver/Src/stm32l4xx_hal_can.c ****     {
1429:Drivers/STM32L4xx_HAL_Driver/Src/stm32l4xx_hal_can.c ****       status = 1U;
 1831              		.loc 1 1429 14
 1832 0036 0123     		movs	r3, #1
 1833 0038 FB60     		str	r3, [r7, #12]
 1834              	.L87:
1430:Drivers/STM32L4xx_HAL_Driver/Src/stm32l4xx_hal_can.c ****     }
1431:Drivers/STM32L4xx_HAL_Driver/Src/stm32l4xx_hal_can.c ****   }
1432:Drivers/STM32L4xx_HAL_Driver/Src/stm32l4xx_hal_can.c **** 
1433:Drivers/STM32L4xx_HAL_Driver/Src/stm32l4xx_hal_can.c ****   /* Return status */
1434:Drivers/STM32L4xx_HAL_Driver/Src/stm32l4xx_hal_can.c ****   return status;
 1835              		.loc 1 1434 10
 1836 003a FB68     		ldr	r3, [r7, #12]
1435:Drivers/STM32L4xx_HAL_Driver/Src/stm32l4xx_hal_can.c **** }
 1837              		.loc 1 1435 1
 1838 003c 1846     		mov	r0, r3
 1839 003e 1437     		adds	r7, r7, #20
 1840              	.LCFI77:
 1841              		.cfi_def_cfa_offset 4
 1842 0040 BD46     		mov	sp, r7
 1843              	.LCFI78:
 1844              		.cfi_def_cfa_register 13
 1845              		@ sp needed
 1846 0042 5DF8047B 		ldr	r7, [sp], #4
 1847              	.LCFI79:
 1848              		.cfi_restore 7
 1849              		.cfi_def_cfa_offset 0
 1850 0046 7047     		bx	lr
 1851              		.cfi_endproc
 1852              	.LFE145:
 1854              		.section	.text.HAL_CAN_GetTxTimestamp,"ax",%progbits
 1855              		.align	1
 1856              		.global	HAL_CAN_GetTxTimestamp
 1857              		.syntax unified
 1858              		.thumb
 1859              		.thumb_func
 1861              	HAL_CAN_GetTxTimestamp:
 1862              	.LFB146:
1436:Drivers/STM32L4xx_HAL_Driver/Src/stm32l4xx_hal_can.c **** 
ARM GAS  /tmp/cce3S0ea.s 			page 59


1437:Drivers/STM32L4xx_HAL_Driver/Src/stm32l4xx_hal_can.c **** /**
1438:Drivers/STM32L4xx_HAL_Driver/Src/stm32l4xx_hal_can.c ****   * @brief  Return timestamp of Tx message sent, if time triggered communication
1439:Drivers/STM32L4xx_HAL_Driver/Src/stm32l4xx_hal_can.c ****             mode is enabled.
1440:Drivers/STM32L4xx_HAL_Driver/Src/stm32l4xx_hal_can.c ****   * @param  hcan pointer to a CAN_HandleTypeDef structure that contains
1441:Drivers/STM32L4xx_HAL_Driver/Src/stm32l4xx_hal_can.c ****   *         the configuration information for the specified CAN.
1442:Drivers/STM32L4xx_HAL_Driver/Src/stm32l4xx_hal_can.c ****   * @param  TxMailbox Tx Mailbox where the timestamp of message sent will be
1443:Drivers/STM32L4xx_HAL_Driver/Src/stm32l4xx_hal_can.c ****   *         read.
1444:Drivers/STM32L4xx_HAL_Driver/Src/stm32l4xx_hal_can.c ****   *         This parameter can be one value of @arg CAN_Tx_Mailboxes.
1445:Drivers/STM32L4xx_HAL_Driver/Src/stm32l4xx_hal_can.c ****   * @retval Timestamp of message sent from Tx Mailbox.
1446:Drivers/STM32L4xx_HAL_Driver/Src/stm32l4xx_hal_can.c ****   */
1447:Drivers/STM32L4xx_HAL_Driver/Src/stm32l4xx_hal_can.c **** uint32_t HAL_CAN_GetTxTimestamp(const CAN_HandleTypeDef *hcan, uint32_t TxMailbox)
1448:Drivers/STM32L4xx_HAL_Driver/Src/stm32l4xx_hal_can.c **** {
 1863              		.loc 1 1448 1
 1864              		.cfi_startproc
 1865              		@ args = 0, pretend = 0, frame = 32
 1866              		@ frame_needed = 1, uses_anonymous_args = 0
 1867              		@ link register save eliminated.
 1868 0000 80B4     		push	{r7}
 1869              	.LCFI80:
 1870              		.cfi_def_cfa_offset 4
 1871              		.cfi_offset 7, -4
 1872 0002 89B0     		sub	sp, sp, #36
 1873              	.LCFI81:
 1874              		.cfi_def_cfa_offset 40
 1875 0004 00AF     		add	r7, sp, #0
 1876              	.LCFI82:
 1877              		.cfi_def_cfa_register 7
 1878 0006 7860     		str	r0, [r7, #4]
 1879 0008 3960     		str	r1, [r7]
1449:Drivers/STM32L4xx_HAL_Driver/Src/stm32l4xx_hal_can.c ****   uint32_t timestamp = 0U;
 1880              		.loc 1 1449 12
 1881 000a 0023     		movs	r3, #0
 1882 000c FB61     		str	r3, [r7, #28]
1450:Drivers/STM32L4xx_HAL_Driver/Src/stm32l4xx_hal_can.c ****   uint32_t transmitmailbox;
1451:Drivers/STM32L4xx_HAL_Driver/Src/stm32l4xx_hal_can.c ****   HAL_CAN_StateTypeDef state = hcan->State;
 1883              		.loc 1 1451 24
 1884 000e 7B68     		ldr	r3, [r7, #4]
 1885 0010 93F82030 		ldrb	r3, [r3, #32]
 1886 0014 FB76     		strb	r3, [r7, #27]
1452:Drivers/STM32L4xx_HAL_Driver/Src/stm32l4xx_hal_can.c **** 
1453:Drivers/STM32L4xx_HAL_Driver/Src/stm32l4xx_hal_can.c ****   /* Check function parameters */
1454:Drivers/STM32L4xx_HAL_Driver/Src/stm32l4xx_hal_can.c ****   assert_param(IS_CAN_TX_MAILBOX(TxMailbox));
1455:Drivers/STM32L4xx_HAL_Driver/Src/stm32l4xx_hal_can.c **** 
1456:Drivers/STM32L4xx_HAL_Driver/Src/stm32l4xx_hal_can.c ****   if ((state == HAL_CAN_STATE_READY) ||
 1887              		.loc 1 1456 6
 1888 0016 FB7E     		ldrb	r3, [r7, #27]	@ zero_extendqisi2
 1889 0018 012B     		cmp	r3, #1
 1890 001a 02D0     		beq	.L90
 1891              		.loc 1 1456 38 discriminator 1
 1892 001c FB7E     		ldrb	r3, [r7, #27]	@ zero_extendqisi2
 1893 001e 022B     		cmp	r3, #2
 1894 0020 1CD1     		bne	.L91
 1895              	.L90:
 1896 0022 3B68     		ldr	r3, [r7]
 1897 0024 FB60     		str	r3, [r7, #12]
 1898              	.LBB6:
 1899              	.LBB7:
ARM GAS  /tmp/cce3S0ea.s 			page 60


 1900              		.file 2 "Drivers/CMSIS/Include/cmsis_gcc.h"
   1:Drivers/CMSIS/Include/cmsis_gcc.h **** /**************************************************************************//**
   2:Drivers/CMSIS/Include/cmsis_gcc.h ****  * @file     cmsis_gcc.h
   3:Drivers/CMSIS/Include/cmsis_gcc.h ****  * @brief    CMSIS compiler GCC header file
   4:Drivers/CMSIS/Include/cmsis_gcc.h ****  * @version  V5.2.0
   5:Drivers/CMSIS/Include/cmsis_gcc.h ****  * @date     08. May 2019
   6:Drivers/CMSIS/Include/cmsis_gcc.h ****  ******************************************************************************/
   7:Drivers/CMSIS/Include/cmsis_gcc.h **** /*
   8:Drivers/CMSIS/Include/cmsis_gcc.h ****  * Copyright (c) 2009-2019 Arm Limited. All rights reserved.
   9:Drivers/CMSIS/Include/cmsis_gcc.h ****  *
  10:Drivers/CMSIS/Include/cmsis_gcc.h ****  * SPDX-License-Identifier: Apache-2.0
  11:Drivers/CMSIS/Include/cmsis_gcc.h ****  *
  12:Drivers/CMSIS/Include/cmsis_gcc.h ****  * Licensed under the Apache License, Version 2.0 (the License); you may
  13:Drivers/CMSIS/Include/cmsis_gcc.h ****  * not use this file except in compliance with the License.
  14:Drivers/CMSIS/Include/cmsis_gcc.h ****  * You may obtain a copy of the License at
  15:Drivers/CMSIS/Include/cmsis_gcc.h ****  *
  16:Drivers/CMSIS/Include/cmsis_gcc.h ****  * www.apache.org/licenses/LICENSE-2.0
  17:Drivers/CMSIS/Include/cmsis_gcc.h ****  *
  18:Drivers/CMSIS/Include/cmsis_gcc.h ****  * Unless required by applicable law or agreed to in writing, software
  19:Drivers/CMSIS/Include/cmsis_gcc.h ****  * distributed under the License is distributed on an AS IS BASIS, WITHOUT
  20:Drivers/CMSIS/Include/cmsis_gcc.h ****  * WARRANTIES OR CONDITIONS OF ANY KIND, either express or implied.
  21:Drivers/CMSIS/Include/cmsis_gcc.h ****  * See the License for the specific language governing permissions and
  22:Drivers/CMSIS/Include/cmsis_gcc.h ****  * limitations under the License.
  23:Drivers/CMSIS/Include/cmsis_gcc.h ****  */
  24:Drivers/CMSIS/Include/cmsis_gcc.h **** 
  25:Drivers/CMSIS/Include/cmsis_gcc.h **** #ifndef __CMSIS_GCC_H
  26:Drivers/CMSIS/Include/cmsis_gcc.h **** #define __CMSIS_GCC_H
  27:Drivers/CMSIS/Include/cmsis_gcc.h **** 
  28:Drivers/CMSIS/Include/cmsis_gcc.h **** /* ignore some GCC warnings */
  29:Drivers/CMSIS/Include/cmsis_gcc.h **** #pragma GCC diagnostic push
  30:Drivers/CMSIS/Include/cmsis_gcc.h **** #pragma GCC diagnostic ignored "-Wsign-conversion"
  31:Drivers/CMSIS/Include/cmsis_gcc.h **** #pragma GCC diagnostic ignored "-Wconversion"
  32:Drivers/CMSIS/Include/cmsis_gcc.h **** #pragma GCC diagnostic ignored "-Wunused-parameter"
  33:Drivers/CMSIS/Include/cmsis_gcc.h **** 
  34:Drivers/CMSIS/Include/cmsis_gcc.h **** /* Fallback for __has_builtin */
  35:Drivers/CMSIS/Include/cmsis_gcc.h **** #ifndef __has_builtin
  36:Drivers/CMSIS/Include/cmsis_gcc.h ****   #define __has_builtin(x) (0)
  37:Drivers/CMSIS/Include/cmsis_gcc.h **** #endif
  38:Drivers/CMSIS/Include/cmsis_gcc.h **** 
  39:Drivers/CMSIS/Include/cmsis_gcc.h **** /* CMSIS compiler specific defines */
  40:Drivers/CMSIS/Include/cmsis_gcc.h **** #ifndef   __ASM
  41:Drivers/CMSIS/Include/cmsis_gcc.h ****   #define __ASM                                  __asm
  42:Drivers/CMSIS/Include/cmsis_gcc.h **** #endif
  43:Drivers/CMSIS/Include/cmsis_gcc.h **** #ifndef   __INLINE
  44:Drivers/CMSIS/Include/cmsis_gcc.h ****   #define __INLINE                               inline
  45:Drivers/CMSIS/Include/cmsis_gcc.h **** #endif
  46:Drivers/CMSIS/Include/cmsis_gcc.h **** #ifndef   __STATIC_INLINE
  47:Drivers/CMSIS/Include/cmsis_gcc.h ****   #define __STATIC_INLINE                        static inline
  48:Drivers/CMSIS/Include/cmsis_gcc.h **** #endif
  49:Drivers/CMSIS/Include/cmsis_gcc.h **** #ifndef   __STATIC_FORCEINLINE                 
  50:Drivers/CMSIS/Include/cmsis_gcc.h ****   #define __STATIC_FORCEINLINE                   __attribute__((always_inline)) static inline
  51:Drivers/CMSIS/Include/cmsis_gcc.h **** #endif                                           
  52:Drivers/CMSIS/Include/cmsis_gcc.h **** #ifndef   __NO_RETURN
  53:Drivers/CMSIS/Include/cmsis_gcc.h ****   #define __NO_RETURN                            __attribute__((__noreturn__))
  54:Drivers/CMSIS/Include/cmsis_gcc.h **** #endif
  55:Drivers/CMSIS/Include/cmsis_gcc.h **** #ifndef   __USED
  56:Drivers/CMSIS/Include/cmsis_gcc.h ****   #define __USED                                 __attribute__((used))
ARM GAS  /tmp/cce3S0ea.s 			page 61


  57:Drivers/CMSIS/Include/cmsis_gcc.h **** #endif
  58:Drivers/CMSIS/Include/cmsis_gcc.h **** #ifndef   __WEAK
  59:Drivers/CMSIS/Include/cmsis_gcc.h ****   #define __WEAK                                 __attribute__((weak))
  60:Drivers/CMSIS/Include/cmsis_gcc.h **** #endif
  61:Drivers/CMSIS/Include/cmsis_gcc.h **** #ifndef   __PACKED
  62:Drivers/CMSIS/Include/cmsis_gcc.h ****   #define __PACKED                               __attribute__((packed, aligned(1)))
  63:Drivers/CMSIS/Include/cmsis_gcc.h **** #endif
  64:Drivers/CMSIS/Include/cmsis_gcc.h **** #ifndef   __PACKED_STRUCT
  65:Drivers/CMSIS/Include/cmsis_gcc.h ****   #define __PACKED_STRUCT                        struct __attribute__((packed, aligned(1)))
  66:Drivers/CMSIS/Include/cmsis_gcc.h **** #endif
  67:Drivers/CMSIS/Include/cmsis_gcc.h **** #ifndef   __PACKED_UNION
  68:Drivers/CMSIS/Include/cmsis_gcc.h ****   #define __PACKED_UNION                         union __attribute__((packed, aligned(1)))
  69:Drivers/CMSIS/Include/cmsis_gcc.h **** #endif
  70:Drivers/CMSIS/Include/cmsis_gcc.h **** #ifndef   __UNALIGNED_UINT32        /* deprecated */
  71:Drivers/CMSIS/Include/cmsis_gcc.h ****   #pragma GCC diagnostic push
  72:Drivers/CMSIS/Include/cmsis_gcc.h ****   #pragma GCC diagnostic ignored "-Wpacked"
  73:Drivers/CMSIS/Include/cmsis_gcc.h ****   #pragma GCC diagnostic ignored "-Wattributes"
  74:Drivers/CMSIS/Include/cmsis_gcc.h ****   struct __attribute__((packed)) T_UINT32 { uint32_t v; };
  75:Drivers/CMSIS/Include/cmsis_gcc.h ****   #pragma GCC diagnostic pop
  76:Drivers/CMSIS/Include/cmsis_gcc.h ****   #define __UNALIGNED_UINT32(x)                  (((struct T_UINT32 *)(x))->v)
  77:Drivers/CMSIS/Include/cmsis_gcc.h **** #endif
  78:Drivers/CMSIS/Include/cmsis_gcc.h **** #ifndef   __UNALIGNED_UINT16_WRITE
  79:Drivers/CMSIS/Include/cmsis_gcc.h ****   #pragma GCC diagnostic push
  80:Drivers/CMSIS/Include/cmsis_gcc.h ****   #pragma GCC diagnostic ignored "-Wpacked"
  81:Drivers/CMSIS/Include/cmsis_gcc.h ****   #pragma GCC diagnostic ignored "-Wattributes"
  82:Drivers/CMSIS/Include/cmsis_gcc.h ****   __PACKED_STRUCT T_UINT16_WRITE { uint16_t v; };
  83:Drivers/CMSIS/Include/cmsis_gcc.h ****   #pragma GCC diagnostic pop
  84:Drivers/CMSIS/Include/cmsis_gcc.h ****   #define __UNALIGNED_UINT16_WRITE(addr, val)    (void)((((struct T_UINT16_WRITE *)(void *)(addr))-
  85:Drivers/CMSIS/Include/cmsis_gcc.h **** #endif
  86:Drivers/CMSIS/Include/cmsis_gcc.h **** #ifndef   __UNALIGNED_UINT16_READ
  87:Drivers/CMSIS/Include/cmsis_gcc.h ****   #pragma GCC diagnostic push
  88:Drivers/CMSIS/Include/cmsis_gcc.h ****   #pragma GCC diagnostic ignored "-Wpacked"
  89:Drivers/CMSIS/Include/cmsis_gcc.h ****   #pragma GCC diagnostic ignored "-Wattributes"
  90:Drivers/CMSIS/Include/cmsis_gcc.h ****   __PACKED_STRUCT T_UINT16_READ { uint16_t v; };
  91:Drivers/CMSIS/Include/cmsis_gcc.h ****   #pragma GCC diagnostic pop
  92:Drivers/CMSIS/Include/cmsis_gcc.h ****   #define __UNALIGNED_UINT16_READ(addr)          (((const struct T_UINT16_READ *)(const void *)(add
  93:Drivers/CMSIS/Include/cmsis_gcc.h **** #endif
  94:Drivers/CMSIS/Include/cmsis_gcc.h **** #ifndef   __UNALIGNED_UINT32_WRITE
  95:Drivers/CMSIS/Include/cmsis_gcc.h ****   #pragma GCC diagnostic push
  96:Drivers/CMSIS/Include/cmsis_gcc.h ****   #pragma GCC diagnostic ignored "-Wpacked"
  97:Drivers/CMSIS/Include/cmsis_gcc.h ****   #pragma GCC diagnostic ignored "-Wattributes"
  98:Drivers/CMSIS/Include/cmsis_gcc.h ****   __PACKED_STRUCT T_UINT32_WRITE { uint32_t v; };
  99:Drivers/CMSIS/Include/cmsis_gcc.h ****   #pragma GCC diagnostic pop
 100:Drivers/CMSIS/Include/cmsis_gcc.h ****   #define __UNALIGNED_UINT32_WRITE(addr, val)    (void)((((struct T_UINT32_WRITE *)(void *)(addr))-
 101:Drivers/CMSIS/Include/cmsis_gcc.h **** #endif
 102:Drivers/CMSIS/Include/cmsis_gcc.h **** #ifndef   __UNALIGNED_UINT32_READ
 103:Drivers/CMSIS/Include/cmsis_gcc.h ****   #pragma GCC diagnostic push
 104:Drivers/CMSIS/Include/cmsis_gcc.h ****   #pragma GCC diagnostic ignored "-Wpacked"
 105:Drivers/CMSIS/Include/cmsis_gcc.h ****   #pragma GCC diagnostic ignored "-Wattributes"
 106:Drivers/CMSIS/Include/cmsis_gcc.h ****   __PACKED_STRUCT T_UINT32_READ { uint32_t v; };
 107:Drivers/CMSIS/Include/cmsis_gcc.h ****   #pragma GCC diagnostic pop
 108:Drivers/CMSIS/Include/cmsis_gcc.h ****   #define __UNALIGNED_UINT32_READ(addr)          (((const struct T_UINT32_READ *)(const void *)(add
 109:Drivers/CMSIS/Include/cmsis_gcc.h **** #endif
 110:Drivers/CMSIS/Include/cmsis_gcc.h **** #ifndef   __ALIGNED
 111:Drivers/CMSIS/Include/cmsis_gcc.h ****   #define __ALIGNED(x)                           __attribute__((aligned(x)))
 112:Drivers/CMSIS/Include/cmsis_gcc.h **** #endif
 113:Drivers/CMSIS/Include/cmsis_gcc.h **** #ifndef   __RESTRICT
ARM GAS  /tmp/cce3S0ea.s 			page 62


 114:Drivers/CMSIS/Include/cmsis_gcc.h ****   #define __RESTRICT                             __restrict
 115:Drivers/CMSIS/Include/cmsis_gcc.h **** #endif
 116:Drivers/CMSIS/Include/cmsis_gcc.h **** #ifndef   __COMPILER_BARRIER
 117:Drivers/CMSIS/Include/cmsis_gcc.h ****   #define __COMPILER_BARRIER()                   __ASM volatile("":::"memory")
 118:Drivers/CMSIS/Include/cmsis_gcc.h **** #endif
 119:Drivers/CMSIS/Include/cmsis_gcc.h **** 
 120:Drivers/CMSIS/Include/cmsis_gcc.h **** /* #########################  Startup and Lowlevel Init  ######################## */
 121:Drivers/CMSIS/Include/cmsis_gcc.h **** 
 122:Drivers/CMSIS/Include/cmsis_gcc.h **** #ifndef __PROGRAM_START
 123:Drivers/CMSIS/Include/cmsis_gcc.h **** 
 124:Drivers/CMSIS/Include/cmsis_gcc.h **** /**
 125:Drivers/CMSIS/Include/cmsis_gcc.h ****   \brief   Initializes data and bss sections
 126:Drivers/CMSIS/Include/cmsis_gcc.h ****   \details This default implementations initialized all data and additional bss
 127:Drivers/CMSIS/Include/cmsis_gcc.h ****            sections relying on .copy.table and .zero.table specified properly
 128:Drivers/CMSIS/Include/cmsis_gcc.h ****            in the used linker script.
 129:Drivers/CMSIS/Include/cmsis_gcc.h ****   
 130:Drivers/CMSIS/Include/cmsis_gcc.h ****  */
 131:Drivers/CMSIS/Include/cmsis_gcc.h **** __STATIC_FORCEINLINE __NO_RETURN void __cmsis_start(void)
 132:Drivers/CMSIS/Include/cmsis_gcc.h **** {
 133:Drivers/CMSIS/Include/cmsis_gcc.h ****   extern void _start(void) __NO_RETURN;
 134:Drivers/CMSIS/Include/cmsis_gcc.h ****   
 135:Drivers/CMSIS/Include/cmsis_gcc.h ****   typedef struct {
 136:Drivers/CMSIS/Include/cmsis_gcc.h ****     uint32_t const* src;
 137:Drivers/CMSIS/Include/cmsis_gcc.h ****     uint32_t* dest;
 138:Drivers/CMSIS/Include/cmsis_gcc.h ****     uint32_t  wlen;
 139:Drivers/CMSIS/Include/cmsis_gcc.h ****   } __copy_table_t;
 140:Drivers/CMSIS/Include/cmsis_gcc.h ****   
 141:Drivers/CMSIS/Include/cmsis_gcc.h ****   typedef struct {
 142:Drivers/CMSIS/Include/cmsis_gcc.h ****     uint32_t* dest;
 143:Drivers/CMSIS/Include/cmsis_gcc.h ****     uint32_t  wlen;
 144:Drivers/CMSIS/Include/cmsis_gcc.h ****   } __zero_table_t;
 145:Drivers/CMSIS/Include/cmsis_gcc.h ****   
 146:Drivers/CMSIS/Include/cmsis_gcc.h ****   extern const __copy_table_t __copy_table_start__;
 147:Drivers/CMSIS/Include/cmsis_gcc.h ****   extern const __copy_table_t __copy_table_end__;
 148:Drivers/CMSIS/Include/cmsis_gcc.h ****   extern const __zero_table_t __zero_table_start__;
 149:Drivers/CMSIS/Include/cmsis_gcc.h ****   extern const __zero_table_t __zero_table_end__;
 150:Drivers/CMSIS/Include/cmsis_gcc.h **** 
 151:Drivers/CMSIS/Include/cmsis_gcc.h ****   for (__copy_table_t const* pTable = &__copy_table_start__; pTable < &__copy_table_end__; ++pTable
 152:Drivers/CMSIS/Include/cmsis_gcc.h ****     for(uint32_t i=0u; i<pTable->wlen; ++i) {
 153:Drivers/CMSIS/Include/cmsis_gcc.h ****       pTable->dest[i] = pTable->src[i];
 154:Drivers/CMSIS/Include/cmsis_gcc.h ****     }
 155:Drivers/CMSIS/Include/cmsis_gcc.h ****   }
 156:Drivers/CMSIS/Include/cmsis_gcc.h ****  
 157:Drivers/CMSIS/Include/cmsis_gcc.h ****   for (__zero_table_t const* pTable = &__zero_table_start__; pTable < &__zero_table_end__; ++pTable
 158:Drivers/CMSIS/Include/cmsis_gcc.h ****     for(uint32_t i=0u; i<pTable->wlen; ++i) {
 159:Drivers/CMSIS/Include/cmsis_gcc.h ****       pTable->dest[i] = 0u;
 160:Drivers/CMSIS/Include/cmsis_gcc.h ****     }
 161:Drivers/CMSIS/Include/cmsis_gcc.h ****   }
 162:Drivers/CMSIS/Include/cmsis_gcc.h ****  
 163:Drivers/CMSIS/Include/cmsis_gcc.h ****   _start();
 164:Drivers/CMSIS/Include/cmsis_gcc.h **** }
 165:Drivers/CMSIS/Include/cmsis_gcc.h ****   
 166:Drivers/CMSIS/Include/cmsis_gcc.h **** #define __PROGRAM_START           __cmsis_start
 167:Drivers/CMSIS/Include/cmsis_gcc.h **** #endif
 168:Drivers/CMSIS/Include/cmsis_gcc.h **** 
 169:Drivers/CMSIS/Include/cmsis_gcc.h **** #ifndef __INITIAL_SP
 170:Drivers/CMSIS/Include/cmsis_gcc.h **** #define __INITIAL_SP              __StackTop
ARM GAS  /tmp/cce3S0ea.s 			page 63


 171:Drivers/CMSIS/Include/cmsis_gcc.h **** #endif
 172:Drivers/CMSIS/Include/cmsis_gcc.h **** 
 173:Drivers/CMSIS/Include/cmsis_gcc.h **** #ifndef __STACK_LIMIT
 174:Drivers/CMSIS/Include/cmsis_gcc.h **** #define __STACK_LIMIT             __StackLimit
 175:Drivers/CMSIS/Include/cmsis_gcc.h **** #endif
 176:Drivers/CMSIS/Include/cmsis_gcc.h **** 
 177:Drivers/CMSIS/Include/cmsis_gcc.h **** #ifndef __VECTOR_TABLE
 178:Drivers/CMSIS/Include/cmsis_gcc.h **** #define __VECTOR_TABLE            __Vectors
 179:Drivers/CMSIS/Include/cmsis_gcc.h **** #endif
 180:Drivers/CMSIS/Include/cmsis_gcc.h **** 
 181:Drivers/CMSIS/Include/cmsis_gcc.h **** #ifndef __VECTOR_TABLE_ATTRIBUTE
 182:Drivers/CMSIS/Include/cmsis_gcc.h **** #define __VECTOR_TABLE_ATTRIBUTE  __attribute((used, section(".vectors")))
 183:Drivers/CMSIS/Include/cmsis_gcc.h **** #endif
 184:Drivers/CMSIS/Include/cmsis_gcc.h **** 
 185:Drivers/CMSIS/Include/cmsis_gcc.h **** /* ###########################  Core Function Access  ########################### */
 186:Drivers/CMSIS/Include/cmsis_gcc.h **** /** \ingroup  CMSIS_Core_FunctionInterface
 187:Drivers/CMSIS/Include/cmsis_gcc.h ****     \defgroup CMSIS_Core_RegAccFunctions CMSIS Core Register Access Functions
 188:Drivers/CMSIS/Include/cmsis_gcc.h ****   @{
 189:Drivers/CMSIS/Include/cmsis_gcc.h ****  */
 190:Drivers/CMSIS/Include/cmsis_gcc.h **** 
 191:Drivers/CMSIS/Include/cmsis_gcc.h **** /**
 192:Drivers/CMSIS/Include/cmsis_gcc.h ****   \brief   Enable IRQ Interrupts
 193:Drivers/CMSIS/Include/cmsis_gcc.h ****   \details Enables IRQ interrupts by clearing the I-bit in the CPSR.
 194:Drivers/CMSIS/Include/cmsis_gcc.h ****            Can only be executed in Privileged modes.
 195:Drivers/CMSIS/Include/cmsis_gcc.h ****  */
 196:Drivers/CMSIS/Include/cmsis_gcc.h **** __STATIC_FORCEINLINE void __enable_irq(void)
 197:Drivers/CMSIS/Include/cmsis_gcc.h **** {
 198:Drivers/CMSIS/Include/cmsis_gcc.h ****   __ASM volatile ("cpsie i" : : : "memory");
 199:Drivers/CMSIS/Include/cmsis_gcc.h **** }
 200:Drivers/CMSIS/Include/cmsis_gcc.h **** 
 201:Drivers/CMSIS/Include/cmsis_gcc.h **** 
 202:Drivers/CMSIS/Include/cmsis_gcc.h **** /**
 203:Drivers/CMSIS/Include/cmsis_gcc.h ****   \brief   Disable IRQ Interrupts
 204:Drivers/CMSIS/Include/cmsis_gcc.h ****   \details Disables IRQ interrupts by setting the I-bit in the CPSR.
 205:Drivers/CMSIS/Include/cmsis_gcc.h ****            Can only be executed in Privileged modes.
 206:Drivers/CMSIS/Include/cmsis_gcc.h ****  */
 207:Drivers/CMSIS/Include/cmsis_gcc.h **** __STATIC_FORCEINLINE void __disable_irq(void)
 208:Drivers/CMSIS/Include/cmsis_gcc.h **** {
 209:Drivers/CMSIS/Include/cmsis_gcc.h ****   __ASM volatile ("cpsid i" : : : "memory");
 210:Drivers/CMSIS/Include/cmsis_gcc.h **** }
 211:Drivers/CMSIS/Include/cmsis_gcc.h **** 
 212:Drivers/CMSIS/Include/cmsis_gcc.h **** 
 213:Drivers/CMSIS/Include/cmsis_gcc.h **** /**
 214:Drivers/CMSIS/Include/cmsis_gcc.h ****   \brief   Get Control Register
 215:Drivers/CMSIS/Include/cmsis_gcc.h ****   \details Returns the content of the Control Register.
 216:Drivers/CMSIS/Include/cmsis_gcc.h ****   \return               Control Register value
 217:Drivers/CMSIS/Include/cmsis_gcc.h ****  */
 218:Drivers/CMSIS/Include/cmsis_gcc.h **** __STATIC_FORCEINLINE uint32_t __get_CONTROL(void)
 219:Drivers/CMSIS/Include/cmsis_gcc.h **** {
 220:Drivers/CMSIS/Include/cmsis_gcc.h ****   uint32_t result;
 221:Drivers/CMSIS/Include/cmsis_gcc.h **** 
 222:Drivers/CMSIS/Include/cmsis_gcc.h ****   __ASM volatile ("MRS %0, control" : "=r" (result) );
 223:Drivers/CMSIS/Include/cmsis_gcc.h ****   return(result);
 224:Drivers/CMSIS/Include/cmsis_gcc.h **** }
 225:Drivers/CMSIS/Include/cmsis_gcc.h **** 
 226:Drivers/CMSIS/Include/cmsis_gcc.h **** 
 227:Drivers/CMSIS/Include/cmsis_gcc.h **** #if (defined (__ARM_FEATURE_CMSE ) && (__ARM_FEATURE_CMSE == 3))
ARM GAS  /tmp/cce3S0ea.s 			page 64


 228:Drivers/CMSIS/Include/cmsis_gcc.h **** /**
 229:Drivers/CMSIS/Include/cmsis_gcc.h ****   \brief   Get Control Register (non-secure)
 230:Drivers/CMSIS/Include/cmsis_gcc.h ****   \details Returns the content of the non-secure Control Register when in secure mode.
 231:Drivers/CMSIS/Include/cmsis_gcc.h ****   \return               non-secure Control Register value
 232:Drivers/CMSIS/Include/cmsis_gcc.h ****  */
 233:Drivers/CMSIS/Include/cmsis_gcc.h **** __STATIC_FORCEINLINE uint32_t __TZ_get_CONTROL_NS(void)
 234:Drivers/CMSIS/Include/cmsis_gcc.h **** {
 235:Drivers/CMSIS/Include/cmsis_gcc.h ****   uint32_t result;
 236:Drivers/CMSIS/Include/cmsis_gcc.h **** 
 237:Drivers/CMSIS/Include/cmsis_gcc.h ****   __ASM volatile ("MRS %0, control_ns" : "=r" (result) );
 238:Drivers/CMSIS/Include/cmsis_gcc.h ****   return(result);
 239:Drivers/CMSIS/Include/cmsis_gcc.h **** }
 240:Drivers/CMSIS/Include/cmsis_gcc.h **** #endif
 241:Drivers/CMSIS/Include/cmsis_gcc.h **** 
 242:Drivers/CMSIS/Include/cmsis_gcc.h **** 
 243:Drivers/CMSIS/Include/cmsis_gcc.h **** /**
 244:Drivers/CMSIS/Include/cmsis_gcc.h ****   \brief   Set Control Register
 245:Drivers/CMSIS/Include/cmsis_gcc.h ****   \details Writes the given value to the Control Register.
 246:Drivers/CMSIS/Include/cmsis_gcc.h ****   \param [in]    control  Control Register value to set
 247:Drivers/CMSIS/Include/cmsis_gcc.h ****  */
 248:Drivers/CMSIS/Include/cmsis_gcc.h **** __STATIC_FORCEINLINE void __set_CONTROL(uint32_t control)
 249:Drivers/CMSIS/Include/cmsis_gcc.h **** {
 250:Drivers/CMSIS/Include/cmsis_gcc.h ****   __ASM volatile ("MSR control, %0" : : "r" (control) : "memory");
 251:Drivers/CMSIS/Include/cmsis_gcc.h **** }
 252:Drivers/CMSIS/Include/cmsis_gcc.h **** 
 253:Drivers/CMSIS/Include/cmsis_gcc.h **** 
 254:Drivers/CMSIS/Include/cmsis_gcc.h **** #if (defined (__ARM_FEATURE_CMSE ) && (__ARM_FEATURE_CMSE == 3))
 255:Drivers/CMSIS/Include/cmsis_gcc.h **** /**
 256:Drivers/CMSIS/Include/cmsis_gcc.h ****   \brief   Set Control Register (non-secure)
 257:Drivers/CMSIS/Include/cmsis_gcc.h ****   \details Writes the given value to the non-secure Control Register when in secure state.
 258:Drivers/CMSIS/Include/cmsis_gcc.h ****   \param [in]    control  Control Register value to set
 259:Drivers/CMSIS/Include/cmsis_gcc.h ****  */
 260:Drivers/CMSIS/Include/cmsis_gcc.h **** __STATIC_FORCEINLINE void __TZ_set_CONTROL_NS(uint32_t control)
 261:Drivers/CMSIS/Include/cmsis_gcc.h **** {
 262:Drivers/CMSIS/Include/cmsis_gcc.h ****   __ASM volatile ("MSR control_ns, %0" : : "r" (control) : "memory");
 263:Drivers/CMSIS/Include/cmsis_gcc.h **** }
 264:Drivers/CMSIS/Include/cmsis_gcc.h **** #endif
 265:Drivers/CMSIS/Include/cmsis_gcc.h **** 
 266:Drivers/CMSIS/Include/cmsis_gcc.h **** 
 267:Drivers/CMSIS/Include/cmsis_gcc.h **** /**
 268:Drivers/CMSIS/Include/cmsis_gcc.h ****   \brief   Get IPSR Register
 269:Drivers/CMSIS/Include/cmsis_gcc.h ****   \details Returns the content of the IPSR Register.
 270:Drivers/CMSIS/Include/cmsis_gcc.h ****   \return               IPSR Register value
 271:Drivers/CMSIS/Include/cmsis_gcc.h ****  */
 272:Drivers/CMSIS/Include/cmsis_gcc.h **** __STATIC_FORCEINLINE uint32_t __get_IPSR(void)
 273:Drivers/CMSIS/Include/cmsis_gcc.h **** {
 274:Drivers/CMSIS/Include/cmsis_gcc.h ****   uint32_t result;
 275:Drivers/CMSIS/Include/cmsis_gcc.h **** 
 276:Drivers/CMSIS/Include/cmsis_gcc.h ****   __ASM volatile ("MRS %0, ipsr" : "=r" (result) );
 277:Drivers/CMSIS/Include/cmsis_gcc.h ****   return(result);
 278:Drivers/CMSIS/Include/cmsis_gcc.h **** }
 279:Drivers/CMSIS/Include/cmsis_gcc.h **** 
 280:Drivers/CMSIS/Include/cmsis_gcc.h **** 
 281:Drivers/CMSIS/Include/cmsis_gcc.h **** /**
 282:Drivers/CMSIS/Include/cmsis_gcc.h ****   \brief   Get APSR Register
 283:Drivers/CMSIS/Include/cmsis_gcc.h ****   \details Returns the content of the APSR Register.
 284:Drivers/CMSIS/Include/cmsis_gcc.h ****   \return               APSR Register value
ARM GAS  /tmp/cce3S0ea.s 			page 65


 285:Drivers/CMSIS/Include/cmsis_gcc.h ****  */
 286:Drivers/CMSIS/Include/cmsis_gcc.h **** __STATIC_FORCEINLINE uint32_t __get_APSR(void)
 287:Drivers/CMSIS/Include/cmsis_gcc.h **** {
 288:Drivers/CMSIS/Include/cmsis_gcc.h ****   uint32_t result;
 289:Drivers/CMSIS/Include/cmsis_gcc.h **** 
 290:Drivers/CMSIS/Include/cmsis_gcc.h ****   __ASM volatile ("MRS %0, apsr" : "=r" (result) );
 291:Drivers/CMSIS/Include/cmsis_gcc.h ****   return(result);
 292:Drivers/CMSIS/Include/cmsis_gcc.h **** }
 293:Drivers/CMSIS/Include/cmsis_gcc.h **** 
 294:Drivers/CMSIS/Include/cmsis_gcc.h **** 
 295:Drivers/CMSIS/Include/cmsis_gcc.h **** /**
 296:Drivers/CMSIS/Include/cmsis_gcc.h ****   \brief   Get xPSR Register
 297:Drivers/CMSIS/Include/cmsis_gcc.h ****   \details Returns the content of the xPSR Register.
 298:Drivers/CMSIS/Include/cmsis_gcc.h ****   \return               xPSR Register value
 299:Drivers/CMSIS/Include/cmsis_gcc.h ****  */
 300:Drivers/CMSIS/Include/cmsis_gcc.h **** __STATIC_FORCEINLINE uint32_t __get_xPSR(void)
 301:Drivers/CMSIS/Include/cmsis_gcc.h **** {
 302:Drivers/CMSIS/Include/cmsis_gcc.h ****   uint32_t result;
 303:Drivers/CMSIS/Include/cmsis_gcc.h **** 
 304:Drivers/CMSIS/Include/cmsis_gcc.h ****   __ASM volatile ("MRS %0, xpsr" : "=r" (result) );
 305:Drivers/CMSIS/Include/cmsis_gcc.h ****   return(result);
 306:Drivers/CMSIS/Include/cmsis_gcc.h **** }
 307:Drivers/CMSIS/Include/cmsis_gcc.h **** 
 308:Drivers/CMSIS/Include/cmsis_gcc.h **** 
 309:Drivers/CMSIS/Include/cmsis_gcc.h **** /**
 310:Drivers/CMSIS/Include/cmsis_gcc.h ****   \brief   Get Process Stack Pointer
 311:Drivers/CMSIS/Include/cmsis_gcc.h ****   \details Returns the current value of the Process Stack Pointer (PSP).
 312:Drivers/CMSIS/Include/cmsis_gcc.h ****   \return               PSP Register value
 313:Drivers/CMSIS/Include/cmsis_gcc.h ****  */
 314:Drivers/CMSIS/Include/cmsis_gcc.h **** __STATIC_FORCEINLINE uint32_t __get_PSP(void)
 315:Drivers/CMSIS/Include/cmsis_gcc.h **** {
 316:Drivers/CMSIS/Include/cmsis_gcc.h ****   uint32_t result;
 317:Drivers/CMSIS/Include/cmsis_gcc.h **** 
 318:Drivers/CMSIS/Include/cmsis_gcc.h ****   __ASM volatile ("MRS %0, psp"  : "=r" (result) );
 319:Drivers/CMSIS/Include/cmsis_gcc.h ****   return(result);
 320:Drivers/CMSIS/Include/cmsis_gcc.h **** }
 321:Drivers/CMSIS/Include/cmsis_gcc.h **** 
 322:Drivers/CMSIS/Include/cmsis_gcc.h **** 
 323:Drivers/CMSIS/Include/cmsis_gcc.h **** #if (defined (__ARM_FEATURE_CMSE ) && (__ARM_FEATURE_CMSE == 3))
 324:Drivers/CMSIS/Include/cmsis_gcc.h **** /**
 325:Drivers/CMSIS/Include/cmsis_gcc.h ****   \brief   Get Process Stack Pointer (non-secure)
 326:Drivers/CMSIS/Include/cmsis_gcc.h ****   \details Returns the current value of the non-secure Process Stack Pointer (PSP) when in secure s
 327:Drivers/CMSIS/Include/cmsis_gcc.h ****   \return               PSP Register value
 328:Drivers/CMSIS/Include/cmsis_gcc.h ****  */
 329:Drivers/CMSIS/Include/cmsis_gcc.h **** __STATIC_FORCEINLINE uint32_t __TZ_get_PSP_NS(void)
 330:Drivers/CMSIS/Include/cmsis_gcc.h **** {
 331:Drivers/CMSIS/Include/cmsis_gcc.h ****   uint32_t result;
 332:Drivers/CMSIS/Include/cmsis_gcc.h **** 
 333:Drivers/CMSIS/Include/cmsis_gcc.h ****   __ASM volatile ("MRS %0, psp_ns"  : "=r" (result) );
 334:Drivers/CMSIS/Include/cmsis_gcc.h ****   return(result);
 335:Drivers/CMSIS/Include/cmsis_gcc.h **** }
 336:Drivers/CMSIS/Include/cmsis_gcc.h **** #endif
 337:Drivers/CMSIS/Include/cmsis_gcc.h **** 
 338:Drivers/CMSIS/Include/cmsis_gcc.h **** 
 339:Drivers/CMSIS/Include/cmsis_gcc.h **** /**
 340:Drivers/CMSIS/Include/cmsis_gcc.h ****   \brief   Set Process Stack Pointer
 341:Drivers/CMSIS/Include/cmsis_gcc.h ****   \details Assigns the given value to the Process Stack Pointer (PSP).
ARM GAS  /tmp/cce3S0ea.s 			page 66


 342:Drivers/CMSIS/Include/cmsis_gcc.h ****   \param [in]    topOfProcStack  Process Stack Pointer value to set
 343:Drivers/CMSIS/Include/cmsis_gcc.h ****  */
 344:Drivers/CMSIS/Include/cmsis_gcc.h **** __STATIC_FORCEINLINE void __set_PSP(uint32_t topOfProcStack)
 345:Drivers/CMSIS/Include/cmsis_gcc.h **** {
 346:Drivers/CMSIS/Include/cmsis_gcc.h ****   __ASM volatile ("MSR psp, %0" : : "r" (topOfProcStack) : );
 347:Drivers/CMSIS/Include/cmsis_gcc.h **** }
 348:Drivers/CMSIS/Include/cmsis_gcc.h **** 
 349:Drivers/CMSIS/Include/cmsis_gcc.h **** 
 350:Drivers/CMSIS/Include/cmsis_gcc.h **** #if (defined (__ARM_FEATURE_CMSE ) && (__ARM_FEATURE_CMSE == 3))
 351:Drivers/CMSIS/Include/cmsis_gcc.h **** /**
 352:Drivers/CMSIS/Include/cmsis_gcc.h ****   \brief   Set Process Stack Pointer (non-secure)
 353:Drivers/CMSIS/Include/cmsis_gcc.h ****   \details Assigns the given value to the non-secure Process Stack Pointer (PSP) when in secure sta
 354:Drivers/CMSIS/Include/cmsis_gcc.h ****   \param [in]    topOfProcStack  Process Stack Pointer value to set
 355:Drivers/CMSIS/Include/cmsis_gcc.h ****  */
 356:Drivers/CMSIS/Include/cmsis_gcc.h **** __STATIC_FORCEINLINE void __TZ_set_PSP_NS(uint32_t topOfProcStack)
 357:Drivers/CMSIS/Include/cmsis_gcc.h **** {
 358:Drivers/CMSIS/Include/cmsis_gcc.h ****   __ASM volatile ("MSR psp_ns, %0" : : "r" (topOfProcStack) : );
 359:Drivers/CMSIS/Include/cmsis_gcc.h **** }
 360:Drivers/CMSIS/Include/cmsis_gcc.h **** #endif
 361:Drivers/CMSIS/Include/cmsis_gcc.h **** 
 362:Drivers/CMSIS/Include/cmsis_gcc.h **** 
 363:Drivers/CMSIS/Include/cmsis_gcc.h **** /**
 364:Drivers/CMSIS/Include/cmsis_gcc.h ****   \brief   Get Main Stack Pointer
 365:Drivers/CMSIS/Include/cmsis_gcc.h ****   \details Returns the current value of the Main Stack Pointer (MSP).
 366:Drivers/CMSIS/Include/cmsis_gcc.h ****   \return               MSP Register value
 367:Drivers/CMSIS/Include/cmsis_gcc.h ****  */
 368:Drivers/CMSIS/Include/cmsis_gcc.h **** __STATIC_FORCEINLINE uint32_t __get_MSP(void)
 369:Drivers/CMSIS/Include/cmsis_gcc.h **** {
 370:Drivers/CMSIS/Include/cmsis_gcc.h ****   uint32_t result;
 371:Drivers/CMSIS/Include/cmsis_gcc.h **** 
 372:Drivers/CMSIS/Include/cmsis_gcc.h ****   __ASM volatile ("MRS %0, msp" : "=r" (result) );
 373:Drivers/CMSIS/Include/cmsis_gcc.h ****   return(result);
 374:Drivers/CMSIS/Include/cmsis_gcc.h **** }
 375:Drivers/CMSIS/Include/cmsis_gcc.h **** 
 376:Drivers/CMSIS/Include/cmsis_gcc.h **** 
 377:Drivers/CMSIS/Include/cmsis_gcc.h **** #if (defined (__ARM_FEATURE_CMSE ) && (__ARM_FEATURE_CMSE == 3))
 378:Drivers/CMSIS/Include/cmsis_gcc.h **** /**
 379:Drivers/CMSIS/Include/cmsis_gcc.h ****   \brief   Get Main Stack Pointer (non-secure)
 380:Drivers/CMSIS/Include/cmsis_gcc.h ****   \details Returns the current value of the non-secure Main Stack Pointer (MSP) when in secure stat
 381:Drivers/CMSIS/Include/cmsis_gcc.h ****   \return               MSP Register value
 382:Drivers/CMSIS/Include/cmsis_gcc.h ****  */
 383:Drivers/CMSIS/Include/cmsis_gcc.h **** __STATIC_FORCEINLINE uint32_t __TZ_get_MSP_NS(void)
 384:Drivers/CMSIS/Include/cmsis_gcc.h **** {
 385:Drivers/CMSIS/Include/cmsis_gcc.h ****   uint32_t result;
 386:Drivers/CMSIS/Include/cmsis_gcc.h **** 
 387:Drivers/CMSIS/Include/cmsis_gcc.h ****   __ASM volatile ("MRS %0, msp_ns" : "=r" (result) );
 388:Drivers/CMSIS/Include/cmsis_gcc.h ****   return(result);
 389:Drivers/CMSIS/Include/cmsis_gcc.h **** }
 390:Drivers/CMSIS/Include/cmsis_gcc.h **** #endif
 391:Drivers/CMSIS/Include/cmsis_gcc.h **** 
 392:Drivers/CMSIS/Include/cmsis_gcc.h **** 
 393:Drivers/CMSIS/Include/cmsis_gcc.h **** /**
 394:Drivers/CMSIS/Include/cmsis_gcc.h ****   \brief   Set Main Stack Pointer
 395:Drivers/CMSIS/Include/cmsis_gcc.h ****   \details Assigns the given value to the Main Stack Pointer (MSP).
 396:Drivers/CMSIS/Include/cmsis_gcc.h ****   \param [in]    topOfMainStack  Main Stack Pointer value to set
 397:Drivers/CMSIS/Include/cmsis_gcc.h ****  */
 398:Drivers/CMSIS/Include/cmsis_gcc.h **** __STATIC_FORCEINLINE void __set_MSP(uint32_t topOfMainStack)
ARM GAS  /tmp/cce3S0ea.s 			page 67


 399:Drivers/CMSIS/Include/cmsis_gcc.h **** {
 400:Drivers/CMSIS/Include/cmsis_gcc.h ****   __ASM volatile ("MSR msp, %0" : : "r" (topOfMainStack) : );
 401:Drivers/CMSIS/Include/cmsis_gcc.h **** }
 402:Drivers/CMSIS/Include/cmsis_gcc.h **** 
 403:Drivers/CMSIS/Include/cmsis_gcc.h **** 
 404:Drivers/CMSIS/Include/cmsis_gcc.h **** #if (defined (__ARM_FEATURE_CMSE ) && (__ARM_FEATURE_CMSE == 3))
 405:Drivers/CMSIS/Include/cmsis_gcc.h **** /**
 406:Drivers/CMSIS/Include/cmsis_gcc.h ****   \brief   Set Main Stack Pointer (non-secure)
 407:Drivers/CMSIS/Include/cmsis_gcc.h ****   \details Assigns the given value to the non-secure Main Stack Pointer (MSP) when in secure state.
 408:Drivers/CMSIS/Include/cmsis_gcc.h ****   \param [in]    topOfMainStack  Main Stack Pointer value to set
 409:Drivers/CMSIS/Include/cmsis_gcc.h ****  */
 410:Drivers/CMSIS/Include/cmsis_gcc.h **** __STATIC_FORCEINLINE void __TZ_set_MSP_NS(uint32_t topOfMainStack)
 411:Drivers/CMSIS/Include/cmsis_gcc.h **** {
 412:Drivers/CMSIS/Include/cmsis_gcc.h ****   __ASM volatile ("MSR msp_ns, %0" : : "r" (topOfMainStack) : );
 413:Drivers/CMSIS/Include/cmsis_gcc.h **** }
 414:Drivers/CMSIS/Include/cmsis_gcc.h **** #endif
 415:Drivers/CMSIS/Include/cmsis_gcc.h **** 
 416:Drivers/CMSIS/Include/cmsis_gcc.h **** 
 417:Drivers/CMSIS/Include/cmsis_gcc.h **** #if (defined (__ARM_FEATURE_CMSE ) && (__ARM_FEATURE_CMSE == 3))
 418:Drivers/CMSIS/Include/cmsis_gcc.h **** /**
 419:Drivers/CMSIS/Include/cmsis_gcc.h ****   \brief   Get Stack Pointer (non-secure)
 420:Drivers/CMSIS/Include/cmsis_gcc.h ****   \details Returns the current value of the non-secure Stack Pointer (SP) when in secure state.
 421:Drivers/CMSIS/Include/cmsis_gcc.h ****   \return               SP Register value
 422:Drivers/CMSIS/Include/cmsis_gcc.h ****  */
 423:Drivers/CMSIS/Include/cmsis_gcc.h **** __STATIC_FORCEINLINE uint32_t __TZ_get_SP_NS(void)
 424:Drivers/CMSIS/Include/cmsis_gcc.h **** {
 425:Drivers/CMSIS/Include/cmsis_gcc.h ****   uint32_t result;
 426:Drivers/CMSIS/Include/cmsis_gcc.h **** 
 427:Drivers/CMSIS/Include/cmsis_gcc.h ****   __ASM volatile ("MRS %0, sp_ns" : "=r" (result) );
 428:Drivers/CMSIS/Include/cmsis_gcc.h ****   return(result);
 429:Drivers/CMSIS/Include/cmsis_gcc.h **** }
 430:Drivers/CMSIS/Include/cmsis_gcc.h **** 
 431:Drivers/CMSIS/Include/cmsis_gcc.h **** 
 432:Drivers/CMSIS/Include/cmsis_gcc.h **** /**
 433:Drivers/CMSIS/Include/cmsis_gcc.h ****   \brief   Set Stack Pointer (non-secure)
 434:Drivers/CMSIS/Include/cmsis_gcc.h ****   \details Assigns the given value to the non-secure Stack Pointer (SP) when in secure state.
 435:Drivers/CMSIS/Include/cmsis_gcc.h ****   \param [in]    topOfStack  Stack Pointer value to set
 436:Drivers/CMSIS/Include/cmsis_gcc.h ****  */
 437:Drivers/CMSIS/Include/cmsis_gcc.h **** __STATIC_FORCEINLINE void __TZ_set_SP_NS(uint32_t topOfStack)
 438:Drivers/CMSIS/Include/cmsis_gcc.h **** {
 439:Drivers/CMSIS/Include/cmsis_gcc.h ****   __ASM volatile ("MSR sp_ns, %0" : : "r" (topOfStack) : );
 440:Drivers/CMSIS/Include/cmsis_gcc.h **** }
 441:Drivers/CMSIS/Include/cmsis_gcc.h **** #endif
 442:Drivers/CMSIS/Include/cmsis_gcc.h **** 
 443:Drivers/CMSIS/Include/cmsis_gcc.h **** 
 444:Drivers/CMSIS/Include/cmsis_gcc.h **** /**
 445:Drivers/CMSIS/Include/cmsis_gcc.h ****   \brief   Get Priority Mask
 446:Drivers/CMSIS/Include/cmsis_gcc.h ****   \details Returns the current state of the priority mask bit from the Priority Mask Register.
 447:Drivers/CMSIS/Include/cmsis_gcc.h ****   \return               Priority Mask value
 448:Drivers/CMSIS/Include/cmsis_gcc.h ****  */
 449:Drivers/CMSIS/Include/cmsis_gcc.h **** __STATIC_FORCEINLINE uint32_t __get_PRIMASK(void)
 450:Drivers/CMSIS/Include/cmsis_gcc.h **** {
 451:Drivers/CMSIS/Include/cmsis_gcc.h ****   uint32_t result;
 452:Drivers/CMSIS/Include/cmsis_gcc.h **** 
 453:Drivers/CMSIS/Include/cmsis_gcc.h ****   __ASM volatile ("MRS %0, primask" : "=r" (result) :: "memory");
 454:Drivers/CMSIS/Include/cmsis_gcc.h ****   return(result);
 455:Drivers/CMSIS/Include/cmsis_gcc.h **** }
ARM GAS  /tmp/cce3S0ea.s 			page 68


 456:Drivers/CMSIS/Include/cmsis_gcc.h **** 
 457:Drivers/CMSIS/Include/cmsis_gcc.h **** 
 458:Drivers/CMSIS/Include/cmsis_gcc.h **** #if (defined (__ARM_FEATURE_CMSE ) && (__ARM_FEATURE_CMSE == 3))
 459:Drivers/CMSIS/Include/cmsis_gcc.h **** /**
