ARM GAS  /tmp/ccR4xO3u.s 			page 1


   1              		.cpu cortex-m4
   2              		.arch armv7e-m
   3              		.fpu fpv4-sp-d16
   4              		.eabi_attribute 27, 1
   5              		.eabi_attribute 28, 1
   6              		.eabi_attribute 20, 1
   7              		.eabi_attribute 21, 1
   8              		.eabi_attribute 23, 3
   9              		.eabi_attribute 24, 1
  10              		.eabi_attribute 25, 1
  11              		.eabi_attribute 26, 1
  12              		.eabi_attribute 30, 6
  13              		.eabi_attribute 34, 1
  14              		.eabi_attribute 18, 4
  15              		.file	"stm32l4xx_hal_tim_ex.c"
  16              		.text
  17              	.Ltext0:
  18              		.cfi_sections	.debug_frame
  19              		.section	.text.HAL_TIMEx_HallSensor_Init,"ax",%progbits
  20              		.align	1
  21              		.global	HAL_TIMEx_HallSensor_Init
  22              		.syntax unified
  23              		.thumb
  24              		.thumb_func
  26              	HAL_TIMEx_HallSensor_Init:
  27              	.LFB132:
  28              		.file 1 "Drivers/STM32L4xx_HAL_Driver/Src/stm32l4xx_hal_tim_ex.c"
   1:Drivers/STM32L4xx_HAL_Driver/Src/stm32l4xx_hal_tim_ex.c **** /**
   2:Drivers/STM32L4xx_HAL_Driver/Src/stm32l4xx_hal_tim_ex.c ****   ******************************************************************************
   3:Drivers/STM32L4xx_HAL_Driver/Src/stm32l4xx_hal_tim_ex.c ****   * @file    stm32l4xx_hal_tim_ex.c
   4:Drivers/STM32L4xx_HAL_Driver/Src/stm32l4xx_hal_tim_ex.c ****   * @author  MCD Application Team
   5:Drivers/STM32L4xx_HAL_Driver/Src/stm32l4xx_hal_tim_ex.c ****   * @brief   TIM HAL module driver.
   6:Drivers/STM32L4xx_HAL_Driver/Src/stm32l4xx_hal_tim_ex.c ****   *          This file provides firmware functions to manage the following
   7:Drivers/STM32L4xx_HAL_Driver/Src/stm32l4xx_hal_tim_ex.c ****   *          functionalities of the Timer Extended peripheral:
   8:Drivers/STM32L4xx_HAL_Driver/Src/stm32l4xx_hal_tim_ex.c ****   *           + Time Hall Sensor Interface Initialization
   9:Drivers/STM32L4xx_HAL_Driver/Src/stm32l4xx_hal_tim_ex.c ****   *           + Time Hall Sensor Interface Start
  10:Drivers/STM32L4xx_HAL_Driver/Src/stm32l4xx_hal_tim_ex.c ****   *           + Time Complementary signal break and dead time configuration
  11:Drivers/STM32L4xx_HAL_Driver/Src/stm32l4xx_hal_tim_ex.c ****   *           + Time Master and Slave synchronization configuration
  12:Drivers/STM32L4xx_HAL_Driver/Src/stm32l4xx_hal_tim_ex.c ****   *           + Time Output Compare/PWM Channel Configuration (for channels 5 and 6)
  13:Drivers/STM32L4xx_HAL_Driver/Src/stm32l4xx_hal_tim_ex.c ****   *           + Time OCRef clear configuration
  14:Drivers/STM32L4xx_HAL_Driver/Src/stm32l4xx_hal_tim_ex.c ****   *           + Timer remapping capabilities configuration
  15:Drivers/STM32L4xx_HAL_Driver/Src/stm32l4xx_hal_tim_ex.c ****   ******************************************************************************
  16:Drivers/STM32L4xx_HAL_Driver/Src/stm32l4xx_hal_tim_ex.c ****   * @attention
  17:Drivers/STM32L4xx_HAL_Driver/Src/stm32l4xx_hal_tim_ex.c ****   *
  18:Drivers/STM32L4xx_HAL_Driver/Src/stm32l4xx_hal_tim_ex.c ****   * Copyright (c) 2017 STMicroelectronics.
  19:Drivers/STM32L4xx_HAL_Driver/Src/stm32l4xx_hal_tim_ex.c ****   * All rights reserved.
  20:Drivers/STM32L4xx_HAL_Driver/Src/stm32l4xx_hal_tim_ex.c ****   *
  21:Drivers/STM32L4xx_HAL_Driver/Src/stm32l4xx_hal_tim_ex.c ****   * This software is licensed under terms that can be found in the LICENSE file
  22:Drivers/STM32L4xx_HAL_Driver/Src/stm32l4xx_hal_tim_ex.c ****   * in the root directory of this software component.
  23:Drivers/STM32L4xx_HAL_Driver/Src/stm32l4xx_hal_tim_ex.c ****   * If no LICENSE file comes with this software, it is provided AS-IS.
  24:Drivers/STM32L4xx_HAL_Driver/Src/stm32l4xx_hal_tim_ex.c ****   *
  25:Drivers/STM32L4xx_HAL_Driver/Src/stm32l4xx_hal_tim_ex.c ****   ******************************************************************************
  26:Drivers/STM32L4xx_HAL_Driver/Src/stm32l4xx_hal_tim_ex.c ****   @verbatim
  27:Drivers/STM32L4xx_HAL_Driver/Src/stm32l4xx_hal_tim_ex.c ****   ==============================================================================
  28:Drivers/STM32L4xx_HAL_Driver/Src/stm32l4xx_hal_tim_ex.c ****                       ##### TIMER Extended features #####
  29:Drivers/STM32L4xx_HAL_Driver/Src/stm32l4xx_hal_tim_ex.c ****   ==============================================================================
  30:Drivers/STM32L4xx_HAL_Driver/Src/stm32l4xx_hal_tim_ex.c ****   [..]
ARM GAS  /tmp/ccR4xO3u.s 			page 2


  31:Drivers/STM32L4xx_HAL_Driver/Src/stm32l4xx_hal_tim_ex.c ****     The Timer Extended features include:
  32:Drivers/STM32L4xx_HAL_Driver/Src/stm32l4xx_hal_tim_ex.c ****     (#) Complementary outputs with programmable dead-time for :
  33:Drivers/STM32L4xx_HAL_Driver/Src/stm32l4xx_hal_tim_ex.c ****         (++) Output Compare
  34:Drivers/STM32L4xx_HAL_Driver/Src/stm32l4xx_hal_tim_ex.c ****         (++) PWM generation (Edge and Center-aligned Mode)
  35:Drivers/STM32L4xx_HAL_Driver/Src/stm32l4xx_hal_tim_ex.c ****         (++) One-pulse mode output
  36:Drivers/STM32L4xx_HAL_Driver/Src/stm32l4xx_hal_tim_ex.c ****     (#) Synchronization circuit to control the timer with external signals and to
  37:Drivers/STM32L4xx_HAL_Driver/Src/stm32l4xx_hal_tim_ex.c ****         interconnect several timers together.
  38:Drivers/STM32L4xx_HAL_Driver/Src/stm32l4xx_hal_tim_ex.c ****     (#) Break input to put the timer output signals in reset state or in a known state.
  39:Drivers/STM32L4xx_HAL_Driver/Src/stm32l4xx_hal_tim_ex.c ****     (#) Supports incremental (quadrature) encoder and hall-sensor circuitry for
  40:Drivers/STM32L4xx_HAL_Driver/Src/stm32l4xx_hal_tim_ex.c ****         positioning purposes
  41:Drivers/STM32L4xx_HAL_Driver/Src/stm32l4xx_hal_tim_ex.c **** 
  42:Drivers/STM32L4xx_HAL_Driver/Src/stm32l4xx_hal_tim_ex.c ****             ##### How to use this driver #####
  43:Drivers/STM32L4xx_HAL_Driver/Src/stm32l4xx_hal_tim_ex.c ****   ==============================================================================
  44:Drivers/STM32L4xx_HAL_Driver/Src/stm32l4xx_hal_tim_ex.c ****     [..]
  45:Drivers/STM32L4xx_HAL_Driver/Src/stm32l4xx_hal_tim_ex.c ****      (#) Initialize the TIM low level resources by implementing the following functions
  46:Drivers/STM32L4xx_HAL_Driver/Src/stm32l4xx_hal_tim_ex.c ****          depending on the selected feature:
  47:Drivers/STM32L4xx_HAL_Driver/Src/stm32l4xx_hal_tim_ex.c ****            (++) Hall Sensor output : HAL_TIMEx_HallSensor_MspInit()
  48:Drivers/STM32L4xx_HAL_Driver/Src/stm32l4xx_hal_tim_ex.c **** 
  49:Drivers/STM32L4xx_HAL_Driver/Src/stm32l4xx_hal_tim_ex.c ****      (#) Initialize the TIM low level resources :
  50:Drivers/STM32L4xx_HAL_Driver/Src/stm32l4xx_hal_tim_ex.c ****         (##) Enable the TIM interface clock using __HAL_RCC_TIMx_CLK_ENABLE();
  51:Drivers/STM32L4xx_HAL_Driver/Src/stm32l4xx_hal_tim_ex.c ****         (##) TIM pins configuration
  52:Drivers/STM32L4xx_HAL_Driver/Src/stm32l4xx_hal_tim_ex.c ****             (+++) Enable the clock for the TIM GPIOs using the following function:
  53:Drivers/STM32L4xx_HAL_Driver/Src/stm32l4xx_hal_tim_ex.c ****               __HAL_RCC_GPIOx_CLK_ENABLE();
  54:Drivers/STM32L4xx_HAL_Driver/Src/stm32l4xx_hal_tim_ex.c ****             (+++) Configure these TIM pins in Alternate function mode using HAL_GPIO_Init();
  55:Drivers/STM32L4xx_HAL_Driver/Src/stm32l4xx_hal_tim_ex.c **** 
  56:Drivers/STM32L4xx_HAL_Driver/Src/stm32l4xx_hal_tim_ex.c ****      (#) The external Clock can be configured, if needed (the default clock is the
  57:Drivers/STM32L4xx_HAL_Driver/Src/stm32l4xx_hal_tim_ex.c ****          internal clock from the APBx), using the following function:
  58:Drivers/STM32L4xx_HAL_Driver/Src/stm32l4xx_hal_tim_ex.c ****          HAL_TIM_ConfigClockSource, the clock configuration should be done before
  59:Drivers/STM32L4xx_HAL_Driver/Src/stm32l4xx_hal_tim_ex.c ****          any start function.
  60:Drivers/STM32L4xx_HAL_Driver/Src/stm32l4xx_hal_tim_ex.c **** 
  61:Drivers/STM32L4xx_HAL_Driver/Src/stm32l4xx_hal_tim_ex.c ****      (#) Configure the TIM in the desired functioning mode using one of the
  62:Drivers/STM32L4xx_HAL_Driver/Src/stm32l4xx_hal_tim_ex.c ****          initialization function of this driver:
  63:Drivers/STM32L4xx_HAL_Driver/Src/stm32l4xx_hal_tim_ex.c ****           (++) HAL_TIMEx_HallSensor_Init() and HAL_TIMEx_ConfigCommutEvent(): to use the
  64:Drivers/STM32L4xx_HAL_Driver/Src/stm32l4xx_hal_tim_ex.c ****                Timer Hall Sensor Interface and the commutation event with the corresponding
  65:Drivers/STM32L4xx_HAL_Driver/Src/stm32l4xx_hal_tim_ex.c ****                Interrupt and DMA request if needed (Note that One Timer is used to interface
  66:Drivers/STM32L4xx_HAL_Driver/Src/stm32l4xx_hal_tim_ex.c ****                with the Hall sensor Interface and another Timer should be used to use
  67:Drivers/STM32L4xx_HAL_Driver/Src/stm32l4xx_hal_tim_ex.c ****                the commutation event).
  68:Drivers/STM32L4xx_HAL_Driver/Src/stm32l4xx_hal_tim_ex.c **** 
  69:Drivers/STM32L4xx_HAL_Driver/Src/stm32l4xx_hal_tim_ex.c ****      (#) Activate the TIM peripheral using one of the start functions:
  70:Drivers/STM32L4xx_HAL_Driver/Src/stm32l4xx_hal_tim_ex.c ****            (++) Complementary Output Compare : HAL_TIMEx_OCN_Start(), HAL_TIMEx_OCN_Start_DMA(),
  71:Drivers/STM32L4xx_HAL_Driver/Src/stm32l4xx_hal_tim_ex.c ****                 HAL_TIMEx_OCN_Start_IT()
  72:Drivers/STM32L4xx_HAL_Driver/Src/stm32l4xx_hal_tim_ex.c ****            (++) Complementary PWM generation : HAL_TIMEx_PWMN_Start(), HAL_TIMEx_PWMN_Start_DMA(),
  73:Drivers/STM32L4xx_HAL_Driver/Src/stm32l4xx_hal_tim_ex.c ****                 HAL_TIMEx_PWMN_Start_IT()
  74:Drivers/STM32L4xx_HAL_Driver/Src/stm32l4xx_hal_tim_ex.c ****            (++) Complementary One-pulse mode output : HAL_TIMEx_OnePulseN_Start(), HAL_TIMEx_OnePul
  75:Drivers/STM32L4xx_HAL_Driver/Src/stm32l4xx_hal_tim_ex.c ****            (++) Hall Sensor output : HAL_TIMEx_HallSensor_Start(), HAL_TIMEx_HallSensor_Start_DMA()
  76:Drivers/STM32L4xx_HAL_Driver/Src/stm32l4xx_hal_tim_ex.c ****                 HAL_TIMEx_HallSensor_Start_IT().
  77:Drivers/STM32L4xx_HAL_Driver/Src/stm32l4xx_hal_tim_ex.c **** 
  78:Drivers/STM32L4xx_HAL_Driver/Src/stm32l4xx_hal_tim_ex.c ****   @endverbatim
  79:Drivers/STM32L4xx_HAL_Driver/Src/stm32l4xx_hal_tim_ex.c ****   ******************************************************************************
  80:Drivers/STM32L4xx_HAL_Driver/Src/stm32l4xx_hal_tim_ex.c ****   */
  81:Drivers/STM32L4xx_HAL_Driver/Src/stm32l4xx_hal_tim_ex.c **** 
  82:Drivers/STM32L4xx_HAL_Driver/Src/stm32l4xx_hal_tim_ex.c **** /* Includes ------------------------------------------------------------------*/
  83:Drivers/STM32L4xx_HAL_Driver/Src/stm32l4xx_hal_tim_ex.c **** #include "stm32l4xx_hal.h"
  84:Drivers/STM32L4xx_HAL_Driver/Src/stm32l4xx_hal_tim_ex.c **** 
  85:Drivers/STM32L4xx_HAL_Driver/Src/stm32l4xx_hal_tim_ex.c **** /** @addtogroup STM32L4xx_HAL_Driver
  86:Drivers/STM32L4xx_HAL_Driver/Src/stm32l4xx_hal_tim_ex.c ****   * @{
  87:Drivers/STM32L4xx_HAL_Driver/Src/stm32l4xx_hal_tim_ex.c ****   */
ARM GAS  /tmp/ccR4xO3u.s 			page 3


  88:Drivers/STM32L4xx_HAL_Driver/Src/stm32l4xx_hal_tim_ex.c **** 
  89:Drivers/STM32L4xx_HAL_Driver/Src/stm32l4xx_hal_tim_ex.c **** /** @defgroup TIMEx TIMEx
  90:Drivers/STM32L4xx_HAL_Driver/Src/stm32l4xx_hal_tim_ex.c ****   * @brief TIM Extended HAL module driver
  91:Drivers/STM32L4xx_HAL_Driver/Src/stm32l4xx_hal_tim_ex.c ****   * @{
  92:Drivers/STM32L4xx_HAL_Driver/Src/stm32l4xx_hal_tim_ex.c ****   */
  93:Drivers/STM32L4xx_HAL_Driver/Src/stm32l4xx_hal_tim_ex.c **** 
  94:Drivers/STM32L4xx_HAL_Driver/Src/stm32l4xx_hal_tim_ex.c **** #ifdef HAL_TIM_MODULE_ENABLED
  95:Drivers/STM32L4xx_HAL_Driver/Src/stm32l4xx_hal_tim_ex.c **** 
  96:Drivers/STM32L4xx_HAL_Driver/Src/stm32l4xx_hal_tim_ex.c **** /* Private typedef -----------------------------------------------------------*/
  97:Drivers/STM32L4xx_HAL_Driver/Src/stm32l4xx_hal_tim_ex.c **** /* Private define ------------------------------------------------------------*/
  98:Drivers/STM32L4xx_HAL_Driver/Src/stm32l4xx_hal_tim_ex.c **** /* Private macros ------------------------------------------------------------*/
  99:Drivers/STM32L4xx_HAL_Driver/Src/stm32l4xx_hal_tim_ex.c **** /* Private variables ---------------------------------------------------------*/
 100:Drivers/STM32L4xx_HAL_Driver/Src/stm32l4xx_hal_tim_ex.c **** /* Private function prototypes -----------------------------------------------*/
 101:Drivers/STM32L4xx_HAL_Driver/Src/stm32l4xx_hal_tim_ex.c **** static void TIM_DMADelayPulseNCplt(DMA_HandleTypeDef *hdma);
 102:Drivers/STM32L4xx_HAL_Driver/Src/stm32l4xx_hal_tim_ex.c **** static void TIM_DMAErrorCCxN(DMA_HandleTypeDef *hdma);
 103:Drivers/STM32L4xx_HAL_Driver/Src/stm32l4xx_hal_tim_ex.c **** static void TIM_CCxNChannelCmd(TIM_TypeDef *TIMx, uint32_t Channel, uint32_t ChannelNState);
 104:Drivers/STM32L4xx_HAL_Driver/Src/stm32l4xx_hal_tim_ex.c **** 
 105:Drivers/STM32L4xx_HAL_Driver/Src/stm32l4xx_hal_tim_ex.c **** /* Exported functions --------------------------------------------------------*/
 106:Drivers/STM32L4xx_HAL_Driver/Src/stm32l4xx_hal_tim_ex.c **** /** @defgroup TIMEx_Exported_Functions TIM Extended Exported Functions
 107:Drivers/STM32L4xx_HAL_Driver/Src/stm32l4xx_hal_tim_ex.c ****   * @{
 108:Drivers/STM32L4xx_HAL_Driver/Src/stm32l4xx_hal_tim_ex.c ****   */
 109:Drivers/STM32L4xx_HAL_Driver/Src/stm32l4xx_hal_tim_ex.c **** 
 110:Drivers/STM32L4xx_HAL_Driver/Src/stm32l4xx_hal_tim_ex.c **** /** @defgroup TIMEx_Exported_Functions_Group1 Extended Timer Hall Sensor functions
 111:Drivers/STM32L4xx_HAL_Driver/Src/stm32l4xx_hal_tim_ex.c ****   * @brief    Timer Hall Sensor functions
 112:Drivers/STM32L4xx_HAL_Driver/Src/stm32l4xx_hal_tim_ex.c ****   *
 113:Drivers/STM32L4xx_HAL_Driver/Src/stm32l4xx_hal_tim_ex.c **** @verbatim
 114:Drivers/STM32L4xx_HAL_Driver/Src/stm32l4xx_hal_tim_ex.c ****   ==============================================================================
 115:Drivers/STM32L4xx_HAL_Driver/Src/stm32l4xx_hal_tim_ex.c ****                       ##### Timer Hall Sensor functions #####
 116:Drivers/STM32L4xx_HAL_Driver/Src/stm32l4xx_hal_tim_ex.c ****   ==============================================================================
 117:Drivers/STM32L4xx_HAL_Driver/Src/stm32l4xx_hal_tim_ex.c ****   [..]
 118:Drivers/STM32L4xx_HAL_Driver/Src/stm32l4xx_hal_tim_ex.c ****     This section provides functions allowing to:
 119:Drivers/STM32L4xx_HAL_Driver/Src/stm32l4xx_hal_tim_ex.c ****     (+) Initialize and configure TIM HAL Sensor.
 120:Drivers/STM32L4xx_HAL_Driver/Src/stm32l4xx_hal_tim_ex.c ****     (+) De-initialize TIM HAL Sensor.
 121:Drivers/STM32L4xx_HAL_Driver/Src/stm32l4xx_hal_tim_ex.c ****     (+) Start the Hall Sensor Interface.
 122:Drivers/STM32L4xx_HAL_Driver/Src/stm32l4xx_hal_tim_ex.c ****     (+) Stop the Hall Sensor Interface.
 123:Drivers/STM32L4xx_HAL_Driver/Src/stm32l4xx_hal_tim_ex.c ****     (+) Start the Hall Sensor Interface and enable interrupts.
 124:Drivers/STM32L4xx_HAL_Driver/Src/stm32l4xx_hal_tim_ex.c ****     (+) Stop the Hall Sensor Interface and disable interrupts.
 125:Drivers/STM32L4xx_HAL_Driver/Src/stm32l4xx_hal_tim_ex.c ****     (+) Start the Hall Sensor Interface and enable DMA transfers.
 126:Drivers/STM32L4xx_HAL_Driver/Src/stm32l4xx_hal_tim_ex.c ****     (+) Stop the Hall Sensor Interface and disable DMA transfers.
 127:Drivers/STM32L4xx_HAL_Driver/Src/stm32l4xx_hal_tim_ex.c **** 
 128:Drivers/STM32L4xx_HAL_Driver/Src/stm32l4xx_hal_tim_ex.c **** @endverbatim
 129:Drivers/STM32L4xx_HAL_Driver/Src/stm32l4xx_hal_tim_ex.c ****   * @{
 130:Drivers/STM32L4xx_HAL_Driver/Src/stm32l4xx_hal_tim_ex.c ****   */
 131:Drivers/STM32L4xx_HAL_Driver/Src/stm32l4xx_hal_tim_ex.c **** /**
 132:Drivers/STM32L4xx_HAL_Driver/Src/stm32l4xx_hal_tim_ex.c ****   * @brief  Initializes the TIM Hall Sensor Interface and initialize the associated handle.
 133:Drivers/STM32L4xx_HAL_Driver/Src/stm32l4xx_hal_tim_ex.c ****   * @note   When the timer instance is initialized in Hall Sensor Interface mode,
 134:Drivers/STM32L4xx_HAL_Driver/Src/stm32l4xx_hal_tim_ex.c ****   *         timer channels 1 and channel 2 are reserved and cannot be used for
 135:Drivers/STM32L4xx_HAL_Driver/Src/stm32l4xx_hal_tim_ex.c ****   *         other purpose.
 136:Drivers/STM32L4xx_HAL_Driver/Src/stm32l4xx_hal_tim_ex.c ****   * @param  htim TIM Hall Sensor Interface handle
 137:Drivers/STM32L4xx_HAL_Driver/Src/stm32l4xx_hal_tim_ex.c ****   * @param  sConfig TIM Hall Sensor configuration structure
 138:Drivers/STM32L4xx_HAL_Driver/Src/stm32l4xx_hal_tim_ex.c ****   * @retval HAL status
 139:Drivers/STM32L4xx_HAL_Driver/Src/stm32l4xx_hal_tim_ex.c ****   */
 140:Drivers/STM32L4xx_HAL_Driver/Src/stm32l4xx_hal_tim_ex.c **** HAL_StatusTypeDef HAL_TIMEx_HallSensor_Init(TIM_HandleTypeDef *htim, const TIM_HallSensor_InitTypeD
 141:Drivers/STM32L4xx_HAL_Driver/Src/stm32l4xx_hal_tim_ex.c **** {
  29              		.loc 1 141 1
  30              		.cfi_startproc
  31              		@ args = 0, pretend = 0, frame = 40
ARM GAS  /tmp/ccR4xO3u.s 			page 4


  32              		@ frame_needed = 1, uses_anonymous_args = 0
  33 0000 80B5     		push	{r7, lr}
  34              	.LCFI0:
  35              		.cfi_def_cfa_offset 8
  36              		.cfi_offset 7, -8
  37              		.cfi_offset 14, -4
  38 0002 8AB0     		sub	sp, sp, #40
  39              	.LCFI1:
  40              		.cfi_def_cfa_offset 48
  41 0004 00AF     		add	r7, sp, #0
  42              	.LCFI2:
  43              		.cfi_def_cfa_register 7
  44 0006 7860     		str	r0, [r7, #4]
  45 0008 3960     		str	r1, [r7]
 142:Drivers/STM32L4xx_HAL_Driver/Src/stm32l4xx_hal_tim_ex.c ****   TIM_OC_InitTypeDef OC_Config;
 143:Drivers/STM32L4xx_HAL_Driver/Src/stm32l4xx_hal_tim_ex.c **** 
 144:Drivers/STM32L4xx_HAL_Driver/Src/stm32l4xx_hal_tim_ex.c ****   /* Check the TIM handle allocation */
 145:Drivers/STM32L4xx_HAL_Driver/Src/stm32l4xx_hal_tim_ex.c ****   if (htim == NULL)
  46              		.loc 1 145 6
  47 000a 7B68     		ldr	r3, [r7, #4]
  48 000c 002B     		cmp	r3, #0
  49 000e 01D1     		bne	.L2
 146:Drivers/STM32L4xx_HAL_Driver/Src/stm32l4xx_hal_tim_ex.c ****   {
 147:Drivers/STM32L4xx_HAL_Driver/Src/stm32l4xx_hal_tim_ex.c ****     return HAL_ERROR;
  50              		.loc 1 147 12
  51 0010 0123     		movs	r3, #1
  52 0012 9CE0     		b	.L5
  53              	.L2:
 148:Drivers/STM32L4xx_HAL_Driver/Src/stm32l4xx_hal_tim_ex.c ****   }
 149:Drivers/STM32L4xx_HAL_Driver/Src/stm32l4xx_hal_tim_ex.c **** 
 150:Drivers/STM32L4xx_HAL_Driver/Src/stm32l4xx_hal_tim_ex.c ****   /* Check the parameters */
 151:Drivers/STM32L4xx_HAL_Driver/Src/stm32l4xx_hal_tim_ex.c ****   assert_param(IS_TIM_HALL_SENSOR_INTERFACE_INSTANCE(htim->Instance));
 152:Drivers/STM32L4xx_HAL_Driver/Src/stm32l4xx_hal_tim_ex.c ****   assert_param(IS_TIM_COUNTER_MODE(htim->Init.CounterMode));
 153:Drivers/STM32L4xx_HAL_Driver/Src/stm32l4xx_hal_tim_ex.c ****   assert_param(IS_TIM_CLOCKDIVISION_DIV(htim->Init.ClockDivision));
 154:Drivers/STM32L4xx_HAL_Driver/Src/stm32l4xx_hal_tim_ex.c ****   assert_param(IS_TIM_AUTORELOAD_PRELOAD(htim->Init.AutoReloadPreload));
 155:Drivers/STM32L4xx_HAL_Driver/Src/stm32l4xx_hal_tim_ex.c ****   assert_param(IS_TIM_IC_POLARITY(sConfig->IC1Polarity));
 156:Drivers/STM32L4xx_HAL_Driver/Src/stm32l4xx_hal_tim_ex.c ****   assert_param(IS_TIM_PERIOD(htim, htim->Init.Period));
 157:Drivers/STM32L4xx_HAL_Driver/Src/stm32l4xx_hal_tim_ex.c ****   assert_param(IS_TIM_IC_PRESCALER(sConfig->IC1Prescaler));
 158:Drivers/STM32L4xx_HAL_Driver/Src/stm32l4xx_hal_tim_ex.c ****   assert_param(IS_TIM_IC_FILTER(sConfig->IC1Filter));
 159:Drivers/STM32L4xx_HAL_Driver/Src/stm32l4xx_hal_tim_ex.c **** 
 160:Drivers/STM32L4xx_HAL_Driver/Src/stm32l4xx_hal_tim_ex.c ****   if (htim->State == HAL_TIM_STATE_RESET)
  54              		.loc 1 160 11
  55 0014 7B68     		ldr	r3, [r7, #4]
  56 0016 93F83D30 		ldrb	r3, [r3, #61]
  57 001a DBB2     		uxtb	r3, r3
  58              		.loc 1 160 6
  59 001c 002B     		cmp	r3, #0
  60 001e 06D1     		bne	.L4
 161:Drivers/STM32L4xx_HAL_Driver/Src/stm32l4xx_hal_tim_ex.c ****   {
 162:Drivers/STM32L4xx_HAL_Driver/Src/stm32l4xx_hal_tim_ex.c ****     /* Allocate lock resource and initialize it */
 163:Drivers/STM32L4xx_HAL_Driver/Src/stm32l4xx_hal_tim_ex.c ****     htim->Lock = HAL_UNLOCKED;
  61              		.loc 1 163 16
  62 0020 7B68     		ldr	r3, [r7, #4]
  63 0022 0022     		movs	r2, #0
  64 0024 83F83C20 		strb	r2, [r3, #60]
 164:Drivers/STM32L4xx_HAL_Driver/Src/stm32l4xx_hal_tim_ex.c **** 
 165:Drivers/STM32L4xx_HAL_Driver/Src/stm32l4xx_hal_tim_ex.c **** #if (USE_HAL_TIM_REGISTER_CALLBACKS == 1)
ARM GAS  /tmp/ccR4xO3u.s 			page 5


 166:Drivers/STM32L4xx_HAL_Driver/Src/stm32l4xx_hal_tim_ex.c ****     /* Reset interrupt callbacks to legacy week callbacks */
 167:Drivers/STM32L4xx_HAL_Driver/Src/stm32l4xx_hal_tim_ex.c ****     TIM_ResetCallback(htim);
 168:Drivers/STM32L4xx_HAL_Driver/Src/stm32l4xx_hal_tim_ex.c **** 
 169:Drivers/STM32L4xx_HAL_Driver/Src/stm32l4xx_hal_tim_ex.c ****     if (htim->HallSensor_MspInitCallback == NULL)
 170:Drivers/STM32L4xx_HAL_Driver/Src/stm32l4xx_hal_tim_ex.c ****     {
 171:Drivers/STM32L4xx_HAL_Driver/Src/stm32l4xx_hal_tim_ex.c ****       htim->HallSensor_MspInitCallback = HAL_TIMEx_HallSensor_MspInit;
 172:Drivers/STM32L4xx_HAL_Driver/Src/stm32l4xx_hal_tim_ex.c ****     }
 173:Drivers/STM32L4xx_HAL_Driver/Src/stm32l4xx_hal_tim_ex.c ****     /* Init the low level hardware : GPIO, CLOCK, NVIC */
 174:Drivers/STM32L4xx_HAL_Driver/Src/stm32l4xx_hal_tim_ex.c ****     htim->HallSensor_MspInitCallback(htim);
 175:Drivers/STM32L4xx_HAL_Driver/Src/stm32l4xx_hal_tim_ex.c **** #else
 176:Drivers/STM32L4xx_HAL_Driver/Src/stm32l4xx_hal_tim_ex.c ****     /* Init the low level hardware : GPIO, CLOCK, NVIC and DMA */
 177:Drivers/STM32L4xx_HAL_Driver/Src/stm32l4xx_hal_tim_ex.c ****     HAL_TIMEx_HallSensor_MspInit(htim);
  65              		.loc 1 177 5
  66 0028 7868     		ldr	r0, [r7, #4]
  67 002a FFF7FEFF 		bl	HAL_TIMEx_HallSensor_MspInit
  68              	.L4:
 178:Drivers/STM32L4xx_HAL_Driver/Src/stm32l4xx_hal_tim_ex.c **** #endif /* USE_HAL_TIM_REGISTER_CALLBACKS */
 179:Drivers/STM32L4xx_HAL_Driver/Src/stm32l4xx_hal_tim_ex.c ****   }
 180:Drivers/STM32L4xx_HAL_Driver/Src/stm32l4xx_hal_tim_ex.c **** 
 181:Drivers/STM32L4xx_HAL_Driver/Src/stm32l4xx_hal_tim_ex.c ****   /* Set the TIM state */
 182:Drivers/STM32L4xx_HAL_Driver/Src/stm32l4xx_hal_tim_ex.c ****   htim->State = HAL_TIM_STATE_BUSY;
  69              		.loc 1 182 15
  70 002e 7B68     		ldr	r3, [r7, #4]
  71 0030 0222     		movs	r2, #2
  72 0032 83F83D20 		strb	r2, [r3, #61]
 183:Drivers/STM32L4xx_HAL_Driver/Src/stm32l4xx_hal_tim_ex.c **** 
 184:Drivers/STM32L4xx_HAL_Driver/Src/stm32l4xx_hal_tim_ex.c ****   /* Configure the Time base in the Encoder Mode */
 185:Drivers/STM32L4xx_HAL_Driver/Src/stm32l4xx_hal_tim_ex.c ****   TIM_Base_SetConfig(htim->Instance, &htim->Init);
  73              		.loc 1 185 3
  74 0036 7B68     		ldr	r3, [r7, #4]
  75 0038 1A68     		ldr	r2, [r3]
  76              		.loc 1 185 38
  77 003a 7B68     		ldr	r3, [r7, #4]
  78 003c 0433     		adds	r3, r3, #4
  79              		.loc 1 185 3
  80 003e 1946     		mov	r1, r3
  81 0040 1046     		mov	r0, r2
  82 0042 FFF7FEFF 		bl	TIM_Base_SetConfig
 186:Drivers/STM32L4xx_HAL_Driver/Src/stm32l4xx_hal_tim_ex.c **** 
 187:Drivers/STM32L4xx_HAL_Driver/Src/stm32l4xx_hal_tim_ex.c ****   /* Configure the Channel 1 as Input Channel to interface with the three Outputs of the  Hall sens
 188:Drivers/STM32L4xx_HAL_Driver/Src/stm32l4xx_hal_tim_ex.c ****   TIM_TI1_SetConfig(htim->Instance, sConfig->IC1Polarity, TIM_ICSELECTION_TRC, sConfig->IC1Filter);
  83              		.loc 1 188 3
  84 0046 7B68     		ldr	r3, [r7, #4]
  85 0048 1868     		ldr	r0, [r3]
  86 004a 3B68     		ldr	r3, [r7]
  87 004c 1968     		ldr	r1, [r3]
  88 004e 3B68     		ldr	r3, [r7]
  89 0050 9B68     		ldr	r3, [r3, #8]
  90 0052 0322     		movs	r2, #3
  91 0054 FFF7FEFF 		bl	TIM_TI1_SetConfig
 189:Drivers/STM32L4xx_HAL_Driver/Src/stm32l4xx_hal_tim_ex.c **** 
 190:Drivers/STM32L4xx_HAL_Driver/Src/stm32l4xx_hal_tim_ex.c ****   /* Reset the IC1PSC Bits */
 191:Drivers/STM32L4xx_HAL_Driver/Src/stm32l4xx_hal_tim_ex.c ****   htim->Instance->CCMR1 &= ~TIM_CCMR1_IC1PSC;
  92              		.loc 1 191 7
  93 0058 7B68     		ldr	r3, [r7, #4]
  94 005a 1B68     		ldr	r3, [r3]
  95              		.loc 1 191 25
ARM GAS  /tmp/ccR4xO3u.s 			page 6


  96 005c 9A69     		ldr	r2, [r3, #24]
  97              		.loc 1 191 7
  98 005e 7B68     		ldr	r3, [r7, #4]
  99 0060 1B68     		ldr	r3, [r3]
 100              		.loc 1 191 25
 101 0062 22F00C02 		bic	r2, r2, #12
 102 0066 9A61     		str	r2, [r3, #24]
 192:Drivers/STM32L4xx_HAL_Driver/Src/stm32l4xx_hal_tim_ex.c ****   /* Set the IC1PSC value */
 193:Drivers/STM32L4xx_HAL_Driver/Src/stm32l4xx_hal_tim_ex.c ****   htim->Instance->CCMR1 |= sConfig->IC1Prescaler;
 103              		.loc 1 193 7
 104 0068 7B68     		ldr	r3, [r7, #4]
 105 006a 1B68     		ldr	r3, [r3]
 106              		.loc 1 193 25
 107 006c 9969     		ldr	r1, [r3, #24]
 108              		.loc 1 193 35
 109 006e 3B68     		ldr	r3, [r7]
 110 0070 5A68     		ldr	r2, [r3, #4]
 111              		.loc 1 193 7
 112 0072 7B68     		ldr	r3, [r7, #4]
 113 0074 1B68     		ldr	r3, [r3]
 114              		.loc 1 193 25
 115 0076 0A43     		orrs	r2, r2, r1
 116 0078 9A61     		str	r2, [r3, #24]
 194:Drivers/STM32L4xx_HAL_Driver/Src/stm32l4xx_hal_tim_ex.c **** 
 195:Drivers/STM32L4xx_HAL_Driver/Src/stm32l4xx_hal_tim_ex.c ****   /* Enable the Hall sensor interface (XOR function of the three inputs) */
 196:Drivers/STM32L4xx_HAL_Driver/Src/stm32l4xx_hal_tim_ex.c ****   htim->Instance->CR2 |= TIM_CR2_TI1S;
 117              		.loc 1 196 7
 118 007a 7B68     		ldr	r3, [r7, #4]
 119 007c 1B68     		ldr	r3, [r3]
 120              		.loc 1 196 23
 121 007e 5A68     		ldr	r2, [r3, #4]
 122              		.loc 1 196 7
 123 0080 7B68     		ldr	r3, [r7, #4]
 124 0082 1B68     		ldr	r3, [r3]
 125              		.loc 1 196 23
 126 0084 42F08002 		orr	r2, r2, #128
 127 0088 5A60     		str	r2, [r3, #4]
 197:Drivers/STM32L4xx_HAL_Driver/Src/stm32l4xx_hal_tim_ex.c **** 
 198:Drivers/STM32L4xx_HAL_Driver/Src/stm32l4xx_hal_tim_ex.c ****   /* Select the TIM_TS_TI1F_ED signal as Input trigger for the TIM */
 199:Drivers/STM32L4xx_HAL_Driver/Src/stm32l4xx_hal_tim_ex.c ****   htim->Instance->SMCR &= ~TIM_SMCR_TS;
 128              		.loc 1 199 7
 129 008a 7B68     		ldr	r3, [r7, #4]
 130 008c 1B68     		ldr	r3, [r3]
 131              		.loc 1 199 24
 132 008e 9A68     		ldr	r2, [r3, #8]
 133              		.loc 1 199 7
 134 0090 7B68     		ldr	r3, [r7, #4]
 135 0092 1B68     		ldr	r3, [r3]
 136              		.loc 1 199 24
 137 0094 22F07002 		bic	r2, r2, #112
 138 0098 9A60     		str	r2, [r3, #8]
 200:Drivers/STM32L4xx_HAL_Driver/Src/stm32l4xx_hal_tim_ex.c ****   htim->Instance->SMCR |= TIM_TS_TI1F_ED;
 139              		.loc 1 200 7
 140 009a 7B68     		ldr	r3, [r7, #4]
 141 009c 1B68     		ldr	r3, [r3]
 142              		.loc 1 200 24
 143 009e 9A68     		ldr	r2, [r3, #8]
ARM GAS  /tmp/ccR4xO3u.s 			page 7


 144              		.loc 1 200 7
 145 00a0 7B68     		ldr	r3, [r7, #4]
 146 00a2 1B68     		ldr	r3, [r3]
 147              		.loc 1 200 24
 148 00a4 42F04002 		orr	r2, r2, #64
 149 00a8 9A60     		str	r2, [r3, #8]
 201:Drivers/STM32L4xx_HAL_Driver/Src/stm32l4xx_hal_tim_ex.c **** 
 202:Drivers/STM32L4xx_HAL_Driver/Src/stm32l4xx_hal_tim_ex.c ****   /* Use the TIM_TS_TI1F_ED signal to reset the TIM counter each edge detection */
 203:Drivers/STM32L4xx_HAL_Driver/Src/stm32l4xx_hal_tim_ex.c ****   htim->Instance->SMCR &= ~TIM_SMCR_SMS;
 150              		.loc 1 203 7
 151 00aa 7B68     		ldr	r3, [r7, #4]
 152 00ac 1B68     		ldr	r3, [r3]
 153              		.loc 1 203 24
 154 00ae 9B68     		ldr	r3, [r3, #8]
 155              		.loc 1 203 7
 156 00b0 7A68     		ldr	r2, [r7, #4]
 157 00b2 1268     		ldr	r2, [r2]
 158              		.loc 1 203 24
 159 00b4 23F48033 		bic	r3, r3, #65536
 160 00b8 23F00703 		bic	r3, r3, #7
 161 00bc 9360     		str	r3, [r2, #8]
 204:Drivers/STM32L4xx_HAL_Driver/Src/stm32l4xx_hal_tim_ex.c ****   htim->Instance->SMCR |= TIM_SLAVEMODE_RESET;
 162              		.loc 1 204 7
 163 00be 7B68     		ldr	r3, [r7, #4]
 164 00c0 1B68     		ldr	r3, [r3]
 165              		.loc 1 204 24
 166 00c2 9A68     		ldr	r2, [r3, #8]
 167              		.loc 1 204 7
 168 00c4 7B68     		ldr	r3, [r7, #4]
 169 00c6 1B68     		ldr	r3, [r3]
 170              		.loc 1 204 24
 171 00c8 42F00402 		orr	r2, r2, #4
 172 00cc 9A60     		str	r2, [r3, #8]
 205:Drivers/STM32L4xx_HAL_Driver/Src/stm32l4xx_hal_tim_ex.c **** 
 206:Drivers/STM32L4xx_HAL_Driver/Src/stm32l4xx_hal_tim_ex.c ****   /* Program channel 2 in PWM 2 mode with the desired Commutation_Delay*/
 207:Drivers/STM32L4xx_HAL_Driver/Src/stm32l4xx_hal_tim_ex.c ****   OC_Config.OCFastMode = TIM_OCFAST_DISABLE;
 173              		.loc 1 207 24
 174 00ce 0023     		movs	r3, #0
 175 00d0 FB61     		str	r3, [r7, #28]
 208:Drivers/STM32L4xx_HAL_Driver/Src/stm32l4xx_hal_tim_ex.c ****   OC_Config.OCIdleState = TIM_OCIDLESTATE_RESET;
 176              		.loc 1 208 25
 177 00d2 0023     		movs	r3, #0
 178 00d4 3B62     		str	r3, [r7, #32]
 209:Drivers/STM32L4xx_HAL_Driver/Src/stm32l4xx_hal_tim_ex.c ****   OC_Config.OCMode = TIM_OCMODE_PWM2;
 179              		.loc 1 209 20
 180 00d6 7023     		movs	r3, #112
 181 00d8 FB60     		str	r3, [r7, #12]
 210:Drivers/STM32L4xx_HAL_Driver/Src/stm32l4xx_hal_tim_ex.c ****   OC_Config.OCNIdleState = TIM_OCNIDLESTATE_RESET;
 182              		.loc 1 210 26
 183 00da 0023     		movs	r3, #0
 184 00dc 7B62     		str	r3, [r7, #36]
 211:Drivers/STM32L4xx_HAL_Driver/Src/stm32l4xx_hal_tim_ex.c ****   OC_Config.OCNPolarity = TIM_OCNPOLARITY_HIGH;
 185              		.loc 1 211 25
 186 00de 0023     		movs	r3, #0
 187 00e0 BB61     		str	r3, [r7, #24]
 212:Drivers/STM32L4xx_HAL_Driver/Src/stm32l4xx_hal_tim_ex.c ****   OC_Config.OCPolarity = TIM_OCPOLARITY_HIGH;
 188              		.loc 1 212 24
ARM GAS  /tmp/ccR4xO3u.s 			page 8


 189 00e2 0023     		movs	r3, #0
 190 00e4 7B61     		str	r3, [r7, #20]
 213:Drivers/STM32L4xx_HAL_Driver/Src/stm32l4xx_hal_tim_ex.c ****   OC_Config.Pulse = sConfig->Commutation_Delay;
 191              		.loc 1 213 28
 192 00e6 3B68     		ldr	r3, [r7]
 193 00e8 DB68     		ldr	r3, [r3, #12]
 194              		.loc 1 213 19
 195 00ea 3B61     		str	r3, [r7, #16]
 214:Drivers/STM32L4xx_HAL_Driver/Src/stm32l4xx_hal_tim_ex.c **** 
 215:Drivers/STM32L4xx_HAL_Driver/Src/stm32l4xx_hal_tim_ex.c ****   TIM_OC2_SetConfig(htim->Instance, &OC_Config);
 196              		.loc 1 215 3
 197 00ec 7B68     		ldr	r3, [r7, #4]
 198 00ee 1B68     		ldr	r3, [r3]
 199 00f0 07F10C02 		add	r2, r7, #12
 200 00f4 1146     		mov	r1, r2
 201 00f6 1846     		mov	r0, r3
 202 00f8 FFF7FEFF 		bl	TIM_OC2_SetConfig
 216:Drivers/STM32L4xx_HAL_Driver/Src/stm32l4xx_hal_tim_ex.c **** 
 217:Drivers/STM32L4xx_HAL_Driver/Src/stm32l4xx_hal_tim_ex.c ****   /* Select OC2REF as trigger output on TRGO: write the MMS bits in the TIMx_CR2
 218:Drivers/STM32L4xx_HAL_Driver/Src/stm32l4xx_hal_tim_ex.c ****     register to 101 */
 219:Drivers/STM32L4xx_HAL_Driver/Src/stm32l4xx_hal_tim_ex.c ****   htim->Instance->CR2 &= ~TIM_CR2_MMS;
 203              		.loc 1 219 7
 204 00fc 7B68     		ldr	r3, [r7, #4]
 205 00fe 1B68     		ldr	r3, [r3]
 206              		.loc 1 219 23
 207 0100 5A68     		ldr	r2, [r3, #4]
 208              		.loc 1 219 7
 209 0102 7B68     		ldr	r3, [r7, #4]
 210 0104 1B68     		ldr	r3, [r3]
 211              		.loc 1 219 23
 212 0106 22F07002 		bic	r2, r2, #112
 213 010a 5A60     		str	r2, [r3, #4]
 220:Drivers/STM32L4xx_HAL_Driver/Src/stm32l4xx_hal_tim_ex.c ****   htim->Instance->CR2 |= TIM_TRGO_OC2REF;
 214              		.loc 1 220 7
 215 010c 7B68     		ldr	r3, [r7, #4]
 216 010e 1B68     		ldr	r3, [r3]
 217              		.loc 1 220 23
 218 0110 5A68     		ldr	r2, [r3, #4]
 219              		.loc 1 220 7
 220 0112 7B68     		ldr	r3, [r7, #4]
 221 0114 1B68     		ldr	r3, [r3]
 222              		.loc 1 220 23
 223 0116 42F05002 		orr	r2, r2, #80
 224 011a 5A60     		str	r2, [r3, #4]
 221:Drivers/STM32L4xx_HAL_Driver/Src/stm32l4xx_hal_tim_ex.c **** 
 222:Drivers/STM32L4xx_HAL_Driver/Src/stm32l4xx_hal_tim_ex.c ****   /* Initialize the DMA burst operation state */
 223:Drivers/STM32L4xx_HAL_Driver/Src/stm32l4xx_hal_tim_ex.c ****   htim->DMABurstState = HAL_DMA_BURST_STATE_READY;
 225              		.loc 1 223 23
 226 011c 7B68     		ldr	r3, [r7, #4]
 227 011e 0122     		movs	r2, #1
 228 0120 83F84820 		strb	r2, [r3, #72]
 224:Drivers/STM32L4xx_HAL_Driver/Src/stm32l4xx_hal_tim_ex.c **** 
 225:Drivers/STM32L4xx_HAL_Driver/Src/stm32l4xx_hal_tim_ex.c ****   /* Initialize the TIM channels state */
 226:Drivers/STM32L4xx_HAL_Driver/Src/stm32l4xx_hal_tim_ex.c ****   TIM_CHANNEL_STATE_SET(htim, TIM_CHANNEL_1, HAL_TIM_CHANNEL_STATE_READY);
 229              		.loc 1 226 3
 230 0124 7B68     		ldr	r3, [r7, #4]
 231 0126 0122     		movs	r2, #1
ARM GAS  /tmp/ccR4xO3u.s 			page 9


 232 0128 83F83E20 		strb	r2, [r3, #62]
 227:Drivers/STM32L4xx_HAL_Driver/Src/stm32l4xx_hal_tim_ex.c ****   TIM_CHANNEL_STATE_SET(htim, TIM_CHANNEL_2, HAL_TIM_CHANNEL_STATE_READY);
 233              		.loc 1 227 3
 234 012c 7B68     		ldr	r3, [r7, #4]
 235 012e 0122     		movs	r2, #1
 236 0130 83F83F20 		strb	r2, [r3, #63]
 228:Drivers/STM32L4xx_HAL_Driver/Src/stm32l4xx_hal_tim_ex.c ****   TIM_CHANNEL_N_STATE_SET(htim, TIM_CHANNEL_1, HAL_TIM_CHANNEL_STATE_READY);
 237              		.loc 1 228 3
 238 0134 7B68     		ldr	r3, [r7, #4]
 239 0136 0122     		movs	r2, #1
 240 0138 83F84420 		strb	r2, [r3, #68]
 229:Drivers/STM32L4xx_HAL_Driver/Src/stm32l4xx_hal_tim_ex.c ****   TIM_CHANNEL_N_STATE_SET(htim, TIM_CHANNEL_2, HAL_TIM_CHANNEL_STATE_READY);
 241              		.loc 1 229 3
 242 013c 7B68     		ldr	r3, [r7, #4]
 243 013e 0122     		movs	r2, #1
 244 0140 83F84520 		strb	r2, [r3, #69]
 230:Drivers/STM32L4xx_HAL_Driver/Src/stm32l4xx_hal_tim_ex.c **** 
 231:Drivers/STM32L4xx_HAL_Driver/Src/stm32l4xx_hal_tim_ex.c ****   /* Initialize the TIM state*/
 232:Drivers/STM32L4xx_HAL_Driver/Src/stm32l4xx_hal_tim_ex.c ****   htim->State = HAL_TIM_STATE_READY;
 245              		.loc 1 232 15
 246 0144 7B68     		ldr	r3, [r7, #4]
 247 0146 0122     		movs	r2, #1
 248 0148 83F83D20 		strb	r2, [r3, #61]
 233:Drivers/STM32L4xx_HAL_Driver/Src/stm32l4xx_hal_tim_ex.c **** 
 234:Drivers/STM32L4xx_HAL_Driver/Src/stm32l4xx_hal_tim_ex.c ****   return HAL_OK;
 249              		.loc 1 234 10
 250 014c 0023     		movs	r3, #0
 251              	.L5:
 235:Drivers/STM32L4xx_HAL_Driver/Src/stm32l4xx_hal_tim_ex.c **** }
 252              		.loc 1 235 1 discriminator 1
 253 014e 1846     		mov	r0, r3
 254 0150 2837     		adds	r7, r7, #40
 255              	.LCFI3:
 256              		.cfi_def_cfa_offset 8
 257 0152 BD46     		mov	sp, r7
 258              	.LCFI4:
 259              		.cfi_def_cfa_register 13
 260              		@ sp needed
 261 0154 80BD     		pop	{r7, pc}
 262              		.cfi_endproc
 263              	.LFE132:
 265              		.section	.text.HAL_TIMEx_HallSensor_DeInit,"ax",%progbits
 266              		.align	1
 267              		.global	HAL_TIMEx_HallSensor_DeInit
 268              		.syntax unified
 269              		.thumb
 270              		.thumb_func
 272              	HAL_TIMEx_HallSensor_DeInit:
 273              	.LFB133:
 236:Drivers/STM32L4xx_HAL_Driver/Src/stm32l4xx_hal_tim_ex.c **** 
 237:Drivers/STM32L4xx_HAL_Driver/Src/stm32l4xx_hal_tim_ex.c **** /**
 238:Drivers/STM32L4xx_HAL_Driver/Src/stm32l4xx_hal_tim_ex.c ****   * @brief  DeInitializes the TIM Hall Sensor interface
 239:Drivers/STM32L4xx_HAL_Driver/Src/stm32l4xx_hal_tim_ex.c ****   * @param  htim TIM Hall Sensor Interface handle
 240:Drivers/STM32L4xx_HAL_Driver/Src/stm32l4xx_hal_tim_ex.c ****   * @retval HAL status
 241:Drivers/STM32L4xx_HAL_Driver/Src/stm32l4xx_hal_tim_ex.c ****   */
 242:Drivers/STM32L4xx_HAL_Driver/Src/stm32l4xx_hal_tim_ex.c **** HAL_StatusTypeDef HAL_TIMEx_HallSensor_DeInit(TIM_HandleTypeDef *htim)
 243:Drivers/STM32L4xx_HAL_Driver/Src/stm32l4xx_hal_tim_ex.c **** {
ARM GAS  /tmp/ccR4xO3u.s 			page 10


 274              		.loc 1 243 1
 275              		.cfi_startproc
 276              		@ args = 0, pretend = 0, frame = 8
 277              		@ frame_needed = 1, uses_anonymous_args = 0
 278 0000 80B5     		push	{r7, lr}
 279              	.LCFI5:
 280              		.cfi_def_cfa_offset 8
 281              		.cfi_offset 7, -8
 282              		.cfi_offset 14, -4
 283 0002 82B0     		sub	sp, sp, #8
 284              	.LCFI6:
 285              		.cfi_def_cfa_offset 16
 286 0004 00AF     		add	r7, sp, #0
 287              	.LCFI7:
 288              		.cfi_def_cfa_register 7
 289 0006 7860     		str	r0, [r7, #4]
 244:Drivers/STM32L4xx_HAL_Driver/Src/stm32l4xx_hal_tim_ex.c ****   /* Check the parameters */
 245:Drivers/STM32L4xx_HAL_Driver/Src/stm32l4xx_hal_tim_ex.c ****   assert_param(IS_TIM_INSTANCE(htim->Instance));
 246:Drivers/STM32L4xx_HAL_Driver/Src/stm32l4xx_hal_tim_ex.c **** 
 247:Drivers/STM32L4xx_HAL_Driver/Src/stm32l4xx_hal_tim_ex.c ****   htim->State = HAL_TIM_STATE_BUSY;
 290              		.loc 1 247 15
 291 0008 7B68     		ldr	r3, [r7, #4]
 292 000a 0222     		movs	r2, #2
 293 000c 83F83D20 		strb	r2, [r3, #61]
 248:Drivers/STM32L4xx_HAL_Driver/Src/stm32l4xx_hal_tim_ex.c **** 
 249:Drivers/STM32L4xx_HAL_Driver/Src/stm32l4xx_hal_tim_ex.c ****   /* Disable the TIM Peripheral Clock */
 250:Drivers/STM32L4xx_HAL_Driver/Src/stm32l4xx_hal_tim_ex.c ****   __HAL_TIM_DISABLE(htim);
 294              		.loc 1 250 3
 295 0010 7B68     		ldr	r3, [r7, #4]
 296 0012 1B68     		ldr	r3, [r3]
 297 0014 1A6A     		ldr	r2, [r3, #32]
 298 0016 41F21113 		movw	r3, #4369
 299 001a 1340     		ands	r3, r3, r2
 300 001c 002B     		cmp	r3, #0
 301 001e 0FD1     		bne	.L7
 302              		.loc 1 250 3 is_stmt 0 discriminator 1
 303 0020 7B68     		ldr	r3, [r7, #4]
 304 0022 1B68     		ldr	r3, [r3]
 305 0024 1A6A     		ldr	r2, [r3, #32]
 306 0026 40F24443 		movw	r3, #1092
 307 002a 1340     		ands	r3, r3, r2
 308 002c 002B     		cmp	r3, #0
 309 002e 07D1     		bne	.L7
 310              		.loc 1 250 3 discriminator 2
 311 0030 7B68     		ldr	r3, [r7, #4]
 312 0032 1B68     		ldr	r3, [r3]
 313 0034 1A68     		ldr	r2, [r3]
 314 0036 7B68     		ldr	r3, [r7, #4]
 315 0038 1B68     		ldr	r3, [r3]
 316 003a 22F00102 		bic	r2, r2, #1
 317 003e 1A60     		str	r2, [r3]
 318              	.L7:
 251:Drivers/STM32L4xx_HAL_Driver/Src/stm32l4xx_hal_tim_ex.c **** 
 252:Drivers/STM32L4xx_HAL_Driver/Src/stm32l4xx_hal_tim_ex.c **** #if (USE_HAL_TIM_REGISTER_CALLBACKS == 1)
 253:Drivers/STM32L4xx_HAL_Driver/Src/stm32l4xx_hal_tim_ex.c ****   if (htim->HallSensor_MspDeInitCallback == NULL)
 254:Drivers/STM32L4xx_HAL_Driver/Src/stm32l4xx_hal_tim_ex.c ****   {
 255:Drivers/STM32L4xx_HAL_Driver/Src/stm32l4xx_hal_tim_ex.c ****     htim->HallSensor_MspDeInitCallback = HAL_TIMEx_HallSensor_MspDeInit;
ARM GAS  /tmp/ccR4xO3u.s 			page 11


 256:Drivers/STM32L4xx_HAL_Driver/Src/stm32l4xx_hal_tim_ex.c ****   }
 257:Drivers/STM32L4xx_HAL_Driver/Src/stm32l4xx_hal_tim_ex.c ****   /* DeInit the low level hardware */
 258:Drivers/STM32L4xx_HAL_Driver/Src/stm32l4xx_hal_tim_ex.c ****   htim->HallSensor_MspDeInitCallback(htim);
 259:Drivers/STM32L4xx_HAL_Driver/Src/stm32l4xx_hal_tim_ex.c **** #else
 260:Drivers/STM32L4xx_HAL_Driver/Src/stm32l4xx_hal_tim_ex.c ****   /* DeInit the low level hardware: GPIO, CLOCK, NVIC */
 261:Drivers/STM32L4xx_HAL_Driver/Src/stm32l4xx_hal_tim_ex.c ****   HAL_TIMEx_HallSensor_MspDeInit(htim);
 319              		.loc 1 261 3 is_stmt 1
 320 0040 7868     		ldr	r0, [r7, #4]
 321 0042 FFF7FEFF 		bl	HAL_TIMEx_HallSensor_MspDeInit
 262:Drivers/STM32L4xx_HAL_Driver/Src/stm32l4xx_hal_tim_ex.c **** #endif /* USE_HAL_TIM_REGISTER_CALLBACKS */
 263:Drivers/STM32L4xx_HAL_Driver/Src/stm32l4xx_hal_tim_ex.c **** 
 264:Drivers/STM32L4xx_HAL_Driver/Src/stm32l4xx_hal_tim_ex.c ****   /* Change the DMA burst operation state */
 265:Drivers/STM32L4xx_HAL_Driver/Src/stm32l4xx_hal_tim_ex.c ****   htim->DMABurstState = HAL_DMA_BURST_STATE_RESET;
 322              		.loc 1 265 23
 323 0046 7B68     		ldr	r3, [r7, #4]
 324 0048 0022     		movs	r2, #0
 325 004a 83F84820 		strb	r2, [r3, #72]
 266:Drivers/STM32L4xx_HAL_Driver/Src/stm32l4xx_hal_tim_ex.c **** 
 267:Drivers/STM32L4xx_HAL_Driver/Src/stm32l4xx_hal_tim_ex.c ****   /* Change the TIM channels state */
 268:Drivers/STM32L4xx_HAL_Driver/Src/stm32l4xx_hal_tim_ex.c ****   TIM_CHANNEL_STATE_SET(htim, TIM_CHANNEL_1, HAL_TIM_CHANNEL_STATE_RESET);
 326              		.loc 1 268 3
 327 004e 7B68     		ldr	r3, [r7, #4]
 328 0050 0022     		movs	r2, #0
 329 0052 83F83E20 		strb	r2, [r3, #62]
 269:Drivers/STM32L4xx_HAL_Driver/Src/stm32l4xx_hal_tim_ex.c ****   TIM_CHANNEL_STATE_SET(htim, TIM_CHANNEL_2, HAL_TIM_CHANNEL_STATE_RESET);
 330              		.loc 1 269 3
 331 0056 7B68     		ldr	r3, [r7, #4]
 332 0058 0022     		movs	r2, #0
 333 005a 83F83F20 		strb	r2, [r3, #63]
 270:Drivers/STM32L4xx_HAL_Driver/Src/stm32l4xx_hal_tim_ex.c ****   TIM_CHANNEL_N_STATE_SET(htim, TIM_CHANNEL_1, HAL_TIM_CHANNEL_STATE_RESET);
 334              		.loc 1 270 3
 335 005e 7B68     		ldr	r3, [r7, #4]
 336 0060 0022     		movs	r2, #0
 337 0062 83F84420 		strb	r2, [r3, #68]
 271:Drivers/STM32L4xx_HAL_Driver/Src/stm32l4xx_hal_tim_ex.c ****   TIM_CHANNEL_N_STATE_SET(htim, TIM_CHANNEL_2, HAL_TIM_CHANNEL_STATE_RESET);
 338              		.loc 1 271 3
 339 0066 7B68     		ldr	r3, [r7, #4]
 340 0068 0022     		movs	r2, #0
 341 006a 83F84520 		strb	r2, [r3, #69]
 272:Drivers/STM32L4xx_HAL_Driver/Src/stm32l4xx_hal_tim_ex.c **** 
 273:Drivers/STM32L4xx_HAL_Driver/Src/stm32l4xx_hal_tim_ex.c ****   /* Change TIM state */
 274:Drivers/STM32L4xx_HAL_Driver/Src/stm32l4xx_hal_tim_ex.c ****   htim->State = HAL_TIM_STATE_RESET;
 342              		.loc 1 274 15
 343 006e 7B68     		ldr	r3, [r7, #4]
 344 0070 0022     		movs	r2, #0
 345 0072 83F83D20 		strb	r2, [r3, #61]
 275:Drivers/STM32L4xx_HAL_Driver/Src/stm32l4xx_hal_tim_ex.c **** 
 276:Drivers/STM32L4xx_HAL_Driver/Src/stm32l4xx_hal_tim_ex.c ****   /* Release Lock */
 277:Drivers/STM32L4xx_HAL_Driver/Src/stm32l4xx_hal_tim_ex.c ****   __HAL_UNLOCK(htim);
 346              		.loc 1 277 3
 347 0076 7B68     		ldr	r3, [r7, #4]
 348 0078 0022     		movs	r2, #0
 349 007a 83F83C20 		strb	r2, [r3, #60]
 278:Drivers/STM32L4xx_HAL_Driver/Src/stm32l4xx_hal_tim_ex.c **** 
 279:Drivers/STM32L4xx_HAL_Driver/Src/stm32l4xx_hal_tim_ex.c ****   return HAL_OK;
 350              		.loc 1 279 10
 351 007e 0023     		movs	r3, #0
ARM GAS  /tmp/ccR4xO3u.s 			page 12


 280:Drivers/STM32L4xx_HAL_Driver/Src/stm32l4xx_hal_tim_ex.c **** }
 352              		.loc 1 280 1
 353 0080 1846     		mov	r0, r3
 354 0082 0837     		adds	r7, r7, #8
 355              	.LCFI8:
 356              		.cfi_def_cfa_offset 8
 357 0084 BD46     		mov	sp, r7
 358              	.LCFI9:
 359              		.cfi_def_cfa_register 13
 360              		@ sp needed
 361 0086 80BD     		pop	{r7, pc}
 362              		.cfi_endproc
 363              	.LFE133:
 365              		.section	.text.HAL_TIMEx_HallSensor_MspInit,"ax",%progbits
 366              		.align	1
 367              		.weak	HAL_TIMEx_HallSensor_MspInit
 368              		.syntax unified
 369              		.thumb
 370              		.thumb_func
 372              	HAL_TIMEx_HallSensor_MspInit:
 373              	.LFB134:
 281:Drivers/STM32L4xx_HAL_Driver/Src/stm32l4xx_hal_tim_ex.c **** 
 282:Drivers/STM32L4xx_HAL_Driver/Src/stm32l4xx_hal_tim_ex.c **** /**
 283:Drivers/STM32L4xx_HAL_Driver/Src/stm32l4xx_hal_tim_ex.c ****   * @brief  Initializes the TIM Hall Sensor MSP.
 284:Drivers/STM32L4xx_HAL_Driver/Src/stm32l4xx_hal_tim_ex.c ****   * @param  htim TIM Hall Sensor Interface handle
 285:Drivers/STM32L4xx_HAL_Driver/Src/stm32l4xx_hal_tim_ex.c ****   * @retval None
 286:Drivers/STM32L4xx_HAL_Driver/Src/stm32l4xx_hal_tim_ex.c ****   */
 287:Drivers/STM32L4xx_HAL_Driver/Src/stm32l4xx_hal_tim_ex.c **** __weak void HAL_TIMEx_HallSensor_MspInit(TIM_HandleTypeDef *htim)
 288:Drivers/STM32L4xx_HAL_Driver/Src/stm32l4xx_hal_tim_ex.c **** {
 374              		.loc 1 288 1
 375              		.cfi_startproc
 376              		@ args = 0, pretend = 0, frame = 8
 377              		@ frame_needed = 1, uses_anonymous_args = 0
 378              		@ link register save eliminated.
 379 0000 80B4     		push	{r7}
 380              	.LCFI10:
 381              		.cfi_def_cfa_offset 4
 382              		.cfi_offset 7, -4
 383 0002 83B0     		sub	sp, sp, #12
 384              	.LCFI11:
 385              		.cfi_def_cfa_offset 16
 386 0004 00AF     		add	r7, sp, #0
 387              	.LCFI12:
 388              		.cfi_def_cfa_register 7
 389 0006 7860     		str	r0, [r7, #4]
 289:Drivers/STM32L4xx_HAL_Driver/Src/stm32l4xx_hal_tim_ex.c ****   /* Prevent unused argument(s) compilation warning */
 290:Drivers/STM32L4xx_HAL_Driver/Src/stm32l4xx_hal_tim_ex.c ****   UNUSED(htim);
 291:Drivers/STM32L4xx_HAL_Driver/Src/stm32l4xx_hal_tim_ex.c **** 
 292:Drivers/STM32L4xx_HAL_Driver/Src/stm32l4xx_hal_tim_ex.c ****   /* NOTE : This function should not be modified, when the callback is needed,
 293:Drivers/STM32L4xx_HAL_Driver/Src/stm32l4xx_hal_tim_ex.c ****             the HAL_TIMEx_HallSensor_MspInit could be implemented in the user file
 294:Drivers/STM32L4xx_HAL_Driver/Src/stm32l4xx_hal_tim_ex.c ****    */
 295:Drivers/STM32L4xx_HAL_Driver/Src/stm32l4xx_hal_tim_ex.c **** }
 390              		.loc 1 295 1
 391 0008 00BF     		nop
 392 000a 0C37     		adds	r7, r7, #12
 393              	.LCFI13:
 394              		.cfi_def_cfa_offset 4
ARM GAS  /tmp/ccR4xO3u.s 			page 13


 395 000c BD46     		mov	sp, r7
 396              	.LCFI14:
 397              		.cfi_def_cfa_register 13
 398              		@ sp needed
 399 000e 5DF8047B 		ldr	r7, [sp], #4
 400              	.LCFI15:
 401              		.cfi_restore 7
 402              		.cfi_def_cfa_offset 0
 403 0012 7047     		bx	lr
 404              		.cfi_endproc
 405              	.LFE134:
 407              		.section	.text.HAL_TIMEx_HallSensor_MspDeInit,"ax",%progbits
 408              		.align	1
 409              		.weak	HAL_TIMEx_HallSensor_MspDeInit
 410              		.syntax unified
 411              		.thumb
 412              		.thumb_func
 414              	HAL_TIMEx_HallSensor_MspDeInit:
 415              	.LFB135:
 296:Drivers/STM32L4xx_HAL_Driver/Src/stm32l4xx_hal_tim_ex.c **** 
 297:Drivers/STM32L4xx_HAL_Driver/Src/stm32l4xx_hal_tim_ex.c **** /**
 298:Drivers/STM32L4xx_HAL_Driver/Src/stm32l4xx_hal_tim_ex.c ****   * @brief  DeInitializes TIM Hall Sensor MSP.
 299:Drivers/STM32L4xx_HAL_Driver/Src/stm32l4xx_hal_tim_ex.c ****   * @param  htim TIM Hall Sensor Interface handle
 300:Drivers/STM32L4xx_HAL_Driver/Src/stm32l4xx_hal_tim_ex.c ****   * @retval None
 301:Drivers/STM32L4xx_HAL_Driver/Src/stm32l4xx_hal_tim_ex.c ****   */
 302:Drivers/STM32L4xx_HAL_Driver/Src/stm32l4xx_hal_tim_ex.c **** __weak void HAL_TIMEx_HallSensor_MspDeInit(TIM_HandleTypeDef *htim)
 303:Drivers/STM32L4xx_HAL_Driver/Src/stm32l4xx_hal_tim_ex.c **** {
 416              		.loc 1 303 1
 417              		.cfi_startproc
 418              		@ args = 0, pretend = 0, frame = 8
 419              		@ frame_needed = 1, uses_anonymous_args = 0
 420              		@ link register save eliminated.
 421 0000 80B4     		push	{r7}
 422              	.LCFI16:
 423              		.cfi_def_cfa_offset 4
 424              		.cfi_offset 7, -4
 425 0002 83B0     		sub	sp, sp, #12
 426              	.LCFI17:
 427              		.cfi_def_cfa_offset 16
 428 0004 00AF     		add	r7, sp, #0
 429              	.LCFI18:
 430              		.cfi_def_cfa_register 7
 431 0006 7860     		str	r0, [r7, #4]
 304:Drivers/STM32L4xx_HAL_Driver/Src/stm32l4xx_hal_tim_ex.c ****   /* Prevent unused argument(s) compilation warning */
 305:Drivers/STM32L4xx_HAL_Driver/Src/stm32l4xx_hal_tim_ex.c ****   UNUSED(htim);
 306:Drivers/STM32L4xx_HAL_Driver/Src/stm32l4xx_hal_tim_ex.c **** 
 307:Drivers/STM32L4xx_HAL_Driver/Src/stm32l4xx_hal_tim_ex.c ****   /* NOTE : This function should not be modified, when the callback is needed,
 308:Drivers/STM32L4xx_HAL_Driver/Src/stm32l4xx_hal_tim_ex.c ****             the HAL_TIMEx_HallSensor_MspDeInit could be implemented in the user file
 309:Drivers/STM32L4xx_HAL_Driver/Src/stm32l4xx_hal_tim_ex.c ****    */
 310:Drivers/STM32L4xx_HAL_Driver/Src/stm32l4xx_hal_tim_ex.c **** }
 432              		.loc 1 310 1
 433 0008 00BF     		nop
 434 000a 0C37     		adds	r7, r7, #12
 435              	.LCFI19:
 436              		.cfi_def_cfa_offset 4
 437 000c BD46     		mov	sp, r7
 438              	.LCFI20:
ARM GAS  /tmp/ccR4xO3u.s 			page 14


 439              		.cfi_def_cfa_register 13
 440              		@ sp needed
 441 000e 5DF8047B 		ldr	r7, [sp], #4
 442              	.LCFI21:
 443              		.cfi_restore 7
 444              		.cfi_def_cfa_offset 0
 445 0012 7047     		bx	lr
 446              		.cfi_endproc
 447              	.LFE135:
 449              		.section	.text.HAL_TIMEx_HallSensor_Start,"ax",%progbits
 450              		.align	1
 451              		.global	HAL_TIMEx_HallSensor_Start
 452              		.syntax unified
 453              		.thumb
 454              		.thumb_func
 456              	HAL_TIMEx_HallSensor_Start:
 457              	.LFB136:
 311:Drivers/STM32L4xx_HAL_Driver/Src/stm32l4xx_hal_tim_ex.c **** 
 312:Drivers/STM32L4xx_HAL_Driver/Src/stm32l4xx_hal_tim_ex.c **** /**
 313:Drivers/STM32L4xx_HAL_Driver/Src/stm32l4xx_hal_tim_ex.c ****   * @brief  Starts the TIM Hall Sensor Interface.
 314:Drivers/STM32L4xx_HAL_Driver/Src/stm32l4xx_hal_tim_ex.c ****   * @param  htim TIM Hall Sensor Interface handle
 315:Drivers/STM32L4xx_HAL_Driver/Src/stm32l4xx_hal_tim_ex.c ****   * @retval HAL status
 316:Drivers/STM32L4xx_HAL_Driver/Src/stm32l4xx_hal_tim_ex.c ****   */
 317:Drivers/STM32L4xx_HAL_Driver/Src/stm32l4xx_hal_tim_ex.c **** HAL_StatusTypeDef HAL_TIMEx_HallSensor_Start(TIM_HandleTypeDef *htim)
 318:Drivers/STM32L4xx_HAL_Driver/Src/stm32l4xx_hal_tim_ex.c **** {
 458              		.loc 1 318 1
 459              		.cfi_startproc
 460              		@ args = 0, pretend = 0, frame = 16
 461              		@ frame_needed = 1, uses_anonymous_args = 0
 462 0000 80B5     		push	{r7, lr}
 463              	.LCFI22:
 464              		.cfi_def_cfa_offset 8
 465              		.cfi_offset 7, -8
 466              		.cfi_offset 14, -4
 467 0002 84B0     		sub	sp, sp, #16
 468              	.LCFI23:
 469              		.cfi_def_cfa_offset 24
 470 0004 00AF     		add	r7, sp, #0
 471              	.LCFI24:
 472              		.cfi_def_cfa_register 7
 473 0006 7860     		str	r0, [r7, #4]
 319:Drivers/STM32L4xx_HAL_Driver/Src/stm32l4xx_hal_tim_ex.c ****   uint32_t tmpsmcr;
 320:Drivers/STM32L4xx_HAL_Driver/Src/stm32l4xx_hal_tim_ex.c ****   HAL_TIM_ChannelStateTypeDef channel_1_state = TIM_CHANNEL_STATE_GET(htim, TIM_CHANNEL_1);
 474              		.loc 1 320 31
 475 0008 7B68     		ldr	r3, [r7, #4]
 476 000a 93F83E30 		ldrb	r3, [r3, #62]
 477 000e FB73     		strb	r3, [r7, #15]
 321:Drivers/STM32L4xx_HAL_Driver/Src/stm32l4xx_hal_tim_ex.c ****   HAL_TIM_ChannelStateTypeDef channel_2_state = TIM_CHANNEL_STATE_GET(htim, TIM_CHANNEL_2);
 478              		.loc 1 321 31
 479 0010 7B68     		ldr	r3, [r7, #4]
 480 0012 93F83F30 		ldrb	r3, [r3, #63]
 481 0016 BB73     		strb	r3, [r7, #14]
 322:Drivers/STM32L4xx_HAL_Driver/Src/stm32l4xx_hal_tim_ex.c ****   HAL_TIM_ChannelStateTypeDef complementary_channel_1_state = TIM_CHANNEL_N_STATE_GET(htim, TIM_CHA
 482              		.loc 1 322 31
 483 0018 7B68     		ldr	r3, [r7, #4]
 484 001a 93F84430 		ldrb	r3, [r3, #68]
 485 001e 7B73     		strb	r3, [r7, #13]
ARM GAS  /tmp/ccR4xO3u.s 			page 15


 323:Drivers/STM32L4xx_HAL_Driver/Src/stm32l4xx_hal_tim_ex.c ****   HAL_TIM_ChannelStateTypeDef complementary_channel_2_state = TIM_CHANNEL_N_STATE_GET(htim, TIM_CHA
 486              		.loc 1 323 31
 487 0020 7B68     		ldr	r3, [r7, #4]
 488 0022 93F84530 		ldrb	r3, [r3, #69]
 489 0026 3B73     		strb	r3, [r7, #12]
 324:Drivers/STM32L4xx_HAL_Driver/Src/stm32l4xx_hal_tim_ex.c **** 
 325:Drivers/STM32L4xx_HAL_Driver/Src/stm32l4xx_hal_tim_ex.c ****   /* Check the parameters */
 326:Drivers/STM32L4xx_HAL_Driver/Src/stm32l4xx_hal_tim_ex.c ****   assert_param(IS_TIM_HALL_SENSOR_INTERFACE_INSTANCE(htim->Instance));
 327:Drivers/STM32L4xx_HAL_Driver/Src/stm32l4xx_hal_tim_ex.c **** 
 328:Drivers/STM32L4xx_HAL_Driver/Src/stm32l4xx_hal_tim_ex.c ****   /* Check the TIM channels state */
 329:Drivers/STM32L4xx_HAL_Driver/Src/stm32l4xx_hal_tim_ex.c ****   if ((channel_1_state != HAL_TIM_CHANNEL_STATE_READY)
 490              		.loc 1 329 6
 491 0028 FB7B     		ldrb	r3, [r7, #15]	@ zero_extendqisi2
 492 002a 012B     		cmp	r3, #1
 493 002c 08D1     		bne	.L12
 330:Drivers/STM32L4xx_HAL_Driver/Src/stm32l4xx_hal_tim_ex.c ****       || (channel_2_state != HAL_TIM_CHANNEL_STATE_READY)
 494              		.loc 1 330 7
 495 002e BB7B     		ldrb	r3, [r7, #14]	@ zero_extendqisi2
 496 0030 012B     		cmp	r3, #1
 497 0032 05D1     		bne	.L12
 331:Drivers/STM32L4xx_HAL_Driver/Src/stm32l4xx_hal_tim_ex.c ****       || (complementary_channel_1_state != HAL_TIM_CHANNEL_STATE_READY)
 498              		.loc 1 331 7
 499 0034 7B7B     		ldrb	r3, [r7, #13]	@ zero_extendqisi2
 500 0036 012B     		cmp	r3, #1
 501 0038 02D1     		bne	.L12
 332:Drivers/STM32L4xx_HAL_Driver/Src/stm32l4xx_hal_tim_ex.c ****       || (complementary_channel_2_state != HAL_TIM_CHANNEL_STATE_READY))
 502              		.loc 1 332 7
 503 003a 3B7B     		ldrb	r3, [r7, #12]	@ zero_extendqisi2
 504 003c 012B     		cmp	r3, #1
 505 003e 01D0     		beq	.L13
 506              	.L12:
 333:Drivers/STM32L4xx_HAL_Driver/Src/stm32l4xx_hal_tim_ex.c ****   {
 334:Drivers/STM32L4xx_HAL_Driver/Src/stm32l4xx_hal_tim_ex.c ****     return HAL_ERROR;
 507              		.loc 1 334 12
 508 0040 0123     		movs	r3, #1
 509 0042 46E0     		b	.L14
 510              	.L13:
 335:Drivers/STM32L4xx_HAL_Driver/Src/stm32l4xx_hal_tim_ex.c ****   }
 336:Drivers/STM32L4xx_HAL_Driver/Src/stm32l4xx_hal_tim_ex.c **** 
 337:Drivers/STM32L4xx_HAL_Driver/Src/stm32l4xx_hal_tim_ex.c ****   /* Set the TIM channels state */
 338:Drivers/STM32L4xx_HAL_Driver/Src/stm32l4xx_hal_tim_ex.c ****   TIM_CHANNEL_STATE_SET(htim, TIM_CHANNEL_1, HAL_TIM_CHANNEL_STATE_BUSY);
 511              		.loc 1 338 3
 512 0044 7B68     		ldr	r3, [r7, #4]
 513 0046 0222     		movs	r2, #2
 514 0048 83F83E20 		strb	r2, [r3, #62]
 339:Drivers/STM32L4xx_HAL_Driver/Src/stm32l4xx_hal_tim_ex.c ****   TIM_CHANNEL_STATE_SET(htim, TIM_CHANNEL_2, HAL_TIM_CHANNEL_STATE_BUSY);
 515              		.loc 1 339 3
 516 004c 7B68     		ldr	r3, [r7, #4]
 517 004e 0222     		movs	r2, #2
 518 0050 83F83F20 		strb	r2, [r3, #63]
 340:Drivers/STM32L4xx_HAL_Driver/Src/stm32l4xx_hal_tim_ex.c ****   TIM_CHANNEL_N_STATE_SET(htim, TIM_CHANNEL_1, HAL_TIM_CHANNEL_STATE_BUSY);
 519              		.loc 1 340 3
 520 0054 7B68     		ldr	r3, [r7, #4]
 521 0056 0222     		movs	r2, #2
 522 0058 83F84420 		strb	r2, [r3, #68]
 341:Drivers/STM32L4xx_HAL_Driver/Src/stm32l4xx_hal_tim_ex.c ****   TIM_CHANNEL_N_STATE_SET(htim, TIM_CHANNEL_2, HAL_TIM_CHANNEL_STATE_BUSY);
 523              		.loc 1 341 3
ARM GAS  /tmp/ccR4xO3u.s 			page 16


 524 005c 7B68     		ldr	r3, [r7, #4]
 525 005e 0222     		movs	r2, #2
 526 0060 83F84520 		strb	r2, [r3, #69]
 342:Drivers/STM32L4xx_HAL_Driver/Src/stm32l4xx_hal_tim_ex.c **** 
 343:Drivers/STM32L4xx_HAL_Driver/Src/stm32l4xx_hal_tim_ex.c ****   /* Enable the Input Capture channel 1
 344:Drivers/STM32L4xx_HAL_Driver/Src/stm32l4xx_hal_tim_ex.c ****   (in the Hall Sensor Interface the three possible channels that can be used are TIM_CHANNEL_1,
 345:Drivers/STM32L4xx_HAL_Driver/Src/stm32l4xx_hal_tim_ex.c ****   TIM_CHANNEL_2 and TIM_CHANNEL_3) */
 346:Drivers/STM32L4xx_HAL_Driver/Src/stm32l4xx_hal_tim_ex.c ****   TIM_CCxChannelCmd(htim->Instance, TIM_CHANNEL_1, TIM_CCx_ENABLE);
 527              		.loc 1 346 3
 528 0064 7B68     		ldr	r3, [r7, #4]
 529 0066 1B68     		ldr	r3, [r3]
 530 0068 0122     		movs	r2, #1
 531 006a 0021     		movs	r1, #0
 532 006c 1846     		mov	r0, r3
 533 006e FFF7FEFF 		bl	TIM_CCxChannelCmd
 347:Drivers/STM32L4xx_HAL_Driver/Src/stm32l4xx_hal_tim_ex.c **** 
 348:Drivers/STM32L4xx_HAL_Driver/Src/stm32l4xx_hal_tim_ex.c ****   /* Enable the Peripheral, except in trigger mode where enable is automatically done with trigger 
 349:Drivers/STM32L4xx_HAL_Driver/Src/stm32l4xx_hal_tim_ex.c ****   if (IS_TIM_SLAVE_INSTANCE(htim->Instance))
 534              		.loc 1 349 7
 535 0072 7B68     		ldr	r3, [r7, #4]
 536 0074 1B68     		ldr	r3, [r3]
 537              		.loc 1 349 6
 538 0076 194A     		ldr	r2, .L20
 539 0078 9342     		cmp	r3, r2
 540 007a 09D0     		beq	.L15
 541              		.loc 1 349 7 discriminator 1
 542 007c 7B68     		ldr	r3, [r7, #4]
 543 007e 1B68     		ldr	r3, [r3]
 544 0080 B3F1804F 		cmp	r3, #1073741824
 545 0084 04D0     		beq	.L15
 546              		.loc 1 349 7 is_stmt 0 discriminator 2
 547 0086 7B68     		ldr	r3, [r7, #4]
 548 0088 1B68     		ldr	r3, [r3]
 549 008a 154A     		ldr	r2, .L20+4
 550 008c 9342     		cmp	r3, r2
 551 008e 15D1     		bne	.L16
 552              	.L15:
 350:Drivers/STM32L4xx_HAL_Driver/Src/stm32l4xx_hal_tim_ex.c ****   {
 351:Drivers/STM32L4xx_HAL_Driver/Src/stm32l4xx_hal_tim_ex.c ****     tmpsmcr = htim->Instance->SMCR & TIM_SMCR_SMS;
 553              		.loc 1 351 19 is_stmt 1
 554 0090 7B68     		ldr	r3, [r7, #4]
 555 0092 1B68     		ldr	r3, [r3]
 556              		.loc 1 351 29
 557 0094 9A68     		ldr	r2, [r3, #8]
 558              		.loc 1 351 13
 559 0096 134B     		ldr	r3, .L20+8
 560 0098 1340     		ands	r3, r3, r2
 561 009a BB60     		str	r3, [r7, #8]
 352:Drivers/STM32L4xx_HAL_Driver/Src/stm32l4xx_hal_tim_ex.c ****     if (!IS_TIM_SLAVEMODE_TRIGGER_ENABLED(tmpsmcr))
 562              		.loc 1 352 8
 563 009c BB68     		ldr	r3, [r7, #8]
 564 009e 062B     		cmp	r3, #6
 565 00a0 15D0     		beq	.L19
 566              		.loc 1 352 9 discriminator 1
 567 00a2 BB68     		ldr	r3, [r7, #8]
 568 00a4 B3F5803F 		cmp	r3, #65536
 569 00a8 11D0     		beq	.L19
ARM GAS  /tmp/ccR4xO3u.s 			page 17


 353:Drivers/STM32L4xx_HAL_Driver/Src/stm32l4xx_hal_tim_ex.c ****     {
 354:Drivers/STM32L4xx_HAL_Driver/Src/stm32l4xx_hal_tim_ex.c ****       __HAL_TIM_ENABLE(htim);
 570              		.loc 1 354 7
 571 00aa 7B68     		ldr	r3, [r7, #4]
 572 00ac 1B68     		ldr	r3, [r3]
 573 00ae 1A68     		ldr	r2, [r3]
 574 00b0 7B68     		ldr	r3, [r7, #4]
 575 00b2 1B68     		ldr	r3, [r3]
 576 00b4 42F00102 		orr	r2, r2, #1
 577 00b8 1A60     		str	r2, [r3]
 352:Drivers/STM32L4xx_HAL_Driver/Src/stm32l4xx_hal_tim_ex.c ****     if (!IS_TIM_SLAVEMODE_TRIGGER_ENABLED(tmpsmcr))
 578              		.loc 1 352 8
 579 00ba 08E0     		b	.L19
 580              	.L16:
 355:Drivers/STM32L4xx_HAL_Driver/Src/stm32l4xx_hal_tim_ex.c ****     }
 356:Drivers/STM32L4xx_HAL_Driver/Src/stm32l4xx_hal_tim_ex.c ****   }
 357:Drivers/STM32L4xx_HAL_Driver/Src/stm32l4xx_hal_tim_ex.c ****   else
 358:Drivers/STM32L4xx_HAL_Driver/Src/stm32l4xx_hal_tim_ex.c ****   {
 359:Drivers/STM32L4xx_HAL_Driver/Src/stm32l4xx_hal_tim_ex.c ****     __HAL_TIM_ENABLE(htim);
 581              		.loc 1 359 5
 582 00bc 7B68     		ldr	r3, [r7, #4]
 583 00be 1B68     		ldr	r3, [r3]
 584 00c0 1A68     		ldr	r2, [r3]
 585 00c2 7B68     		ldr	r3, [r7, #4]
 586 00c4 1B68     		ldr	r3, [r3]
 587 00c6 42F00102 		orr	r2, r2, #1
 588 00ca 1A60     		str	r2, [r3]
 589 00cc 00E0     		b	.L18
 590              	.L19:
 352:Drivers/STM32L4xx_HAL_Driver/Src/stm32l4xx_hal_tim_ex.c ****     {
 591              		.loc 1 352 8
 592 00ce 00BF     		nop
 593              	.L18:
 360:Drivers/STM32L4xx_HAL_Driver/Src/stm32l4xx_hal_tim_ex.c ****   }
 361:Drivers/STM32L4xx_HAL_Driver/Src/stm32l4xx_hal_tim_ex.c **** 
 362:Drivers/STM32L4xx_HAL_Driver/Src/stm32l4xx_hal_tim_ex.c ****   /* Return function status */
 363:Drivers/STM32L4xx_HAL_Driver/Src/stm32l4xx_hal_tim_ex.c ****   return HAL_OK;
 594              		.loc 1 363 10
 595 00d0 0023     		movs	r3, #0
 596              	.L14:
 364:Drivers/STM32L4xx_HAL_Driver/Src/stm32l4xx_hal_tim_ex.c **** }
 597              		.loc 1 364 1
 598 00d2 1846     		mov	r0, r3
 599 00d4 1037     		adds	r7, r7, #16
 600              	.LCFI25:
 601              		.cfi_def_cfa_offset 8
 602 00d6 BD46     		mov	sp, r7
 603              	.LCFI26:
 604              		.cfi_def_cfa_register 13
 605              		@ sp needed
 606 00d8 80BD     		pop	{r7, pc}
 607              	.L21:
 608 00da 00BF     		.align	2
 609              	.L20:
 610 00dc 002C0140 		.word	1073818624
 611 00e0 00400140 		.word	1073823744
 612 00e4 07000100 		.word	65543
ARM GAS  /tmp/ccR4xO3u.s 			page 18


 613              		.cfi_endproc
 614              	.LFE136:
 616              		.section	.text.HAL_TIMEx_HallSensor_Stop,"ax",%progbits
 617              		.align	1
 618              		.global	HAL_TIMEx_HallSensor_Stop
 619              		.syntax unified
 620              		.thumb
 621              		.thumb_func
 623              	HAL_TIMEx_HallSensor_Stop:
 624              	.LFB137:
 365:Drivers/STM32L4xx_HAL_Driver/Src/stm32l4xx_hal_tim_ex.c **** 
 366:Drivers/STM32L4xx_HAL_Driver/Src/stm32l4xx_hal_tim_ex.c **** /**
 367:Drivers/STM32L4xx_HAL_Driver/Src/stm32l4xx_hal_tim_ex.c ****   * @brief  Stops the TIM Hall sensor Interface.
 368:Drivers/STM32L4xx_HAL_Driver/Src/stm32l4xx_hal_tim_ex.c ****   * @param  htim TIM Hall Sensor Interface handle
 369:Drivers/STM32L4xx_HAL_Driver/Src/stm32l4xx_hal_tim_ex.c ****   * @retval HAL status
 370:Drivers/STM32L4xx_HAL_Driver/Src/stm32l4xx_hal_tim_ex.c ****   */
 371:Drivers/STM32L4xx_HAL_Driver/Src/stm32l4xx_hal_tim_ex.c **** HAL_StatusTypeDef HAL_TIMEx_HallSensor_Stop(TIM_HandleTypeDef *htim)
 372:Drivers/STM32L4xx_HAL_Driver/Src/stm32l4xx_hal_tim_ex.c **** {
 625              		.loc 1 372 1
 626              		.cfi_startproc
 627              		@ args = 0, pretend = 0, frame = 8
 628              		@ frame_needed = 1, uses_anonymous_args = 0
 629 0000 80B5     		push	{r7, lr}
 630              	.LCFI27:
 631              		.cfi_def_cfa_offset 8
 632              		.cfi_offset 7, -8
 633              		.cfi_offset 14, -4
 634 0002 82B0     		sub	sp, sp, #8
 635              	.LCFI28:
 636              		.cfi_def_cfa_offset 16
 637 0004 00AF     		add	r7, sp, #0
 638              	.LCFI29:
 639              		.cfi_def_cfa_register 7
 640 0006 7860     		str	r0, [r7, #4]
 373:Drivers/STM32L4xx_HAL_Driver/Src/stm32l4xx_hal_tim_ex.c ****   /* Check the parameters */
 374:Drivers/STM32L4xx_HAL_Driver/Src/stm32l4xx_hal_tim_ex.c ****   assert_param(IS_TIM_HALL_SENSOR_INTERFACE_INSTANCE(htim->Instance));
 375:Drivers/STM32L4xx_HAL_Driver/Src/stm32l4xx_hal_tim_ex.c **** 
 376:Drivers/STM32L4xx_HAL_Driver/Src/stm32l4xx_hal_tim_ex.c ****   /* Disable the Input Capture channels 1, 2 and 3
 377:Drivers/STM32L4xx_HAL_Driver/Src/stm32l4xx_hal_tim_ex.c ****   (in the Hall Sensor Interface the three possible channels that can be used are TIM_CHANNEL_1,
 378:Drivers/STM32L4xx_HAL_Driver/Src/stm32l4xx_hal_tim_ex.c ****   TIM_CHANNEL_2 and TIM_CHANNEL_3) */
 379:Drivers/STM32L4xx_HAL_Driver/Src/stm32l4xx_hal_tim_ex.c ****   TIM_CCxChannelCmd(htim->Instance, TIM_CHANNEL_1, TIM_CCx_DISABLE);
 641              		.loc 1 379 3
 642 0008 7B68     		ldr	r3, [r7, #4]
 643 000a 1B68     		ldr	r3, [r3]
 644 000c 0022     		movs	r2, #0
 645 000e 0021     		movs	r1, #0
 646 0010 1846     		mov	r0, r3
 647 0012 FFF7FEFF 		bl	TIM_CCxChannelCmd
 380:Drivers/STM32L4xx_HAL_Driver/Src/stm32l4xx_hal_tim_ex.c **** 
 381:Drivers/STM32L4xx_HAL_Driver/Src/stm32l4xx_hal_tim_ex.c ****   /* Disable the Peripheral */
 382:Drivers/STM32L4xx_HAL_Driver/Src/stm32l4xx_hal_tim_ex.c ****   __HAL_TIM_DISABLE(htim);
 648              		.loc 1 382 3
 649 0016 7B68     		ldr	r3, [r7, #4]
 650 0018 1B68     		ldr	r3, [r3]
 651 001a 1A6A     		ldr	r2, [r3, #32]
 652 001c 41F21113 		movw	r3, #4369
 653 0020 1340     		ands	r3, r3, r2
ARM GAS  /tmp/ccR4xO3u.s 			page 19


 654 0022 002B     		cmp	r3, #0
 655 0024 0FD1     		bne	.L23
 656              		.loc 1 382 3 is_stmt 0 discriminator 1
 657 0026 7B68     		ldr	r3, [r7, #4]
 658 0028 1B68     		ldr	r3, [r3]
 659 002a 1A6A     		ldr	r2, [r3, #32]
 660 002c 40F24443 		movw	r3, #1092
 661 0030 1340     		ands	r3, r3, r2
 662 0032 002B     		cmp	r3, #0
 663 0034 07D1     		bne	.L23
 664              		.loc 1 382 3 discriminator 2
 665 0036 7B68     		ldr	r3, [r7, #4]
 666 0038 1B68     		ldr	r3, [r3]
 667 003a 1A68     		ldr	r2, [r3]
 668 003c 7B68     		ldr	r3, [r7, #4]
 669 003e 1B68     		ldr	r3, [r3]
 670 0040 22F00102 		bic	r2, r2, #1
 671 0044 1A60     		str	r2, [r3]
 672              	.L23:
 383:Drivers/STM32L4xx_HAL_Driver/Src/stm32l4xx_hal_tim_ex.c **** 
 384:Drivers/STM32L4xx_HAL_Driver/Src/stm32l4xx_hal_tim_ex.c ****   /* Set the TIM channels state */
 385:Drivers/STM32L4xx_HAL_Driver/Src/stm32l4xx_hal_tim_ex.c ****   TIM_CHANNEL_STATE_SET(htim, TIM_CHANNEL_1, HAL_TIM_CHANNEL_STATE_READY);
 673              		.loc 1 385 3 is_stmt 1
 674 0046 7B68     		ldr	r3, [r7, #4]
 675 0048 0122     		movs	r2, #1
 676 004a 83F83E20 		strb	r2, [r3, #62]
 386:Drivers/STM32L4xx_HAL_Driver/Src/stm32l4xx_hal_tim_ex.c ****   TIM_CHANNEL_STATE_SET(htim, TIM_CHANNEL_2, HAL_TIM_CHANNEL_STATE_READY);
 677              		.loc 1 386 3
 678 004e 7B68     		ldr	r3, [r7, #4]
 679 0050 0122     		movs	r2, #1
 680 0052 83F83F20 		strb	r2, [r3, #63]
 387:Drivers/STM32L4xx_HAL_Driver/Src/stm32l4xx_hal_tim_ex.c ****   TIM_CHANNEL_N_STATE_SET(htim, TIM_CHANNEL_1, HAL_TIM_CHANNEL_STATE_READY);
 681              		.loc 1 387 3
 682 0056 7B68     		ldr	r3, [r7, #4]
 683 0058 0122     		movs	r2, #1
 684 005a 83F84420 		strb	r2, [r3, #68]
 388:Drivers/STM32L4xx_HAL_Driver/Src/stm32l4xx_hal_tim_ex.c ****   TIM_CHANNEL_N_STATE_SET(htim, TIM_CHANNEL_2, HAL_TIM_CHANNEL_STATE_READY);
 685              		.loc 1 388 3
 686 005e 7B68     		ldr	r3, [r7, #4]
 687 0060 0122     		movs	r2, #1
 688 0062 83F84520 		strb	r2, [r3, #69]
 389:Drivers/STM32L4xx_HAL_Driver/Src/stm32l4xx_hal_tim_ex.c **** 
 390:Drivers/STM32L4xx_HAL_Driver/Src/stm32l4xx_hal_tim_ex.c ****   /* Return function status */
 391:Drivers/STM32L4xx_HAL_Driver/Src/stm32l4xx_hal_tim_ex.c ****   return HAL_OK;
 689              		.loc 1 391 10
 690 0066 0023     		movs	r3, #0
 392:Drivers/STM32L4xx_HAL_Driver/Src/stm32l4xx_hal_tim_ex.c **** }
 691              		.loc 1 392 1
 692 0068 1846     		mov	r0, r3
 693 006a 0837     		adds	r7, r7, #8
 694              	.LCFI30:
 695              		.cfi_def_cfa_offset 8
 696 006c BD46     		mov	sp, r7
 697              	.LCFI31:
 698              		.cfi_def_cfa_register 13
 699              		@ sp needed
 700 006e 80BD     		pop	{r7, pc}
ARM GAS  /tmp/ccR4xO3u.s 			page 20


 701              		.cfi_endproc
 702              	.LFE137:
 704              		.section	.text.HAL_TIMEx_HallSensor_Start_IT,"ax",%progbits
 705              		.align	1
 706              		.global	HAL_TIMEx_HallSensor_Start_IT
 707              		.syntax unified
 708              		.thumb
 709              		.thumb_func
 711              	HAL_TIMEx_HallSensor_Start_IT:
 712              	.LFB138:
 393:Drivers/STM32L4xx_HAL_Driver/Src/stm32l4xx_hal_tim_ex.c **** 
 394:Drivers/STM32L4xx_HAL_Driver/Src/stm32l4xx_hal_tim_ex.c **** /**
 395:Drivers/STM32L4xx_HAL_Driver/Src/stm32l4xx_hal_tim_ex.c ****   * @brief  Starts the TIM Hall Sensor Interface in interrupt mode.
 396:Drivers/STM32L4xx_HAL_Driver/Src/stm32l4xx_hal_tim_ex.c ****   * @param  htim TIM Hall Sensor Interface handle
 397:Drivers/STM32L4xx_HAL_Driver/Src/stm32l4xx_hal_tim_ex.c ****   * @retval HAL status
 398:Drivers/STM32L4xx_HAL_Driver/Src/stm32l4xx_hal_tim_ex.c ****   */
 399:Drivers/STM32L4xx_HAL_Driver/Src/stm32l4xx_hal_tim_ex.c **** HAL_StatusTypeDef HAL_TIMEx_HallSensor_Start_IT(TIM_HandleTypeDef *htim)
 400:Drivers/STM32L4xx_HAL_Driver/Src/stm32l4xx_hal_tim_ex.c **** {
 713              		.loc 1 400 1
 714              		.cfi_startproc
 715              		@ args = 0, pretend = 0, frame = 16
 716              		@ frame_needed = 1, uses_anonymous_args = 0
 717 0000 80B5     		push	{r7, lr}
 718              	.LCFI32:
 719              		.cfi_def_cfa_offset 8
 720              		.cfi_offset 7, -8
 721              		.cfi_offset 14, -4
 722 0002 84B0     		sub	sp, sp, #16
 723              	.LCFI33:
 724              		.cfi_def_cfa_offset 24
 725 0004 00AF     		add	r7, sp, #0
 726              	.LCFI34:
 727              		.cfi_def_cfa_register 7
 728 0006 7860     		str	r0, [r7, #4]
 401:Drivers/STM32L4xx_HAL_Driver/Src/stm32l4xx_hal_tim_ex.c ****   uint32_t tmpsmcr;
 402:Drivers/STM32L4xx_HAL_Driver/Src/stm32l4xx_hal_tim_ex.c ****   HAL_TIM_ChannelStateTypeDef channel_1_state = TIM_CHANNEL_STATE_GET(htim, TIM_CHANNEL_1);
 729              		.loc 1 402 31
 730 0008 7B68     		ldr	r3, [r7, #4]
 731 000a 93F83E30 		ldrb	r3, [r3, #62]
 732 000e FB73     		strb	r3, [r7, #15]
 403:Drivers/STM32L4xx_HAL_Driver/Src/stm32l4xx_hal_tim_ex.c ****   HAL_TIM_ChannelStateTypeDef channel_2_state = TIM_CHANNEL_STATE_GET(htim, TIM_CHANNEL_2);
 733              		.loc 1 403 31
 734 0010 7B68     		ldr	r3, [r7, #4]
 735 0012 93F83F30 		ldrb	r3, [r3, #63]
 736 0016 BB73     		strb	r3, [r7, #14]
 404:Drivers/STM32L4xx_HAL_Driver/Src/stm32l4xx_hal_tim_ex.c ****   HAL_TIM_ChannelStateTypeDef complementary_channel_1_state = TIM_CHANNEL_N_STATE_GET(htim, TIM_CHA
 737              		.loc 1 404 31
 738 0018 7B68     		ldr	r3, [r7, #4]
 739 001a 93F84430 		ldrb	r3, [r3, #68]
 740 001e 7B73     		strb	r3, [r7, #13]
 405:Drivers/STM32L4xx_HAL_Driver/Src/stm32l4xx_hal_tim_ex.c ****   HAL_TIM_ChannelStateTypeDef complementary_channel_2_state = TIM_CHANNEL_N_STATE_GET(htim, TIM_CHA
 741              		.loc 1 405 31
 742 0020 7B68     		ldr	r3, [r7, #4]
 743 0022 93F84530 		ldrb	r3, [r3, #69]
 744 0026 3B73     		strb	r3, [r7, #12]
 406:Drivers/STM32L4xx_HAL_Driver/Src/stm32l4xx_hal_tim_ex.c **** 
 407:Drivers/STM32L4xx_HAL_Driver/Src/stm32l4xx_hal_tim_ex.c ****   /* Check the parameters */
ARM GAS  /tmp/ccR4xO3u.s 			page 21


 408:Drivers/STM32L4xx_HAL_Driver/Src/stm32l4xx_hal_tim_ex.c ****   assert_param(IS_TIM_HALL_SENSOR_INTERFACE_INSTANCE(htim->Instance));
 409:Drivers/STM32L4xx_HAL_Driver/Src/stm32l4xx_hal_tim_ex.c **** 
 410:Drivers/STM32L4xx_HAL_Driver/Src/stm32l4xx_hal_tim_ex.c ****   /* Check the TIM channels state */
 411:Drivers/STM32L4xx_HAL_Driver/Src/stm32l4xx_hal_tim_ex.c ****   if ((channel_1_state != HAL_TIM_CHANNEL_STATE_READY)
 745              		.loc 1 411 6
 746 0028 FB7B     		ldrb	r3, [r7, #15]	@ zero_extendqisi2
 747 002a 012B     		cmp	r3, #1
 748 002c 08D1     		bne	.L26
 412:Drivers/STM32L4xx_HAL_Driver/Src/stm32l4xx_hal_tim_ex.c ****       || (channel_2_state != HAL_TIM_CHANNEL_STATE_READY)
 749              		.loc 1 412 7
 750 002e BB7B     		ldrb	r3, [r7, #14]	@ zero_extendqisi2
 751 0030 012B     		cmp	r3, #1
 752 0032 05D1     		bne	.L26
 413:Drivers/STM32L4xx_HAL_Driver/Src/stm32l4xx_hal_tim_ex.c ****       || (complementary_channel_1_state != HAL_TIM_CHANNEL_STATE_READY)
 753              		.loc 1 413 7
 754 0034 7B7B     		ldrb	r3, [r7, #13]	@ zero_extendqisi2
 755 0036 012B     		cmp	r3, #1
 756 0038 02D1     		bne	.L26
 414:Drivers/STM32L4xx_HAL_Driver/Src/stm32l4xx_hal_tim_ex.c ****       || (complementary_channel_2_state != HAL_TIM_CHANNEL_STATE_READY))
 757              		.loc 1 414 7
 758 003a 3B7B     		ldrb	r3, [r7, #12]	@ zero_extendqisi2
 759 003c 012B     		cmp	r3, #1
 760 003e 01D0     		beq	.L27
 761              	.L26:
 415:Drivers/STM32L4xx_HAL_Driver/Src/stm32l4xx_hal_tim_ex.c ****   {
 416:Drivers/STM32L4xx_HAL_Driver/Src/stm32l4xx_hal_tim_ex.c ****     return HAL_ERROR;
 762              		.loc 1 416 12
 763 0040 0123     		movs	r3, #1
 764 0042 4EE0     		b	.L28
 765              	.L27:
 417:Drivers/STM32L4xx_HAL_Driver/Src/stm32l4xx_hal_tim_ex.c ****   }
 418:Drivers/STM32L4xx_HAL_Driver/Src/stm32l4xx_hal_tim_ex.c **** 
 419:Drivers/STM32L4xx_HAL_Driver/Src/stm32l4xx_hal_tim_ex.c ****   /* Set the TIM channels state */
 420:Drivers/STM32L4xx_HAL_Driver/Src/stm32l4xx_hal_tim_ex.c ****   TIM_CHANNEL_STATE_SET(htim, TIM_CHANNEL_1, HAL_TIM_CHANNEL_STATE_BUSY);
 766              		.loc 1 420 3
 767 0044 7B68     		ldr	r3, [r7, #4]
 768 0046 0222     		movs	r2, #2
 769 0048 83F83E20 		strb	r2, [r3, #62]
 421:Drivers/STM32L4xx_HAL_Driver/Src/stm32l4xx_hal_tim_ex.c ****   TIM_CHANNEL_STATE_SET(htim, TIM_CHANNEL_2, HAL_TIM_CHANNEL_STATE_BUSY);
 770              		.loc 1 421 3
 771 004c 7B68     		ldr	r3, [r7, #4]
 772 004e 0222     		movs	r2, #2
 773 0050 83F83F20 		strb	r2, [r3, #63]
 422:Drivers/STM32L4xx_HAL_Driver/Src/stm32l4xx_hal_tim_ex.c ****   TIM_CHANNEL_N_STATE_SET(htim, TIM_CHANNEL_1, HAL_TIM_CHANNEL_STATE_BUSY);
 774              		.loc 1 422 3
 775 0054 7B68     		ldr	r3, [r7, #4]
 776 0056 0222     		movs	r2, #2
 777 0058 83F84420 		strb	r2, [r3, #68]
 423:Drivers/STM32L4xx_HAL_Driver/Src/stm32l4xx_hal_tim_ex.c ****   TIM_CHANNEL_N_STATE_SET(htim, TIM_CHANNEL_2, HAL_TIM_CHANNEL_STATE_BUSY);
 778              		.loc 1 423 3
 779 005c 7B68     		ldr	r3, [r7, #4]
 780 005e 0222     		movs	r2, #2
 781 0060 83F84520 		strb	r2, [r3, #69]
 424:Drivers/STM32L4xx_HAL_Driver/Src/stm32l4xx_hal_tim_ex.c **** 
 425:Drivers/STM32L4xx_HAL_Driver/Src/stm32l4xx_hal_tim_ex.c ****   /* Enable the capture compare Interrupts 1 event */
 426:Drivers/STM32L4xx_HAL_Driver/Src/stm32l4xx_hal_tim_ex.c ****   __HAL_TIM_ENABLE_IT(htim, TIM_IT_CC1);
 782              		.loc 1 426 3
ARM GAS  /tmp/ccR4xO3u.s 			page 22


 783 0064 7B68     		ldr	r3, [r7, #4]
 784 0066 1B68     		ldr	r3, [r3]
 785 0068 DA68     		ldr	r2, [r3, #12]
 786 006a 7B68     		ldr	r3, [r7, #4]
 787 006c 1B68     		ldr	r3, [r3]
 788 006e 42F00202 		orr	r2, r2, #2
 789 0072 DA60     		str	r2, [r3, #12]
 427:Drivers/STM32L4xx_HAL_Driver/Src/stm32l4xx_hal_tim_ex.c **** 
 428:Drivers/STM32L4xx_HAL_Driver/Src/stm32l4xx_hal_tim_ex.c ****   /* Enable the Input Capture channel 1
 429:Drivers/STM32L4xx_HAL_Driver/Src/stm32l4xx_hal_tim_ex.c ****   (in the Hall Sensor Interface the three possible channels that can be used are TIM_CHANNEL_1,
 430:Drivers/STM32L4xx_HAL_Driver/Src/stm32l4xx_hal_tim_ex.c ****   TIM_CHANNEL_2 and TIM_CHANNEL_3) */
 431:Drivers/STM32L4xx_HAL_Driver/Src/stm32l4xx_hal_tim_ex.c ****   TIM_CCxChannelCmd(htim->Instance, TIM_CHANNEL_1, TIM_CCx_ENABLE);
 790              		.loc 1 431 3
 791 0074 7B68     		ldr	r3, [r7, #4]
 792 0076 1B68     		ldr	r3, [r3]
 793 0078 0122     		movs	r2, #1
 794 007a 0021     		movs	r1, #0
 795 007c 1846     		mov	r0, r3
 796 007e FFF7FEFF 		bl	TIM_CCxChannelCmd
 432:Drivers/STM32L4xx_HAL_Driver/Src/stm32l4xx_hal_tim_ex.c **** 
 433:Drivers/STM32L4xx_HAL_Driver/Src/stm32l4xx_hal_tim_ex.c ****   /* Enable the Peripheral, except in trigger mode where enable is automatically done with trigger 
 434:Drivers/STM32L4xx_HAL_Driver/Src/stm32l4xx_hal_tim_ex.c ****   if (IS_TIM_SLAVE_INSTANCE(htim->Instance))
 797              		.loc 1 434 7
 798 0082 7B68     		ldr	r3, [r7, #4]
 799 0084 1B68     		ldr	r3, [r3]
 800              		.loc 1 434 6
 801 0086 194A     		ldr	r2, .L34
 802 0088 9342     		cmp	r3, r2
 803 008a 09D0     		beq	.L29
 804              		.loc 1 434 7 discriminator 1
 805 008c 7B68     		ldr	r3, [r7, #4]
 806 008e 1B68     		ldr	r3, [r3]
 807 0090 B3F1804F 		cmp	r3, #1073741824
 808 0094 04D0     		beq	.L29
 809              		.loc 1 434 7 is_stmt 0 discriminator 2
 810 0096 7B68     		ldr	r3, [r7, #4]
 811 0098 1B68     		ldr	r3, [r3]
 812 009a 154A     		ldr	r2, .L34+4
 813 009c 9342     		cmp	r3, r2
 814 009e 15D1     		bne	.L30
 815              	.L29:
 435:Drivers/STM32L4xx_HAL_Driver/Src/stm32l4xx_hal_tim_ex.c ****   {
 436:Drivers/STM32L4xx_HAL_Driver/Src/stm32l4xx_hal_tim_ex.c ****     tmpsmcr = htim->Instance->SMCR & TIM_SMCR_SMS;
 816              		.loc 1 436 19 is_stmt 1
 817 00a0 7B68     		ldr	r3, [r7, #4]
 818 00a2 1B68     		ldr	r3, [r3]
 819              		.loc 1 436 29
 820 00a4 9A68     		ldr	r2, [r3, #8]
 821              		.loc 1 436 13
 822 00a6 134B     		ldr	r3, .L34+8
 823 00a8 1340     		ands	r3, r3, r2
 824 00aa BB60     		str	r3, [r7, #8]
 437:Drivers/STM32L4xx_HAL_Driver/Src/stm32l4xx_hal_tim_ex.c ****     if (!IS_TIM_SLAVEMODE_TRIGGER_ENABLED(tmpsmcr))
 825              		.loc 1 437 8
 826 00ac BB68     		ldr	r3, [r7, #8]
 827 00ae 062B     		cmp	r3, #6
 828 00b0 15D0     		beq	.L33
ARM GAS  /tmp/ccR4xO3u.s 			page 23


 829              		.loc 1 437 9 discriminator 1
 830 00b2 BB68     		ldr	r3, [r7, #8]
 831 00b4 B3F5803F 		cmp	r3, #65536
 832 00b8 11D0     		beq	.L33
 438:Drivers/STM32L4xx_HAL_Driver/Src/stm32l4xx_hal_tim_ex.c ****     {
 439:Drivers/STM32L4xx_HAL_Driver/Src/stm32l4xx_hal_tim_ex.c ****       __HAL_TIM_ENABLE(htim);
 833              		.loc 1 439 7
 834 00ba 7B68     		ldr	r3, [r7, #4]
 835 00bc 1B68     		ldr	r3, [r3]
 836 00be 1A68     		ldr	r2, [r3]
 837 00c0 7B68     		ldr	r3, [r7, #4]
 838 00c2 1B68     		ldr	r3, [r3]
 839 00c4 42F00102 		orr	r2, r2, #1
 840 00c8 1A60     		str	r2, [r3]
 437:Drivers/STM32L4xx_HAL_Driver/Src/stm32l4xx_hal_tim_ex.c ****     if (!IS_TIM_SLAVEMODE_TRIGGER_ENABLED(tmpsmcr))
 841              		.loc 1 437 8
 842 00ca 08E0     		b	.L33
 843              	.L30:
 440:Drivers/STM32L4xx_HAL_Driver/Src/stm32l4xx_hal_tim_ex.c ****     }
 441:Drivers/STM32L4xx_HAL_Driver/Src/stm32l4xx_hal_tim_ex.c ****   }
 442:Drivers/STM32L4xx_HAL_Driver/Src/stm32l4xx_hal_tim_ex.c ****   else
 443:Drivers/STM32L4xx_HAL_Driver/Src/stm32l4xx_hal_tim_ex.c ****   {
 444:Drivers/STM32L4xx_HAL_Driver/Src/stm32l4xx_hal_tim_ex.c ****     __HAL_TIM_ENABLE(htim);
 844              		.loc 1 444 5
 845 00cc 7B68     		ldr	r3, [r7, #4]
 846 00ce 1B68     		ldr	r3, [r3]
 847 00d0 1A68     		ldr	r2, [r3]
 848 00d2 7B68     		ldr	r3, [r7, #4]
 849 00d4 1B68     		ldr	r3, [r3]
 850 00d6 42F00102 		orr	r2, r2, #1
 851 00da 1A60     		str	r2, [r3]
 852 00dc 00E0     		b	.L32
 853              	.L33:
 437:Drivers/STM32L4xx_HAL_Driver/Src/stm32l4xx_hal_tim_ex.c ****     {
 854              		.loc 1 437 8
 855 00de 00BF     		nop
 856              	.L32:
 445:Drivers/STM32L4xx_HAL_Driver/Src/stm32l4xx_hal_tim_ex.c ****   }
 446:Drivers/STM32L4xx_HAL_Driver/Src/stm32l4xx_hal_tim_ex.c **** 
 447:Drivers/STM32L4xx_HAL_Driver/Src/stm32l4xx_hal_tim_ex.c ****   /* Return function status */
 448:Drivers/STM32L4xx_HAL_Driver/Src/stm32l4xx_hal_tim_ex.c ****   return HAL_OK;
 857              		.loc 1 448 10
 858 00e0 0023     		movs	r3, #0
 859              	.L28:
 449:Drivers/STM32L4xx_HAL_Driver/Src/stm32l4xx_hal_tim_ex.c **** }
 860              		.loc 1 449 1
 861 00e2 1846     		mov	r0, r3
 862 00e4 1037     		adds	r7, r7, #16
 863              	.LCFI35:
 864              		.cfi_def_cfa_offset 8
 865 00e6 BD46     		mov	sp, r7
 866              	.LCFI36:
 867              		.cfi_def_cfa_register 13
 868              		@ sp needed
 869 00e8 80BD     		pop	{r7, pc}
 870              	.L35:
 871 00ea 00BF     		.align	2
ARM GAS  /tmp/ccR4xO3u.s 			page 24


 872              	.L34:
 873 00ec 002C0140 		.word	1073818624
 874 00f0 00400140 		.word	1073823744
 875 00f4 07000100 		.word	65543
 876              		.cfi_endproc
 877              	.LFE138:
 879              		.section	.text.HAL_TIMEx_HallSensor_Stop_IT,"ax",%progbits
 880              		.align	1
 881              		.global	HAL_TIMEx_HallSensor_Stop_IT
 882              		.syntax unified
 883              		.thumb
 884              		.thumb_func
 886              	HAL_TIMEx_HallSensor_Stop_IT:
 887              	.LFB139:
 450:Drivers/STM32L4xx_HAL_Driver/Src/stm32l4xx_hal_tim_ex.c **** 
 451:Drivers/STM32L4xx_HAL_Driver/Src/stm32l4xx_hal_tim_ex.c **** /**
 452:Drivers/STM32L4xx_HAL_Driver/Src/stm32l4xx_hal_tim_ex.c ****   * @brief  Stops the TIM Hall Sensor Interface in interrupt mode.
 453:Drivers/STM32L4xx_HAL_Driver/Src/stm32l4xx_hal_tim_ex.c ****   * @param  htim TIM Hall Sensor Interface handle
 454:Drivers/STM32L4xx_HAL_Driver/Src/stm32l4xx_hal_tim_ex.c ****   * @retval HAL status
 455:Drivers/STM32L4xx_HAL_Driver/Src/stm32l4xx_hal_tim_ex.c ****   */
 456:Drivers/STM32L4xx_HAL_Driver/Src/stm32l4xx_hal_tim_ex.c **** HAL_StatusTypeDef HAL_TIMEx_HallSensor_Stop_IT(TIM_HandleTypeDef *htim)
 457:Drivers/STM32L4xx_HAL_Driver/Src/stm32l4xx_hal_tim_ex.c **** {
 888              		.loc 1 457 1
 889              		.cfi_startproc
 890              		@ args = 0, pretend = 0, frame = 8
 891              		@ frame_needed = 1, uses_anonymous_args = 0
 892 0000 80B5     		push	{r7, lr}
 893              	.LCFI37:
 894              		.cfi_def_cfa_offset 8
 895              		.cfi_offset 7, -8
 896              		.cfi_offset 14, -4
 897 0002 82B0     		sub	sp, sp, #8
 898              	.LCFI38:
 899              		.cfi_def_cfa_offset 16
 900 0004 00AF     		add	r7, sp, #0
 901              	.LCFI39:
 902              		.cfi_def_cfa_register 7
 903 0006 7860     		str	r0, [r7, #4]
 458:Drivers/STM32L4xx_HAL_Driver/Src/stm32l4xx_hal_tim_ex.c ****   /* Check the parameters */
 459:Drivers/STM32L4xx_HAL_Driver/Src/stm32l4xx_hal_tim_ex.c ****   assert_param(IS_TIM_HALL_SENSOR_INTERFACE_INSTANCE(htim->Instance));
 460:Drivers/STM32L4xx_HAL_Driver/Src/stm32l4xx_hal_tim_ex.c **** 
 461:Drivers/STM32L4xx_HAL_Driver/Src/stm32l4xx_hal_tim_ex.c ****   /* Disable the Input Capture channel 1
 462:Drivers/STM32L4xx_HAL_Driver/Src/stm32l4xx_hal_tim_ex.c ****   (in the Hall Sensor Interface the three possible channels that can be used are TIM_CHANNEL_1,
 463:Drivers/STM32L4xx_HAL_Driver/Src/stm32l4xx_hal_tim_ex.c ****   TIM_CHANNEL_2 and TIM_CHANNEL_3) */
 464:Drivers/STM32L4xx_HAL_Driver/Src/stm32l4xx_hal_tim_ex.c ****   TIM_CCxChannelCmd(htim->Instance, TIM_CHANNEL_1, TIM_CCx_DISABLE);
 904              		.loc 1 464 3
 905 0008 7B68     		ldr	r3, [r7, #4]
 906 000a 1B68     		ldr	r3, [r3]
 907 000c 0022     		movs	r2, #0
 908 000e 0021     		movs	r1, #0
 909 0010 1846     		mov	r0, r3
 910 0012 FFF7FEFF 		bl	TIM_CCxChannelCmd
 465:Drivers/STM32L4xx_HAL_Driver/Src/stm32l4xx_hal_tim_ex.c **** 
 466:Drivers/STM32L4xx_HAL_Driver/Src/stm32l4xx_hal_tim_ex.c ****   /* Disable the capture compare Interrupts event */
 467:Drivers/STM32L4xx_HAL_Driver/Src/stm32l4xx_hal_tim_ex.c ****   __HAL_TIM_DISABLE_IT(htim, TIM_IT_CC1);
 911              		.loc 1 467 3
 912 0016 7B68     		ldr	r3, [r7, #4]
ARM GAS  /tmp/ccR4xO3u.s 			page 25


 913 0018 1B68     		ldr	r3, [r3]
 914 001a DA68     		ldr	r2, [r3, #12]
 915 001c 7B68     		ldr	r3, [r7, #4]
 916 001e 1B68     		ldr	r3, [r3]
 917 0020 22F00202 		bic	r2, r2, #2
 918 0024 DA60     		str	r2, [r3, #12]
 468:Drivers/STM32L4xx_HAL_Driver/Src/stm32l4xx_hal_tim_ex.c **** 
 469:Drivers/STM32L4xx_HAL_Driver/Src/stm32l4xx_hal_tim_ex.c ****   /* Disable the Peripheral */
 470:Drivers/STM32L4xx_HAL_Driver/Src/stm32l4xx_hal_tim_ex.c ****   __HAL_TIM_DISABLE(htim);
 919              		.loc 1 470 3
 920 0026 7B68     		ldr	r3, [r7, #4]
 921 0028 1B68     		ldr	r3, [r3]
 922 002a 1A6A     		ldr	r2, [r3, #32]
 923 002c 41F21113 		movw	r3, #4369
 924 0030 1340     		ands	r3, r3, r2
 925 0032 002B     		cmp	r3, #0
 926 0034 0FD1     		bne	.L37
 927              		.loc 1 470 3 is_stmt 0 discriminator 1
 928 0036 7B68     		ldr	r3, [r7, #4]
 929 0038 1B68     		ldr	r3, [r3]
 930 003a 1A6A     		ldr	r2, [r3, #32]
 931 003c 40F24443 		movw	r3, #1092
 932 0040 1340     		ands	r3, r3, r2
 933 0042 002B     		cmp	r3, #0
 934 0044 07D1     		bne	.L37
 935              		.loc 1 470 3 discriminator 2
 936 0046 7B68     		ldr	r3, [r7, #4]
 937 0048 1B68     		ldr	r3, [r3]
 938 004a 1A68     		ldr	r2, [r3]
 939 004c 7B68     		ldr	r3, [r7, #4]
 940 004e 1B68     		ldr	r3, [r3]
 941 0050 22F00102 		bic	r2, r2, #1
 942 0054 1A60     		str	r2, [r3]
 943              	.L37:
 471:Drivers/STM32L4xx_HAL_Driver/Src/stm32l4xx_hal_tim_ex.c **** 
 472:Drivers/STM32L4xx_HAL_Driver/Src/stm32l4xx_hal_tim_ex.c ****   /* Set the TIM channels state */
 473:Drivers/STM32L4xx_HAL_Driver/Src/stm32l4xx_hal_tim_ex.c ****   TIM_CHANNEL_STATE_SET(htim, TIM_CHANNEL_1, HAL_TIM_CHANNEL_STATE_READY);
 944              		.loc 1 473 3 is_stmt 1
 945 0056 7B68     		ldr	r3, [r7, #4]
 946 0058 0122     		movs	r2, #1
 947 005a 83F83E20 		strb	r2, [r3, #62]
 474:Drivers/STM32L4xx_HAL_Driver/Src/stm32l4xx_hal_tim_ex.c ****   TIM_CHANNEL_STATE_SET(htim, TIM_CHANNEL_2, HAL_TIM_CHANNEL_STATE_READY);
 948              		.loc 1 474 3
 949 005e 7B68     		ldr	r3, [r7, #4]
 950 0060 0122     		movs	r2, #1
 951 0062 83F83F20 		strb	r2, [r3, #63]
 475:Drivers/STM32L4xx_HAL_Driver/Src/stm32l4xx_hal_tim_ex.c ****   TIM_CHANNEL_N_STATE_SET(htim, TIM_CHANNEL_1, HAL_TIM_CHANNEL_STATE_READY);
 952              		.loc 1 475 3
 953 0066 7B68     		ldr	r3, [r7, #4]
 954 0068 0122     		movs	r2, #1
 955 006a 83F84420 		strb	r2, [r3, #68]
 476:Drivers/STM32L4xx_HAL_Driver/Src/stm32l4xx_hal_tim_ex.c ****   TIM_CHANNEL_N_STATE_SET(htim, TIM_CHANNEL_2, HAL_TIM_CHANNEL_STATE_READY);
 956              		.loc 1 476 3
 957 006e 7B68     		ldr	r3, [r7, #4]
 958 0070 0122     		movs	r2, #1
 959 0072 83F84520 		strb	r2, [r3, #69]
 477:Drivers/STM32L4xx_HAL_Driver/Src/stm32l4xx_hal_tim_ex.c **** 
ARM GAS  /tmp/ccR4xO3u.s 			page 26


 478:Drivers/STM32L4xx_HAL_Driver/Src/stm32l4xx_hal_tim_ex.c ****   /* Return function status */
 479:Drivers/STM32L4xx_HAL_Driver/Src/stm32l4xx_hal_tim_ex.c ****   return HAL_OK;
 960              		.loc 1 479 10
 961 0076 0023     		movs	r3, #0
 480:Drivers/STM32L4xx_HAL_Driver/Src/stm32l4xx_hal_tim_ex.c **** }
 962              		.loc 1 480 1
 963 0078 1846     		mov	r0, r3
 964 007a 0837     		adds	r7, r7, #8
 965              	.LCFI40:
 966              		.cfi_def_cfa_offset 8
 967 007c BD46     		mov	sp, r7
 968              	.LCFI41:
 969              		.cfi_def_cfa_register 13
 970              		@ sp needed
 971 007e 80BD     		pop	{r7, pc}
 972              		.cfi_endproc
 973              	.LFE139:
 975              		.section	.text.HAL_TIMEx_HallSensor_Start_DMA,"ax",%progbits
 976              		.align	1
 977              		.global	HAL_TIMEx_HallSensor_Start_DMA
 978              		.syntax unified
 979              		.thumb
 980              		.thumb_func
 982              	HAL_TIMEx_HallSensor_Start_DMA:
 983              	.LFB140:
 481:Drivers/STM32L4xx_HAL_Driver/Src/stm32l4xx_hal_tim_ex.c **** 
 482:Drivers/STM32L4xx_HAL_Driver/Src/stm32l4xx_hal_tim_ex.c **** /**
 483:Drivers/STM32L4xx_HAL_Driver/Src/stm32l4xx_hal_tim_ex.c ****   * @brief  Starts the TIM Hall Sensor Interface in DMA mode.
 484:Drivers/STM32L4xx_HAL_Driver/Src/stm32l4xx_hal_tim_ex.c ****   * @param  htim TIM Hall Sensor Interface handle
 485:Drivers/STM32L4xx_HAL_Driver/Src/stm32l4xx_hal_tim_ex.c ****   * @param  pData The destination Buffer address.
 486:Drivers/STM32L4xx_HAL_Driver/Src/stm32l4xx_hal_tim_ex.c ****   * @param  Length The length of data to be transferred from TIM peripheral to memory.
 487:Drivers/STM32L4xx_HAL_Driver/Src/stm32l4xx_hal_tim_ex.c ****   * @retval HAL status
 488:Drivers/STM32L4xx_HAL_Driver/Src/stm32l4xx_hal_tim_ex.c ****   */
 489:Drivers/STM32L4xx_HAL_Driver/Src/stm32l4xx_hal_tim_ex.c **** HAL_StatusTypeDef HAL_TIMEx_HallSensor_Start_DMA(TIM_HandleTypeDef *htim, uint32_t *pData, uint16_t
 490:Drivers/STM32L4xx_HAL_Driver/Src/stm32l4xx_hal_tim_ex.c **** {
 984              		.loc 1 490 1
 985              		.cfi_startproc
 986              		@ args = 0, pretend = 0, frame = 24
 987              		@ frame_needed = 1, uses_anonymous_args = 0
 988 0000 80B5     		push	{r7, lr}
 989              	.LCFI42:
 990              		.cfi_def_cfa_offset 8
 991              		.cfi_offset 7, -8
 992              		.cfi_offset 14, -4
 993 0002 86B0     		sub	sp, sp, #24
 994              	.LCFI43:
 995              		.cfi_def_cfa_offset 32
 996 0004 00AF     		add	r7, sp, #0
 997              	.LCFI44:
 998              		.cfi_def_cfa_register 7
 999 0006 F860     		str	r0, [r7, #12]
 1000 0008 B960     		str	r1, [r7, #8]
 1001 000a 1346     		mov	r3, r2
 1002 000c FB80     		strh	r3, [r7, #6]	@ movhi
 491:Drivers/STM32L4xx_HAL_Driver/Src/stm32l4xx_hal_tim_ex.c ****   uint32_t tmpsmcr;
 492:Drivers/STM32L4xx_HAL_Driver/Src/stm32l4xx_hal_tim_ex.c ****   HAL_TIM_ChannelStateTypeDef channel_1_state = TIM_CHANNEL_STATE_GET(htim, TIM_CHANNEL_1);
 1003              		.loc 1 492 31
ARM GAS  /tmp/ccR4xO3u.s 			page 27


 1004 000e FB68     		ldr	r3, [r7, #12]
 1005 0010 93F83E30 		ldrb	r3, [r3, #62]
 1006 0014 FB75     		strb	r3, [r7, #23]
 493:Drivers/STM32L4xx_HAL_Driver/Src/stm32l4xx_hal_tim_ex.c ****   HAL_TIM_ChannelStateTypeDef complementary_channel_1_state = TIM_CHANNEL_N_STATE_GET(htim, TIM_CHA
 1007              		.loc 1 493 31
 1008 0016 FB68     		ldr	r3, [r7, #12]
 1009 0018 93F84430 		ldrb	r3, [r3, #68]
 1010 001c BB75     		strb	r3, [r7, #22]
 494:Drivers/STM32L4xx_HAL_Driver/Src/stm32l4xx_hal_tim_ex.c **** 
 495:Drivers/STM32L4xx_HAL_Driver/Src/stm32l4xx_hal_tim_ex.c ****   /* Check the parameters */
 496:Drivers/STM32L4xx_HAL_Driver/Src/stm32l4xx_hal_tim_ex.c ****   assert_param(IS_TIM_HALL_SENSOR_INTERFACE_INSTANCE(htim->Instance));
 497:Drivers/STM32L4xx_HAL_Driver/Src/stm32l4xx_hal_tim_ex.c **** 
 498:Drivers/STM32L4xx_HAL_Driver/Src/stm32l4xx_hal_tim_ex.c ****   /* Set the TIM channel state */
 499:Drivers/STM32L4xx_HAL_Driver/Src/stm32l4xx_hal_tim_ex.c ****   if ((channel_1_state == HAL_TIM_CHANNEL_STATE_BUSY)
 1011              		.loc 1 499 6
 1012 001e FB7D     		ldrb	r3, [r7, #23]	@ zero_extendqisi2
 1013 0020 022B     		cmp	r3, #2
 1014 0022 02D0     		beq	.L40
 500:Drivers/STM32L4xx_HAL_Driver/Src/stm32l4xx_hal_tim_ex.c ****       || (complementary_channel_1_state == HAL_TIM_CHANNEL_STATE_BUSY))
 1015              		.loc 1 500 7
 1016 0024 BB7D     		ldrb	r3, [r7, #22]	@ zero_extendqisi2
 1017 0026 022B     		cmp	r3, #2
 1018 0028 01D1     		bne	.L41
 1019              	.L40:
 501:Drivers/STM32L4xx_HAL_Driver/Src/stm32l4xx_hal_tim_ex.c ****   {
 502:Drivers/STM32L4xx_HAL_Driver/Src/stm32l4xx_hal_tim_ex.c ****     return HAL_BUSY;
 1020              		.loc 1 502 12
 1021 002a 0223     		movs	r3, #2
 1022 002c 73E0     		b	.L42
 1023              	.L41:
 503:Drivers/STM32L4xx_HAL_Driver/Src/stm32l4xx_hal_tim_ex.c ****   }
 504:Drivers/STM32L4xx_HAL_Driver/Src/stm32l4xx_hal_tim_ex.c ****   else if ((channel_1_state == HAL_TIM_CHANNEL_STATE_READY)
 1024              		.loc 1 504 11
 1025 002e FB7D     		ldrb	r3, [r7, #23]	@ zero_extendqisi2
 1026 0030 012B     		cmp	r3, #1
 1027 0032 34D1     		bne	.L43
 505:Drivers/STM32L4xx_HAL_Driver/Src/stm32l4xx_hal_tim_ex.c ****            && (complementary_channel_1_state == HAL_TIM_CHANNEL_STATE_READY))
 1028              		.loc 1 505 12
 1029 0034 BB7D     		ldrb	r3, [r7, #22]	@ zero_extendqisi2
 1030 0036 012B     		cmp	r3, #1
 1031 0038 31D1     		bne	.L43
 506:Drivers/STM32L4xx_HAL_Driver/Src/stm32l4xx_hal_tim_ex.c ****   {
 507:Drivers/STM32L4xx_HAL_Driver/Src/stm32l4xx_hal_tim_ex.c ****     if ((pData == NULL) || (Length == 0U))
 1032              		.loc 1 507 8
 1033 003a BB68     		ldr	r3, [r7, #8]
 1034 003c 002B     		cmp	r3, #0
 1035 003e 02D0     		beq	.L44
 1036              		.loc 1 507 25 discriminator 1
 1037 0040 FB88     		ldrh	r3, [r7, #6]
 1038 0042 002B     		cmp	r3, #0
 1039 0044 01D1     		bne	.L45
 1040              	.L44:
 508:Drivers/STM32L4xx_HAL_Driver/Src/stm32l4xx_hal_tim_ex.c ****     {
 509:Drivers/STM32L4xx_HAL_Driver/Src/stm32l4xx_hal_tim_ex.c ****       return HAL_ERROR;
 1041              		.loc 1 509 14
 1042 0046 0123     		movs	r3, #1
 1043 0048 65E0     		b	.L42
ARM GAS  /tmp/ccR4xO3u.s 			page 28


 1044              	.L45:
 510:Drivers/STM32L4xx_HAL_Driver/Src/stm32l4xx_hal_tim_ex.c ****     }
 511:Drivers/STM32L4xx_HAL_Driver/Src/stm32l4xx_hal_tim_ex.c ****     else
 512:Drivers/STM32L4xx_HAL_Driver/Src/stm32l4xx_hal_tim_ex.c ****     {
 513:Drivers/STM32L4xx_HAL_Driver/Src/stm32l4xx_hal_tim_ex.c ****       TIM_CHANNEL_STATE_SET(htim, TIM_CHANNEL_1, HAL_TIM_CHANNEL_STATE_BUSY);
 1045              		.loc 1 513 7
 1046 004a FB68     		ldr	r3, [r7, #12]
 1047 004c 0222     		movs	r2, #2
 1048 004e 83F83E20 		strb	r2, [r3, #62]
 514:Drivers/STM32L4xx_HAL_Driver/Src/stm32l4xx_hal_tim_ex.c ****       TIM_CHANNEL_N_STATE_SET(htim, TIM_CHANNEL_1, HAL_TIM_CHANNEL_STATE_BUSY);
 1049              		.loc 1 514 7
 1050 0052 FB68     		ldr	r3, [r7, #12]
 1051 0054 0222     		movs	r2, #2
 1052 0056 83F84420 		strb	r2, [r3, #68]
 507:Drivers/STM32L4xx_HAL_Driver/Src/stm32l4xx_hal_tim_ex.c ****     {
 1053              		.loc 1 507 8
 1054 005a 00BF     		nop
 515:Drivers/STM32L4xx_HAL_Driver/Src/stm32l4xx_hal_tim_ex.c ****     }
 516:Drivers/STM32L4xx_HAL_Driver/Src/stm32l4xx_hal_tim_ex.c ****   }
 517:Drivers/STM32L4xx_HAL_Driver/Src/stm32l4xx_hal_tim_ex.c ****   else
 518:Drivers/STM32L4xx_HAL_Driver/Src/stm32l4xx_hal_tim_ex.c ****   {
 519:Drivers/STM32L4xx_HAL_Driver/Src/stm32l4xx_hal_tim_ex.c ****     return HAL_ERROR;
 520:Drivers/STM32L4xx_HAL_Driver/Src/stm32l4xx_hal_tim_ex.c ****   }
 521:Drivers/STM32L4xx_HAL_Driver/Src/stm32l4xx_hal_tim_ex.c **** 
 522:Drivers/STM32L4xx_HAL_Driver/Src/stm32l4xx_hal_tim_ex.c ****   /* Enable the Input Capture channel 1
 523:Drivers/STM32L4xx_HAL_Driver/Src/stm32l4xx_hal_tim_ex.c ****   (in the Hall Sensor Interface the three possible channels that can be used are TIM_CHANNEL_1,
 524:Drivers/STM32L4xx_HAL_Driver/Src/stm32l4xx_hal_tim_ex.c ****   TIM_CHANNEL_2 and TIM_CHANNEL_3) */
 525:Drivers/STM32L4xx_HAL_Driver/Src/stm32l4xx_hal_tim_ex.c ****   TIM_CCxChannelCmd(htim->Instance, TIM_CHANNEL_1, TIM_CCx_ENABLE);
 1055              		.loc 1 525 3
 1056 005c FB68     		ldr	r3, [r7, #12]
 1057 005e 1B68     		ldr	r3, [r3]
 1058 0060 0122     		movs	r2, #1
 1059 0062 0021     		movs	r1, #0
 1060 0064 1846     		mov	r0, r3
 1061 0066 FFF7FEFF 		bl	TIM_CCxChannelCmd
 526:Drivers/STM32L4xx_HAL_Driver/Src/stm32l4xx_hal_tim_ex.c **** 
 527:Drivers/STM32L4xx_HAL_Driver/Src/stm32l4xx_hal_tim_ex.c ****   /* Set the DMA Input Capture 1 Callbacks */
 528:Drivers/STM32L4xx_HAL_Driver/Src/stm32l4xx_hal_tim_ex.c ****   htim->hdma[TIM_DMA_ID_CC1]->XferCpltCallback = TIM_DMACaptureCplt;
 1062              		.loc 1 528 13
 1063 006a FB68     		ldr	r3, [r7, #12]
 1064 006c 5B6A     		ldr	r3, [r3, #36]
 1065              		.loc 1 528 48
 1066 006e 2C4A     		ldr	r2, .L54
 1067 0070 DA62     		str	r2, [r3, #44]
 529:Drivers/STM32L4xx_HAL_Driver/Src/stm32l4xx_hal_tim_ex.c ****   htim->hdma[TIM_DMA_ID_CC1]->XferHalfCpltCallback = TIM_DMACaptureHalfCplt;
 1068              		.loc 1 529 13
 1069 0072 FB68     		ldr	r3, [r7, #12]
 1070 0074 5B6A     		ldr	r3, [r3, #36]
 1071              		.loc 1 529 52
 1072 0076 2B4A     		ldr	r2, .L54+4
 1073 0078 1A63     		str	r2, [r3, #48]
 530:Drivers/STM32L4xx_HAL_Driver/Src/stm32l4xx_hal_tim_ex.c ****   /* Set the DMA error callback */
 531:Drivers/STM32L4xx_HAL_Driver/Src/stm32l4xx_hal_tim_ex.c ****   htim->hdma[TIM_DMA_ID_CC1]->XferErrorCallback = TIM_DMAError ;
 1074              		.loc 1 531 13
 1075 007a FB68     		ldr	r3, [r7, #12]
 1076 007c 5B6A     		ldr	r3, [r3, #36]
 1077              		.loc 1 531 49
ARM GAS  /tmp/ccR4xO3u.s 			page 29


 1078 007e 2A4A     		ldr	r2, .L54+8
 1079 0080 5A63     		str	r2, [r3, #52]
 532:Drivers/STM32L4xx_HAL_Driver/Src/stm32l4xx_hal_tim_ex.c **** 
 533:Drivers/STM32L4xx_HAL_Driver/Src/stm32l4xx_hal_tim_ex.c ****   /* Enable the DMA channel for Capture 1*/
 534:Drivers/STM32L4xx_HAL_Driver/Src/stm32l4xx_hal_tim_ex.c ****   if (HAL_DMA_Start_IT(htim->hdma[TIM_DMA_ID_CC1], (uint32_t)&htim->Instance->CCR1, (uint32_t)pData
 1080              		.loc 1 534 7
 1081 0082 FB68     		ldr	r3, [r7, #12]
 1082 0084 586A     		ldr	r0, [r3, #36]
 1083              		.loc 1 534 67
 1084 0086 FB68     		ldr	r3, [r7, #12]
 1085 0088 1B68     		ldr	r3, [r3]
 1086              		.loc 1 534 62
 1087 008a 3433     		adds	r3, r3, #52
 1088              		.loc 1 534 7
 1089 008c 1946     		mov	r1, r3
 1090 008e BA68     		ldr	r2, [r7, #8]
 1091 0090 FB88     		ldrh	r3, [r7, #6]
 1092 0092 FFF7FEFF 		bl	HAL_DMA_Start_IT
 1093 0096 0346     		mov	r3, r0
 1094              		.loc 1 534 6
 1095 0098 002B     		cmp	r3, #0
 1096 009a 04D0     		beq	.L47
 1097 009c 01E0     		b	.L52
 1098              	.L43:
 519:Drivers/STM32L4xx_HAL_Driver/Src/stm32l4xx_hal_tim_ex.c ****   }
 1099              		.loc 1 519 12
 1100 009e 0123     		movs	r3, #1
 1101 00a0 39E0     		b	.L42
 1102              	.L52:
 535:Drivers/STM32L4xx_HAL_Driver/Src/stm32l4xx_hal_tim_ex.c ****   {
 536:Drivers/STM32L4xx_HAL_Driver/Src/stm32l4xx_hal_tim_ex.c ****     /* Return error status */
 537:Drivers/STM32L4xx_HAL_Driver/Src/stm32l4xx_hal_tim_ex.c ****     return HAL_ERROR;
 1103              		.loc 1 537 12
 1104 00a2 0123     		movs	r3, #1
 1105 00a4 37E0     		b	.L42
 1106              	.L47:
 538:Drivers/STM32L4xx_HAL_Driver/Src/stm32l4xx_hal_tim_ex.c ****   }
 539:Drivers/STM32L4xx_HAL_Driver/Src/stm32l4xx_hal_tim_ex.c ****   /* Enable the capture compare 1 Interrupt */
 540:Drivers/STM32L4xx_HAL_Driver/Src/stm32l4xx_hal_tim_ex.c ****   __HAL_TIM_ENABLE_DMA(htim, TIM_DMA_CC1);
 1107              		.loc 1 540 3
 1108 00a6 FB68     		ldr	r3, [r7, #12]
 1109 00a8 1B68     		ldr	r3, [r3]
 1110 00aa DA68     		ldr	r2, [r3, #12]
 1111 00ac FB68     		ldr	r3, [r7, #12]
 1112 00ae 1B68     		ldr	r3, [r3]
 1113 00b0 42F40072 		orr	r2, r2, #512
 1114 00b4 DA60     		str	r2, [r3, #12]
 541:Drivers/STM32L4xx_HAL_Driver/Src/stm32l4xx_hal_tim_ex.c **** 
 542:Drivers/STM32L4xx_HAL_Driver/Src/stm32l4xx_hal_tim_ex.c ****   /* Enable the Peripheral, except in trigger mode where enable is automatically done with trigger 
 543:Drivers/STM32L4xx_HAL_Driver/Src/stm32l4xx_hal_tim_ex.c ****   if (IS_TIM_SLAVE_INSTANCE(htim->Instance))
 1115              		.loc 1 543 7
 1116 00b6 FB68     		ldr	r3, [r7, #12]
 1117 00b8 1B68     		ldr	r3, [r3]
 1118              		.loc 1 543 6
 1119 00ba 1C4A     		ldr	r2, .L54+12
 1120 00bc 9342     		cmp	r3, r2
 1121 00be 09D0     		beq	.L48
ARM GAS  /tmp/ccR4xO3u.s 			page 30


 1122              		.loc 1 543 7 discriminator 1
 1123 00c0 FB68     		ldr	r3, [r7, #12]
 1124 00c2 1B68     		ldr	r3, [r3]
 1125 00c4 B3F1804F 		cmp	r3, #1073741824
 1126 00c8 04D0     		beq	.L48
 1127              		.loc 1 543 7 is_stmt 0 discriminator 2
 1128 00ca FB68     		ldr	r3, [r7, #12]
 1129 00cc 1B68     		ldr	r3, [r3]
 1130 00ce 184A     		ldr	r2, .L54+16
 1131 00d0 9342     		cmp	r3, r2
 1132 00d2 15D1     		bne	.L49
 1133              	.L48:
 544:Drivers/STM32L4xx_HAL_Driver/Src/stm32l4xx_hal_tim_ex.c ****   {
 545:Drivers/STM32L4xx_HAL_Driver/Src/stm32l4xx_hal_tim_ex.c ****     tmpsmcr = htim->Instance->SMCR & TIM_SMCR_SMS;
 1134              		.loc 1 545 19 is_stmt 1
 1135 00d4 FB68     		ldr	r3, [r7, #12]
 1136 00d6 1B68     		ldr	r3, [r3]
 1137              		.loc 1 545 29
 1138 00d8 9A68     		ldr	r2, [r3, #8]
 1139              		.loc 1 545 13
 1140 00da 164B     		ldr	r3, .L54+20
 1141 00dc 1340     		ands	r3, r3, r2
 1142 00de 3B61     		str	r3, [r7, #16]
 546:Drivers/STM32L4xx_HAL_Driver/Src/stm32l4xx_hal_tim_ex.c ****     if (!IS_TIM_SLAVEMODE_TRIGGER_ENABLED(tmpsmcr))
 1143              		.loc 1 546 8
 1144 00e0 3B69     		ldr	r3, [r7, #16]
 1145 00e2 062B     		cmp	r3, #6
 1146 00e4 15D0     		beq	.L53
 1147              		.loc 1 546 9 discriminator 1
 1148 00e6 3B69     		ldr	r3, [r7, #16]
 1149 00e8 B3F5803F 		cmp	r3, #65536
 1150 00ec 11D0     		beq	.L53
 547:Drivers/STM32L4xx_HAL_Driver/Src/stm32l4xx_hal_tim_ex.c ****     {
 548:Drivers/STM32L4xx_HAL_Driver/Src/stm32l4xx_hal_tim_ex.c ****       __HAL_TIM_ENABLE(htim);
 1151              		.loc 1 548 7
 1152 00ee FB68     		ldr	r3, [r7, #12]
 1153 00f0 1B68     		ldr	r3, [r3]
 1154 00f2 1A68     		ldr	r2, [r3]
 1155 00f4 FB68     		ldr	r3, [r7, #12]
 1156 00f6 1B68     		ldr	r3, [r3]
 1157 00f8 42F00102 		orr	r2, r2, #1
 1158 00fc 1A60     		str	r2, [r3]
 546:Drivers/STM32L4xx_HAL_Driver/Src/stm32l4xx_hal_tim_ex.c ****     if (!IS_TIM_SLAVEMODE_TRIGGER_ENABLED(tmpsmcr))
 1159              		.loc 1 546 8
 1160 00fe 08E0     		b	.L53
 1161              	.L49:
 549:Drivers/STM32L4xx_HAL_Driver/Src/stm32l4xx_hal_tim_ex.c ****     }
 550:Drivers/STM32L4xx_HAL_Driver/Src/stm32l4xx_hal_tim_ex.c ****   }
 551:Drivers/STM32L4xx_HAL_Driver/Src/stm32l4xx_hal_tim_ex.c ****   else
 552:Drivers/STM32L4xx_HAL_Driver/Src/stm32l4xx_hal_tim_ex.c ****   {
 553:Drivers/STM32L4xx_HAL_Driver/Src/stm32l4xx_hal_tim_ex.c ****     __HAL_TIM_ENABLE(htim);
 1162              		.loc 1 553 5
 1163 0100 FB68     		ldr	r3, [r7, #12]
 1164 0102 1B68     		ldr	r3, [r3]
 1165 0104 1A68     		ldr	r2, [r3]
 1166 0106 FB68     		ldr	r3, [r7, #12]
 1167 0108 1B68     		ldr	r3, [r3]
ARM GAS  /tmp/ccR4xO3u.s 			page 31


 1168 010a 42F00102 		orr	r2, r2, #1
 1169 010e 1A60     		str	r2, [r3]
 1170 0110 00E0     		b	.L51
 1171              	.L53:
 546:Drivers/STM32L4xx_HAL_Driver/Src/stm32l4xx_hal_tim_ex.c ****     {
 1172              		.loc 1 546 8
 1173 0112 00BF     		nop
 1174              	.L51:
 554:Drivers/STM32L4xx_HAL_Driver/Src/stm32l4xx_hal_tim_ex.c ****   }
 555:Drivers/STM32L4xx_HAL_Driver/Src/stm32l4xx_hal_tim_ex.c **** 
 556:Drivers/STM32L4xx_HAL_Driver/Src/stm32l4xx_hal_tim_ex.c ****   /* Return function status */
 557:Drivers/STM32L4xx_HAL_Driver/Src/stm32l4xx_hal_tim_ex.c ****   return HAL_OK;
 1175              		.loc 1 557 10
 1176 0114 0023     		movs	r3, #0
 1177              	.L42:
 558:Drivers/STM32L4xx_HAL_Driver/Src/stm32l4xx_hal_tim_ex.c **** }
 1178              		.loc 1 558 1
 1179 0116 1846     		mov	r0, r3
 1180 0118 1837     		adds	r7, r7, #24
 1181              	.LCFI45:
 1182              		.cfi_def_cfa_offset 8
 1183 011a BD46     		mov	sp, r7
 1184              	.LCFI46:
 1185              		.cfi_def_cfa_register 13
 1186              		@ sp needed
 1187 011c 80BD     		pop	{r7, pc}
 1188              	.L55:
 1189 011e 00BF     		.align	2
 1190              	.L54:
 1191 0120 00000000 		.word	TIM_DMACaptureCplt
 1192 0124 00000000 		.word	TIM_DMACaptureHalfCplt
 1193 0128 00000000 		.word	TIM_DMAError
 1194 012c 002C0140 		.word	1073818624
 1195 0130 00400140 		.word	1073823744
 1196 0134 07000100 		.word	65543
 1197              		.cfi_endproc
 1198              	.LFE140:
 1200              		.section	.text.HAL_TIMEx_HallSensor_Stop_DMA,"ax",%progbits
 1201              		.align	1
 1202              		.global	HAL_TIMEx_HallSensor_Stop_DMA
 1203              		.syntax unified
 1204              		.thumb
 1205              		.thumb_func
 1207              	HAL_TIMEx_HallSensor_Stop_DMA:
 1208              	.LFB141:
 559:Drivers/STM32L4xx_HAL_Driver/Src/stm32l4xx_hal_tim_ex.c **** 
 560:Drivers/STM32L4xx_HAL_Driver/Src/stm32l4xx_hal_tim_ex.c **** /**
 561:Drivers/STM32L4xx_HAL_Driver/Src/stm32l4xx_hal_tim_ex.c ****   * @brief  Stops the TIM Hall Sensor Interface in DMA mode.
 562:Drivers/STM32L4xx_HAL_Driver/Src/stm32l4xx_hal_tim_ex.c ****   * @param  htim TIM Hall Sensor Interface handle
 563:Drivers/STM32L4xx_HAL_Driver/Src/stm32l4xx_hal_tim_ex.c ****   * @retval HAL status
 564:Drivers/STM32L4xx_HAL_Driver/Src/stm32l4xx_hal_tim_ex.c ****   */
 565:Drivers/STM32L4xx_HAL_Driver/Src/stm32l4xx_hal_tim_ex.c **** HAL_StatusTypeDef HAL_TIMEx_HallSensor_Stop_DMA(TIM_HandleTypeDef *htim)
 566:Drivers/STM32L4xx_HAL_Driver/Src/stm32l4xx_hal_tim_ex.c **** {
 1209              		.loc 1 566 1
 1210              		.cfi_startproc
 1211              		@ args = 0, pretend = 0, frame = 8
 1212              		@ frame_needed = 1, uses_anonymous_args = 0
ARM GAS  /tmp/ccR4xO3u.s 			page 32


 1213 0000 80B5     		push	{r7, lr}
 1214              	.LCFI47:
 1215              		.cfi_def_cfa_offset 8
 1216              		.cfi_offset 7, -8
 1217              		.cfi_offset 14, -4
 1218 0002 82B0     		sub	sp, sp, #8
 1219              	.LCFI48:
 1220              		.cfi_def_cfa_offset 16
 1221 0004 00AF     		add	r7, sp, #0
 1222              	.LCFI49:
 1223              		.cfi_def_cfa_register 7
 1224 0006 7860     		str	r0, [r7, #4]
 567:Drivers/STM32L4xx_HAL_Driver/Src/stm32l4xx_hal_tim_ex.c ****   /* Check the parameters */
 568:Drivers/STM32L4xx_HAL_Driver/Src/stm32l4xx_hal_tim_ex.c ****   assert_param(IS_TIM_HALL_SENSOR_INTERFACE_INSTANCE(htim->Instance));
 569:Drivers/STM32L4xx_HAL_Driver/Src/stm32l4xx_hal_tim_ex.c **** 
 570:Drivers/STM32L4xx_HAL_Driver/Src/stm32l4xx_hal_tim_ex.c ****   /* Disable the Input Capture channel 1
 571:Drivers/STM32L4xx_HAL_Driver/Src/stm32l4xx_hal_tim_ex.c ****   (in the Hall Sensor Interface the three possible channels that can be used are TIM_CHANNEL_1,
 572:Drivers/STM32L4xx_HAL_Driver/Src/stm32l4xx_hal_tim_ex.c ****   TIM_CHANNEL_2 and TIM_CHANNEL_3) */
 573:Drivers/STM32L4xx_HAL_Driver/Src/stm32l4xx_hal_tim_ex.c ****   TIM_CCxChannelCmd(htim->Instance, TIM_CHANNEL_1, TIM_CCx_DISABLE);
 1225              		.loc 1 573 3
 1226 0008 7B68     		ldr	r3, [r7, #4]
 1227 000a 1B68     		ldr	r3, [r3]
 1228 000c 0022     		movs	r2, #0
 1229 000e 0021     		movs	r1, #0
 1230 0010 1846     		mov	r0, r3
 1231 0012 FFF7FEFF 		bl	TIM_CCxChannelCmd
 574:Drivers/STM32L4xx_HAL_Driver/Src/stm32l4xx_hal_tim_ex.c **** 
 575:Drivers/STM32L4xx_HAL_Driver/Src/stm32l4xx_hal_tim_ex.c **** 
 576:Drivers/STM32L4xx_HAL_Driver/Src/stm32l4xx_hal_tim_ex.c ****   /* Disable the capture compare Interrupts 1 event */
 577:Drivers/STM32L4xx_HAL_Driver/Src/stm32l4xx_hal_tim_ex.c ****   __HAL_TIM_DISABLE_DMA(htim, TIM_DMA_CC1);
 1232              		.loc 1 577 3
 1233 0016 7B68     		ldr	r3, [r7, #4]
 1234 0018 1B68     		ldr	r3, [r3]
 1235 001a DA68     		ldr	r2, [r3, #12]
 1236 001c 7B68     		ldr	r3, [r7, #4]
 1237 001e 1B68     		ldr	r3, [r3]
 1238 0020 22F40072 		bic	r2, r2, #512
 1239 0024 DA60     		str	r2, [r3, #12]
 578:Drivers/STM32L4xx_HAL_Driver/Src/stm32l4xx_hal_tim_ex.c **** 
 579:Drivers/STM32L4xx_HAL_Driver/Src/stm32l4xx_hal_tim_ex.c ****   (void)HAL_DMA_Abort_IT(htim->hdma[TIM_DMA_ID_CC1]);
 1240              		.loc 1 579 9
 1241 0026 7B68     		ldr	r3, [r7, #4]
 1242 0028 5B6A     		ldr	r3, [r3, #36]
 1243 002a 1846     		mov	r0, r3
 1244 002c FFF7FEFF 		bl	HAL_DMA_Abort_IT
 580:Drivers/STM32L4xx_HAL_Driver/Src/stm32l4xx_hal_tim_ex.c **** 
 581:Drivers/STM32L4xx_HAL_Driver/Src/stm32l4xx_hal_tim_ex.c ****   /* Disable the Peripheral */
 582:Drivers/STM32L4xx_HAL_Driver/Src/stm32l4xx_hal_tim_ex.c ****   __HAL_TIM_DISABLE(htim);
 1245              		.loc 1 582 3
 1246 0030 7B68     		ldr	r3, [r7, #4]
 1247 0032 1B68     		ldr	r3, [r3]
 1248 0034 1A6A     		ldr	r2, [r3, #32]
 1249 0036 41F21113 		movw	r3, #4369
 1250 003a 1340     		ands	r3, r3, r2
 1251 003c 002B     		cmp	r3, #0
 1252 003e 0FD1     		bne	.L57
 1253              		.loc 1 582 3 is_stmt 0 discriminator 1
ARM GAS  /tmp/ccR4xO3u.s 			page 33


 1254 0040 7B68     		ldr	r3, [r7, #4]
 1255 0042 1B68     		ldr	r3, [r3]
 1256 0044 1A6A     		ldr	r2, [r3, #32]
 1257 0046 40F24443 		movw	r3, #1092
 1258 004a 1340     		ands	r3, r3, r2
 1259 004c 002B     		cmp	r3, #0
 1260 004e 07D1     		bne	.L57
 1261              		.loc 1 582 3 discriminator 2
 1262 0050 7B68     		ldr	r3, [r7, #4]
 1263 0052 1B68     		ldr	r3, [r3]
 1264 0054 1A68     		ldr	r2, [r3]
 1265 0056 7B68     		ldr	r3, [r7, #4]
 1266 0058 1B68     		ldr	r3, [r3]
 1267 005a 22F00102 		bic	r2, r2, #1
 1268 005e 1A60     		str	r2, [r3]
 1269              	.L57:
 583:Drivers/STM32L4xx_HAL_Driver/Src/stm32l4xx_hal_tim_ex.c **** 
 584:Drivers/STM32L4xx_HAL_Driver/Src/stm32l4xx_hal_tim_ex.c ****   /* Set the TIM channel state */
 585:Drivers/STM32L4xx_HAL_Driver/Src/stm32l4xx_hal_tim_ex.c ****   TIM_CHANNEL_STATE_SET(htim, TIM_CHANNEL_1, HAL_TIM_CHANNEL_STATE_READY);
 1270              		.loc 1 585 3 is_stmt 1
 1271 0060 7B68     		ldr	r3, [r7, #4]
 1272 0062 0122     		movs	r2, #1
 1273 0064 83F83E20 		strb	r2, [r3, #62]
 586:Drivers/STM32L4xx_HAL_Driver/Src/stm32l4xx_hal_tim_ex.c ****   TIM_CHANNEL_N_STATE_SET(htim, TIM_CHANNEL_1, HAL_TIM_CHANNEL_STATE_READY);
 1274              		.loc 1 586 3
 1275 0068 7B68     		ldr	r3, [r7, #4]
 1276 006a 0122     		movs	r2, #1
 1277 006c 83F84420 		strb	r2, [r3, #68]
 587:Drivers/STM32L4xx_HAL_Driver/Src/stm32l4xx_hal_tim_ex.c **** 
 588:Drivers/STM32L4xx_HAL_Driver/Src/stm32l4xx_hal_tim_ex.c ****   /* Return function status */
 589:Drivers/STM32L4xx_HAL_Driver/Src/stm32l4xx_hal_tim_ex.c ****   return HAL_OK;
 1278              		.loc 1 589 10
 1279 0070 0023     		movs	r3, #0
 590:Drivers/STM32L4xx_HAL_Driver/Src/stm32l4xx_hal_tim_ex.c **** }
 1280              		.loc 1 590 1
 1281 0072 1846     		mov	r0, r3
 1282 0074 0837     		adds	r7, r7, #8
 1283              	.LCFI50:
 1284              		.cfi_def_cfa_offset 8
 1285 0076 BD46     		mov	sp, r7
 1286              	.LCFI51:
 1287              		.cfi_def_cfa_register 13
 1288              		@ sp needed
 1289 0078 80BD     		pop	{r7, pc}
 1290              		.cfi_endproc
 1291              	.LFE141:
 1293              		.section	.text.HAL_TIMEx_OCN_Start,"ax",%progbits
 1294              		.align	1
 1295              		.global	HAL_TIMEx_OCN_Start
 1296              		.syntax unified
 1297              		.thumb
 1298              		.thumb_func
 1300              	HAL_TIMEx_OCN_Start:
 1301              	.LFB142:
 591:Drivers/STM32L4xx_HAL_Driver/Src/stm32l4xx_hal_tim_ex.c **** 
 592:Drivers/STM32L4xx_HAL_Driver/Src/stm32l4xx_hal_tim_ex.c **** /**
 593:Drivers/STM32L4xx_HAL_Driver/Src/stm32l4xx_hal_tim_ex.c ****   * @}
ARM GAS  /tmp/ccR4xO3u.s 			page 34


 594:Drivers/STM32L4xx_HAL_Driver/Src/stm32l4xx_hal_tim_ex.c ****   */
 595:Drivers/STM32L4xx_HAL_Driver/Src/stm32l4xx_hal_tim_ex.c **** 
 596:Drivers/STM32L4xx_HAL_Driver/Src/stm32l4xx_hal_tim_ex.c **** /** @defgroup TIMEx_Exported_Functions_Group2 Extended Timer Complementary Output Compare functions
 597:Drivers/STM32L4xx_HAL_Driver/Src/stm32l4xx_hal_tim_ex.c ****   *  @brief   Timer Complementary Output Compare functions
 598:Drivers/STM32L4xx_HAL_Driver/Src/stm32l4xx_hal_tim_ex.c ****   *
 599:Drivers/STM32L4xx_HAL_Driver/Src/stm32l4xx_hal_tim_ex.c **** @verbatim
 600:Drivers/STM32L4xx_HAL_Driver/Src/stm32l4xx_hal_tim_ex.c ****   ==============================================================================
 601:Drivers/STM32L4xx_HAL_Driver/Src/stm32l4xx_hal_tim_ex.c ****               ##### Timer Complementary Output Compare functions #####
 602:Drivers/STM32L4xx_HAL_Driver/Src/stm32l4xx_hal_tim_ex.c ****   ==============================================================================
 603:Drivers/STM32L4xx_HAL_Driver/Src/stm32l4xx_hal_tim_ex.c ****   [..]
 604:Drivers/STM32L4xx_HAL_Driver/Src/stm32l4xx_hal_tim_ex.c ****     This section provides functions allowing to:
 605:Drivers/STM32L4xx_HAL_Driver/Src/stm32l4xx_hal_tim_ex.c ****     (+) Start the Complementary Output Compare/PWM.
 606:Drivers/STM32L4xx_HAL_Driver/Src/stm32l4xx_hal_tim_ex.c ****     (+) Stop the Complementary Output Compare/PWM.
 607:Drivers/STM32L4xx_HAL_Driver/Src/stm32l4xx_hal_tim_ex.c ****     (+) Start the Complementary Output Compare/PWM and enable interrupts.
 608:Drivers/STM32L4xx_HAL_Driver/Src/stm32l4xx_hal_tim_ex.c ****     (+) Stop the Complementary Output Compare/PWM and disable interrupts.
 609:Drivers/STM32L4xx_HAL_Driver/Src/stm32l4xx_hal_tim_ex.c ****     (+) Start the Complementary Output Compare/PWM and enable DMA transfers.
 610:Drivers/STM32L4xx_HAL_Driver/Src/stm32l4xx_hal_tim_ex.c ****     (+) Stop the Complementary Output Compare/PWM and disable DMA transfers.
 611:Drivers/STM32L4xx_HAL_Driver/Src/stm32l4xx_hal_tim_ex.c **** 
 612:Drivers/STM32L4xx_HAL_Driver/Src/stm32l4xx_hal_tim_ex.c **** @endverbatim
 613:Drivers/STM32L4xx_HAL_Driver/Src/stm32l4xx_hal_tim_ex.c ****   * @{
 614:Drivers/STM32L4xx_HAL_Driver/Src/stm32l4xx_hal_tim_ex.c ****   */
 615:Drivers/STM32L4xx_HAL_Driver/Src/stm32l4xx_hal_tim_ex.c **** 
 616:Drivers/STM32L4xx_HAL_Driver/Src/stm32l4xx_hal_tim_ex.c **** /**
 617:Drivers/STM32L4xx_HAL_Driver/Src/stm32l4xx_hal_tim_ex.c ****   * @brief  Starts the TIM Output Compare signal generation on the complementary
 618:Drivers/STM32L4xx_HAL_Driver/Src/stm32l4xx_hal_tim_ex.c ****   *         output.
 619:Drivers/STM32L4xx_HAL_Driver/Src/stm32l4xx_hal_tim_ex.c ****   * @param  htim TIM Output Compare handle
 620:Drivers/STM32L4xx_HAL_Driver/Src/stm32l4xx_hal_tim_ex.c ****   * @param  Channel TIM Channel to be enabled
 621:Drivers/STM32L4xx_HAL_Driver/Src/stm32l4xx_hal_tim_ex.c ****   *          This parameter can be one of the following values:
 622:Drivers/STM32L4xx_HAL_Driver/Src/stm32l4xx_hal_tim_ex.c ****   *            @arg TIM_CHANNEL_1: TIM Channel 1 selected
 623:Drivers/STM32L4xx_HAL_Driver/Src/stm32l4xx_hal_tim_ex.c ****   *            @arg TIM_CHANNEL_2: TIM Channel 2 selected
 624:Drivers/STM32L4xx_HAL_Driver/Src/stm32l4xx_hal_tim_ex.c ****   *            @arg TIM_CHANNEL_3: TIM Channel 3 selected
 625:Drivers/STM32L4xx_HAL_Driver/Src/stm32l4xx_hal_tim_ex.c ****   * @retval HAL status
 626:Drivers/STM32L4xx_HAL_Driver/Src/stm32l4xx_hal_tim_ex.c ****   */
 627:Drivers/STM32L4xx_HAL_Driver/Src/stm32l4xx_hal_tim_ex.c **** HAL_StatusTypeDef HAL_TIMEx_OCN_Start(TIM_HandleTypeDef *htim, uint32_t Channel)
 628:Drivers/STM32L4xx_HAL_Driver/Src/stm32l4xx_hal_tim_ex.c **** {
 1302              		.loc 1 628 1
 1303              		.cfi_startproc
 1304              		@ args = 0, pretend = 0, frame = 16
 1305              		@ frame_needed = 1, uses_anonymous_args = 0
 1306 0000 80B5     		push	{r7, lr}
 1307              	.LCFI52:
 1308              		.cfi_def_cfa_offset 8
 1309              		.cfi_offset 7, -8
 1310              		.cfi_offset 14, -4
 1311 0002 84B0     		sub	sp, sp, #16
 1312              	.LCFI53:
 1313              		.cfi_def_cfa_offset 24
 1314 0004 00AF     		add	r7, sp, #0
 1315              	.LCFI54:
 1316              		.cfi_def_cfa_register 7
 1317 0006 7860     		str	r0, [r7, #4]
 1318 0008 3960     		str	r1, [r7]
 629:Drivers/STM32L4xx_HAL_Driver/Src/stm32l4xx_hal_tim_ex.c ****   uint32_t tmpsmcr;
 630:Drivers/STM32L4xx_HAL_Driver/Src/stm32l4xx_hal_tim_ex.c **** 
 631:Drivers/STM32L4xx_HAL_Driver/Src/stm32l4xx_hal_tim_ex.c ****   /* Check the parameters */
 632:Drivers/STM32L4xx_HAL_Driver/Src/stm32l4xx_hal_tim_ex.c ****   assert_param(IS_TIM_CCXN_INSTANCE(htim->Instance, Channel));
 633:Drivers/STM32L4xx_HAL_Driver/Src/stm32l4xx_hal_tim_ex.c **** 
ARM GAS  /tmp/ccR4xO3u.s 			page 35


 634:Drivers/STM32L4xx_HAL_Driver/Src/stm32l4xx_hal_tim_ex.c ****   /* Check the TIM complementary channel state */
 635:Drivers/STM32L4xx_HAL_Driver/Src/stm32l4xx_hal_tim_ex.c ****   if (TIM_CHANNEL_N_STATE_GET(htim, Channel) != HAL_TIM_CHANNEL_STATE_READY)
 1319              		.loc 1 635 46
 1320 000a 3B68     		ldr	r3, [r7]
 1321 000c 002B     		cmp	r3, #0
 1322 000e 09D1     		bne	.L60
 1323              		.loc 1 635 7 discriminator 1
 1324 0010 7B68     		ldr	r3, [r7, #4]
 1325 0012 93F84430 		ldrb	r3, [r3, #68]
 1326 0016 DBB2     		uxtb	r3, r3
 1327              		.loc 1 635 46 discriminator 1
 1328 0018 012B     		cmp	r3, #1
 1329 001a 14BF     		ite	ne
 1330 001c 0123     		movne	r3, #1
 1331 001e 0023     		moveq	r3, #0
 1332 0020 DBB2     		uxtb	r3, r3
 1333 0022 22E0     		b	.L61
 1334              	.L60:
 1335              		.loc 1 635 46 is_stmt 0 discriminator 2
 1336 0024 3B68     		ldr	r3, [r7]
 1337 0026 042B     		cmp	r3, #4
 1338 0028 09D1     		bne	.L62
 1339              		.loc 1 635 7 is_stmt 1 discriminator 4
 1340 002a 7B68     		ldr	r3, [r7, #4]
 1341 002c 93F84530 		ldrb	r3, [r3, #69]
 1342 0030 DBB2     		uxtb	r3, r3
 1343              		.loc 1 635 46 discriminator 4
 1344 0032 012B     		cmp	r3, #1
 1345 0034 14BF     		ite	ne
 1346 0036 0123     		movne	r3, #1
 1347 0038 0023     		moveq	r3, #0
 1348 003a DBB2     		uxtb	r3, r3
 1349 003c 15E0     		b	.L61
 1350              	.L62:
 1351              		.loc 1 635 46 is_stmt 0 discriminator 5
 1352 003e 3B68     		ldr	r3, [r7]
 1353 0040 082B     		cmp	r3, #8
 1354 0042 09D1     		bne	.L64
 1355              		.loc 1 635 7 is_stmt 1 discriminator 7
 1356 0044 7B68     		ldr	r3, [r7, #4]
 1357 0046 93F84630 		ldrb	r3, [r3, #70]
 1358 004a DBB2     		uxtb	r3, r3
 1359              		.loc 1 635 46 discriminator 7
 1360 004c 012B     		cmp	r3, #1
 1361 004e 14BF     		ite	ne
 1362 0050 0123     		movne	r3, #1
 1363 0052 0023     		moveq	r3, #0
 1364 0054 DBB2     		uxtb	r3, r3
 1365 0056 08E0     		b	.L61
 1366              	.L64:
 1367              		.loc 1 635 7 discriminator 8
 1368 0058 7B68     		ldr	r3, [r7, #4]
 1369 005a 93F84730 		ldrb	r3, [r3, #71]
 1370 005e DBB2     		uxtb	r3, r3
 1371              		.loc 1 635 46 discriminator 8
 1372 0060 012B     		cmp	r3, #1
 1373 0062 14BF     		ite	ne
ARM GAS  /tmp/ccR4xO3u.s 			page 36


 1374 0064 0123     		movne	r3, #1
 1375 0066 0023     		moveq	r3, #0
 1376 0068 DBB2     		uxtb	r3, r3
 1377              	.L61:
 1378              		.loc 1 635 6 discriminator 12
 1379 006a 002B     		cmp	r3, #0
 1380 006c 01D0     		beq	.L66
 636:Drivers/STM32L4xx_HAL_Driver/Src/stm32l4xx_hal_tim_ex.c ****   {
 637:Drivers/STM32L4xx_HAL_Driver/Src/stm32l4xx_hal_tim_ex.c ****     return HAL_ERROR;
 1381              		.loc 1 637 12
 1382 006e 0123     		movs	r3, #1
 1383 0070 5AE0     		b	.L67
 1384              	.L66:
 638:Drivers/STM32L4xx_HAL_Driver/Src/stm32l4xx_hal_tim_ex.c ****   }
 639:Drivers/STM32L4xx_HAL_Driver/Src/stm32l4xx_hal_tim_ex.c **** 
 640:Drivers/STM32L4xx_HAL_Driver/Src/stm32l4xx_hal_tim_ex.c ****   /* Set the TIM complementary channel state */
 641:Drivers/STM32L4xx_HAL_Driver/Src/stm32l4xx_hal_tim_ex.c ****   TIM_CHANNEL_N_STATE_SET(htim, Channel, HAL_TIM_CHANNEL_STATE_BUSY);
 1385              		.loc 1 641 3
 1386 0072 3B68     		ldr	r3, [r7]
 1387 0074 002B     		cmp	r3, #0
 1388 0076 04D1     		bne	.L68
 1389              		.loc 1 641 3 is_stmt 0 discriminator 1
 1390 0078 7B68     		ldr	r3, [r7, #4]
 1391 007a 0222     		movs	r2, #2
 1392 007c 83F84420 		strb	r2, [r3, #68]
 1393 0080 13E0     		b	.L69
 1394              	.L68:
 1395              		.loc 1 641 3 discriminator 2
 1396 0082 3B68     		ldr	r3, [r7]
 1397 0084 042B     		cmp	r3, #4
 1398 0086 04D1     		bne	.L70
 1399              		.loc 1 641 3 discriminator 3
 1400 0088 7B68     		ldr	r3, [r7, #4]
 1401 008a 0222     		movs	r2, #2
 1402 008c 83F84520 		strb	r2, [r3, #69]
 1403 0090 0BE0     		b	.L69
 1404              	.L70:
 1405              		.loc 1 641 3 discriminator 4
 1406 0092 3B68     		ldr	r3, [r7]
 1407 0094 082B     		cmp	r3, #8
 1408 0096 04D1     		bne	.L72
 1409              		.loc 1 641 3 discriminator 6
 1410 0098 7B68     		ldr	r3, [r7, #4]
 1411 009a 0222     		movs	r2, #2
 1412 009c 83F84620 		strb	r2, [r3, #70]
 1413 00a0 03E0     		b	.L69
 1414              	.L72:
 1415              		.loc 1 641 3 discriminator 7
 1416 00a2 7B68     		ldr	r3, [r7, #4]
 1417 00a4 0222     		movs	r2, #2
 1418 00a6 83F84720 		strb	r2, [r3, #71]
 1419              	.L69:
 642:Drivers/STM32L4xx_HAL_Driver/Src/stm32l4xx_hal_tim_ex.c **** 
 643:Drivers/STM32L4xx_HAL_Driver/Src/stm32l4xx_hal_tim_ex.c ****   /* Enable the Capture compare channel N */
 644:Drivers/STM32L4xx_HAL_Driver/Src/stm32l4xx_hal_tim_ex.c ****   TIM_CCxNChannelCmd(htim->Instance, Channel, TIM_CCxN_ENABLE);
 1420              		.loc 1 644 3 is_stmt 1
 1421 00aa 7B68     		ldr	r3, [r7, #4]
ARM GAS  /tmp/ccR4xO3u.s 			page 37


 1422 00ac 1B68     		ldr	r3, [r3]
 1423 00ae 0422     		movs	r2, #4
 1424 00b0 3968     		ldr	r1, [r7]
 1425 00b2 1846     		mov	r0, r3
 1426 00b4 FFF7FEFF 		bl	TIM_CCxNChannelCmd
 645:Drivers/STM32L4xx_HAL_Driver/Src/stm32l4xx_hal_tim_ex.c **** 
 646:Drivers/STM32L4xx_HAL_Driver/Src/stm32l4xx_hal_tim_ex.c ****   /* Enable the Main Output */
 647:Drivers/STM32L4xx_HAL_Driver/Src/stm32l4xx_hal_tim_ex.c ****   __HAL_TIM_MOE_ENABLE(htim);
 1427              		.loc 1 647 3
 1428 00b8 7B68     		ldr	r3, [r7, #4]
 1429 00ba 1B68     		ldr	r3, [r3]
 1430 00bc 5A6C     		ldr	r2, [r3, #68]
 1431 00be 7B68     		ldr	r3, [r7, #4]
 1432 00c0 1B68     		ldr	r3, [r3]
 1433 00c2 42F40042 		orr	r2, r2, #32768
 1434 00c6 5A64     		str	r2, [r3, #68]
 648:Drivers/STM32L4xx_HAL_Driver/Src/stm32l4xx_hal_tim_ex.c **** 
 649:Drivers/STM32L4xx_HAL_Driver/Src/stm32l4xx_hal_tim_ex.c ****   /* Enable the Peripheral, except in trigger mode where enable is automatically done with trigger 
 650:Drivers/STM32L4xx_HAL_Driver/Src/stm32l4xx_hal_tim_ex.c ****   if (IS_TIM_SLAVE_INSTANCE(htim->Instance))
 1435              		.loc 1 650 7
 1436 00c8 7B68     		ldr	r3, [r7, #4]
 1437 00ca 1B68     		ldr	r3, [r3]
 1438              		.loc 1 650 6
 1439 00cc 184A     		ldr	r2, .L79
 1440 00ce 9342     		cmp	r3, r2
 1441 00d0 09D0     		beq	.L74
 1442              		.loc 1 650 7 discriminator 1
 1443 00d2 7B68     		ldr	r3, [r7, #4]
 1444 00d4 1B68     		ldr	r3, [r3]
 1445 00d6 B3F1804F 		cmp	r3, #1073741824
 1446 00da 04D0     		beq	.L74
 1447              		.loc 1 650 7 is_stmt 0 discriminator 2
 1448 00dc 7B68     		ldr	r3, [r7, #4]
 1449 00de 1B68     		ldr	r3, [r3]
 1450 00e0 144A     		ldr	r2, .L79+4
 1451 00e2 9342     		cmp	r3, r2
 1452 00e4 15D1     		bne	.L75
 1453              	.L74:
 651:Drivers/STM32L4xx_HAL_Driver/Src/stm32l4xx_hal_tim_ex.c ****   {
 652:Drivers/STM32L4xx_HAL_Driver/Src/stm32l4xx_hal_tim_ex.c ****     tmpsmcr = htim->Instance->SMCR & TIM_SMCR_SMS;
 1454              		.loc 1 652 19 is_stmt 1
 1455 00e6 7B68     		ldr	r3, [r7, #4]
 1456 00e8 1B68     		ldr	r3, [r3]
 1457              		.loc 1 652 29
 1458 00ea 9A68     		ldr	r2, [r3, #8]
 1459              		.loc 1 652 13
 1460 00ec 124B     		ldr	r3, .L79+8
 1461 00ee 1340     		ands	r3, r3, r2
 1462 00f0 FB60     		str	r3, [r7, #12]
 653:Drivers/STM32L4xx_HAL_Driver/Src/stm32l4xx_hal_tim_ex.c ****     if (!IS_TIM_SLAVEMODE_TRIGGER_ENABLED(tmpsmcr))
 1463              		.loc 1 653 8
 1464 00f2 FB68     		ldr	r3, [r7, #12]
 1465 00f4 062B     		cmp	r3, #6
 1466 00f6 15D0     		beq	.L78
 1467              		.loc 1 653 9 discriminator 1
 1468 00f8 FB68     		ldr	r3, [r7, #12]
 1469 00fa B3F5803F 		cmp	r3, #65536
ARM GAS  /tmp/ccR4xO3u.s 			page 38


 1470 00fe 11D0     		beq	.L78
 654:Drivers/STM32L4xx_HAL_Driver/Src/stm32l4xx_hal_tim_ex.c ****     {
 655:Drivers/STM32L4xx_HAL_Driver/Src/stm32l4xx_hal_tim_ex.c ****       __HAL_TIM_ENABLE(htim);
 1471              		.loc 1 655 7
 1472 0100 7B68     		ldr	r3, [r7, #4]
 1473 0102 1B68     		ldr	r3, [r3]
 1474 0104 1A68     		ldr	r2, [r3]
 1475 0106 7B68     		ldr	r3, [r7, #4]
 1476 0108 1B68     		ldr	r3, [r3]
 1477 010a 42F00102 		orr	r2, r2, #1
 1478 010e 1A60     		str	r2, [r3]
 653:Drivers/STM32L4xx_HAL_Driver/Src/stm32l4xx_hal_tim_ex.c ****     if (!IS_TIM_SLAVEMODE_TRIGGER_ENABLED(tmpsmcr))
 1479              		.loc 1 653 8
 1480 0110 08E0     		b	.L78
 1481              	.L75:
 656:Drivers/STM32L4xx_HAL_Driver/Src/stm32l4xx_hal_tim_ex.c ****     }
 657:Drivers/STM32L4xx_HAL_Driver/Src/stm32l4xx_hal_tim_ex.c ****   }
 658:Drivers/STM32L4xx_HAL_Driver/Src/stm32l4xx_hal_tim_ex.c ****   else
 659:Drivers/STM32L4xx_HAL_Driver/Src/stm32l4xx_hal_tim_ex.c ****   {
 660:Drivers/STM32L4xx_HAL_Driver/Src/stm32l4xx_hal_tim_ex.c ****     __HAL_TIM_ENABLE(htim);
 1482              		.loc 1 660 5
 1483 0112 7B68     		ldr	r3, [r7, #4]
 1484 0114 1B68     		ldr	r3, [r3]
 1485 0116 1A68     		ldr	r2, [r3]
 1486 0118 7B68     		ldr	r3, [r7, #4]
 1487 011a 1B68     		ldr	r3, [r3]
 1488 011c 42F00102 		orr	r2, r2, #1
 1489 0120 1A60     		str	r2, [r3]
 1490 0122 00E0     		b	.L77
 1491              	.L78:
 653:Drivers/STM32L4xx_HAL_Driver/Src/stm32l4xx_hal_tim_ex.c ****     {
 1492              		.loc 1 653 8
 1493 0124 00BF     		nop
 1494              	.L77:
 661:Drivers/STM32L4xx_HAL_Driver/Src/stm32l4xx_hal_tim_ex.c ****   }
 662:Drivers/STM32L4xx_HAL_Driver/Src/stm32l4xx_hal_tim_ex.c **** 
 663:Drivers/STM32L4xx_HAL_Driver/Src/stm32l4xx_hal_tim_ex.c ****   /* Return function status */
 664:Drivers/STM32L4xx_HAL_Driver/Src/stm32l4xx_hal_tim_ex.c ****   return HAL_OK;
 1495              		.loc 1 664 10
 1496 0126 0023     		movs	r3, #0
 1497              	.L67:
 665:Drivers/STM32L4xx_HAL_Driver/Src/stm32l4xx_hal_tim_ex.c **** }
 1498              		.loc 1 665 1
 1499 0128 1846     		mov	r0, r3
 1500 012a 1037     		adds	r7, r7, #16
 1501              	.LCFI55:
 1502              		.cfi_def_cfa_offset 8
 1503 012c BD46     		mov	sp, r7
 1504              	.LCFI56:
 1505              		.cfi_def_cfa_register 13
 1506              		@ sp needed
 1507 012e 80BD     		pop	{r7, pc}
 1508              	.L80:
 1509              		.align	2
 1510              	.L79:
 1511 0130 002C0140 		.word	1073818624
 1512 0134 00400140 		.word	1073823744
ARM GAS  /tmp/ccR4xO3u.s 			page 39


 1513 0138 07000100 		.word	65543
 1514              		.cfi_endproc
 1515              	.LFE142:
 1517              		.section	.text.HAL_TIMEx_OCN_Stop,"ax",%progbits
 1518              		.align	1
 1519              		.global	HAL_TIMEx_OCN_Stop
 1520              		.syntax unified
 1521              		.thumb
 1522              		.thumb_func
 1524              	HAL_TIMEx_OCN_Stop:
 1525              	.LFB143:
 666:Drivers/STM32L4xx_HAL_Driver/Src/stm32l4xx_hal_tim_ex.c **** 
 667:Drivers/STM32L4xx_HAL_Driver/Src/stm32l4xx_hal_tim_ex.c **** /**
 668:Drivers/STM32L4xx_HAL_Driver/Src/stm32l4xx_hal_tim_ex.c ****   * @brief  Stops the TIM Output Compare signal generation on the complementary
 669:Drivers/STM32L4xx_HAL_Driver/Src/stm32l4xx_hal_tim_ex.c ****   *         output.
 670:Drivers/STM32L4xx_HAL_Driver/Src/stm32l4xx_hal_tim_ex.c ****   * @param  htim TIM handle
 671:Drivers/STM32L4xx_HAL_Driver/Src/stm32l4xx_hal_tim_ex.c ****   * @param  Channel TIM Channel to be disabled
 672:Drivers/STM32L4xx_HAL_Driver/Src/stm32l4xx_hal_tim_ex.c ****   *          This parameter can be one of the following values:
 673:Drivers/STM32L4xx_HAL_Driver/Src/stm32l4xx_hal_tim_ex.c ****   *            @arg TIM_CHANNEL_1: TIM Channel 1 selected
 674:Drivers/STM32L4xx_HAL_Driver/Src/stm32l4xx_hal_tim_ex.c ****   *            @arg TIM_CHANNEL_2: TIM Channel 2 selected
 675:Drivers/STM32L4xx_HAL_Driver/Src/stm32l4xx_hal_tim_ex.c ****   *            @arg TIM_CHANNEL_3: TIM Channel 3 selected
 676:Drivers/STM32L4xx_HAL_Driver/Src/stm32l4xx_hal_tim_ex.c ****   * @retval HAL status
 677:Drivers/STM32L4xx_HAL_Driver/Src/stm32l4xx_hal_tim_ex.c ****   */
 678:Drivers/STM32L4xx_HAL_Driver/Src/stm32l4xx_hal_tim_ex.c **** HAL_StatusTypeDef HAL_TIMEx_OCN_Stop(TIM_HandleTypeDef *htim, uint32_t Channel)
 679:Drivers/STM32L4xx_HAL_Driver/Src/stm32l4xx_hal_tim_ex.c **** {
 1526              		.loc 1 679 1
 1527              		.cfi_startproc
 1528              		@ args = 0, pretend = 0, frame = 8
 1529              		@ frame_needed = 1, uses_anonymous_args = 0
 1530 0000 80B5     		push	{r7, lr}
 1531              	.LCFI57:
 1532              		.cfi_def_cfa_offset 8
 1533              		.cfi_offset 7, -8
 1534              		.cfi_offset 14, -4
 1535 0002 82B0     		sub	sp, sp, #8
 1536              	.LCFI58:
 1537              		.cfi_def_cfa_offset 16
 1538 0004 00AF     		add	r7, sp, #0
 1539              	.LCFI59:
 1540              		.cfi_def_cfa_register 7
 1541 0006 7860     		str	r0, [r7, #4]
 1542 0008 3960     		str	r1, [r7]
 680:Drivers/STM32L4xx_HAL_Driver/Src/stm32l4xx_hal_tim_ex.c ****   /* Check the parameters */
 681:Drivers/STM32L4xx_HAL_Driver/Src/stm32l4xx_hal_tim_ex.c ****   assert_param(IS_TIM_CCXN_INSTANCE(htim->Instance, Channel));
 682:Drivers/STM32L4xx_HAL_Driver/Src/stm32l4xx_hal_tim_ex.c **** 
 683:Drivers/STM32L4xx_HAL_Driver/Src/stm32l4xx_hal_tim_ex.c ****   /* Disable the Capture compare channel N */
 684:Drivers/STM32L4xx_HAL_Driver/Src/stm32l4xx_hal_tim_ex.c ****   TIM_CCxNChannelCmd(htim->Instance, Channel, TIM_CCxN_DISABLE);
 1543              		.loc 1 684 3
 1544 000a 7B68     		ldr	r3, [r7, #4]
 1545 000c 1B68     		ldr	r3, [r3]
 1546 000e 0022     		movs	r2, #0
 1547 0010 3968     		ldr	r1, [r7]
 1548 0012 1846     		mov	r0, r3
 1549 0014 FFF7FEFF 		bl	TIM_CCxNChannelCmd
 685:Drivers/STM32L4xx_HAL_Driver/Src/stm32l4xx_hal_tim_ex.c **** 
 686:Drivers/STM32L4xx_HAL_Driver/Src/stm32l4xx_hal_tim_ex.c ****   /* Disable the Main Output */
 687:Drivers/STM32L4xx_HAL_Driver/Src/stm32l4xx_hal_tim_ex.c ****   __HAL_TIM_MOE_DISABLE(htim);
ARM GAS  /tmp/ccR4xO3u.s 			page 40


 1550              		.loc 1 687 3
 1551 0018 7B68     		ldr	r3, [r7, #4]
 1552 001a 1B68     		ldr	r3, [r3]
 1553 001c 1A6A     		ldr	r2, [r3, #32]
 1554 001e 41F21113 		movw	r3, #4369
 1555 0022 1340     		ands	r3, r3, r2
 1556 0024 002B     		cmp	r3, #0
 1557 0026 0FD1     		bne	.L82
 1558              		.loc 1 687 3 is_stmt 0 discriminator 1
 1559 0028 7B68     		ldr	r3, [r7, #4]
 1560 002a 1B68     		ldr	r3, [r3]
 1561 002c 1A6A     		ldr	r2, [r3, #32]
 1562 002e 40F24443 		movw	r3, #1092
 1563 0032 1340     		ands	r3, r3, r2
 1564 0034 002B     		cmp	r3, #0
 1565 0036 07D1     		bne	.L82
 1566              		.loc 1 687 3 discriminator 2
 1567 0038 7B68     		ldr	r3, [r7, #4]
 1568 003a 1B68     		ldr	r3, [r3]
 1569 003c 5A6C     		ldr	r2, [r3, #68]
 1570 003e 7B68     		ldr	r3, [r7, #4]
 1571 0040 1B68     		ldr	r3, [r3]
 1572 0042 22F40042 		bic	r2, r2, #32768
 1573 0046 5A64     		str	r2, [r3, #68]
 1574              	.L82:
 688:Drivers/STM32L4xx_HAL_Driver/Src/stm32l4xx_hal_tim_ex.c **** 
 689:Drivers/STM32L4xx_HAL_Driver/Src/stm32l4xx_hal_tim_ex.c ****   /* Disable the Peripheral */
 690:Drivers/STM32L4xx_HAL_Driver/Src/stm32l4xx_hal_tim_ex.c ****   __HAL_TIM_DISABLE(htim);
 1575              		.loc 1 690 3 is_stmt 1
 1576 0048 7B68     		ldr	r3, [r7, #4]
 1577 004a 1B68     		ldr	r3, [r3]
 1578 004c 1A6A     		ldr	r2, [r3, #32]
 1579 004e 41F21113 		movw	r3, #4369
 1580 0052 1340     		ands	r3, r3, r2
 1581 0054 002B     		cmp	r3, #0
 1582 0056 0FD1     		bne	.L83
 1583              		.loc 1 690 3 is_stmt 0 discriminator 1
 1584 0058 7B68     		ldr	r3, [r7, #4]
 1585 005a 1B68     		ldr	r3, [r3]
 1586 005c 1A6A     		ldr	r2, [r3, #32]
 1587 005e 40F24443 		movw	r3, #1092
 1588 0062 1340     		ands	r3, r3, r2
 1589 0064 002B     		cmp	r3, #0
 1590 0066 07D1     		bne	.L83
 1591              		.loc 1 690 3 discriminator 2
 1592 0068 7B68     		ldr	r3, [r7, #4]
 1593 006a 1B68     		ldr	r3, [r3]
 1594 006c 1A68     		ldr	r2, [r3]
 1595 006e 7B68     		ldr	r3, [r7, #4]
 1596 0070 1B68     		ldr	r3, [r3]
 1597 0072 22F00102 		bic	r2, r2, #1
 1598 0076 1A60     		str	r2, [r3]
 1599              	.L83:
 691:Drivers/STM32L4xx_HAL_Driver/Src/stm32l4xx_hal_tim_ex.c **** 
 692:Drivers/STM32L4xx_HAL_Driver/Src/stm32l4xx_hal_tim_ex.c ****   /* Set the TIM complementary channel state */
 693:Drivers/STM32L4xx_HAL_Driver/Src/stm32l4xx_hal_tim_ex.c ****   TIM_CHANNEL_N_STATE_SET(htim, Channel, HAL_TIM_CHANNEL_STATE_READY);
 1600              		.loc 1 693 3 is_stmt 1
ARM GAS  /tmp/ccR4xO3u.s 			page 41


 1601 0078 3B68     		ldr	r3, [r7]
 1602 007a 002B     		cmp	r3, #0
 1603 007c 04D1     		bne	.L84
 1604              		.loc 1 693 3 is_stmt 0 discriminator 1
 1605 007e 7B68     		ldr	r3, [r7, #4]
 1606 0080 0122     		movs	r2, #1
 1607 0082 83F84420 		strb	r2, [r3, #68]
 1608 0086 13E0     		b	.L85
 1609              	.L84:
 1610              		.loc 1 693 3 discriminator 2
 1611 0088 3B68     		ldr	r3, [r7]
 1612 008a 042B     		cmp	r3, #4
 1613 008c 04D1     		bne	.L86
 1614              		.loc 1 693 3 discriminator 3
 1615 008e 7B68     		ldr	r3, [r7, #4]
 1616 0090 0122     		movs	r2, #1
 1617 0092 83F84520 		strb	r2, [r3, #69]
 1618 0096 0BE0     		b	.L85
 1619              	.L86:
 1620              		.loc 1 693 3 discriminator 4
 1621 0098 3B68     		ldr	r3, [r7]
 1622 009a 082B     		cmp	r3, #8
 1623 009c 04D1     		bne	.L88
 1624              		.loc 1 693 3 discriminator 6
 1625 009e 7B68     		ldr	r3, [r7, #4]
 1626 00a0 0122     		movs	r2, #1
 1627 00a2 83F84620 		strb	r2, [r3, #70]
 1628 00a6 03E0     		b	.L85
 1629              	.L88:
 1630              		.loc 1 693 3 discriminator 7
 1631 00a8 7B68     		ldr	r3, [r7, #4]
 1632 00aa 0122     		movs	r2, #1
 1633 00ac 83F84720 		strb	r2, [r3, #71]
 1634              	.L85:
 694:Drivers/STM32L4xx_HAL_Driver/Src/stm32l4xx_hal_tim_ex.c **** 
 695:Drivers/STM32L4xx_HAL_Driver/Src/stm32l4xx_hal_tim_ex.c ****   /* Return function status */
 696:Drivers/STM32L4xx_HAL_Driver/Src/stm32l4xx_hal_tim_ex.c ****   return HAL_OK;
 1635              		.loc 1 696 10 is_stmt 1
 1636 00b0 0023     		movs	r3, #0
 697:Drivers/STM32L4xx_HAL_Driver/Src/stm32l4xx_hal_tim_ex.c **** }
 1637              		.loc 1 697 1
 1638 00b2 1846     		mov	r0, r3
 1639 00b4 0837     		adds	r7, r7, #8
 1640              	.LCFI60:
 1641              		.cfi_def_cfa_offset 8
 1642 00b6 BD46     		mov	sp, r7
 1643              	.LCFI61:
 1644              		.cfi_def_cfa_register 13
 1645              		@ sp needed
 1646 00b8 80BD     		pop	{r7, pc}
 1647              		.cfi_endproc
 1648              	.LFE143:
 1650              		.section	.text.HAL_TIMEx_OCN_Start_IT,"ax",%progbits
 1651              		.align	1
 1652              		.global	HAL_TIMEx_OCN_Start_IT
 1653              		.syntax unified
 1654              		.thumb
ARM GAS  /tmp/ccR4xO3u.s 			page 42


 1655              		.thumb_func
 1657              	HAL_TIMEx_OCN_Start_IT:
 1658              	.LFB144:
 698:Drivers/STM32L4xx_HAL_Driver/Src/stm32l4xx_hal_tim_ex.c **** 
 699:Drivers/STM32L4xx_HAL_Driver/Src/stm32l4xx_hal_tim_ex.c **** /**
 700:Drivers/STM32L4xx_HAL_Driver/Src/stm32l4xx_hal_tim_ex.c ****   * @brief  Starts the TIM Output Compare signal generation in interrupt mode
 701:Drivers/STM32L4xx_HAL_Driver/Src/stm32l4xx_hal_tim_ex.c ****   *         on the complementary output.
 702:Drivers/STM32L4xx_HAL_Driver/Src/stm32l4xx_hal_tim_ex.c ****   * @param  htim TIM OC handle
 703:Drivers/STM32L4xx_HAL_Driver/Src/stm32l4xx_hal_tim_ex.c ****   * @param  Channel TIM Channel to be enabled
 704:Drivers/STM32L4xx_HAL_Driver/Src/stm32l4xx_hal_tim_ex.c ****   *          This parameter can be one of the following values:
 705:Drivers/STM32L4xx_HAL_Driver/Src/stm32l4xx_hal_tim_ex.c ****   *            @arg TIM_CHANNEL_1: TIM Channel 1 selected
 706:Drivers/STM32L4xx_HAL_Driver/Src/stm32l4xx_hal_tim_ex.c ****   *            @arg TIM_CHANNEL_2: TIM Channel 2 selected
 707:Drivers/STM32L4xx_HAL_Driver/Src/stm32l4xx_hal_tim_ex.c ****   *            @arg TIM_CHANNEL_3: TIM Channel 3 selected
 708:Drivers/STM32L4xx_HAL_Driver/Src/stm32l4xx_hal_tim_ex.c ****   * @retval HAL status
 709:Drivers/STM32L4xx_HAL_Driver/Src/stm32l4xx_hal_tim_ex.c ****   */
 710:Drivers/STM32L4xx_HAL_Driver/Src/stm32l4xx_hal_tim_ex.c **** HAL_StatusTypeDef HAL_TIMEx_OCN_Start_IT(TIM_HandleTypeDef *htim, uint32_t Channel)
 711:Drivers/STM32L4xx_HAL_Driver/Src/stm32l4xx_hal_tim_ex.c **** {
 1659              		.loc 1 711 1
 1660              		.cfi_startproc
 1661              		@ args = 0, pretend = 0, frame = 16
 1662              		@ frame_needed = 1, uses_anonymous_args = 0
 1663 0000 80B5     		push	{r7, lr}
 1664              	.LCFI62:
 1665              		.cfi_def_cfa_offset 8
 1666              		.cfi_offset 7, -8
 1667              		.cfi_offset 14, -4
 1668 0002 84B0     		sub	sp, sp, #16
 1669              	.LCFI63:
 1670              		.cfi_def_cfa_offset 24
 1671 0004 00AF     		add	r7, sp, #0
 1672              	.LCFI64:
 1673              		.cfi_def_cfa_register 7
 1674 0006 7860     		str	r0, [r7, #4]
 1675 0008 3960     		str	r1, [r7]
 712:Drivers/STM32L4xx_HAL_Driver/Src/stm32l4xx_hal_tim_ex.c ****   HAL_StatusTypeDef status = HAL_OK;
 1676              		.loc 1 712 21
 1677 000a 0023     		movs	r3, #0
 1678 000c FB73     		strb	r3, [r7, #15]
 713:Drivers/STM32L4xx_HAL_Driver/Src/stm32l4xx_hal_tim_ex.c ****   uint32_t tmpsmcr;
 714:Drivers/STM32L4xx_HAL_Driver/Src/stm32l4xx_hal_tim_ex.c **** 
 715:Drivers/STM32L4xx_HAL_Driver/Src/stm32l4xx_hal_tim_ex.c ****   /* Check the parameters */
 716:Drivers/STM32L4xx_HAL_Driver/Src/stm32l4xx_hal_tim_ex.c ****   assert_param(IS_TIM_CCXN_INSTANCE(htim->Instance, Channel));
 717:Drivers/STM32L4xx_HAL_Driver/Src/stm32l4xx_hal_tim_ex.c **** 
 718:Drivers/STM32L4xx_HAL_Driver/Src/stm32l4xx_hal_tim_ex.c ****   /* Check the TIM complementary channel state */
 719:Drivers/STM32L4xx_HAL_Driver/Src/stm32l4xx_hal_tim_ex.c ****   if (TIM_CHANNEL_N_STATE_GET(htim, Channel) != HAL_TIM_CHANNEL_STATE_READY)
 1679              		.loc 1 719 46
 1680 000e 3B68     		ldr	r3, [r7]
 1681 0010 002B     		cmp	r3, #0
 1682 0012 09D1     		bne	.L92
 1683              		.loc 1 719 7 discriminator 1
 1684 0014 7B68     		ldr	r3, [r7, #4]
 1685 0016 93F84430 		ldrb	r3, [r3, #68]
 1686 001a DBB2     		uxtb	r3, r3
 1687              		.loc 1 719 46 discriminator 1
 1688 001c 012B     		cmp	r3, #1
 1689 001e 14BF     		ite	ne
 1690 0020 0123     		movne	r3, #1
ARM GAS  /tmp/ccR4xO3u.s 			page 43


 1691 0022 0023     		moveq	r3, #0
 1692 0024 DBB2     		uxtb	r3, r3
 1693 0026 22E0     		b	.L93
 1694              	.L92:
 1695              		.loc 1 719 46 is_stmt 0 discriminator 2
 1696 0028 3B68     		ldr	r3, [r7]
 1697 002a 042B     		cmp	r3, #4
 1698 002c 09D1     		bne	.L94
 1699              		.loc 1 719 7 is_stmt 1 discriminator 4
 1700 002e 7B68     		ldr	r3, [r7, #4]
 1701 0030 93F84530 		ldrb	r3, [r3, #69]
 1702 0034 DBB2     		uxtb	r3, r3
 1703              		.loc 1 719 46 discriminator 4
 1704 0036 012B     		cmp	r3, #1
 1705 0038 14BF     		ite	ne
 1706 003a 0123     		movne	r3, #1
 1707 003c 0023     		moveq	r3, #0
 1708 003e DBB2     		uxtb	r3, r3
 1709 0040 15E0     		b	.L93
 1710              	.L94:
 1711              		.loc 1 719 46 is_stmt 0 discriminator 5
 1712 0042 3B68     		ldr	r3, [r7]
 1713 0044 082B     		cmp	r3, #8
 1714 0046 09D1     		bne	.L96
 1715              		.loc 1 719 7 is_stmt 1 discriminator 7
 1716 0048 7B68     		ldr	r3, [r7, #4]
 1717 004a 93F84630 		ldrb	r3, [r3, #70]
 1718 004e DBB2     		uxtb	r3, r3
 1719              		.loc 1 719 46 discriminator 7
 1720 0050 012B     		cmp	r3, #1
 1721 0052 14BF     		ite	ne
 1722 0054 0123     		movne	r3, #1
 1723 0056 0023     		moveq	r3, #0
 1724 0058 DBB2     		uxtb	r3, r3
 1725 005a 08E0     		b	.L93
 1726              	.L96:
 1727              		.loc 1 719 7 discriminator 8
 1728 005c 7B68     		ldr	r3, [r7, #4]
 1729 005e 93F84730 		ldrb	r3, [r3, #71]
 1730 0062 DBB2     		uxtb	r3, r3
 1731              		.loc 1 719 46 discriminator 8
 1732 0064 012B     		cmp	r3, #1
 1733 0066 14BF     		ite	ne
 1734 0068 0123     		movne	r3, #1
 1735 006a 0023     		moveq	r3, #0
 1736 006c DBB2     		uxtb	r3, r3
 1737              	.L93:
 1738              		.loc 1 719 6 discriminator 12
 1739 006e 002B     		cmp	r3, #0
 1740 0070 01D0     		beq	.L98
 720:Drivers/STM32L4xx_HAL_Driver/Src/stm32l4xx_hal_tim_ex.c ****   {
 721:Drivers/STM32L4xx_HAL_Driver/Src/stm32l4xx_hal_tim_ex.c ****     return HAL_ERROR;
 1741              		.loc 1 721 12
 1742 0072 0123     		movs	r3, #1
 1743 0074 90E0     		b	.L99
 1744              	.L98:
 722:Drivers/STM32L4xx_HAL_Driver/Src/stm32l4xx_hal_tim_ex.c ****   }
ARM GAS  /tmp/ccR4xO3u.s 			page 44


 723:Drivers/STM32L4xx_HAL_Driver/Src/stm32l4xx_hal_tim_ex.c **** 
 724:Drivers/STM32L4xx_HAL_Driver/Src/stm32l4xx_hal_tim_ex.c ****   /* Set the TIM complementary channel state */
 725:Drivers/STM32L4xx_HAL_Driver/Src/stm32l4xx_hal_tim_ex.c ****   TIM_CHANNEL_N_STATE_SET(htim, Channel, HAL_TIM_CHANNEL_STATE_BUSY);
 1745              		.loc 1 725 3
 1746 0076 3B68     		ldr	r3, [r7]
 1747 0078 002B     		cmp	r3, #0
 1748 007a 04D1     		bne	.L100
 1749              		.loc 1 725 3 is_stmt 0 discriminator 1
 1750 007c 7B68     		ldr	r3, [r7, #4]
 1751 007e 0222     		movs	r2, #2
 1752 0080 83F84420 		strb	r2, [r3, #68]
 1753 0084 13E0     		b	.L101
 1754              	.L100:
 1755              		.loc 1 725 3 discriminator 2
 1756 0086 3B68     		ldr	r3, [r7]
 1757 0088 042B     		cmp	r3, #4
 1758 008a 04D1     		bne	.L102
 1759              		.loc 1 725 3 discriminator 3
 1760 008c 7B68     		ldr	r3, [r7, #4]
 1761 008e 0222     		movs	r2, #2
 1762 0090 83F84520 		strb	r2, [r3, #69]
 1763 0094 0BE0     		b	.L101
 1764              	.L102:
 1765              		.loc 1 725 3 discriminator 4
 1766 0096 3B68     		ldr	r3, [r7]
 1767 0098 082B     		cmp	r3, #8
 1768 009a 04D1     		bne	.L104
 1769              		.loc 1 725 3 discriminator 6
 1770 009c 7B68     		ldr	r3, [r7, #4]
 1771 009e 0222     		movs	r2, #2
 1772 00a0 83F84620 		strb	r2, [r3, #70]
 1773 00a4 03E0     		b	.L101
 1774              	.L104:
 1775              		.loc 1 725 3 discriminator 7
 1776 00a6 7B68     		ldr	r3, [r7, #4]
 1777 00a8 0222     		movs	r2, #2
 1778 00aa 83F84720 		strb	r2, [r3, #71]
 1779              	.L101:
 726:Drivers/STM32L4xx_HAL_Driver/Src/stm32l4xx_hal_tim_ex.c **** 
 727:Drivers/STM32L4xx_HAL_Driver/Src/stm32l4xx_hal_tim_ex.c ****   switch (Channel)
 1780              		.loc 1 727 3 is_stmt 1
 1781 00ae 3B68     		ldr	r3, [r7]
 1782 00b0 082B     		cmp	r3, #8
 1783 00b2 1BD0     		beq	.L106
 1784 00b4 3B68     		ldr	r3, [r7]
 1785 00b6 082B     		cmp	r3, #8
 1786 00b8 21D8     		bhi	.L107
 1787 00ba 3B68     		ldr	r3, [r7]
 1788 00bc 002B     		cmp	r3, #0
 1789 00be 03D0     		beq	.L108
 1790 00c0 3B68     		ldr	r3, [r7]
 1791 00c2 042B     		cmp	r3, #4
 1792 00c4 09D0     		beq	.L109
 1793 00c6 1AE0     		b	.L107
 1794              	.L108:
 728:Drivers/STM32L4xx_HAL_Driver/Src/stm32l4xx_hal_tim_ex.c ****   {
 729:Drivers/STM32L4xx_HAL_Driver/Src/stm32l4xx_hal_tim_ex.c ****     case TIM_CHANNEL_1:
ARM GAS  /tmp/ccR4xO3u.s 			page 45


 730:Drivers/STM32L4xx_HAL_Driver/Src/stm32l4xx_hal_tim_ex.c ****     {
 731:Drivers/STM32L4xx_HAL_Driver/Src/stm32l4xx_hal_tim_ex.c ****       /* Enable the TIM Output Compare interrupt */
 732:Drivers/STM32L4xx_HAL_Driver/Src/stm32l4xx_hal_tim_ex.c ****       __HAL_TIM_ENABLE_IT(htim, TIM_IT_CC1);
 1795              		.loc 1 732 7
 1796 00c8 7B68     		ldr	r3, [r7, #4]
 1797 00ca 1B68     		ldr	r3, [r3]
 1798 00cc DA68     		ldr	r2, [r3, #12]
 1799 00ce 7B68     		ldr	r3, [r7, #4]
 1800 00d0 1B68     		ldr	r3, [r3]
 1801 00d2 42F00202 		orr	r2, r2, #2
 1802 00d6 DA60     		str	r2, [r3, #12]
 733:Drivers/STM32L4xx_HAL_Driver/Src/stm32l4xx_hal_tim_ex.c ****       break;
 1803              		.loc 1 733 7
 1804 00d8 14E0     		b	.L110
 1805              	.L109:
 734:Drivers/STM32L4xx_HAL_Driver/Src/stm32l4xx_hal_tim_ex.c ****     }
 735:Drivers/STM32L4xx_HAL_Driver/Src/stm32l4xx_hal_tim_ex.c **** 
 736:Drivers/STM32L4xx_HAL_Driver/Src/stm32l4xx_hal_tim_ex.c ****     case TIM_CHANNEL_2:
 737:Drivers/STM32L4xx_HAL_Driver/Src/stm32l4xx_hal_tim_ex.c ****     {
 738:Drivers/STM32L4xx_HAL_Driver/Src/stm32l4xx_hal_tim_ex.c ****       /* Enable the TIM Output Compare interrupt */
 739:Drivers/STM32L4xx_HAL_Driver/Src/stm32l4xx_hal_tim_ex.c ****       __HAL_TIM_ENABLE_IT(htim, TIM_IT_CC2);
 1806              		.loc 1 739 7
 1807 00da 7B68     		ldr	r3, [r7, #4]
 1808 00dc 1B68     		ldr	r3, [r3]
 1809 00de DA68     		ldr	r2, [r3, #12]
 1810 00e0 7B68     		ldr	r3, [r7, #4]
 1811 00e2 1B68     		ldr	r3, [r3]
 1812 00e4 42F00402 		orr	r2, r2, #4
 1813 00e8 DA60     		str	r2, [r3, #12]
 740:Drivers/STM32L4xx_HAL_Driver/Src/stm32l4xx_hal_tim_ex.c ****       break;
 1814              		.loc 1 740 7
 1815 00ea 0BE0     		b	.L110
 1816              	.L106:
 741:Drivers/STM32L4xx_HAL_Driver/Src/stm32l4xx_hal_tim_ex.c ****     }
 742:Drivers/STM32L4xx_HAL_Driver/Src/stm32l4xx_hal_tim_ex.c **** 
 743:Drivers/STM32L4xx_HAL_Driver/Src/stm32l4xx_hal_tim_ex.c ****     case TIM_CHANNEL_3:
 744:Drivers/STM32L4xx_HAL_Driver/Src/stm32l4xx_hal_tim_ex.c ****     {
 745:Drivers/STM32L4xx_HAL_Driver/Src/stm32l4xx_hal_tim_ex.c ****       /* Enable the TIM Output Compare interrupt */
 746:Drivers/STM32L4xx_HAL_Driver/Src/stm32l4xx_hal_tim_ex.c ****       __HAL_TIM_ENABLE_IT(htim, TIM_IT_CC3);
 1817              		.loc 1 746 7
 1818 00ec 7B68     		ldr	r3, [r7, #4]
 1819 00ee 1B68     		ldr	r3, [r3]
 1820 00f0 DA68     		ldr	r2, [r3, #12]
 1821 00f2 7B68     		ldr	r3, [r7, #4]
 1822 00f4 1B68     		ldr	r3, [r3]
 1823 00f6 42F00802 		orr	r2, r2, #8
 1824 00fa DA60     		str	r2, [r3, #12]
 747:Drivers/STM32L4xx_HAL_Driver/Src/stm32l4xx_hal_tim_ex.c ****       break;
 1825              		.loc 1 747 7
 1826 00fc 02E0     		b	.L110
 1827              	.L107:
 748:Drivers/STM32L4xx_HAL_Driver/Src/stm32l4xx_hal_tim_ex.c ****     }
 749:Drivers/STM32L4xx_HAL_Driver/Src/stm32l4xx_hal_tim_ex.c **** 
 750:Drivers/STM32L4xx_HAL_Driver/Src/stm32l4xx_hal_tim_ex.c **** 
 751:Drivers/STM32L4xx_HAL_Driver/Src/stm32l4xx_hal_tim_ex.c ****     default:
 752:Drivers/STM32L4xx_HAL_Driver/Src/stm32l4xx_hal_tim_ex.c ****       status = HAL_ERROR;
 1828              		.loc 1 752 14
ARM GAS  /tmp/ccR4xO3u.s 			page 46


 1829 00fe 0123     		movs	r3, #1
 1830 0100 FB73     		strb	r3, [r7, #15]
 753:Drivers/STM32L4xx_HAL_Driver/Src/stm32l4xx_hal_tim_ex.c ****       break;
 1831              		.loc 1 753 7
 1832 0102 00BF     		nop
 1833              	.L110:
 754:Drivers/STM32L4xx_HAL_Driver/Src/stm32l4xx_hal_tim_ex.c ****   }
 755:Drivers/STM32L4xx_HAL_Driver/Src/stm32l4xx_hal_tim_ex.c **** 
 756:Drivers/STM32L4xx_HAL_Driver/Src/stm32l4xx_hal_tim_ex.c ****   if (status == HAL_OK)
 1834              		.loc 1 756 6
 1835 0104 FB7B     		ldrb	r3, [r7, #15]	@ zero_extendqisi2
 1836 0106 002B     		cmp	r3, #0
 1837 0108 45D1     		bne	.L111
 757:Drivers/STM32L4xx_HAL_Driver/Src/stm32l4xx_hal_tim_ex.c ****   {
 758:Drivers/STM32L4xx_HAL_Driver/Src/stm32l4xx_hal_tim_ex.c ****     /* Enable the TIM Break interrupt */
 759:Drivers/STM32L4xx_HAL_Driver/Src/stm32l4xx_hal_tim_ex.c ****     __HAL_TIM_ENABLE_IT(htim, TIM_IT_BREAK);
 1838              		.loc 1 759 5
 1839 010a 7B68     		ldr	r3, [r7, #4]
 1840 010c 1B68     		ldr	r3, [r3]
 1841 010e DA68     		ldr	r2, [r3, #12]
 1842 0110 7B68     		ldr	r3, [r7, #4]
 1843 0112 1B68     		ldr	r3, [r3]
 1844 0114 42F08002 		orr	r2, r2, #128
 1845 0118 DA60     		str	r2, [r3, #12]
 760:Drivers/STM32L4xx_HAL_Driver/Src/stm32l4xx_hal_tim_ex.c **** 
 761:Drivers/STM32L4xx_HAL_Driver/Src/stm32l4xx_hal_tim_ex.c ****     /* Enable the Capture compare channel N */
 762:Drivers/STM32L4xx_HAL_Driver/Src/stm32l4xx_hal_tim_ex.c ****     TIM_CCxNChannelCmd(htim->Instance, Channel, TIM_CCxN_ENABLE);
 1846              		.loc 1 762 5
 1847 011a 7B68     		ldr	r3, [r7, #4]
 1848 011c 1B68     		ldr	r3, [r3]
 1849 011e 0422     		movs	r2, #4
 1850 0120 3968     		ldr	r1, [r7]
 1851 0122 1846     		mov	r0, r3
 1852 0124 FFF7FEFF 		bl	TIM_CCxNChannelCmd
 763:Drivers/STM32L4xx_HAL_Driver/Src/stm32l4xx_hal_tim_ex.c **** 
 764:Drivers/STM32L4xx_HAL_Driver/Src/stm32l4xx_hal_tim_ex.c ****     /* Enable the Main Output */
 765:Drivers/STM32L4xx_HAL_Driver/Src/stm32l4xx_hal_tim_ex.c ****     __HAL_TIM_MOE_ENABLE(htim);
 1853              		.loc 1 765 5
 1854 0128 7B68     		ldr	r3, [r7, #4]
 1855 012a 1B68     		ldr	r3, [r3]
 1856 012c 5A6C     		ldr	r2, [r3, #68]
 1857 012e 7B68     		ldr	r3, [r7, #4]
 1858 0130 1B68     		ldr	r3, [r3]
 1859 0132 42F40042 		orr	r2, r2, #32768
 1860 0136 5A64     		str	r2, [r3, #68]
 766:Drivers/STM32L4xx_HAL_Driver/Src/stm32l4xx_hal_tim_ex.c **** 
 767:Drivers/STM32L4xx_HAL_Driver/Src/stm32l4xx_hal_tim_ex.c ****     /* Enable the Peripheral, except in trigger mode where enable is automatically done with trigge
 768:Drivers/STM32L4xx_HAL_Driver/Src/stm32l4xx_hal_tim_ex.c ****     if (IS_TIM_SLAVE_INSTANCE(htim->Instance))
 1861              		.loc 1 768 9
 1862 0138 7B68     		ldr	r3, [r7, #4]
 1863 013a 1B68     		ldr	r3, [r3]
 1864              		.loc 1 768 8
 1865 013c 184A     		ldr	r2, .L116
 1866 013e 9342     		cmp	r3, r2
 1867 0140 09D0     		beq	.L112
 1868              		.loc 1 768 9 discriminator 1
 1869 0142 7B68     		ldr	r3, [r7, #4]
ARM GAS  /tmp/ccR4xO3u.s 			page 47


 1870 0144 1B68     		ldr	r3, [r3]
 1871 0146 B3F1804F 		cmp	r3, #1073741824
 1872 014a 04D0     		beq	.L112
 1873              		.loc 1 768 9 is_stmt 0 discriminator 2
 1874 014c 7B68     		ldr	r3, [r7, #4]
 1875 014e 1B68     		ldr	r3, [r3]
 1876 0150 144A     		ldr	r2, .L116+4
 1877 0152 9342     		cmp	r3, r2
 1878 0154 15D1     		bne	.L113
 1879              	.L112:
 769:Drivers/STM32L4xx_HAL_Driver/Src/stm32l4xx_hal_tim_ex.c ****     {
 770:Drivers/STM32L4xx_HAL_Driver/Src/stm32l4xx_hal_tim_ex.c ****       tmpsmcr = htim->Instance->SMCR & TIM_SMCR_SMS;
 1880              		.loc 1 770 21 is_stmt 1
 1881 0156 7B68     		ldr	r3, [r7, #4]
 1882 0158 1B68     		ldr	r3, [r3]
 1883              		.loc 1 770 31
 1884 015a 9A68     		ldr	r2, [r3, #8]
 1885              		.loc 1 770 15
 1886 015c 124B     		ldr	r3, .L116+8
 1887 015e 1340     		ands	r3, r3, r2
 1888 0160 BB60     		str	r3, [r7, #8]
 771:Drivers/STM32L4xx_HAL_Driver/Src/stm32l4xx_hal_tim_ex.c ****       if (!IS_TIM_SLAVEMODE_TRIGGER_ENABLED(tmpsmcr))
 1889              		.loc 1 771 10
 1890 0162 BB68     		ldr	r3, [r7, #8]
 1891 0164 062B     		cmp	r3, #6
 1892 0166 15D0     		beq	.L115
 1893              		.loc 1 771 11 discriminator 1
 1894 0168 BB68     		ldr	r3, [r7, #8]
 1895 016a B3F5803F 		cmp	r3, #65536
 1896 016e 11D0     		beq	.L115
 772:Drivers/STM32L4xx_HAL_Driver/Src/stm32l4xx_hal_tim_ex.c ****       {
 773:Drivers/STM32L4xx_HAL_Driver/Src/stm32l4xx_hal_tim_ex.c ****         __HAL_TIM_ENABLE(htim);
 1897              		.loc 1 773 9
 1898 0170 7B68     		ldr	r3, [r7, #4]
 1899 0172 1B68     		ldr	r3, [r3]
 1900 0174 1A68     		ldr	r2, [r3]
 1901 0176 7B68     		ldr	r3, [r7, #4]
 1902 0178 1B68     		ldr	r3, [r3]
 1903 017a 42F00102 		orr	r2, r2, #1
 1904 017e 1A60     		str	r2, [r3]
 771:Drivers/STM32L4xx_HAL_Driver/Src/stm32l4xx_hal_tim_ex.c ****       if (!IS_TIM_SLAVEMODE_TRIGGER_ENABLED(tmpsmcr))
 1905              		.loc 1 771 10
 1906 0180 08E0     		b	.L115
 1907              	.L113:
 774:Drivers/STM32L4xx_HAL_Driver/Src/stm32l4xx_hal_tim_ex.c ****       }
 775:Drivers/STM32L4xx_HAL_Driver/Src/stm32l4xx_hal_tim_ex.c ****     }
 776:Drivers/STM32L4xx_HAL_Driver/Src/stm32l4xx_hal_tim_ex.c ****     else
 777:Drivers/STM32L4xx_HAL_Driver/Src/stm32l4xx_hal_tim_ex.c ****     {
 778:Drivers/STM32L4xx_HAL_Driver/Src/stm32l4xx_hal_tim_ex.c ****       __HAL_TIM_ENABLE(htim);
 1908              		.loc 1 778 7
 1909 0182 7B68     		ldr	r3, [r7, #4]
 1910 0184 1B68     		ldr	r3, [r3]
 1911 0186 1A68     		ldr	r2, [r3]
 1912 0188 7B68     		ldr	r3, [r7, #4]
 1913 018a 1B68     		ldr	r3, [r3]
 1914 018c 42F00102 		orr	r2, r2, #1
 1915 0190 1A60     		str	r2, [r3]
ARM GAS  /tmp/ccR4xO3u.s 			page 48


 1916 0192 00E0     		b	.L111
 1917              	.L115:
 771:Drivers/STM32L4xx_HAL_Driver/Src/stm32l4xx_hal_tim_ex.c ****       {
 1918              		.loc 1 771 10
 1919 0194 00BF     		nop
 1920              	.L111:
 779:Drivers/STM32L4xx_HAL_Driver/Src/stm32l4xx_hal_tim_ex.c ****     }
 780:Drivers/STM32L4xx_HAL_Driver/Src/stm32l4xx_hal_tim_ex.c ****   }
 781:Drivers/STM32L4xx_HAL_Driver/Src/stm32l4xx_hal_tim_ex.c **** 
 782:Drivers/STM32L4xx_HAL_Driver/Src/stm32l4xx_hal_tim_ex.c ****   /* Return function status */
 783:Drivers/STM32L4xx_HAL_Driver/Src/stm32l4xx_hal_tim_ex.c ****   return status;
 1921              		.loc 1 783 10
 1922 0196 FB7B     		ldrb	r3, [r7, #15]	@ zero_extendqisi2
 1923              	.L99:
 784:Drivers/STM32L4xx_HAL_Driver/Src/stm32l4xx_hal_tim_ex.c **** }
 1924              		.loc 1 784 1
 1925 0198 1846     		mov	r0, r3
 1926 019a 1037     		adds	r7, r7, #16
 1927              	.LCFI65:
 1928              		.cfi_def_cfa_offset 8
 1929 019c BD46     		mov	sp, r7
 1930              	.LCFI66:
 1931              		.cfi_def_cfa_register 13
 1932              		@ sp needed
 1933 019e 80BD     		pop	{r7, pc}
 1934              	.L117:
 1935              		.align	2
 1936              	.L116:
 1937 01a0 002C0140 		.word	1073818624
 1938 01a4 00400140 		.word	1073823744
 1939 01a8 07000100 		.word	65543
 1940              		.cfi_endproc
 1941              	.LFE144:
 1943              		.section	.text.HAL_TIMEx_OCN_Stop_IT,"ax",%progbits
 1944              		.align	1
 1945              		.global	HAL_TIMEx_OCN_Stop_IT
 1946              		.syntax unified
 1947              		.thumb
 1948              		.thumb_func
 1950              	HAL_TIMEx_OCN_Stop_IT:
 1951              	.LFB145:
 785:Drivers/STM32L4xx_HAL_Driver/Src/stm32l4xx_hal_tim_ex.c **** 
 786:Drivers/STM32L4xx_HAL_Driver/Src/stm32l4xx_hal_tim_ex.c **** /**
 787:Drivers/STM32L4xx_HAL_Driver/Src/stm32l4xx_hal_tim_ex.c ****   * @brief  Stops the TIM Output Compare signal generation in interrupt mode
 788:Drivers/STM32L4xx_HAL_Driver/Src/stm32l4xx_hal_tim_ex.c ****   *         on the complementary output.
 789:Drivers/STM32L4xx_HAL_Driver/Src/stm32l4xx_hal_tim_ex.c ****   * @param  htim TIM Output Compare handle
 790:Drivers/STM32L4xx_HAL_Driver/Src/stm32l4xx_hal_tim_ex.c ****   * @param  Channel TIM Channel to be disabled
 791:Drivers/STM32L4xx_HAL_Driver/Src/stm32l4xx_hal_tim_ex.c ****   *          This parameter can be one of the following values:
 792:Drivers/STM32L4xx_HAL_Driver/Src/stm32l4xx_hal_tim_ex.c ****   *            @arg TIM_CHANNEL_1: TIM Channel 1 selected
 793:Drivers/STM32L4xx_HAL_Driver/Src/stm32l4xx_hal_tim_ex.c ****   *            @arg TIM_CHANNEL_2: TIM Channel 2 selected
 794:Drivers/STM32L4xx_HAL_Driver/Src/stm32l4xx_hal_tim_ex.c ****   *            @arg TIM_CHANNEL_3: TIM Channel 3 selected
 795:Drivers/STM32L4xx_HAL_Driver/Src/stm32l4xx_hal_tim_ex.c ****   * @retval HAL status
 796:Drivers/STM32L4xx_HAL_Driver/Src/stm32l4xx_hal_tim_ex.c ****   */
 797:Drivers/STM32L4xx_HAL_Driver/Src/stm32l4xx_hal_tim_ex.c **** HAL_StatusTypeDef HAL_TIMEx_OCN_Stop_IT(TIM_HandleTypeDef *htim, uint32_t Channel)
 798:Drivers/STM32L4xx_HAL_Driver/Src/stm32l4xx_hal_tim_ex.c **** {
 1952              		.loc 1 798 1
 1953              		.cfi_startproc
ARM GAS  /tmp/ccR4xO3u.s 			page 49


 1954              		@ args = 0, pretend = 0, frame = 16
 1955              		@ frame_needed = 1, uses_anonymous_args = 0
 1956 0000 80B5     		push	{r7, lr}
 1957              	.LCFI67:
 1958              		.cfi_def_cfa_offset 8
 1959              		.cfi_offset 7, -8
 1960              		.cfi_offset 14, -4
 1961 0002 84B0     		sub	sp, sp, #16
 1962              	.LCFI68:
 1963              		.cfi_def_cfa_offset 24
 1964 0004 00AF     		add	r7, sp, #0
 1965              	.LCFI69:
 1966              		.cfi_def_cfa_register 7
 1967 0006 7860     		str	r0, [r7, #4]
 1968 0008 3960     		str	r1, [r7]
 799:Drivers/STM32L4xx_HAL_Driver/Src/stm32l4xx_hal_tim_ex.c ****   HAL_StatusTypeDef status = HAL_OK;
 1969              		.loc 1 799 21
 1970 000a 0023     		movs	r3, #0
 1971 000c FB73     		strb	r3, [r7, #15]
 800:Drivers/STM32L4xx_HAL_Driver/Src/stm32l4xx_hal_tim_ex.c ****   uint32_t tmpccer;
 801:Drivers/STM32L4xx_HAL_Driver/Src/stm32l4xx_hal_tim_ex.c **** 
 802:Drivers/STM32L4xx_HAL_Driver/Src/stm32l4xx_hal_tim_ex.c ****   /* Check the parameters */
 803:Drivers/STM32L4xx_HAL_Driver/Src/stm32l4xx_hal_tim_ex.c ****   assert_param(IS_TIM_CCXN_INSTANCE(htim->Instance, Channel));
 804:Drivers/STM32L4xx_HAL_Driver/Src/stm32l4xx_hal_tim_ex.c **** 
 805:Drivers/STM32L4xx_HAL_Driver/Src/stm32l4xx_hal_tim_ex.c ****   switch (Channel)
 1972              		.loc 1 805 3
 1973 000e 3B68     		ldr	r3, [r7]
 1974 0010 082B     		cmp	r3, #8
 1975 0012 1BD0     		beq	.L119
 1976 0014 3B68     		ldr	r3, [r7]
 1977 0016 082B     		cmp	r3, #8
 1978 0018 21D8     		bhi	.L120
 1979 001a 3B68     		ldr	r3, [r7]
 1980 001c 002B     		cmp	r3, #0
 1981 001e 03D0     		beq	.L121
 1982 0020 3B68     		ldr	r3, [r7]
 1983 0022 042B     		cmp	r3, #4
 1984 0024 09D0     		beq	.L122
 1985 0026 1AE0     		b	.L120
 1986              	.L121:
 806:Drivers/STM32L4xx_HAL_Driver/Src/stm32l4xx_hal_tim_ex.c ****   {
 807:Drivers/STM32L4xx_HAL_Driver/Src/stm32l4xx_hal_tim_ex.c ****     case TIM_CHANNEL_1:
 808:Drivers/STM32L4xx_HAL_Driver/Src/stm32l4xx_hal_tim_ex.c ****     {
 809:Drivers/STM32L4xx_HAL_Driver/Src/stm32l4xx_hal_tim_ex.c ****       /* Disable the TIM Output Compare interrupt */
 810:Drivers/STM32L4xx_HAL_Driver/Src/stm32l4xx_hal_tim_ex.c ****       __HAL_TIM_DISABLE_IT(htim, TIM_IT_CC1);
 1987              		.loc 1 810 7
 1988 0028 7B68     		ldr	r3, [r7, #4]
 1989 002a 1B68     		ldr	r3, [r3]
 1990 002c DA68     		ldr	r2, [r3, #12]
 1991 002e 7B68     		ldr	r3, [r7, #4]
 1992 0030 1B68     		ldr	r3, [r3]
 1993 0032 22F00202 		bic	r2, r2, #2
 1994 0036 DA60     		str	r2, [r3, #12]
 811:Drivers/STM32L4xx_HAL_Driver/Src/stm32l4xx_hal_tim_ex.c ****       break;
 1995              		.loc 1 811 7
 1996 0038 14E0     		b	.L123
 1997              	.L122:
ARM GAS  /tmp/ccR4xO3u.s 			page 50


 812:Drivers/STM32L4xx_HAL_Driver/Src/stm32l4xx_hal_tim_ex.c ****     }
 813:Drivers/STM32L4xx_HAL_Driver/Src/stm32l4xx_hal_tim_ex.c **** 
 814:Drivers/STM32L4xx_HAL_Driver/Src/stm32l4xx_hal_tim_ex.c ****     case TIM_CHANNEL_2:
 815:Drivers/STM32L4xx_HAL_Driver/Src/stm32l4xx_hal_tim_ex.c ****     {
 816:Drivers/STM32L4xx_HAL_Driver/Src/stm32l4xx_hal_tim_ex.c ****       /* Disable the TIM Output Compare interrupt */
 817:Drivers/STM32L4xx_HAL_Driver/Src/stm32l4xx_hal_tim_ex.c ****       __HAL_TIM_DISABLE_IT(htim, TIM_IT_CC2);
 1998              		.loc 1 817 7
 1999 003a 7B68     		ldr	r3, [r7, #4]
 2000 003c 1B68     		ldr	r3, [r3]
 2001 003e DA68     		ldr	r2, [r3, #12]
 2002 0040 7B68     		ldr	r3, [r7, #4]
 2003 0042 1B68     		ldr	r3, [r3]
 2004 0044 22F00402 		bic	r2, r2, #4
 2005 0048 DA60     		str	r2, [r3, #12]
 818:Drivers/STM32L4xx_HAL_Driver/Src/stm32l4xx_hal_tim_ex.c ****       break;
 2006              		.loc 1 818 7
 2007 004a 0BE0     		b	.L123
 2008              	.L119:
 819:Drivers/STM32L4xx_HAL_Driver/Src/stm32l4xx_hal_tim_ex.c ****     }
 820:Drivers/STM32L4xx_HAL_Driver/Src/stm32l4xx_hal_tim_ex.c **** 
 821:Drivers/STM32L4xx_HAL_Driver/Src/stm32l4xx_hal_tim_ex.c ****     case TIM_CHANNEL_3:
 822:Drivers/STM32L4xx_HAL_Driver/Src/stm32l4xx_hal_tim_ex.c ****     {
 823:Drivers/STM32L4xx_HAL_Driver/Src/stm32l4xx_hal_tim_ex.c ****       /* Disable the TIM Output Compare interrupt */
 824:Drivers/STM32L4xx_HAL_Driver/Src/stm32l4xx_hal_tim_ex.c ****       __HAL_TIM_DISABLE_IT(htim, TIM_IT_CC3);
 2009              		.loc 1 824 7
 2010 004c 7B68     		ldr	r3, [r7, #4]
 2011 004e 1B68     		ldr	r3, [r3]
 2012 0050 DA68     		ldr	r2, [r3, #12]
 2013 0052 7B68     		ldr	r3, [r7, #4]
 2014 0054 1B68     		ldr	r3, [r3]
 2015 0056 22F00802 		bic	r2, r2, #8
 2016 005a DA60     		str	r2, [r3, #12]
 825:Drivers/STM32L4xx_HAL_Driver/Src/stm32l4xx_hal_tim_ex.c ****       break;
 2017              		.loc 1 825 7
 2018 005c 02E0     		b	.L123
 2019              	.L120:
 826:Drivers/STM32L4xx_HAL_Driver/Src/stm32l4xx_hal_tim_ex.c ****     }
 827:Drivers/STM32L4xx_HAL_Driver/Src/stm32l4xx_hal_tim_ex.c **** 
 828:Drivers/STM32L4xx_HAL_Driver/Src/stm32l4xx_hal_tim_ex.c ****     default:
 829:Drivers/STM32L4xx_HAL_Driver/Src/stm32l4xx_hal_tim_ex.c ****       status = HAL_ERROR;
 2020              		.loc 1 829 14
 2021 005e 0123     		movs	r3, #1
 2022 0060 FB73     		strb	r3, [r7, #15]
 830:Drivers/STM32L4xx_HAL_Driver/Src/stm32l4xx_hal_tim_ex.c ****       break;
 2023              		.loc 1 830 7
 2024 0062 00BF     		nop
 2025              	.L123:
 831:Drivers/STM32L4xx_HAL_Driver/Src/stm32l4xx_hal_tim_ex.c ****   }
 832:Drivers/STM32L4xx_HAL_Driver/Src/stm32l4xx_hal_tim_ex.c **** 
 833:Drivers/STM32L4xx_HAL_Driver/Src/stm32l4xx_hal_tim_ex.c ****   if (status == HAL_OK)
 2026              		.loc 1 833 6
 2027 0064 FB7B     		ldrb	r3, [r7, #15]	@ zero_extendqisi2
 2028 0066 002B     		cmp	r3, #0
 2029 0068 64D1     		bne	.L124
 834:Drivers/STM32L4xx_HAL_Driver/Src/stm32l4xx_hal_tim_ex.c ****   {
 835:Drivers/STM32L4xx_HAL_Driver/Src/stm32l4xx_hal_tim_ex.c ****     /* Disable the Capture compare channel N */
 836:Drivers/STM32L4xx_HAL_Driver/Src/stm32l4xx_hal_tim_ex.c ****     TIM_CCxNChannelCmd(htim->Instance, Channel, TIM_CCxN_DISABLE);
ARM GAS  /tmp/ccR4xO3u.s 			page 51


 2030              		.loc 1 836 5
 2031 006a 7B68     		ldr	r3, [r7, #4]
 2032 006c 1B68     		ldr	r3, [r3]
 2033 006e 0022     		movs	r2, #0
 2034 0070 3968     		ldr	r1, [r7]
 2035 0072 1846     		mov	r0, r3
 2036 0074 FFF7FEFF 		bl	TIM_CCxNChannelCmd
 837:Drivers/STM32L4xx_HAL_Driver/Src/stm32l4xx_hal_tim_ex.c **** 
 838:Drivers/STM32L4xx_HAL_Driver/Src/stm32l4xx_hal_tim_ex.c ****     /* Disable the TIM Break interrupt (only if no more channel is active) */
 839:Drivers/STM32L4xx_HAL_Driver/Src/stm32l4xx_hal_tim_ex.c ****     tmpccer = htim->Instance->CCER;
 2037              		.loc 1 839 19
 2038 0078 7B68     		ldr	r3, [r7, #4]
 2039 007a 1B68     		ldr	r3, [r3]
 2040              		.loc 1 839 13
 2041 007c 1B6A     		ldr	r3, [r3, #32]
 2042 007e BB60     		str	r3, [r7, #8]
 840:Drivers/STM32L4xx_HAL_Driver/Src/stm32l4xx_hal_tim_ex.c ****     if ((tmpccer & (TIM_CCER_CC1NE | TIM_CCER_CC2NE | TIM_CCER_CC3NE)) == (uint32_t)RESET)
 2043              		.loc 1 840 18
 2044 0080 BA68     		ldr	r2, [r7, #8]
 2045 0082 40F24443 		movw	r3, #1092
 2046 0086 1340     		ands	r3, r3, r2
 2047              		.loc 1 840 8
 2048 0088 002B     		cmp	r3, #0
 2049 008a 07D1     		bne	.L125
 841:Drivers/STM32L4xx_HAL_Driver/Src/stm32l4xx_hal_tim_ex.c ****     {
 842:Drivers/STM32L4xx_HAL_Driver/Src/stm32l4xx_hal_tim_ex.c ****       __HAL_TIM_DISABLE_IT(htim, TIM_IT_BREAK);
 2050              		.loc 1 842 7
 2051 008c 7B68     		ldr	r3, [r7, #4]
 2052 008e 1B68     		ldr	r3, [r3]
 2053 0090 DA68     		ldr	r2, [r3, #12]
 2054 0092 7B68     		ldr	r3, [r7, #4]
 2055 0094 1B68     		ldr	r3, [r3]
 2056 0096 22F08002 		bic	r2, r2, #128
 2057 009a DA60     		str	r2, [r3, #12]
 2058              	.L125:
 843:Drivers/STM32L4xx_HAL_Driver/Src/stm32l4xx_hal_tim_ex.c ****     }
 844:Drivers/STM32L4xx_HAL_Driver/Src/stm32l4xx_hal_tim_ex.c **** 
 845:Drivers/STM32L4xx_HAL_Driver/Src/stm32l4xx_hal_tim_ex.c ****     /* Disable the Main Output */
 846:Drivers/STM32L4xx_HAL_Driver/Src/stm32l4xx_hal_tim_ex.c ****     __HAL_TIM_MOE_DISABLE(htim);
 2059              		.loc 1 846 5
 2060 009c 7B68     		ldr	r3, [r7, #4]
 2061 009e 1B68     		ldr	r3, [r3]
 2062 00a0 1A6A     		ldr	r2, [r3, #32]
 2063 00a2 41F21113 		movw	r3, #4369
 2064 00a6 1340     		ands	r3, r3, r2
 2065 00a8 002B     		cmp	r3, #0
 2066 00aa 0FD1     		bne	.L126
 2067              		.loc 1 846 5 is_stmt 0 discriminator 1
 2068 00ac 7B68     		ldr	r3, [r7, #4]
 2069 00ae 1B68     		ldr	r3, [r3]
 2070 00b0 1A6A     		ldr	r2, [r3, #32]
 2071 00b2 40F24443 		movw	r3, #1092
 2072 00b6 1340     		ands	r3, r3, r2
 2073 00b8 002B     		cmp	r3, #0
 2074 00ba 07D1     		bne	.L126
 2075              		.loc 1 846 5 discriminator 2
 2076 00bc 7B68     		ldr	r3, [r7, #4]
ARM GAS  /tmp/ccR4xO3u.s 			page 52


 2077 00be 1B68     		ldr	r3, [r3]
 2078 00c0 5A6C     		ldr	r2, [r3, #68]
 2079 00c2 7B68     		ldr	r3, [r7, #4]
 2080 00c4 1B68     		ldr	r3, [r3]
 2081 00c6 22F40042 		bic	r2, r2, #32768
 2082 00ca 5A64     		str	r2, [r3, #68]
 2083              	.L126:
 847:Drivers/STM32L4xx_HAL_Driver/Src/stm32l4xx_hal_tim_ex.c **** 
 848:Drivers/STM32L4xx_HAL_Driver/Src/stm32l4xx_hal_tim_ex.c ****     /* Disable the Peripheral */
 849:Drivers/STM32L4xx_HAL_Driver/Src/stm32l4xx_hal_tim_ex.c ****     __HAL_TIM_DISABLE(htim);
 2084              		.loc 1 849 5 is_stmt 1
 2085 00cc 7B68     		ldr	r3, [r7, #4]
 2086 00ce 1B68     		ldr	r3, [r3]
 2087 00d0 1A6A     		ldr	r2, [r3, #32]
 2088 00d2 41F21113 		movw	r3, #4369
 2089 00d6 1340     		ands	r3, r3, r2
 2090 00d8 002B     		cmp	r3, #0
 2091 00da 0FD1     		bne	.L127
 2092              		.loc 1 849 5 is_stmt 0 discriminator 1
 2093 00dc 7B68     		ldr	r3, [r7, #4]
 2094 00de 1B68     		ldr	r3, [r3]
 2095 00e0 1A6A     		ldr	r2, [r3, #32]
 2096 00e2 40F24443 		movw	r3, #1092
 2097 00e6 1340     		ands	r3, r3, r2
 2098 00e8 002B     		cmp	r3, #0
 2099 00ea 07D1     		bne	.L127
 2100              		.loc 1 849 5 discriminator 2
 2101 00ec 7B68     		ldr	r3, [r7, #4]
 2102 00ee 1B68     		ldr	r3, [r3]
 2103 00f0 1A68     		ldr	r2, [r3]
 2104 00f2 7B68     		ldr	r3, [r7, #4]
 2105 00f4 1B68     		ldr	r3, [r3]
 2106 00f6 22F00102 		bic	r2, r2, #1
 2107 00fa 1A60     		str	r2, [r3]
 2108              	.L127:
 850:Drivers/STM32L4xx_HAL_Driver/Src/stm32l4xx_hal_tim_ex.c **** 
 851:Drivers/STM32L4xx_HAL_Driver/Src/stm32l4xx_hal_tim_ex.c ****     /* Set the TIM complementary channel state */
 852:Drivers/STM32L4xx_HAL_Driver/Src/stm32l4xx_hal_tim_ex.c ****     TIM_CHANNEL_N_STATE_SET(htim, Channel, HAL_TIM_CHANNEL_STATE_READY);
 2109              		.loc 1 852 5 is_stmt 1
 2110 00fc 3B68     		ldr	r3, [r7]
 2111 00fe 002B     		cmp	r3, #0
 2112 0100 04D1     		bne	.L128
 2113              		.loc 1 852 5 is_stmt 0 discriminator 1
 2114 0102 7B68     		ldr	r3, [r7, #4]
 2115 0104 0122     		movs	r2, #1
 2116 0106 83F84420 		strb	r2, [r3, #68]
 2117 010a 13E0     		b	.L124
 2118              	.L128:
 2119              		.loc 1 852 5 discriminator 2
 2120 010c 3B68     		ldr	r3, [r7]
 2121 010e 042B     		cmp	r3, #4
 2122 0110 04D1     		bne	.L129
 2123              		.loc 1 852 5 discriminator 3
 2124 0112 7B68     		ldr	r3, [r7, #4]
 2125 0114 0122     		movs	r2, #1
 2126 0116 83F84520 		strb	r2, [r3, #69]
 2127 011a 0BE0     		b	.L124
ARM GAS  /tmp/ccR4xO3u.s 			page 53


 2128              	.L129:
 2129              		.loc 1 852 5 discriminator 4
 2130 011c 3B68     		ldr	r3, [r7]
 2131 011e 082B     		cmp	r3, #8
 2132 0120 04D1     		bne	.L131
 2133              		.loc 1 852 5 discriminator 6
 2134 0122 7B68     		ldr	r3, [r7, #4]
 2135 0124 0122     		movs	r2, #1
 2136 0126 83F84620 		strb	r2, [r3, #70]
 2137 012a 03E0     		b	.L124
 2138              	.L131:
 2139              		.loc 1 852 5 discriminator 7
 2140 012c 7B68     		ldr	r3, [r7, #4]
 2141 012e 0122     		movs	r2, #1
 2142 0130 83F84720 		strb	r2, [r3, #71]
 2143              	.L124:
 853:Drivers/STM32L4xx_HAL_Driver/Src/stm32l4xx_hal_tim_ex.c ****   }
 854:Drivers/STM32L4xx_HAL_Driver/Src/stm32l4xx_hal_tim_ex.c **** 
 855:Drivers/STM32L4xx_HAL_Driver/Src/stm32l4xx_hal_tim_ex.c ****   /* Return function status */
 856:Drivers/STM32L4xx_HAL_Driver/Src/stm32l4xx_hal_tim_ex.c ****   return status;
 2144              		.loc 1 856 10 is_stmt 1
 2145 0134 FB7B     		ldrb	r3, [r7, #15]	@ zero_extendqisi2
 857:Drivers/STM32L4xx_HAL_Driver/Src/stm32l4xx_hal_tim_ex.c **** }
 2146              		.loc 1 857 1
 2147 0136 1846     		mov	r0, r3
 2148 0138 1037     		adds	r7, r7, #16
 2149              	.LCFI70:
 2150              		.cfi_def_cfa_offset 8
 2151 013a BD46     		mov	sp, r7
 2152              	.LCFI71:
 2153              		.cfi_def_cfa_register 13
 2154              		@ sp needed
 2155 013c 80BD     		pop	{r7, pc}
 2156              		.cfi_endproc
 2157              	.LFE145:
 2159              		.section	.text.HAL_TIMEx_OCN_Start_DMA,"ax",%progbits
 2160              		.align	1
 2161              		.global	HAL_TIMEx_OCN_Start_DMA
 2162              		.syntax unified
 2163              		.thumb
 2164              		.thumb_func
 2166              	HAL_TIMEx_OCN_Start_DMA:
 2167              	.LFB146:
 858:Drivers/STM32L4xx_HAL_Driver/Src/stm32l4xx_hal_tim_ex.c **** 
 859:Drivers/STM32L4xx_HAL_Driver/Src/stm32l4xx_hal_tim_ex.c **** /**
 860:Drivers/STM32L4xx_HAL_Driver/Src/stm32l4xx_hal_tim_ex.c ****   * @brief  Starts the TIM Output Compare signal generation in DMA mode
 861:Drivers/STM32L4xx_HAL_Driver/Src/stm32l4xx_hal_tim_ex.c ****   *         on the complementary output.
 862:Drivers/STM32L4xx_HAL_Driver/Src/stm32l4xx_hal_tim_ex.c ****   * @param  htim TIM Output Compare handle
 863:Drivers/STM32L4xx_HAL_Driver/Src/stm32l4xx_hal_tim_ex.c ****   * @param  Channel TIM Channel to be enabled
 864:Drivers/STM32L4xx_HAL_Driver/Src/stm32l4xx_hal_tim_ex.c ****   *          This parameter can be one of the following values:
 865:Drivers/STM32L4xx_HAL_Driver/Src/stm32l4xx_hal_tim_ex.c ****   *            @arg TIM_CHANNEL_1: TIM Channel 1 selected
 866:Drivers/STM32L4xx_HAL_Driver/Src/stm32l4xx_hal_tim_ex.c ****   *            @arg TIM_CHANNEL_2: TIM Channel 2 selected
 867:Drivers/STM32L4xx_HAL_Driver/Src/stm32l4xx_hal_tim_ex.c ****   *            @arg TIM_CHANNEL_3: TIM Channel 3 selected
 868:Drivers/STM32L4xx_HAL_Driver/Src/stm32l4xx_hal_tim_ex.c ****   * @param  pData The source Buffer address.
 869:Drivers/STM32L4xx_HAL_Driver/Src/stm32l4xx_hal_tim_ex.c ****   * @param  Length The length of data to be transferred from memory to TIM peripheral
 870:Drivers/STM32L4xx_HAL_Driver/Src/stm32l4xx_hal_tim_ex.c ****   * @retval HAL status
 871:Drivers/STM32L4xx_HAL_Driver/Src/stm32l4xx_hal_tim_ex.c ****   */
ARM GAS  /tmp/ccR4xO3u.s 			page 54


 872:Drivers/STM32L4xx_HAL_Driver/Src/stm32l4xx_hal_tim_ex.c **** HAL_StatusTypeDef HAL_TIMEx_OCN_Start_DMA(TIM_HandleTypeDef *htim, uint32_t Channel, const uint32_t
 873:Drivers/STM32L4xx_HAL_Driver/Src/stm32l4xx_hal_tim_ex.c ****                                           uint16_t Length)
 874:Drivers/STM32L4xx_HAL_Driver/Src/stm32l4xx_hal_tim_ex.c **** {
 2168              		.loc 1 874 1
 2169              		.cfi_startproc
 2170              		@ args = 0, pretend = 0, frame = 24
 2171              		@ frame_needed = 1, uses_anonymous_args = 0
 2172 0000 80B5     		push	{r7, lr}
 2173              	.LCFI72:
 2174              		.cfi_def_cfa_offset 8
 2175              		.cfi_offset 7, -8
 2176              		.cfi_offset 14, -4
 2177 0002 86B0     		sub	sp, sp, #24
 2178              	.LCFI73:
 2179              		.cfi_def_cfa_offset 32
 2180 0004 00AF     		add	r7, sp, #0
 2181              	.LCFI74:
 2182              		.cfi_def_cfa_register 7
 2183 0006 F860     		str	r0, [r7, #12]
 2184 0008 B960     		str	r1, [r7, #8]
 2185 000a 7A60     		str	r2, [r7, #4]
 2186 000c 7B80     		strh	r3, [r7, #2]	@ movhi
 875:Drivers/STM32L4xx_HAL_Driver/Src/stm32l4xx_hal_tim_ex.c ****   HAL_StatusTypeDef status = HAL_OK;
 2187              		.loc 1 875 21
 2188 000e 0023     		movs	r3, #0
 2189 0010 FB75     		strb	r3, [r7, #23]
 876:Drivers/STM32L4xx_HAL_Driver/Src/stm32l4xx_hal_tim_ex.c ****   uint32_t tmpsmcr;
 877:Drivers/STM32L4xx_HAL_Driver/Src/stm32l4xx_hal_tim_ex.c **** 
 878:Drivers/STM32L4xx_HAL_Driver/Src/stm32l4xx_hal_tim_ex.c ****   /* Check the parameters */
 879:Drivers/STM32L4xx_HAL_Driver/Src/stm32l4xx_hal_tim_ex.c ****   assert_param(IS_TIM_CCXN_INSTANCE(htim->Instance, Channel));
 880:Drivers/STM32L4xx_HAL_Driver/Src/stm32l4xx_hal_tim_ex.c **** 
 881:Drivers/STM32L4xx_HAL_Driver/Src/stm32l4xx_hal_tim_ex.c ****   /* Set the TIM complementary channel state */
 882:Drivers/STM32L4xx_HAL_Driver/Src/stm32l4xx_hal_tim_ex.c ****   if (TIM_CHANNEL_N_STATE_GET(htim, Channel) == HAL_TIM_CHANNEL_STATE_BUSY)
 2190              		.loc 1 882 46
 2191 0012 BB68     		ldr	r3, [r7, #8]
 2192 0014 002B     		cmp	r3, #0
 2193 0016 09D1     		bne	.L135
 2194              		.loc 1 882 7 discriminator 1
 2195 0018 FB68     		ldr	r3, [r7, #12]
 2196 001a 93F84430 		ldrb	r3, [r3, #68]
 2197 001e DBB2     		uxtb	r3, r3
 2198              		.loc 1 882 46 discriminator 1
 2199 0020 022B     		cmp	r3, #2
 2200 0022 0CBF     		ite	eq
 2201 0024 0123     		moveq	r3, #1
 2202 0026 0023     		movne	r3, #0
 2203 0028 DBB2     		uxtb	r3, r3
 2204 002a 22E0     		b	.L136
 2205              	.L135:
 2206              		.loc 1 882 46 is_stmt 0 discriminator 2
 2207 002c BB68     		ldr	r3, [r7, #8]
 2208 002e 042B     		cmp	r3, #4
 2209 0030 09D1     		bne	.L137
 2210              		.loc 1 882 7 is_stmt 1 discriminator 4
 2211 0032 FB68     		ldr	r3, [r7, #12]
 2212 0034 93F84530 		ldrb	r3, [r3, #69]
 2213 0038 DBB2     		uxtb	r3, r3
ARM GAS  /tmp/ccR4xO3u.s 			page 55


 2214              		.loc 1 882 46 discriminator 4
 2215 003a 022B     		cmp	r3, #2
 2216 003c 0CBF     		ite	eq
 2217 003e 0123     		moveq	r3, #1
 2218 0040 0023     		movne	r3, #0
 2219 0042 DBB2     		uxtb	r3, r3
 2220 0044 15E0     		b	.L136
 2221              	.L137:
 2222              		.loc 1 882 46 is_stmt 0 discriminator 5
 2223 0046 BB68     		ldr	r3, [r7, #8]
 2224 0048 082B     		cmp	r3, #8
 2225 004a 09D1     		bne	.L139
 2226              		.loc 1 882 7 is_stmt 1 discriminator 7
 2227 004c FB68     		ldr	r3, [r7, #12]
 2228 004e 93F84630 		ldrb	r3, [r3, #70]
 2229 0052 DBB2     		uxtb	r3, r3
 2230              		.loc 1 882 46 discriminator 7
 2231 0054 022B     		cmp	r3, #2
 2232 0056 0CBF     		ite	eq
 2233 0058 0123     		moveq	r3, #1
 2234 005a 0023     		movne	r3, #0
 2235 005c DBB2     		uxtb	r3, r3
 2236 005e 08E0     		b	.L136
 2237              	.L139:
 2238              		.loc 1 882 7 discriminator 8
 2239 0060 FB68     		ldr	r3, [r7, #12]
 2240 0062 93F84730 		ldrb	r3, [r3, #71]
 2241 0066 DBB2     		uxtb	r3, r3
 2242              		.loc 1 882 46 discriminator 8
 2243 0068 022B     		cmp	r3, #2
 2244 006a 0CBF     		ite	eq
 2245 006c 0123     		moveq	r3, #1
 2246 006e 0023     		movne	r3, #0
 2247 0070 DBB2     		uxtb	r3, r3
 2248              	.L136:
 2249              		.loc 1 882 6 discriminator 12
 2250 0072 002B     		cmp	r3, #0
 2251 0074 01D0     		beq	.L141
 883:Drivers/STM32L4xx_HAL_Driver/Src/stm32l4xx_hal_tim_ex.c ****   {
 884:Drivers/STM32L4xx_HAL_Driver/Src/stm32l4xx_hal_tim_ex.c ****     return HAL_BUSY;
 2252              		.loc 1 884 12
 2253 0076 0223     		movs	r3, #2
 2254 0078 16E1     		b	.L142
 2255              	.L141:
 885:Drivers/STM32L4xx_HAL_Driver/Src/stm32l4xx_hal_tim_ex.c ****   }
 886:Drivers/STM32L4xx_HAL_Driver/Src/stm32l4xx_hal_tim_ex.c ****   else if (TIM_CHANNEL_N_STATE_GET(htim, Channel) == HAL_TIM_CHANNEL_STATE_READY)
 2256              		.loc 1 886 51
 2257 007a BB68     		ldr	r3, [r7, #8]
 2258 007c 002B     		cmp	r3, #0
 2259 007e 09D1     		bne	.L143
 2260              		.loc 1 886 12 discriminator 1
 2261 0080 FB68     		ldr	r3, [r7, #12]
 2262 0082 93F84430 		ldrb	r3, [r3, #68]
 2263 0086 DBB2     		uxtb	r3, r3
 2264              		.loc 1 886 51 discriminator 1
 2265 0088 012B     		cmp	r3, #1
 2266 008a 0CBF     		ite	eq
ARM GAS  /tmp/ccR4xO3u.s 			page 56


 2267 008c 0123     		moveq	r3, #1
 2268 008e 0023     		movne	r3, #0
 2269 0090 DBB2     		uxtb	r3, r3
 2270 0092 22E0     		b	.L144
 2271              	.L143:
 2272              		.loc 1 886 51 is_stmt 0 discriminator 2
 2273 0094 BB68     		ldr	r3, [r7, #8]
 2274 0096 042B     		cmp	r3, #4
 2275 0098 09D1     		bne	.L145
 2276              		.loc 1 886 12 is_stmt 1 discriminator 4
 2277 009a FB68     		ldr	r3, [r7, #12]
 2278 009c 93F84530 		ldrb	r3, [r3, #69]
 2279 00a0 DBB2     		uxtb	r3, r3
 2280              		.loc 1 886 51 discriminator 4
 2281 00a2 012B     		cmp	r3, #1
 2282 00a4 0CBF     		ite	eq
 2283 00a6 0123     		moveq	r3, #1
 2284 00a8 0023     		movne	r3, #0
 2285 00aa DBB2     		uxtb	r3, r3
 2286 00ac 15E0     		b	.L144
 2287              	.L145:
 2288              		.loc 1 886 51 is_stmt 0 discriminator 5
 2289 00ae BB68     		ldr	r3, [r7, #8]
 2290 00b0 082B     		cmp	r3, #8
 2291 00b2 09D1     		bne	.L147
 2292              		.loc 1 886 12 is_stmt 1 discriminator 7
 2293 00b4 FB68     		ldr	r3, [r7, #12]
 2294 00b6 93F84630 		ldrb	r3, [r3, #70]
 2295 00ba DBB2     		uxtb	r3, r3
 2296              		.loc 1 886 51 discriminator 7
 2297 00bc 012B     		cmp	r3, #1
 2298 00be 0CBF     		ite	eq
 2299 00c0 0123     		moveq	r3, #1
 2300 00c2 0023     		movne	r3, #0
 2301 00c4 DBB2     		uxtb	r3, r3
 2302 00c6 08E0     		b	.L144
 2303              	.L147:
 2304              		.loc 1 886 12 discriminator 8
 2305 00c8 FB68     		ldr	r3, [r7, #12]
 2306 00ca 93F84730 		ldrb	r3, [r3, #71]
 2307 00ce DBB2     		uxtb	r3, r3
 2308              		.loc 1 886 51 discriminator 8
 2309 00d0 012B     		cmp	r3, #1
 2310 00d2 0CBF     		ite	eq
 2311 00d4 0123     		moveq	r3, #1
 2312 00d6 0023     		movne	r3, #0
 2313 00d8 DBB2     		uxtb	r3, r3
 2314              	.L144:
 2315              		.loc 1 886 11 discriminator 12
 2316 00da 002B     		cmp	r3, #0
 2317 00dc 24D0     		beq	.L149
 887:Drivers/STM32L4xx_HAL_Driver/Src/stm32l4xx_hal_tim_ex.c ****   {
 888:Drivers/STM32L4xx_HAL_Driver/Src/stm32l4xx_hal_tim_ex.c ****     if ((pData == NULL) || (Length == 0U))
 2318              		.loc 1 888 8
 2319 00de 7B68     		ldr	r3, [r7, #4]
 2320 00e0 002B     		cmp	r3, #0
 2321 00e2 02D0     		beq	.L150
ARM GAS  /tmp/ccR4xO3u.s 			page 57


 2322              		.loc 1 888 25 discriminator 1
 2323 00e4 7B88     		ldrh	r3, [r7, #2]
 2324 00e6 002B     		cmp	r3, #0
 2325 00e8 01D1     		bne	.L151
 2326              	.L150:
 889:Drivers/STM32L4xx_HAL_Driver/Src/stm32l4xx_hal_tim_ex.c ****     {
 890:Drivers/STM32L4xx_HAL_Driver/Src/stm32l4xx_hal_tim_ex.c ****       return HAL_ERROR;
 2327              		.loc 1 890 14
 2328 00ea 0123     		movs	r3, #1
 2329 00ec DCE0     		b	.L142
 2330              	.L151:
 891:Drivers/STM32L4xx_HAL_Driver/Src/stm32l4xx_hal_tim_ex.c ****     }
 892:Drivers/STM32L4xx_HAL_Driver/Src/stm32l4xx_hal_tim_ex.c ****     else
 893:Drivers/STM32L4xx_HAL_Driver/Src/stm32l4xx_hal_tim_ex.c ****     {
 894:Drivers/STM32L4xx_HAL_Driver/Src/stm32l4xx_hal_tim_ex.c ****       TIM_CHANNEL_N_STATE_SET(htim, Channel, HAL_TIM_CHANNEL_STATE_BUSY);
 2331              		.loc 1 894 7
 2332 00ee BB68     		ldr	r3, [r7, #8]
 2333 00f0 002B     		cmp	r3, #0
 2334 00f2 04D1     		bne	.L152
 2335              		.loc 1 894 7 is_stmt 0 discriminator 1
 2336 00f4 FB68     		ldr	r3, [r7, #12]
 2337 00f6 0222     		movs	r2, #2
 2338 00f8 83F84420 		strb	r2, [r3, #68]
 2339 00fc 16E0     		b	.L153
 2340              	.L152:
 2341              		.loc 1 894 7 discriminator 2
 2342 00fe BB68     		ldr	r3, [r7, #8]
 2343 0100 042B     		cmp	r3, #4
 2344 0102 04D1     		bne	.L154
 2345              		.loc 1 894 7 discriminator 3
 2346 0104 FB68     		ldr	r3, [r7, #12]
 2347 0106 0222     		movs	r2, #2
 2348 0108 83F84520 		strb	r2, [r3, #69]
 2349 010c 0EE0     		b	.L153
 2350              	.L154:
 2351              		.loc 1 894 7 discriminator 4
 2352 010e BB68     		ldr	r3, [r7, #8]
 2353 0110 082B     		cmp	r3, #8
 2354 0112 04D1     		bne	.L156
 2355              		.loc 1 894 7 discriminator 6
 2356 0114 FB68     		ldr	r3, [r7, #12]
 2357 0116 0222     		movs	r2, #2
 2358 0118 83F84620 		strb	r2, [r3, #70]
 2359 011c 06E0     		b	.L153
 2360              	.L156:
 2361              		.loc 1 894 7 discriminator 7
 2362 011e FB68     		ldr	r3, [r7, #12]
 2363 0120 0222     		movs	r2, #2
 2364 0122 83F84720 		strb	r2, [r3, #71]
 2365 0126 01E0     		b	.L153
 2366              	.L149:
 895:Drivers/STM32L4xx_HAL_Driver/Src/stm32l4xx_hal_tim_ex.c ****     }
 896:Drivers/STM32L4xx_HAL_Driver/Src/stm32l4xx_hal_tim_ex.c ****   }
 897:Drivers/STM32L4xx_HAL_Driver/Src/stm32l4xx_hal_tim_ex.c ****   else
 898:Drivers/STM32L4xx_HAL_Driver/Src/stm32l4xx_hal_tim_ex.c ****   {
 899:Drivers/STM32L4xx_HAL_Driver/Src/stm32l4xx_hal_tim_ex.c ****     return HAL_ERROR;
 2367              		.loc 1 899 12 is_stmt 1
ARM GAS  /tmp/ccR4xO3u.s 			page 58


 2368 0128 0123     		movs	r3, #1
 2369 012a BDE0     		b	.L142
 2370              	.L153:
 900:Drivers/STM32L4xx_HAL_Driver/Src/stm32l4xx_hal_tim_ex.c ****   }
 901:Drivers/STM32L4xx_HAL_Driver/Src/stm32l4xx_hal_tim_ex.c **** 
 902:Drivers/STM32L4xx_HAL_Driver/Src/stm32l4xx_hal_tim_ex.c ****   switch (Channel)
 2371              		.loc 1 902 3
 2372 012c BB68     		ldr	r3, [r7, #8]
 2373 012e 082B     		cmp	r3, #8
 2374 0130 51D0     		beq	.L158
 2375 0132 BB68     		ldr	r3, [r7, #8]
 2376 0134 082B     		cmp	r3, #8
 2377 0136 72D8     		bhi	.L159
 2378 0138 BB68     		ldr	r3, [r7, #8]
 2379 013a 002B     		cmp	r3, #0
 2380 013c 03D0     		beq	.L160
 2381 013e BB68     		ldr	r3, [r7, #8]
 2382 0140 042B     		cmp	r3, #4
 2383 0142 24D0     		beq	.L161
 2384 0144 6BE0     		b	.L159
 2385              	.L160:
 903:Drivers/STM32L4xx_HAL_Driver/Src/stm32l4xx_hal_tim_ex.c ****   {
 904:Drivers/STM32L4xx_HAL_Driver/Src/stm32l4xx_hal_tim_ex.c ****     case TIM_CHANNEL_1:
 905:Drivers/STM32L4xx_HAL_Driver/Src/stm32l4xx_hal_tim_ex.c ****     {
 906:Drivers/STM32L4xx_HAL_Driver/Src/stm32l4xx_hal_tim_ex.c ****       /* Set the DMA compare callbacks */
 907:Drivers/STM32L4xx_HAL_Driver/Src/stm32l4xx_hal_tim_ex.c ****       htim->hdma[TIM_DMA_ID_CC1]->XferCpltCallback = TIM_DMADelayPulseNCplt;
 2386              		.loc 1 907 17
 2387 0146 FB68     		ldr	r3, [r7, #12]
 2388 0148 5B6A     		ldr	r3, [r3, #36]
 2389              		.loc 1 907 52
 2390 014a 594A     		ldr	r2, .L171
 2391 014c DA62     		str	r2, [r3, #44]
 908:Drivers/STM32L4xx_HAL_Driver/Src/stm32l4xx_hal_tim_ex.c ****       htim->hdma[TIM_DMA_ID_CC1]->XferHalfCpltCallback = TIM_DMADelayPulseHalfCplt;
 2392              		.loc 1 908 17
 2393 014e FB68     		ldr	r3, [r7, #12]
 2394 0150 5B6A     		ldr	r3, [r3, #36]
 2395              		.loc 1 908 56
 2396 0152 584A     		ldr	r2, .L171+4
 2397 0154 1A63     		str	r2, [r3, #48]
 909:Drivers/STM32L4xx_HAL_Driver/Src/stm32l4xx_hal_tim_ex.c **** 
 910:Drivers/STM32L4xx_HAL_Driver/Src/stm32l4xx_hal_tim_ex.c ****       /* Set the DMA error callback */
 911:Drivers/STM32L4xx_HAL_Driver/Src/stm32l4xx_hal_tim_ex.c ****       htim->hdma[TIM_DMA_ID_CC1]->XferErrorCallback = TIM_DMAErrorCCxN ;
 2398              		.loc 1 911 17
 2399 0156 FB68     		ldr	r3, [r7, #12]
 2400 0158 5B6A     		ldr	r3, [r3, #36]
 2401              		.loc 1 911 53
 2402 015a 574A     		ldr	r2, .L171+8
 2403 015c 5A63     		str	r2, [r3, #52]
 912:Drivers/STM32L4xx_HAL_Driver/Src/stm32l4xx_hal_tim_ex.c **** 
 913:Drivers/STM32L4xx_HAL_Driver/Src/stm32l4xx_hal_tim_ex.c ****       /* Enable the DMA channel */
 914:Drivers/STM32L4xx_HAL_Driver/Src/stm32l4xx_hal_tim_ex.c ****       if (HAL_DMA_Start_IT(htim->hdma[TIM_DMA_ID_CC1], (uint32_t)pData, (uint32_t)&htim->Instance->
 2404              		.loc 1 914 11
 2405 015e FB68     		ldr	r3, [r7, #12]
 2406 0160 586A     		ldr	r0, [r3, #36]
 2407 0162 7968     		ldr	r1, [r7, #4]
 2408              		.loc 1 914 88
 2409 0164 FB68     		ldr	r3, [r7, #12]
ARM GAS  /tmp/ccR4xO3u.s 			page 59


 2410 0166 1B68     		ldr	r3, [r3]
 2411              		.loc 1 914 83
 2412 0168 3433     		adds	r3, r3, #52
 2413              		.loc 1 914 11
 2414 016a 1A46     		mov	r2, r3
 2415 016c 7B88     		ldrh	r3, [r7, #2]
 2416 016e FFF7FEFF 		bl	HAL_DMA_Start_IT
 2417 0172 0346     		mov	r3, r0
 2418              		.loc 1 914 10
 2419 0174 002B     		cmp	r3, #0
 2420 0176 01D0     		beq	.L162
 915:Drivers/STM32L4xx_HAL_Driver/Src/stm32l4xx_hal_tim_ex.c ****                            Length) != HAL_OK)
 916:Drivers/STM32L4xx_HAL_Driver/Src/stm32l4xx_hal_tim_ex.c ****       {
 917:Drivers/STM32L4xx_HAL_Driver/Src/stm32l4xx_hal_tim_ex.c ****         /* Return error status */
 918:Drivers/STM32L4xx_HAL_Driver/Src/stm32l4xx_hal_tim_ex.c ****         return HAL_ERROR;
 2421              		.loc 1 918 16
 2422 0178 0123     		movs	r3, #1
 2423 017a 95E0     		b	.L142
 2424              	.L162:
 919:Drivers/STM32L4xx_HAL_Driver/Src/stm32l4xx_hal_tim_ex.c ****       }
 920:Drivers/STM32L4xx_HAL_Driver/Src/stm32l4xx_hal_tim_ex.c ****       /* Enable the TIM Output Compare DMA request */
 921:Drivers/STM32L4xx_HAL_Driver/Src/stm32l4xx_hal_tim_ex.c ****       __HAL_TIM_ENABLE_DMA(htim, TIM_DMA_CC1);
 2425              		.loc 1 921 7
 2426 017c FB68     		ldr	r3, [r7, #12]
 2427 017e 1B68     		ldr	r3, [r3]
 2428 0180 DA68     		ldr	r2, [r3, #12]
 2429 0182 FB68     		ldr	r3, [r7, #12]
 2430 0184 1B68     		ldr	r3, [r3]
 2431 0186 42F40072 		orr	r2, r2, #512
 2432 018a DA60     		str	r2, [r3, #12]
 922:Drivers/STM32L4xx_HAL_Driver/Src/stm32l4xx_hal_tim_ex.c ****       break;
 2433              		.loc 1 922 7
 2434 018c 4AE0     		b	.L163
 2435              	.L161:
 923:Drivers/STM32L4xx_HAL_Driver/Src/stm32l4xx_hal_tim_ex.c ****     }
 924:Drivers/STM32L4xx_HAL_Driver/Src/stm32l4xx_hal_tim_ex.c **** 
 925:Drivers/STM32L4xx_HAL_Driver/Src/stm32l4xx_hal_tim_ex.c ****     case TIM_CHANNEL_2:
 926:Drivers/STM32L4xx_HAL_Driver/Src/stm32l4xx_hal_tim_ex.c ****     {
 927:Drivers/STM32L4xx_HAL_Driver/Src/stm32l4xx_hal_tim_ex.c ****       /* Set the DMA compare callbacks */
 928:Drivers/STM32L4xx_HAL_Driver/Src/stm32l4xx_hal_tim_ex.c ****       htim->hdma[TIM_DMA_ID_CC2]->XferCpltCallback = TIM_DMADelayPulseNCplt;
 2436              		.loc 1 928 17
 2437 018e FB68     		ldr	r3, [r7, #12]
 2438 0190 9B6A     		ldr	r3, [r3, #40]
 2439              		.loc 1 928 52
 2440 0192 474A     		ldr	r2, .L171
 2441 0194 DA62     		str	r2, [r3, #44]
 929:Drivers/STM32L4xx_HAL_Driver/Src/stm32l4xx_hal_tim_ex.c ****       htim->hdma[TIM_DMA_ID_CC2]->XferHalfCpltCallback = TIM_DMADelayPulseHalfCplt;
 2442              		.loc 1 929 17
 2443 0196 FB68     		ldr	r3, [r7, #12]
 2444 0198 9B6A     		ldr	r3, [r3, #40]
 2445              		.loc 1 929 56
 2446 019a 464A     		ldr	r2, .L171+4
 2447 019c 1A63     		str	r2, [r3, #48]
 930:Drivers/STM32L4xx_HAL_Driver/Src/stm32l4xx_hal_tim_ex.c **** 
 931:Drivers/STM32L4xx_HAL_Driver/Src/stm32l4xx_hal_tim_ex.c ****       /* Set the DMA error callback */
 932:Drivers/STM32L4xx_HAL_Driver/Src/stm32l4xx_hal_tim_ex.c ****       htim->hdma[TIM_DMA_ID_CC2]->XferErrorCallback = TIM_DMAErrorCCxN ;
 2448              		.loc 1 932 17
ARM GAS  /tmp/ccR4xO3u.s 			page 60


 2449 019e FB68     		ldr	r3, [r7, #12]
 2450 01a0 9B6A     		ldr	r3, [r3, #40]
 2451              		.loc 1 932 53
 2452 01a2 454A     		ldr	r2, .L171+8
 2453 01a4 5A63     		str	r2, [r3, #52]
 933:Drivers/STM32L4xx_HAL_Driver/Src/stm32l4xx_hal_tim_ex.c **** 
 934:Drivers/STM32L4xx_HAL_Driver/Src/stm32l4xx_hal_tim_ex.c ****       /* Enable the DMA channel */
 935:Drivers/STM32L4xx_HAL_Driver/Src/stm32l4xx_hal_tim_ex.c ****       if (HAL_DMA_Start_IT(htim->hdma[TIM_DMA_ID_CC2], (uint32_t)pData, (uint32_t)&htim->Instance->
 2454              		.loc 1 935 11
 2455 01a6 FB68     		ldr	r3, [r7, #12]
 2456 01a8 986A     		ldr	r0, [r3, #40]
 2457 01aa 7968     		ldr	r1, [r7, #4]
 2458              		.loc 1 935 88
 2459 01ac FB68     		ldr	r3, [r7, #12]
 2460 01ae 1B68     		ldr	r3, [r3]
 2461              		.loc 1 935 83
 2462 01b0 3833     		adds	r3, r3, #56
 2463              		.loc 1 935 11
 2464 01b2 1A46     		mov	r2, r3
 2465 01b4 7B88     		ldrh	r3, [r7, #2]
 2466 01b6 FFF7FEFF 		bl	HAL_DMA_Start_IT
 2467 01ba 0346     		mov	r3, r0
 2468              		.loc 1 935 10
 2469 01bc 002B     		cmp	r3, #0
 2470 01be 01D0     		beq	.L164
 936:Drivers/STM32L4xx_HAL_Driver/Src/stm32l4xx_hal_tim_ex.c ****                            Length) != HAL_OK)
 937:Drivers/STM32L4xx_HAL_Driver/Src/stm32l4xx_hal_tim_ex.c ****       {
 938:Drivers/STM32L4xx_HAL_Driver/Src/stm32l4xx_hal_tim_ex.c ****         /* Return error status */
 939:Drivers/STM32L4xx_HAL_Driver/Src/stm32l4xx_hal_tim_ex.c ****         return HAL_ERROR;
 2471              		.loc 1 939 16
 2472 01c0 0123     		movs	r3, #1
 2473 01c2 71E0     		b	.L142
 2474              	.L164:
 940:Drivers/STM32L4xx_HAL_Driver/Src/stm32l4xx_hal_tim_ex.c ****       }
 941:Drivers/STM32L4xx_HAL_Driver/Src/stm32l4xx_hal_tim_ex.c ****       /* Enable the TIM Output Compare DMA request */
 942:Drivers/STM32L4xx_HAL_Driver/Src/stm32l4xx_hal_tim_ex.c ****       __HAL_TIM_ENABLE_DMA(htim, TIM_DMA_CC2);
 2475              		.loc 1 942 7
 2476 01c4 FB68     		ldr	r3, [r7, #12]
 2477 01c6 1B68     		ldr	r3, [r3]
 2478 01c8 DA68     		ldr	r2, [r3, #12]
 2479 01ca FB68     		ldr	r3, [r7, #12]
 2480 01cc 1B68     		ldr	r3, [r3]
 2481 01ce 42F48062 		orr	r2, r2, #1024
 2482 01d2 DA60     		str	r2, [r3, #12]
 943:Drivers/STM32L4xx_HAL_Driver/Src/stm32l4xx_hal_tim_ex.c ****       break;
 2483              		.loc 1 943 7
 2484 01d4 26E0     		b	.L163
 2485              	.L158:
 944:Drivers/STM32L4xx_HAL_Driver/Src/stm32l4xx_hal_tim_ex.c ****     }
 945:Drivers/STM32L4xx_HAL_Driver/Src/stm32l4xx_hal_tim_ex.c **** 
 946:Drivers/STM32L4xx_HAL_Driver/Src/stm32l4xx_hal_tim_ex.c ****     case TIM_CHANNEL_3:
 947:Drivers/STM32L4xx_HAL_Driver/Src/stm32l4xx_hal_tim_ex.c ****     {
 948:Drivers/STM32L4xx_HAL_Driver/Src/stm32l4xx_hal_tim_ex.c ****       /* Set the DMA compare callbacks */
 949:Drivers/STM32L4xx_HAL_Driver/Src/stm32l4xx_hal_tim_ex.c ****       htim->hdma[TIM_DMA_ID_CC3]->XferCpltCallback = TIM_DMADelayPulseNCplt;
 2486              		.loc 1 949 17
 2487 01d6 FB68     		ldr	r3, [r7, #12]
 2488 01d8 DB6A     		ldr	r3, [r3, #44]
ARM GAS  /tmp/ccR4xO3u.s 			page 61


 2489              		.loc 1 949 52
 2490 01da 354A     		ldr	r2, .L171
 2491 01dc DA62     		str	r2, [r3, #44]
 950:Drivers/STM32L4xx_HAL_Driver/Src/stm32l4xx_hal_tim_ex.c ****       htim->hdma[TIM_DMA_ID_CC3]->XferHalfCpltCallback = TIM_DMADelayPulseHalfCplt;
 2492              		.loc 1 950 17
 2493 01de FB68     		ldr	r3, [r7, #12]
 2494 01e0 DB6A     		ldr	r3, [r3, #44]
 2495              		.loc 1 950 56
 2496 01e2 344A     		ldr	r2, .L171+4
 2497 01e4 1A63     		str	r2, [r3, #48]
 951:Drivers/STM32L4xx_HAL_Driver/Src/stm32l4xx_hal_tim_ex.c **** 
 952:Drivers/STM32L4xx_HAL_Driver/Src/stm32l4xx_hal_tim_ex.c ****       /* Set the DMA error callback */
 953:Drivers/STM32L4xx_HAL_Driver/Src/stm32l4xx_hal_tim_ex.c ****       htim->hdma[TIM_DMA_ID_CC3]->XferErrorCallback = TIM_DMAErrorCCxN ;
 2498              		.loc 1 953 17
 2499 01e6 FB68     		ldr	r3, [r7, #12]
 2500 01e8 DB6A     		ldr	r3, [r3, #44]
 2501              		.loc 1 953 53
 2502 01ea 334A     		ldr	r2, .L171+8
 2503 01ec 5A63     		str	r2, [r3, #52]
 954:Drivers/STM32L4xx_HAL_Driver/Src/stm32l4xx_hal_tim_ex.c **** 
 955:Drivers/STM32L4xx_HAL_Driver/Src/stm32l4xx_hal_tim_ex.c ****       /* Enable the DMA channel */
 956:Drivers/STM32L4xx_HAL_Driver/Src/stm32l4xx_hal_tim_ex.c ****       if (HAL_DMA_Start_IT(htim->hdma[TIM_DMA_ID_CC3], (uint32_t)pData, (uint32_t)&htim->Instance->
 2504              		.loc 1 956 11
 2505 01ee FB68     		ldr	r3, [r7, #12]
 2506 01f0 D86A     		ldr	r0, [r3, #44]
 2507 01f2 7968     		ldr	r1, [r7, #4]
 2508              		.loc 1 956 88
 2509 01f4 FB68     		ldr	r3, [r7, #12]
 2510 01f6 1B68     		ldr	r3, [r3]
 2511              		.loc 1 956 83
 2512 01f8 3C33     		adds	r3, r3, #60
 2513              		.loc 1 956 11
 2514 01fa 1A46     		mov	r2, r3
 2515 01fc 7B88     		ldrh	r3, [r7, #2]
 2516 01fe FFF7FEFF 		bl	HAL_DMA_Start_IT
 2517 0202 0346     		mov	r3, r0
 2518              		.loc 1 956 10
 2519 0204 002B     		cmp	r3, #0
 2520 0206 01D0     		beq	.L165
 957:Drivers/STM32L4xx_HAL_Driver/Src/stm32l4xx_hal_tim_ex.c ****                            Length) != HAL_OK)
 958:Drivers/STM32L4xx_HAL_Driver/Src/stm32l4xx_hal_tim_ex.c ****       {
 959:Drivers/STM32L4xx_HAL_Driver/Src/stm32l4xx_hal_tim_ex.c ****         /* Return error status */
 960:Drivers/STM32L4xx_HAL_Driver/Src/stm32l4xx_hal_tim_ex.c ****         return HAL_ERROR;
 2521              		.loc 1 960 16
 2522 0208 0123     		movs	r3, #1
 2523 020a 4DE0     		b	.L142
 2524              	.L165:
 961:Drivers/STM32L4xx_HAL_Driver/Src/stm32l4xx_hal_tim_ex.c ****       }
 962:Drivers/STM32L4xx_HAL_Driver/Src/stm32l4xx_hal_tim_ex.c ****       /* Enable the TIM Output Compare DMA request */
 963:Drivers/STM32L4xx_HAL_Driver/Src/stm32l4xx_hal_tim_ex.c ****       __HAL_TIM_ENABLE_DMA(htim, TIM_DMA_CC3);
 2525              		.loc 1 963 7
 2526 020c FB68     		ldr	r3, [r7, #12]
 2527 020e 1B68     		ldr	r3, [r3]
 2528 0210 DA68     		ldr	r2, [r3, #12]
 2529 0212 FB68     		ldr	r3, [r7, #12]
 2530 0214 1B68     		ldr	r3, [r3]
 2531 0216 42F40062 		orr	r2, r2, #2048
ARM GAS  /tmp/ccR4xO3u.s 			page 62


 2532 021a DA60     		str	r2, [r3, #12]
 964:Drivers/STM32L4xx_HAL_Driver/Src/stm32l4xx_hal_tim_ex.c ****       break;
 2533              		.loc 1 964 7
 2534 021c 02E0     		b	.L163
 2535              	.L159:
 965:Drivers/STM32L4xx_HAL_Driver/Src/stm32l4xx_hal_tim_ex.c ****     }
 966:Drivers/STM32L4xx_HAL_Driver/Src/stm32l4xx_hal_tim_ex.c **** 
 967:Drivers/STM32L4xx_HAL_Driver/Src/stm32l4xx_hal_tim_ex.c ****     default:
 968:Drivers/STM32L4xx_HAL_Driver/Src/stm32l4xx_hal_tim_ex.c ****       status = HAL_ERROR;
 2536              		.loc 1 968 14
 2537 021e 0123     		movs	r3, #1
 2538 0220 FB75     		strb	r3, [r7, #23]
 969:Drivers/STM32L4xx_HAL_Driver/Src/stm32l4xx_hal_tim_ex.c ****       break;
 2539              		.loc 1 969 7
 2540 0222 00BF     		nop
 2541              	.L163:
 970:Drivers/STM32L4xx_HAL_Driver/Src/stm32l4xx_hal_tim_ex.c ****   }
 971:Drivers/STM32L4xx_HAL_Driver/Src/stm32l4xx_hal_tim_ex.c **** 
 972:Drivers/STM32L4xx_HAL_Driver/Src/stm32l4xx_hal_tim_ex.c ****   if (status == HAL_OK)
 2542              		.loc 1 972 6
 2543 0224 FB7D     		ldrb	r3, [r7, #23]	@ zero_extendqisi2
 2544 0226 002B     		cmp	r3, #0
 2545 0228 3DD1     		bne	.L166
 973:Drivers/STM32L4xx_HAL_Driver/Src/stm32l4xx_hal_tim_ex.c ****   {
 974:Drivers/STM32L4xx_HAL_Driver/Src/stm32l4xx_hal_tim_ex.c ****     /* Enable the Capture compare channel N */
 975:Drivers/STM32L4xx_HAL_Driver/Src/stm32l4xx_hal_tim_ex.c ****     TIM_CCxNChannelCmd(htim->Instance, Channel, TIM_CCxN_ENABLE);
 2546              		.loc 1 975 5
 2547 022a FB68     		ldr	r3, [r7, #12]
 2548 022c 1B68     		ldr	r3, [r3]
 2549 022e 0422     		movs	r2, #4
 2550 0230 B968     		ldr	r1, [r7, #8]
 2551 0232 1846     		mov	r0, r3
 2552 0234 FFF7FEFF 		bl	TIM_CCxNChannelCmd
 976:Drivers/STM32L4xx_HAL_Driver/Src/stm32l4xx_hal_tim_ex.c **** 
 977:Drivers/STM32L4xx_HAL_Driver/Src/stm32l4xx_hal_tim_ex.c ****     /* Enable the Main Output */
 978:Drivers/STM32L4xx_HAL_Driver/Src/stm32l4xx_hal_tim_ex.c ****     __HAL_TIM_MOE_ENABLE(htim);
 2553              		.loc 1 978 5
 2554 0238 FB68     		ldr	r3, [r7, #12]
 2555 023a 1B68     		ldr	r3, [r3]
 2556 023c 5A6C     		ldr	r2, [r3, #68]
 2557 023e FB68     		ldr	r3, [r7, #12]
 2558 0240 1B68     		ldr	r3, [r3]
 2559 0242 42F40042 		orr	r2, r2, #32768
 2560 0246 5A64     		str	r2, [r3, #68]
 979:Drivers/STM32L4xx_HAL_Driver/Src/stm32l4xx_hal_tim_ex.c **** 
 980:Drivers/STM32L4xx_HAL_Driver/Src/stm32l4xx_hal_tim_ex.c ****     /* Enable the Peripheral, except in trigger mode where enable is automatically done with trigge
 981:Drivers/STM32L4xx_HAL_Driver/Src/stm32l4xx_hal_tim_ex.c ****     if (IS_TIM_SLAVE_INSTANCE(htim->Instance))
 2561              		.loc 1 981 9
 2562 0248 FB68     		ldr	r3, [r7, #12]
 2563 024a 1B68     		ldr	r3, [r3]
 2564              		.loc 1 981 8
 2565 024c 1B4A     		ldr	r2, .L171+12
 2566 024e 9342     		cmp	r3, r2
 2567 0250 09D0     		beq	.L167
 2568              		.loc 1 981 9 discriminator 1
 2569 0252 FB68     		ldr	r3, [r7, #12]
 2570 0254 1B68     		ldr	r3, [r3]
ARM GAS  /tmp/ccR4xO3u.s 			page 63


 2571 0256 B3F1804F 		cmp	r3, #1073741824
 2572 025a 04D0     		beq	.L167
 2573              		.loc 1 981 9 is_stmt 0 discriminator 2
 2574 025c FB68     		ldr	r3, [r7, #12]
 2575 025e 1B68     		ldr	r3, [r3]
 2576 0260 174A     		ldr	r2, .L171+16
 2577 0262 9342     		cmp	r3, r2
 2578 0264 15D1     		bne	.L168
 2579              	.L167:
 982:Drivers/STM32L4xx_HAL_Driver/Src/stm32l4xx_hal_tim_ex.c ****     {
 983:Drivers/STM32L4xx_HAL_Driver/Src/stm32l4xx_hal_tim_ex.c ****       tmpsmcr = htim->Instance->SMCR & TIM_SMCR_SMS;
 2580              		.loc 1 983 21 is_stmt 1
 2581 0266 FB68     		ldr	r3, [r7, #12]
 2582 0268 1B68     		ldr	r3, [r3]
 2583              		.loc 1 983 31
 2584 026a 9A68     		ldr	r2, [r3, #8]
 2585              		.loc 1 983 15
 2586 026c 154B     		ldr	r3, .L171+20
 2587 026e 1340     		ands	r3, r3, r2
 2588 0270 3B61     		str	r3, [r7, #16]
 984:Drivers/STM32L4xx_HAL_Driver/Src/stm32l4xx_hal_tim_ex.c ****       if (!IS_TIM_SLAVEMODE_TRIGGER_ENABLED(tmpsmcr))
 2589              		.loc 1 984 10
 2590 0272 3B69     		ldr	r3, [r7, #16]
 2591 0274 062B     		cmp	r3, #6
 2592 0276 15D0     		beq	.L170
 2593              		.loc 1 984 11 discriminator 1
 2594 0278 3B69     		ldr	r3, [r7, #16]
 2595 027a B3F5803F 		cmp	r3, #65536
 2596 027e 11D0     		beq	.L170
 985:Drivers/STM32L4xx_HAL_Driver/Src/stm32l4xx_hal_tim_ex.c ****       {
 986:Drivers/STM32L4xx_HAL_Driver/Src/stm32l4xx_hal_tim_ex.c ****         __HAL_TIM_ENABLE(htim);
 2597              		.loc 1 986 9
 2598 0280 FB68     		ldr	r3, [r7, #12]
 2599 0282 1B68     		ldr	r3, [r3]
 2600 0284 1A68     		ldr	r2, [r3]
 2601 0286 FB68     		ldr	r3, [r7, #12]
 2602 0288 1B68     		ldr	r3, [r3]
 2603 028a 42F00102 		orr	r2, r2, #1
 2604 028e 1A60     		str	r2, [r3]
 984:Drivers/STM32L4xx_HAL_Driver/Src/stm32l4xx_hal_tim_ex.c ****       if (!IS_TIM_SLAVEMODE_TRIGGER_ENABLED(tmpsmcr))
 2605              		.loc 1 984 10
 2606 0290 08E0     		b	.L170
 2607              	.L168:
 987:Drivers/STM32L4xx_HAL_Driver/Src/stm32l4xx_hal_tim_ex.c ****       }
 988:Drivers/STM32L4xx_HAL_Driver/Src/stm32l4xx_hal_tim_ex.c ****     }
 989:Drivers/STM32L4xx_HAL_Driver/Src/stm32l4xx_hal_tim_ex.c ****     else
 990:Drivers/STM32L4xx_HAL_Driver/Src/stm32l4xx_hal_tim_ex.c ****     {
 991:Drivers/STM32L4xx_HAL_Driver/Src/stm32l4xx_hal_tim_ex.c ****       __HAL_TIM_ENABLE(htim);
 2608              		.loc 1 991 7
 2609 0292 FB68     		ldr	r3, [r7, #12]
 2610 0294 1B68     		ldr	r3, [r3]
 2611 0296 1A68     		ldr	r2, [r3]
 2612 0298 FB68     		ldr	r3, [r7, #12]
 2613 029a 1B68     		ldr	r3, [r3]
 2614 029c 42F00102 		orr	r2, r2, #1
 2615 02a0 1A60     		str	r2, [r3]
 2616 02a2 00E0     		b	.L166
ARM GAS  /tmp/ccR4xO3u.s 			page 64


 2617              	.L170:
 984:Drivers/STM32L4xx_HAL_Driver/Src/stm32l4xx_hal_tim_ex.c ****       {
 2618              		.loc 1 984 10
 2619 02a4 00BF     		nop
 2620              	.L166:
 992:Drivers/STM32L4xx_HAL_Driver/Src/stm32l4xx_hal_tim_ex.c ****     }
 993:Drivers/STM32L4xx_HAL_Driver/Src/stm32l4xx_hal_tim_ex.c ****   }
 994:Drivers/STM32L4xx_HAL_Driver/Src/stm32l4xx_hal_tim_ex.c **** 
 995:Drivers/STM32L4xx_HAL_Driver/Src/stm32l4xx_hal_tim_ex.c ****   /* Return function status */
 996:Drivers/STM32L4xx_HAL_Driver/Src/stm32l4xx_hal_tim_ex.c ****   return status;
 2621              		.loc 1 996 10
 2622 02a6 FB7D     		ldrb	r3, [r7, #23]	@ zero_extendqisi2
 2623              	.L142:
 997:Drivers/STM32L4xx_HAL_Driver/Src/stm32l4xx_hal_tim_ex.c **** }
 2624              		.loc 1 997 1
 2625 02a8 1846     		mov	r0, r3
 2626 02aa 1837     		adds	r7, r7, #24
 2627              	.LCFI75:
 2628              		.cfi_def_cfa_offset 8
 2629 02ac BD46     		mov	sp, r7
 2630              	.LCFI76:
 2631              		.cfi_def_cfa_register 13
 2632              		@ sp needed
 2633 02ae 80BD     		pop	{r7, pc}
 2634              	.L172:
 2635              		.align	2
 2636              	.L171:
 2637 02b0 00000000 		.word	TIM_DMADelayPulseNCplt
 2638 02b4 00000000 		.word	TIM_DMADelayPulseHalfCplt
 2639 02b8 00000000 		.word	TIM_DMAErrorCCxN
 2640 02bc 002C0140 		.word	1073818624
 2641 02c0 00400140 		.word	1073823744
 2642 02c4 07000100 		.word	65543
 2643              		.cfi_endproc
 2644              	.LFE146:
 2646              		.section	.text.HAL_TIMEx_OCN_Stop_DMA,"ax",%progbits
 2647              		.align	1
 2648              		.global	HAL_TIMEx_OCN_Stop_DMA
 2649              		.syntax unified
 2650              		.thumb
 2651              		.thumb_func
 2653              	HAL_TIMEx_OCN_Stop_DMA:
 2654              	.LFB147:
 998:Drivers/STM32L4xx_HAL_Driver/Src/stm32l4xx_hal_tim_ex.c **** 
 999:Drivers/STM32L4xx_HAL_Driver/Src/stm32l4xx_hal_tim_ex.c **** /**
1000:Drivers/STM32L4xx_HAL_Driver/Src/stm32l4xx_hal_tim_ex.c ****   * @brief  Stops the TIM Output Compare signal generation in DMA mode
1001:Drivers/STM32L4xx_HAL_Driver/Src/stm32l4xx_hal_tim_ex.c ****   *         on the complementary output.
1002:Drivers/STM32L4xx_HAL_Driver/Src/stm32l4xx_hal_tim_ex.c ****   * @param  htim TIM Output Compare handle
1003:Drivers/STM32L4xx_HAL_Driver/Src/stm32l4xx_hal_tim_ex.c ****   * @param  Channel TIM Channel to be disabled
1004:Drivers/STM32L4xx_HAL_Driver/Src/stm32l4xx_hal_tim_ex.c ****   *          This parameter can be one of the following values:
1005:Drivers/STM32L4xx_HAL_Driver/Src/stm32l4xx_hal_tim_ex.c ****   *            @arg TIM_CHANNEL_1: TIM Channel 1 selected
1006:Drivers/STM32L4xx_HAL_Driver/Src/stm32l4xx_hal_tim_ex.c ****   *            @arg TIM_CHANNEL_2: TIM Channel 2 selected
1007:Drivers/STM32L4xx_HAL_Driver/Src/stm32l4xx_hal_tim_ex.c ****   *            @arg TIM_CHANNEL_3: TIM Channel 3 selected
1008:Drivers/STM32L4xx_HAL_Driver/Src/stm32l4xx_hal_tim_ex.c ****   * @retval HAL status
1009:Drivers/STM32L4xx_HAL_Driver/Src/stm32l4xx_hal_tim_ex.c ****   */
1010:Drivers/STM32L4xx_HAL_Driver/Src/stm32l4xx_hal_tim_ex.c **** HAL_StatusTypeDef HAL_TIMEx_OCN_Stop_DMA(TIM_HandleTypeDef *htim, uint32_t Channel)
1011:Drivers/STM32L4xx_HAL_Driver/Src/stm32l4xx_hal_tim_ex.c **** {
ARM GAS  /tmp/ccR4xO3u.s 			page 65


 2655              		.loc 1 1011 1
 2656              		.cfi_startproc
 2657              		@ args = 0, pretend = 0, frame = 16
 2658              		@ frame_needed = 1, uses_anonymous_args = 0
 2659 0000 80B5     		push	{r7, lr}
 2660              	.LCFI77:
 2661              		.cfi_def_cfa_offset 8
 2662              		.cfi_offset 7, -8
 2663              		.cfi_offset 14, -4
 2664 0002 84B0     		sub	sp, sp, #16
 2665              	.LCFI78:
 2666              		.cfi_def_cfa_offset 24
 2667 0004 00AF     		add	r7, sp, #0
 2668              	.LCFI79:
 2669              		.cfi_def_cfa_register 7
 2670 0006 7860     		str	r0, [r7, #4]
 2671 0008 3960     		str	r1, [r7]
1012:Drivers/STM32L4xx_HAL_Driver/Src/stm32l4xx_hal_tim_ex.c ****   HAL_StatusTypeDef status = HAL_OK;
 2672              		.loc 1 1012 21
 2673 000a 0023     		movs	r3, #0
 2674 000c FB73     		strb	r3, [r7, #15]
1013:Drivers/STM32L4xx_HAL_Driver/Src/stm32l4xx_hal_tim_ex.c **** 
1014:Drivers/STM32L4xx_HAL_Driver/Src/stm32l4xx_hal_tim_ex.c ****   /* Check the parameters */
1015:Drivers/STM32L4xx_HAL_Driver/Src/stm32l4xx_hal_tim_ex.c ****   assert_param(IS_TIM_CCXN_INSTANCE(htim->Instance, Channel));
1016:Drivers/STM32L4xx_HAL_Driver/Src/stm32l4xx_hal_tim_ex.c **** 
1017:Drivers/STM32L4xx_HAL_Driver/Src/stm32l4xx_hal_tim_ex.c ****   switch (Channel)
 2675              		.loc 1 1017 3
 2676 000e 3B68     		ldr	r3, [r7]
 2677 0010 082B     		cmp	r3, #8
 2678 0012 25D0     		beq	.L174
 2679 0014 3B68     		ldr	r3, [r7]
 2680 0016 082B     		cmp	r3, #8
 2681 0018 30D8     		bhi	.L175
 2682 001a 3B68     		ldr	r3, [r7]
 2683 001c 002B     		cmp	r3, #0
 2684 001e 03D0     		beq	.L176
 2685 0020 3B68     		ldr	r3, [r7]
 2686 0022 042B     		cmp	r3, #4
 2687 0024 0ED0     		beq	.L177
 2688 0026 29E0     		b	.L175
 2689              	.L176:
1018:Drivers/STM32L4xx_HAL_Driver/Src/stm32l4xx_hal_tim_ex.c ****   {
1019:Drivers/STM32L4xx_HAL_Driver/Src/stm32l4xx_hal_tim_ex.c ****     case TIM_CHANNEL_1:
1020:Drivers/STM32L4xx_HAL_Driver/Src/stm32l4xx_hal_tim_ex.c ****     {
1021:Drivers/STM32L4xx_HAL_Driver/Src/stm32l4xx_hal_tim_ex.c ****       /* Disable the TIM Output Compare DMA request */
1022:Drivers/STM32L4xx_HAL_Driver/Src/stm32l4xx_hal_tim_ex.c ****       __HAL_TIM_DISABLE_DMA(htim, TIM_DMA_CC1);
 2690              		.loc 1 1022 7
 2691 0028 7B68     		ldr	r3, [r7, #4]
 2692 002a 1B68     		ldr	r3, [r3]
 2693 002c DA68     		ldr	r2, [r3, #12]
 2694 002e 7B68     		ldr	r3, [r7, #4]
 2695 0030 1B68     		ldr	r3, [r3]
 2696 0032 22F40072 		bic	r2, r2, #512
 2697 0036 DA60     		str	r2, [r3, #12]
1023:Drivers/STM32L4xx_HAL_Driver/Src/stm32l4xx_hal_tim_ex.c ****       (void)HAL_DMA_Abort_IT(htim->hdma[TIM_DMA_ID_CC1]);
 2698              		.loc 1 1023 13
 2699 0038 7B68     		ldr	r3, [r7, #4]
ARM GAS  /tmp/ccR4xO3u.s 			page 66


 2700 003a 5B6A     		ldr	r3, [r3, #36]
 2701 003c 1846     		mov	r0, r3
 2702 003e FFF7FEFF 		bl	HAL_DMA_Abort_IT
1024:Drivers/STM32L4xx_HAL_Driver/Src/stm32l4xx_hal_tim_ex.c ****       break;
 2703              		.loc 1 1024 7
 2704 0042 1EE0     		b	.L178
 2705              	.L177:
1025:Drivers/STM32L4xx_HAL_Driver/Src/stm32l4xx_hal_tim_ex.c ****     }
1026:Drivers/STM32L4xx_HAL_Driver/Src/stm32l4xx_hal_tim_ex.c **** 
1027:Drivers/STM32L4xx_HAL_Driver/Src/stm32l4xx_hal_tim_ex.c ****     case TIM_CHANNEL_2:
1028:Drivers/STM32L4xx_HAL_Driver/Src/stm32l4xx_hal_tim_ex.c ****     {
1029:Drivers/STM32L4xx_HAL_Driver/Src/stm32l4xx_hal_tim_ex.c ****       /* Disable the TIM Output Compare DMA request */
1030:Drivers/STM32L4xx_HAL_Driver/Src/stm32l4xx_hal_tim_ex.c ****       __HAL_TIM_DISABLE_DMA(htim, TIM_DMA_CC2);
 2706              		.loc 1 1030 7
 2707 0044 7B68     		ldr	r3, [r7, #4]
 2708 0046 1B68     		ldr	r3, [r3]
 2709 0048 DA68     		ldr	r2, [r3, #12]
 2710 004a 7B68     		ldr	r3, [r7, #4]
 2711 004c 1B68     		ldr	r3, [r3]
 2712 004e 22F48062 		bic	r2, r2, #1024
 2713 0052 DA60     		str	r2, [r3, #12]
1031:Drivers/STM32L4xx_HAL_Driver/Src/stm32l4xx_hal_tim_ex.c ****       (void)HAL_DMA_Abort_IT(htim->hdma[TIM_DMA_ID_CC2]);
 2714              		.loc 1 1031 13
 2715 0054 7B68     		ldr	r3, [r7, #4]
 2716 0056 9B6A     		ldr	r3, [r3, #40]
 2717 0058 1846     		mov	r0, r3
 2718 005a FFF7FEFF 		bl	HAL_DMA_Abort_IT
1032:Drivers/STM32L4xx_HAL_Driver/Src/stm32l4xx_hal_tim_ex.c ****       break;
 2719              		.loc 1 1032 7
 2720 005e 10E0     		b	.L178
 2721              	.L174:
1033:Drivers/STM32L4xx_HAL_Driver/Src/stm32l4xx_hal_tim_ex.c ****     }
1034:Drivers/STM32L4xx_HAL_Driver/Src/stm32l4xx_hal_tim_ex.c **** 
1035:Drivers/STM32L4xx_HAL_Driver/Src/stm32l4xx_hal_tim_ex.c ****     case TIM_CHANNEL_3:
1036:Drivers/STM32L4xx_HAL_Driver/Src/stm32l4xx_hal_tim_ex.c ****     {
1037:Drivers/STM32L4xx_HAL_Driver/Src/stm32l4xx_hal_tim_ex.c ****       /* Disable the TIM Output Compare DMA request */
1038:Drivers/STM32L4xx_HAL_Driver/Src/stm32l4xx_hal_tim_ex.c ****       __HAL_TIM_DISABLE_DMA(htim, TIM_DMA_CC3);
 2722              		.loc 1 1038 7
 2723 0060 7B68     		ldr	r3, [r7, #4]
 2724 0062 1B68     		ldr	r3, [r3]
 2725 0064 DA68     		ldr	r2, [r3, #12]
 2726 0066 7B68     		ldr	r3, [r7, #4]
 2727 0068 1B68     		ldr	r3, [r3]
 2728 006a 22F40062 		bic	r2, r2, #2048
 2729 006e DA60     		str	r2, [r3, #12]
1039:Drivers/STM32L4xx_HAL_Driver/Src/stm32l4xx_hal_tim_ex.c ****       (void)HAL_DMA_Abort_IT(htim->hdma[TIM_DMA_ID_CC3]);
 2730              		.loc 1 1039 13
 2731 0070 7B68     		ldr	r3, [r7, #4]
 2732 0072 DB6A     		ldr	r3, [r3, #44]
 2733 0074 1846     		mov	r0, r3
 2734 0076 FFF7FEFF 		bl	HAL_DMA_Abort_IT
1040:Drivers/STM32L4xx_HAL_Driver/Src/stm32l4xx_hal_tim_ex.c ****       break;
 2735              		.loc 1 1040 7
 2736 007a 02E0     		b	.L178
 2737              	.L175:
1041:Drivers/STM32L4xx_HAL_Driver/Src/stm32l4xx_hal_tim_ex.c ****     }
1042:Drivers/STM32L4xx_HAL_Driver/Src/stm32l4xx_hal_tim_ex.c **** 
ARM GAS  /tmp/ccR4xO3u.s 			page 67


1043:Drivers/STM32L4xx_HAL_Driver/Src/stm32l4xx_hal_tim_ex.c ****     default:
1044:Drivers/STM32L4xx_HAL_Driver/Src/stm32l4xx_hal_tim_ex.c ****       status = HAL_ERROR;
 2738              		.loc 1 1044 14
 2739 007c 0123     		movs	r3, #1
 2740 007e FB73     		strb	r3, [r7, #15]
1045:Drivers/STM32L4xx_HAL_Driver/Src/stm32l4xx_hal_tim_ex.c ****       break;
 2741              		.loc 1 1045 7
 2742 0080 00BF     		nop
 2743              	.L178:
1046:Drivers/STM32L4xx_HAL_Driver/Src/stm32l4xx_hal_tim_ex.c ****   }
1047:Drivers/STM32L4xx_HAL_Driver/Src/stm32l4xx_hal_tim_ex.c **** 
1048:Drivers/STM32L4xx_HAL_Driver/Src/stm32l4xx_hal_tim_ex.c ****   if (status == HAL_OK)
 2744              		.loc 1 1048 6
 2745 0082 FB7B     		ldrb	r3, [r7, #15]	@ zero_extendqisi2
 2746 0084 002B     		cmp	r3, #0
 2747 0086 52D1     		bne	.L179
1049:Drivers/STM32L4xx_HAL_Driver/Src/stm32l4xx_hal_tim_ex.c ****   {
1050:Drivers/STM32L4xx_HAL_Driver/Src/stm32l4xx_hal_tim_ex.c ****     /* Disable the Capture compare channel N */
1051:Drivers/STM32L4xx_HAL_Driver/Src/stm32l4xx_hal_tim_ex.c ****     TIM_CCxNChannelCmd(htim->Instance, Channel, TIM_CCxN_DISABLE);
 2748              		.loc 1 1051 5
 2749 0088 7B68     		ldr	r3, [r7, #4]
 2750 008a 1B68     		ldr	r3, [r3]
 2751 008c 0022     		movs	r2, #0
 2752 008e 3968     		ldr	r1, [r7]
 2753 0090 1846     		mov	r0, r3
 2754 0092 FFF7FEFF 		bl	TIM_CCxNChannelCmd
1052:Drivers/STM32L4xx_HAL_Driver/Src/stm32l4xx_hal_tim_ex.c **** 
1053:Drivers/STM32L4xx_HAL_Driver/Src/stm32l4xx_hal_tim_ex.c ****     /* Disable the Main Output */
1054:Drivers/STM32L4xx_HAL_Driver/Src/stm32l4xx_hal_tim_ex.c ****     __HAL_TIM_MOE_DISABLE(htim);
 2755              		.loc 1 1054 5
 2756 0096 7B68     		ldr	r3, [r7, #4]
 2757 0098 1B68     		ldr	r3, [r3]
 2758 009a 1A6A     		ldr	r2, [r3, #32]
 2759 009c 41F21113 		movw	r3, #4369
 2760 00a0 1340     		ands	r3, r3, r2
 2761 00a2 002B     		cmp	r3, #0
 2762 00a4 0FD1     		bne	.L180
 2763              		.loc 1 1054 5 is_stmt 0 discriminator 1
 2764 00a6 7B68     		ldr	r3, [r7, #4]
 2765 00a8 1B68     		ldr	r3, [r3]
 2766 00aa 1A6A     		ldr	r2, [r3, #32]
 2767 00ac 40F24443 		movw	r3, #1092
 2768 00b0 1340     		ands	r3, r3, r2
 2769 00b2 002B     		cmp	r3, #0
 2770 00b4 07D1     		bne	.L180
 2771              		.loc 1 1054 5 discriminator 2
 2772 00b6 7B68     		ldr	r3, [r7, #4]
 2773 00b8 1B68     		ldr	r3, [r3]
 2774 00ba 5A6C     		ldr	r2, [r3, #68]
 2775 00bc 7B68     		ldr	r3, [r7, #4]
 2776 00be 1B68     		ldr	r3, [r3]
 2777 00c0 22F40042 		bic	r2, r2, #32768
 2778 00c4 5A64     		str	r2, [r3, #68]
 2779              	.L180:
1055:Drivers/STM32L4xx_HAL_Driver/Src/stm32l4xx_hal_tim_ex.c **** 
1056:Drivers/STM32L4xx_HAL_Driver/Src/stm32l4xx_hal_tim_ex.c ****     /* Disable the Peripheral */
1057:Drivers/STM32L4xx_HAL_Driver/Src/stm32l4xx_hal_tim_ex.c ****     __HAL_TIM_DISABLE(htim);
ARM GAS  /tmp/ccR4xO3u.s 			page 68


 2780              		.loc 1 1057 5 is_stmt 1
 2781 00c6 7B68     		ldr	r3, [r7, #4]
 2782 00c8 1B68     		ldr	r3, [r3]
 2783 00ca 1A6A     		ldr	r2, [r3, #32]
 2784 00cc 41F21113 		movw	r3, #4369
 2785 00d0 1340     		ands	r3, r3, r2
 2786 00d2 002B     		cmp	r3, #0
 2787 00d4 0FD1     		bne	.L181
 2788              		.loc 1 1057 5 is_stmt 0 discriminator 1
 2789 00d6 7B68     		ldr	r3, [r7, #4]
 2790 00d8 1B68     		ldr	r3, [r3]
 2791 00da 1A6A     		ldr	r2, [r3, #32]
 2792 00dc 40F24443 		movw	r3, #1092
 2793 00e0 1340     		ands	r3, r3, r2
 2794 00e2 002B     		cmp	r3, #0
 2795 00e4 07D1     		bne	.L181
 2796              		.loc 1 1057 5 discriminator 2
 2797 00e6 7B68     		ldr	r3, [r7, #4]
 2798 00e8 1B68     		ldr	r3, [r3]
 2799 00ea 1A68     		ldr	r2, [r3]
 2800 00ec 7B68     		ldr	r3, [r7, #4]
 2801 00ee 1B68     		ldr	r3, [r3]
 2802 00f0 22F00102 		bic	r2, r2, #1
 2803 00f4 1A60     		str	r2, [r3]
 2804              	.L181:
1058:Drivers/STM32L4xx_HAL_Driver/Src/stm32l4xx_hal_tim_ex.c **** 
1059:Drivers/STM32L4xx_HAL_Driver/Src/stm32l4xx_hal_tim_ex.c ****     /* Set the TIM complementary channel state */
1060:Drivers/STM32L4xx_HAL_Driver/Src/stm32l4xx_hal_tim_ex.c ****     TIM_CHANNEL_N_STATE_SET(htim, Channel, HAL_TIM_CHANNEL_STATE_READY);
 2805              		.loc 1 1060 5 is_stmt 1
 2806 00f6 3B68     		ldr	r3, [r7]
 2807 00f8 002B     		cmp	r3, #0
 2808 00fa 04D1     		bne	.L182
 2809              		.loc 1 1060 5 is_stmt 0 discriminator 1
 2810 00fc 7B68     		ldr	r3, [r7, #4]
 2811 00fe 0122     		movs	r2, #1
 2812 0100 83F84420 		strb	r2, [r3, #68]
 2813 0104 13E0     		b	.L179
 2814              	.L182:
 2815              		.loc 1 1060 5 discriminator 2
 2816 0106 3B68     		ldr	r3, [r7]
 2817 0108 042B     		cmp	r3, #4
 2818 010a 04D1     		bne	.L183
 2819              		.loc 1 1060 5 discriminator 3
 2820 010c 7B68     		ldr	r3, [r7, #4]
 2821 010e 0122     		movs	r2, #1
 2822 0110 83F84520 		strb	r2, [r3, #69]
 2823 0114 0BE0     		b	.L179
 2824              	.L183:
 2825              		.loc 1 1060 5 discriminator 4
 2826 0116 3B68     		ldr	r3, [r7]
 2827 0118 082B     		cmp	r3, #8
 2828 011a 04D1     		bne	.L185
 2829              		.loc 1 1060 5 discriminator 6
 2830 011c 7B68     		ldr	r3, [r7, #4]
 2831 011e 0122     		movs	r2, #1
 2832 0120 83F84620 		strb	r2, [r3, #70]
 2833 0124 03E0     		b	.L179
ARM GAS  /tmp/ccR4xO3u.s 			page 69


 2834              	.L185:
 2835              		.loc 1 1060 5 discriminator 7
 2836 0126 7B68     		ldr	r3, [r7, #4]
 2837 0128 0122     		movs	r2, #1
 2838 012a 83F84720 		strb	r2, [r3, #71]
 2839              	.L179:
1061:Drivers/STM32L4xx_HAL_Driver/Src/stm32l4xx_hal_tim_ex.c ****   }
1062:Drivers/STM32L4xx_HAL_Driver/Src/stm32l4xx_hal_tim_ex.c **** 
1063:Drivers/STM32L4xx_HAL_Driver/Src/stm32l4xx_hal_tim_ex.c ****   /* Return function status */
1064:Drivers/STM32L4xx_HAL_Driver/Src/stm32l4xx_hal_tim_ex.c ****   return status;
 2840              		.loc 1 1064 10 is_stmt 1
 2841 012e FB7B     		ldrb	r3, [r7, #15]	@ zero_extendqisi2
1065:Drivers/STM32L4xx_HAL_Driver/Src/stm32l4xx_hal_tim_ex.c **** }
 2842              		.loc 1 1065 1
 2843 0130 1846     		mov	r0, r3
 2844 0132 1037     		adds	r7, r7, #16
 2845              	.LCFI80:
 2846              		.cfi_def_cfa_offset 8
 2847 0134 BD46     		mov	sp, r7
 2848              	.LCFI81:
 2849              		.cfi_def_cfa_register 13
 2850              		@ sp needed
 2851 0136 80BD     		pop	{r7, pc}
 2852              		.cfi_endproc
 2853              	.LFE147:
 2855              		.section	.text.HAL_TIMEx_PWMN_Start,"ax",%progbits
 2856              		.align	1
 2857              		.global	HAL_TIMEx_PWMN_Start
 2858              		.syntax unified
 2859              		.thumb
 2860              		.thumb_func
 2862              	HAL_TIMEx_PWMN_Start:
 2863              	.LFB148:
1066:Drivers/STM32L4xx_HAL_Driver/Src/stm32l4xx_hal_tim_ex.c **** 
1067:Drivers/STM32L4xx_HAL_Driver/Src/stm32l4xx_hal_tim_ex.c **** /**
1068:Drivers/STM32L4xx_HAL_Driver/Src/stm32l4xx_hal_tim_ex.c ****   * @}
1069:Drivers/STM32L4xx_HAL_Driver/Src/stm32l4xx_hal_tim_ex.c ****   */
1070:Drivers/STM32L4xx_HAL_Driver/Src/stm32l4xx_hal_tim_ex.c **** 
1071:Drivers/STM32L4xx_HAL_Driver/Src/stm32l4xx_hal_tim_ex.c **** /** @defgroup TIMEx_Exported_Functions_Group3 Extended Timer Complementary PWM functions
1072:Drivers/STM32L4xx_HAL_Driver/Src/stm32l4xx_hal_tim_ex.c ****   * @brief    Timer Complementary PWM functions
1073:Drivers/STM32L4xx_HAL_Driver/Src/stm32l4xx_hal_tim_ex.c ****   *
1074:Drivers/STM32L4xx_HAL_Driver/Src/stm32l4xx_hal_tim_ex.c **** @verbatim
1075:Drivers/STM32L4xx_HAL_Driver/Src/stm32l4xx_hal_tim_ex.c ****   ==============================================================================
1076:Drivers/STM32L4xx_HAL_Driver/Src/stm32l4xx_hal_tim_ex.c ****                  ##### Timer Complementary PWM functions #####
1077:Drivers/STM32L4xx_HAL_Driver/Src/stm32l4xx_hal_tim_ex.c ****   ==============================================================================
1078:Drivers/STM32L4xx_HAL_Driver/Src/stm32l4xx_hal_tim_ex.c ****   [..]
1079:Drivers/STM32L4xx_HAL_Driver/Src/stm32l4xx_hal_tim_ex.c ****     This section provides functions allowing to:
1080:Drivers/STM32L4xx_HAL_Driver/Src/stm32l4xx_hal_tim_ex.c ****     (+) Start the Complementary PWM.
1081:Drivers/STM32L4xx_HAL_Driver/Src/stm32l4xx_hal_tim_ex.c ****     (+) Stop the Complementary PWM.
1082:Drivers/STM32L4xx_HAL_Driver/Src/stm32l4xx_hal_tim_ex.c ****     (+) Start the Complementary PWM and enable interrupts.
1083:Drivers/STM32L4xx_HAL_Driver/Src/stm32l4xx_hal_tim_ex.c ****     (+) Stop the Complementary PWM and disable interrupts.
1084:Drivers/STM32L4xx_HAL_Driver/Src/stm32l4xx_hal_tim_ex.c ****     (+) Start the Complementary PWM and enable DMA transfers.
1085:Drivers/STM32L4xx_HAL_Driver/Src/stm32l4xx_hal_tim_ex.c ****     (+) Stop the Complementary PWM and disable DMA transfers.
1086:Drivers/STM32L4xx_HAL_Driver/Src/stm32l4xx_hal_tim_ex.c ****     (+) Start the Complementary Input Capture measurement.
1087:Drivers/STM32L4xx_HAL_Driver/Src/stm32l4xx_hal_tim_ex.c ****     (+) Stop the Complementary Input Capture.
1088:Drivers/STM32L4xx_HAL_Driver/Src/stm32l4xx_hal_tim_ex.c ****     (+) Start the Complementary Input Capture and enable interrupts.
1089:Drivers/STM32L4xx_HAL_Driver/Src/stm32l4xx_hal_tim_ex.c ****     (+) Stop the Complementary Input Capture and disable interrupts.
ARM GAS  /tmp/ccR4xO3u.s 			page 70


1090:Drivers/STM32L4xx_HAL_Driver/Src/stm32l4xx_hal_tim_ex.c ****     (+) Start the Complementary Input Capture and enable DMA transfers.
1091:Drivers/STM32L4xx_HAL_Driver/Src/stm32l4xx_hal_tim_ex.c ****     (+) Stop the Complementary Input Capture and disable DMA transfers.
1092:Drivers/STM32L4xx_HAL_Driver/Src/stm32l4xx_hal_tim_ex.c ****     (+) Start the Complementary One Pulse generation.
1093:Drivers/STM32L4xx_HAL_Driver/Src/stm32l4xx_hal_tim_ex.c ****     (+) Stop the Complementary One Pulse.
1094:Drivers/STM32L4xx_HAL_Driver/Src/stm32l4xx_hal_tim_ex.c ****     (+) Start the Complementary One Pulse and enable interrupts.
1095:Drivers/STM32L4xx_HAL_Driver/Src/stm32l4xx_hal_tim_ex.c ****     (+) Stop the Complementary One Pulse and disable interrupts.
1096:Drivers/STM32L4xx_HAL_Driver/Src/stm32l4xx_hal_tim_ex.c **** 
1097:Drivers/STM32L4xx_HAL_Driver/Src/stm32l4xx_hal_tim_ex.c **** @endverbatim
1098:Drivers/STM32L4xx_HAL_Driver/Src/stm32l4xx_hal_tim_ex.c ****   * @{
1099:Drivers/STM32L4xx_HAL_Driver/Src/stm32l4xx_hal_tim_ex.c ****   */
1100:Drivers/STM32L4xx_HAL_Driver/Src/stm32l4xx_hal_tim_ex.c **** 
1101:Drivers/STM32L4xx_HAL_Driver/Src/stm32l4xx_hal_tim_ex.c **** /**
1102:Drivers/STM32L4xx_HAL_Driver/Src/stm32l4xx_hal_tim_ex.c ****   * @brief  Starts the PWM signal generation on the complementary output.
1103:Drivers/STM32L4xx_HAL_Driver/Src/stm32l4xx_hal_tim_ex.c ****   * @param  htim TIM handle
1104:Drivers/STM32L4xx_HAL_Driver/Src/stm32l4xx_hal_tim_ex.c ****   * @param  Channel TIM Channel to be enabled
1105:Drivers/STM32L4xx_HAL_Driver/Src/stm32l4xx_hal_tim_ex.c ****   *          This parameter can be one of the following values:
1106:Drivers/STM32L4xx_HAL_Driver/Src/stm32l4xx_hal_tim_ex.c ****   *            @arg TIM_CHANNEL_1: TIM Channel 1 selected
1107:Drivers/STM32L4xx_HAL_Driver/Src/stm32l4xx_hal_tim_ex.c ****   *            @arg TIM_CHANNEL_2: TIM Channel 2 selected
1108:Drivers/STM32L4xx_HAL_Driver/Src/stm32l4xx_hal_tim_ex.c ****   *            @arg TIM_CHANNEL_3: TIM Channel 3 selected
1109:Drivers/STM32L4xx_HAL_Driver/Src/stm32l4xx_hal_tim_ex.c ****   * @retval HAL status
1110:Drivers/STM32L4xx_HAL_Driver/Src/stm32l4xx_hal_tim_ex.c ****   */
1111:Drivers/STM32L4xx_HAL_Driver/Src/stm32l4xx_hal_tim_ex.c **** HAL_StatusTypeDef HAL_TIMEx_PWMN_Start(TIM_HandleTypeDef *htim, uint32_t Channel)
1112:Drivers/STM32L4xx_HAL_Driver/Src/stm32l4xx_hal_tim_ex.c **** {
 2864              		.loc 1 1112 1
 2865              		.cfi_startproc
 2866              		@ args = 0, pretend = 0, frame = 16
 2867              		@ frame_needed = 1, uses_anonymous_args = 0
 2868 0000 80B5     		push	{r7, lr}
 2869              	.LCFI82:
 2870              		.cfi_def_cfa_offset 8
 2871              		.cfi_offset 7, -8
 2872              		.cfi_offset 14, -4
 2873 0002 84B0     		sub	sp, sp, #16
 2874              	.LCFI83:
 2875              		.cfi_def_cfa_offset 24
 2876 0004 00AF     		add	r7, sp, #0
 2877              	.LCFI84:
 2878              		.cfi_def_cfa_register 7
 2879 0006 7860     		str	r0, [r7, #4]
 2880 0008 3960     		str	r1, [r7]
1113:Drivers/STM32L4xx_HAL_Driver/Src/stm32l4xx_hal_tim_ex.c ****   uint32_t tmpsmcr;
1114:Drivers/STM32L4xx_HAL_Driver/Src/stm32l4xx_hal_tim_ex.c **** 
1115:Drivers/STM32L4xx_HAL_Driver/Src/stm32l4xx_hal_tim_ex.c ****   /* Check the parameters */
1116:Drivers/STM32L4xx_HAL_Driver/Src/stm32l4xx_hal_tim_ex.c ****   assert_param(IS_TIM_CCXN_INSTANCE(htim->Instance, Channel));
1117:Drivers/STM32L4xx_HAL_Driver/Src/stm32l4xx_hal_tim_ex.c **** 
1118:Drivers/STM32L4xx_HAL_Driver/Src/stm32l4xx_hal_tim_ex.c ****   /* Check the TIM complementary channel state */
1119:Drivers/STM32L4xx_HAL_Driver/Src/stm32l4xx_hal_tim_ex.c ****   if (TIM_CHANNEL_N_STATE_GET(htim, Channel) != HAL_TIM_CHANNEL_STATE_READY)
 2881              		.loc 1 1119 46
 2882 000a 3B68     		ldr	r3, [r7]
 2883 000c 002B     		cmp	r3, #0
 2884 000e 09D1     		bne	.L189
 2885              		.loc 1 1119 7 discriminator 1
 2886 0010 7B68     		ldr	r3, [r7, #4]
 2887 0012 93F84430 		ldrb	r3, [r3, #68]
 2888 0016 DBB2     		uxtb	r3, r3
 2889              		.loc 1 1119 46 discriminator 1
 2890 0018 012B     		cmp	r3, #1
ARM GAS  /tmp/ccR4xO3u.s 			page 71


 2891 001a 14BF     		ite	ne
 2892 001c 0123     		movne	r3, #1
 2893 001e 0023     		moveq	r3, #0
 2894 0020 DBB2     		uxtb	r3, r3
 2895 0022 22E0     		b	.L190
 2896              	.L189:
 2897              		.loc 1 1119 46 is_stmt 0 discriminator 2
 2898 0024 3B68     		ldr	r3, [r7]
 2899 0026 042B     		cmp	r3, #4
 2900 0028 09D1     		bne	.L191
 2901              		.loc 1 1119 7 is_stmt 1 discriminator 4
 2902 002a 7B68     		ldr	r3, [r7, #4]
 2903 002c 93F84530 		ldrb	r3, [r3, #69]
 2904 0030 DBB2     		uxtb	r3, r3
 2905              		.loc 1 1119 46 discriminator 4
 2906 0032 012B     		cmp	r3, #1
 2907 0034 14BF     		ite	ne
 2908 0036 0123     		movne	r3, #1
 2909 0038 0023     		moveq	r3, #0
 2910 003a DBB2     		uxtb	r3, r3
 2911 003c 15E0     		b	.L190
 2912              	.L191:
 2913              		.loc 1 1119 46 is_stmt 0 discriminator 5
 2914 003e 3B68     		ldr	r3, [r7]
 2915 0040 082B     		cmp	r3, #8
 2916 0042 09D1     		bne	.L193
 2917              		.loc 1 1119 7 is_stmt 1 discriminator 7
 2918 0044 7B68     		ldr	r3, [r7, #4]
 2919 0046 93F84630 		ldrb	r3, [r3, #70]
 2920 004a DBB2     		uxtb	r3, r3
 2921              		.loc 1 1119 46 discriminator 7
 2922 004c 012B     		cmp	r3, #1
 2923 004e 14BF     		ite	ne
 2924 0050 0123     		movne	r3, #1
 2925 0052 0023     		moveq	r3, #0
 2926 0054 DBB2     		uxtb	r3, r3
 2927 0056 08E0     		b	.L190
 2928              	.L193:
 2929              		.loc 1 1119 7 discriminator 8
 2930 0058 7B68     		ldr	r3, [r7, #4]
 2931 005a 93F84730 		ldrb	r3, [r3, #71]
 2932 005e DBB2     		uxtb	r3, r3
 2933              		.loc 1 1119 46 discriminator 8
 2934 0060 012B     		cmp	r3, #1
 2935 0062 14BF     		ite	ne
 2936 0064 0123     		movne	r3, #1
 2937 0066 0023     		moveq	r3, #0
 2938 0068 DBB2     		uxtb	r3, r3
 2939              	.L190:
 2940              		.loc 1 1119 6 discriminator 12
 2941 006a 002B     		cmp	r3, #0
 2942 006c 01D0     		beq	.L195
1120:Drivers/STM32L4xx_HAL_Driver/Src/stm32l4xx_hal_tim_ex.c ****   {
1121:Drivers/STM32L4xx_HAL_Driver/Src/stm32l4xx_hal_tim_ex.c ****     return HAL_ERROR;
 2943              		.loc 1 1121 12
 2944 006e 0123     		movs	r3, #1
 2945 0070 5AE0     		b	.L196
ARM GAS  /tmp/ccR4xO3u.s 			page 72


 2946              	.L195:
1122:Drivers/STM32L4xx_HAL_Driver/Src/stm32l4xx_hal_tim_ex.c ****   }
1123:Drivers/STM32L4xx_HAL_Driver/Src/stm32l4xx_hal_tim_ex.c **** 
1124:Drivers/STM32L4xx_HAL_Driver/Src/stm32l4xx_hal_tim_ex.c ****   /* Set the TIM complementary channel state */
1125:Drivers/STM32L4xx_HAL_Driver/Src/stm32l4xx_hal_tim_ex.c ****   TIM_CHANNEL_N_STATE_SET(htim, Channel, HAL_TIM_CHANNEL_STATE_BUSY);
 2947              		.loc 1 1125 3
 2948 0072 3B68     		ldr	r3, [r7]
 2949 0074 002B     		cmp	r3, #0
 2950 0076 04D1     		bne	.L197
 2951              		.loc 1 1125 3 is_stmt 0 discriminator 1
 2952 0078 7B68     		ldr	r3, [r7, #4]
 2953 007a 0222     		movs	r2, #2
 2954 007c 83F84420 		strb	r2, [r3, #68]
 2955 0080 13E0     		b	.L198
 2956              	.L197:
 2957              		.loc 1 1125 3 discriminator 2
 2958 0082 3B68     		ldr	r3, [r7]
 2959 0084 042B     		cmp	r3, #4
 2960 0086 04D1     		bne	.L199
 2961              		.loc 1 1125 3 discriminator 3
 2962 0088 7B68     		ldr	r3, [r7, #4]
 2963 008a 0222     		movs	r2, #2
 2964 008c 83F84520 		strb	r2, [r3, #69]
 2965 0090 0BE0     		b	.L198
 2966              	.L199:
 2967              		.loc 1 1125 3 discriminator 4
 2968 0092 3B68     		ldr	r3, [r7]
 2969 0094 082B     		cmp	r3, #8
 2970 0096 04D1     		bne	.L201
 2971              		.loc 1 1125 3 discriminator 6
 2972 0098 7B68     		ldr	r3, [r7, #4]
 2973 009a 0222     		movs	r2, #2
 2974 009c 83F84620 		strb	r2, [r3, #70]
 2975 00a0 03E0     		b	.L198
 2976              	.L201:
 2977              		.loc 1 1125 3 discriminator 7
 2978 00a2 7B68     		ldr	r3, [r7, #4]
 2979 00a4 0222     		movs	r2, #2
 2980 00a6 83F84720 		strb	r2, [r3, #71]
 2981              	.L198:
1126:Drivers/STM32L4xx_HAL_Driver/Src/stm32l4xx_hal_tim_ex.c **** 
1127:Drivers/STM32L4xx_HAL_Driver/Src/stm32l4xx_hal_tim_ex.c ****   /* Enable the complementary PWM output  */
1128:Drivers/STM32L4xx_HAL_Driver/Src/stm32l4xx_hal_tim_ex.c ****   TIM_CCxNChannelCmd(htim->Instance, Channel, TIM_CCxN_ENABLE);
 2982              		.loc 1 1128 3 is_stmt 1
 2983 00aa 7B68     		ldr	r3, [r7, #4]
 2984 00ac 1B68     		ldr	r3, [r3]
 2985 00ae 0422     		movs	r2, #4
 2986 00b0 3968     		ldr	r1, [r7]
 2987 00b2 1846     		mov	r0, r3
 2988 00b4 FFF7FEFF 		bl	TIM_CCxNChannelCmd
1129:Drivers/STM32L4xx_HAL_Driver/Src/stm32l4xx_hal_tim_ex.c **** 
1130:Drivers/STM32L4xx_HAL_Driver/Src/stm32l4xx_hal_tim_ex.c ****   /* Enable the Main Output */
1131:Drivers/STM32L4xx_HAL_Driver/Src/stm32l4xx_hal_tim_ex.c ****   __HAL_TIM_MOE_ENABLE(htim);
 2989              		.loc 1 1131 3
 2990 00b8 7B68     		ldr	r3, [r7, #4]
 2991 00ba 1B68     		ldr	r3, [r3]
 2992 00bc 5A6C     		ldr	r2, [r3, #68]
ARM GAS  /tmp/ccR4xO3u.s 			page 73


 2993 00be 7B68     		ldr	r3, [r7, #4]
 2994 00c0 1B68     		ldr	r3, [r3]
 2995 00c2 42F40042 		orr	r2, r2, #32768
 2996 00c6 5A64     		str	r2, [r3, #68]
1132:Drivers/STM32L4xx_HAL_Driver/Src/stm32l4xx_hal_tim_ex.c **** 
1133:Drivers/STM32L4xx_HAL_Driver/Src/stm32l4xx_hal_tim_ex.c ****   /* Enable the Peripheral, except in trigger mode where enable is automatically done with trigger 
1134:Drivers/STM32L4xx_HAL_Driver/Src/stm32l4xx_hal_tim_ex.c ****   if (IS_TIM_SLAVE_INSTANCE(htim->Instance))
 2997              		.loc 1 1134 7
 2998 00c8 7B68     		ldr	r3, [r7, #4]
 2999 00ca 1B68     		ldr	r3, [r3]
 3000              		.loc 1 1134 6
 3001 00cc 184A     		ldr	r2, .L208
 3002 00ce 9342     		cmp	r3, r2
 3003 00d0 09D0     		beq	.L203
 3004              		.loc 1 1134 7 discriminator 1
 3005 00d2 7B68     		ldr	r3, [r7, #4]
 3006 00d4 1B68     		ldr	r3, [r3]
 3007 00d6 B3F1804F 		cmp	r3, #1073741824
 3008 00da 04D0     		beq	.L203
 3009              		.loc 1 1134 7 is_stmt 0 discriminator 2
 3010 00dc 7B68     		ldr	r3, [r7, #4]
 3011 00de 1B68     		ldr	r3, [r3]
 3012 00e0 144A     		ldr	r2, .L208+4
 3013 00e2 9342     		cmp	r3, r2
 3014 00e4 15D1     		bne	.L204
 3015              	.L203:
1135:Drivers/STM32L4xx_HAL_Driver/Src/stm32l4xx_hal_tim_ex.c ****   {
1136:Drivers/STM32L4xx_HAL_Driver/Src/stm32l4xx_hal_tim_ex.c ****     tmpsmcr = htim->Instance->SMCR & TIM_SMCR_SMS;
 3016              		.loc 1 1136 19 is_stmt 1
 3017 00e6 7B68     		ldr	r3, [r7, #4]
 3018 00e8 1B68     		ldr	r3, [r3]
 3019              		.loc 1 1136 29
 3020 00ea 9A68     		ldr	r2, [r3, #8]
 3021              		.loc 1 1136 13
 3022 00ec 124B     		ldr	r3, .L208+8
 3023 00ee 1340     		ands	r3, r3, r2
 3024 00f0 FB60     		str	r3, [r7, #12]
1137:Drivers/STM32L4xx_HAL_Driver/Src/stm32l4xx_hal_tim_ex.c ****     if (!IS_TIM_SLAVEMODE_TRIGGER_ENABLED(tmpsmcr))
 3025              		.loc 1 1137 8
 3026 00f2 FB68     		ldr	r3, [r7, #12]
 3027 00f4 062B     		cmp	r3, #6
 3028 00f6 15D0     		beq	.L207
 3029              		.loc 1 1137 9 discriminator 1
 3030 00f8 FB68     		ldr	r3, [r7, #12]
 3031 00fa B3F5803F 		cmp	r3, #65536
 3032 00fe 11D0     		beq	.L207
1138:Drivers/STM32L4xx_HAL_Driver/Src/stm32l4xx_hal_tim_ex.c ****     {
1139:Drivers/STM32L4xx_HAL_Driver/Src/stm32l4xx_hal_tim_ex.c ****       __HAL_TIM_ENABLE(htim);
 3033              		.loc 1 1139 7
 3034 0100 7B68     		ldr	r3, [r7, #4]
 3035 0102 1B68     		ldr	r3, [r3]
 3036 0104 1A68     		ldr	r2, [r3]
 3037 0106 7B68     		ldr	r3, [r7, #4]
 3038 0108 1B68     		ldr	r3, [r3]
 3039 010a 42F00102 		orr	r2, r2, #1
 3040 010e 1A60     		str	r2, [r3]
1137:Drivers/STM32L4xx_HAL_Driver/Src/stm32l4xx_hal_tim_ex.c ****     if (!IS_TIM_SLAVEMODE_TRIGGER_ENABLED(tmpsmcr))
ARM GAS  /tmp/ccR4xO3u.s 			page 74


 3041              		.loc 1 1137 8
 3042 0110 08E0     		b	.L207
 3043              	.L204:
1140:Drivers/STM32L4xx_HAL_Driver/Src/stm32l4xx_hal_tim_ex.c ****     }
1141:Drivers/STM32L4xx_HAL_Driver/Src/stm32l4xx_hal_tim_ex.c ****   }
1142:Drivers/STM32L4xx_HAL_Driver/Src/stm32l4xx_hal_tim_ex.c ****   else
1143:Drivers/STM32L4xx_HAL_Driver/Src/stm32l4xx_hal_tim_ex.c ****   {
1144:Drivers/STM32L4xx_HAL_Driver/Src/stm32l4xx_hal_tim_ex.c ****     __HAL_TIM_ENABLE(htim);
 3044              		.loc 1 1144 5
 3045 0112 7B68     		ldr	r3, [r7, #4]
 3046 0114 1B68     		ldr	r3, [r3]
 3047 0116 1A68     		ldr	r2, [r3]
 3048 0118 7B68     		ldr	r3, [r7, #4]
 3049 011a 1B68     		ldr	r3, [r3]
 3050 011c 42F00102 		orr	r2, r2, #1
 3051 0120 1A60     		str	r2, [r3]
 3052 0122 00E0     		b	.L206
 3053              	.L207:
1137:Drivers/STM32L4xx_HAL_Driver/Src/stm32l4xx_hal_tim_ex.c ****     {
 3054              		.loc 1 1137 8
 3055 0124 00BF     		nop
 3056              	.L206:
1145:Drivers/STM32L4xx_HAL_Driver/Src/stm32l4xx_hal_tim_ex.c ****   }
1146:Drivers/STM32L4xx_HAL_Driver/Src/stm32l4xx_hal_tim_ex.c **** 
1147:Drivers/STM32L4xx_HAL_Driver/Src/stm32l4xx_hal_tim_ex.c ****   /* Return function status */
1148:Drivers/STM32L4xx_HAL_Driver/Src/stm32l4xx_hal_tim_ex.c ****   return HAL_OK;
 3057              		.loc 1 1148 10
 3058 0126 0023     		movs	r3, #0
 3059              	.L196:
1149:Drivers/STM32L4xx_HAL_Driver/Src/stm32l4xx_hal_tim_ex.c **** }
 3060              		.loc 1 1149 1
 3061 0128 1846     		mov	r0, r3
 3062 012a 1037     		adds	r7, r7, #16
 3063              	.LCFI85:
 3064              		.cfi_def_cfa_offset 8
 3065 012c BD46     		mov	sp, r7
 3066              	.LCFI86:
 3067              		.cfi_def_cfa_register 13
 3068              		@ sp needed
 3069 012e 80BD     		pop	{r7, pc}
 3070              	.L209:
 3071              		.align	2
 3072              	.L208:
 3073 0130 002C0140 		.word	1073818624
 3074 0134 00400140 		.word	1073823744
 3075 0138 07000100 		.word	65543
 3076              		.cfi_endproc
 3077              	.LFE148:
 3079              		.section	.text.HAL_TIMEx_PWMN_Stop,"ax",%progbits
 3080              		.align	1
 3081              		.global	HAL_TIMEx_PWMN_Stop
 3082              		.syntax unified
 3083              		.thumb
 3084              		.thumb_func
 3086              	HAL_TIMEx_PWMN_Stop:
 3087              	.LFB149:
1150:Drivers/STM32L4xx_HAL_Driver/Src/stm32l4xx_hal_tim_ex.c **** 
ARM GAS  /tmp/ccR4xO3u.s 			page 75


1151:Drivers/STM32L4xx_HAL_Driver/Src/stm32l4xx_hal_tim_ex.c **** /**
1152:Drivers/STM32L4xx_HAL_Driver/Src/stm32l4xx_hal_tim_ex.c ****   * @brief  Stops the PWM signal generation on the complementary output.
1153:Drivers/STM32L4xx_HAL_Driver/Src/stm32l4xx_hal_tim_ex.c ****   * @param  htim TIM handle
1154:Drivers/STM32L4xx_HAL_Driver/Src/stm32l4xx_hal_tim_ex.c ****   * @param  Channel TIM Channel to be disabled
1155:Drivers/STM32L4xx_HAL_Driver/Src/stm32l4xx_hal_tim_ex.c ****   *          This parameter can be one of the following values:
1156:Drivers/STM32L4xx_HAL_Driver/Src/stm32l4xx_hal_tim_ex.c ****   *            @arg TIM_CHANNEL_1: TIM Channel 1 selected
1157:Drivers/STM32L4xx_HAL_Driver/Src/stm32l4xx_hal_tim_ex.c ****   *            @arg TIM_CHANNEL_2: TIM Channel 2 selected
1158:Drivers/STM32L4xx_HAL_Driver/Src/stm32l4xx_hal_tim_ex.c ****   *            @arg TIM_CHANNEL_3: TIM Channel 3 selected
1159:Drivers/STM32L4xx_HAL_Driver/Src/stm32l4xx_hal_tim_ex.c ****   * @retval HAL status
1160:Drivers/STM32L4xx_HAL_Driver/Src/stm32l4xx_hal_tim_ex.c ****   */
1161:Drivers/STM32L4xx_HAL_Driver/Src/stm32l4xx_hal_tim_ex.c **** HAL_StatusTypeDef HAL_TIMEx_PWMN_Stop(TIM_HandleTypeDef *htim, uint32_t Channel)
1162:Drivers/STM32L4xx_HAL_Driver/Src/stm32l4xx_hal_tim_ex.c **** {
 3088              		.loc 1 1162 1
 3089              		.cfi_startproc
 3090              		@ args = 0, pretend = 0, frame = 8
 3091              		@ frame_needed = 1, uses_anonymous_args = 0
 3092 0000 80B5     		push	{r7, lr}
 3093              	.LCFI87:
 3094              		.cfi_def_cfa_offset 8
 3095              		.cfi_offset 7, -8
 3096              		.cfi_offset 14, -4
 3097 0002 82B0     		sub	sp, sp, #8
 3098              	.LCFI88:
 3099              		.cfi_def_cfa_offset 16
 3100 0004 00AF     		add	r7, sp, #0
 3101              	.LCFI89:
 3102              		.cfi_def_cfa_register 7
 3103 0006 7860     		str	r0, [r7, #4]
 3104 0008 3960     		str	r1, [r7]
1163:Drivers/STM32L4xx_HAL_Driver/Src/stm32l4xx_hal_tim_ex.c ****   /* Check the parameters */
1164:Drivers/STM32L4xx_HAL_Driver/Src/stm32l4xx_hal_tim_ex.c ****   assert_param(IS_TIM_CCXN_INSTANCE(htim->Instance, Channel));
1165:Drivers/STM32L4xx_HAL_Driver/Src/stm32l4xx_hal_tim_ex.c **** 
1166:Drivers/STM32L4xx_HAL_Driver/Src/stm32l4xx_hal_tim_ex.c ****   /* Disable the complementary PWM output  */
1167:Drivers/STM32L4xx_HAL_Driver/Src/stm32l4xx_hal_tim_ex.c ****   TIM_CCxNChannelCmd(htim->Instance, Channel, TIM_CCxN_DISABLE);
 3105              		.loc 1 1167 3
 3106 000a 7B68     		ldr	r3, [r7, #4]
 3107 000c 1B68     		ldr	r3, [r3]
 3108 000e 0022     		movs	r2, #0
 3109 0010 3968     		ldr	r1, [r7]
 3110 0012 1846     		mov	r0, r3
 3111 0014 FFF7FEFF 		bl	TIM_CCxNChannelCmd
1168:Drivers/STM32L4xx_HAL_Driver/Src/stm32l4xx_hal_tim_ex.c **** 
1169:Drivers/STM32L4xx_HAL_Driver/Src/stm32l4xx_hal_tim_ex.c ****   /* Disable the Main Output */
1170:Drivers/STM32L4xx_HAL_Driver/Src/stm32l4xx_hal_tim_ex.c ****   __HAL_TIM_MOE_DISABLE(htim);
 3112              		.loc 1 1170 3
 3113 0018 7B68     		ldr	r3, [r7, #4]
 3114 001a 1B68     		ldr	r3, [r3]
 3115 001c 1A6A     		ldr	r2, [r3, #32]
 3116 001e 41F21113 		movw	r3, #4369
 3117 0022 1340     		ands	r3, r3, r2
 3118 0024 002B     		cmp	r3, #0
 3119 0026 0FD1     		bne	.L211
 3120              		.loc 1 1170 3 is_stmt 0 discriminator 1
 3121 0028 7B68     		ldr	r3, [r7, #4]
 3122 002a 1B68     		ldr	r3, [r3]
 3123 002c 1A6A     		ldr	r2, [r3, #32]
 3124 002e 40F24443 		movw	r3, #1092
ARM GAS  /tmp/ccR4xO3u.s 			page 76


 3125 0032 1340     		ands	r3, r3, r2
 3126 0034 002B     		cmp	r3, #0
 3127 0036 07D1     		bne	.L211
 3128              		.loc 1 1170 3 discriminator 2
 3129 0038 7B68     		ldr	r3, [r7, #4]
 3130 003a 1B68     		ldr	r3, [r3]
 3131 003c 5A6C     		ldr	r2, [r3, #68]
 3132 003e 7B68     		ldr	r3, [r7, #4]
 3133 0040 1B68     		ldr	r3, [r3]
 3134 0042 22F40042 		bic	r2, r2, #32768
 3135 0046 5A64     		str	r2, [r3, #68]
 3136              	.L211:
1171:Drivers/STM32L4xx_HAL_Driver/Src/stm32l4xx_hal_tim_ex.c **** 
1172:Drivers/STM32L4xx_HAL_Driver/Src/stm32l4xx_hal_tim_ex.c ****   /* Disable the Peripheral */
1173:Drivers/STM32L4xx_HAL_Driver/Src/stm32l4xx_hal_tim_ex.c ****   __HAL_TIM_DISABLE(htim);
 3137              		.loc 1 1173 3 is_stmt 1
 3138 0048 7B68     		ldr	r3, [r7, #4]
 3139 004a 1B68     		ldr	r3, [r3]
 3140 004c 1A6A     		ldr	r2, [r3, #32]
 3141 004e 41F21113 		movw	r3, #4369
 3142 0052 1340     		ands	r3, r3, r2
 3143 0054 002B     		cmp	r3, #0
 3144 0056 0FD1     		bne	.L212
 3145              		.loc 1 1173 3 is_stmt 0 discriminator 1
 3146 0058 7B68     		ldr	r3, [r7, #4]
 3147 005a 1B68     		ldr	r3, [r3]
 3148 005c 1A6A     		ldr	r2, [r3, #32]
 3149 005e 40F24443 		movw	r3, #1092
 3150 0062 1340     		ands	r3, r3, r2
 3151 0064 002B     		cmp	r3, #0
 3152 0066 07D1     		bne	.L212
 3153              		.loc 1 1173 3 discriminator 2
 3154 0068 7B68     		ldr	r3, [r7, #4]
 3155 006a 1B68     		ldr	r3, [r3]
 3156 006c 1A68     		ldr	r2, [r3]
 3157 006e 7B68     		ldr	r3, [r7, #4]
 3158 0070 1B68     		ldr	r3, [r3]
 3159 0072 22F00102 		bic	r2, r2, #1
 3160 0076 1A60     		str	r2, [r3]
 3161              	.L212:
1174:Drivers/STM32L4xx_HAL_Driver/Src/stm32l4xx_hal_tim_ex.c **** 
1175:Drivers/STM32L4xx_HAL_Driver/Src/stm32l4xx_hal_tim_ex.c ****   /* Set the TIM complementary channel state */
1176:Drivers/STM32L4xx_HAL_Driver/Src/stm32l4xx_hal_tim_ex.c ****   TIM_CHANNEL_N_STATE_SET(htim, Channel, HAL_TIM_CHANNEL_STATE_READY);
 3162              		.loc 1 1176 3 is_stmt 1
 3163 0078 3B68     		ldr	r3, [r7]
 3164 007a 002B     		cmp	r3, #0
 3165 007c 04D1     		bne	.L213
 3166              		.loc 1 1176 3 is_stmt 0 discriminator 1
 3167 007e 7B68     		ldr	r3, [r7, #4]
 3168 0080 0122     		movs	r2, #1
 3169 0082 83F84420 		strb	r2, [r3, #68]
 3170 0086 13E0     		b	.L214
 3171              	.L213:
 3172              		.loc 1 1176 3 discriminator 2
 3173 0088 3B68     		ldr	r3, [r7]
 3174 008a 042B     		cmp	r3, #4
 3175 008c 04D1     		bne	.L215
ARM GAS  /tmp/ccR4xO3u.s 			page 77


 3176              		.loc 1 1176 3 discriminator 3
 3177 008e 7B68     		ldr	r3, [r7, #4]
 3178 0090 0122     		movs	r2, #1
 3179 0092 83F84520 		strb	r2, [r3, #69]
 3180 0096 0BE0     		b	.L214
 3181              	.L215:
 3182              		.loc 1 1176 3 discriminator 4
 3183 0098 3B68     		ldr	r3, [r7]
 3184 009a 082B     		cmp	r3, #8
 3185 009c 04D1     		bne	.L217
 3186              		.loc 1 1176 3 discriminator 6
 3187 009e 7B68     		ldr	r3, [r7, #4]
 3188 00a0 0122     		movs	r2, #1
 3189 00a2 83F84620 		strb	r2, [r3, #70]
 3190 00a6 03E0     		b	.L214
 3191              	.L217:
 3192              		.loc 1 1176 3 discriminator 7
 3193 00a8 7B68     		ldr	r3, [r7, #4]
 3194 00aa 0122     		movs	r2, #1
 3195 00ac 83F84720 		strb	r2, [r3, #71]
 3196              	.L214:
1177:Drivers/STM32L4xx_HAL_Driver/Src/stm32l4xx_hal_tim_ex.c **** 
1178:Drivers/STM32L4xx_HAL_Driver/Src/stm32l4xx_hal_tim_ex.c ****   /* Return function status */
1179:Drivers/STM32L4xx_HAL_Driver/Src/stm32l4xx_hal_tim_ex.c ****   return HAL_OK;
 3197              		.loc 1 1179 10 is_stmt 1
 3198 00b0 0023     		movs	r3, #0
1180:Drivers/STM32L4xx_HAL_Driver/Src/stm32l4xx_hal_tim_ex.c **** }
 3199              		.loc 1 1180 1
 3200 00b2 1846     		mov	r0, r3
 3201 00b4 0837     		adds	r7, r7, #8
 3202              	.LCFI90:
 3203              		.cfi_def_cfa_offset 8
 3204 00b6 BD46     		mov	sp, r7
 3205              	.LCFI91:
 3206              		.cfi_def_cfa_register 13
 3207              		@ sp needed
 3208 00b8 80BD     		pop	{r7, pc}
 3209              		.cfi_endproc
 3210              	.LFE149:
 3212              		.section	.text.HAL_TIMEx_PWMN_Start_IT,"ax",%progbits
 3213              		.align	1
 3214              		.global	HAL_TIMEx_PWMN_Start_IT
 3215              		.syntax unified
 3216              		.thumb
 3217              		.thumb_func
 3219              	HAL_TIMEx_PWMN_Start_IT:
 3220              	.LFB150:
1181:Drivers/STM32L4xx_HAL_Driver/Src/stm32l4xx_hal_tim_ex.c **** 
1182:Drivers/STM32L4xx_HAL_Driver/Src/stm32l4xx_hal_tim_ex.c **** /**
1183:Drivers/STM32L4xx_HAL_Driver/Src/stm32l4xx_hal_tim_ex.c ****   * @brief  Starts the PWM signal generation in interrupt mode on the
1184:Drivers/STM32L4xx_HAL_Driver/Src/stm32l4xx_hal_tim_ex.c ****   *         complementary output.
1185:Drivers/STM32L4xx_HAL_Driver/Src/stm32l4xx_hal_tim_ex.c ****   * @param  htim TIM handle
1186:Drivers/STM32L4xx_HAL_Driver/Src/stm32l4xx_hal_tim_ex.c ****   * @param  Channel TIM Channel to be disabled
1187:Drivers/STM32L4xx_HAL_Driver/Src/stm32l4xx_hal_tim_ex.c ****   *          This parameter can be one of the following values:
1188:Drivers/STM32L4xx_HAL_Driver/Src/stm32l4xx_hal_tim_ex.c ****   *            @arg TIM_CHANNEL_1: TIM Channel 1 selected
1189:Drivers/STM32L4xx_HAL_Driver/Src/stm32l4xx_hal_tim_ex.c ****   *            @arg TIM_CHANNEL_2: TIM Channel 2 selected
1190:Drivers/STM32L4xx_HAL_Driver/Src/stm32l4xx_hal_tim_ex.c ****   *            @arg TIM_CHANNEL_3: TIM Channel 3 selected
ARM GAS  /tmp/ccR4xO3u.s 			page 78


1191:Drivers/STM32L4xx_HAL_Driver/Src/stm32l4xx_hal_tim_ex.c ****   * @retval HAL status
1192:Drivers/STM32L4xx_HAL_Driver/Src/stm32l4xx_hal_tim_ex.c ****   */
1193:Drivers/STM32L4xx_HAL_Driver/Src/stm32l4xx_hal_tim_ex.c **** HAL_StatusTypeDef HAL_TIMEx_PWMN_Start_IT(TIM_HandleTypeDef *htim, uint32_t Channel)
1194:Drivers/STM32L4xx_HAL_Driver/Src/stm32l4xx_hal_tim_ex.c **** {
 3221              		.loc 1 1194 1
 3222              		.cfi_startproc
 3223              		@ args = 0, pretend = 0, frame = 16
 3224              		@ frame_needed = 1, uses_anonymous_args = 0
 3225 0000 80B5     		push	{r7, lr}
 3226              	.LCFI92:
 3227              		.cfi_def_cfa_offset 8
 3228              		.cfi_offset 7, -8
 3229              		.cfi_offset 14, -4
 3230 0002 84B0     		sub	sp, sp, #16
 3231              	.LCFI93:
 3232              		.cfi_def_cfa_offset 24
 3233 0004 00AF     		add	r7, sp, #0
 3234              	.LCFI94:
 3235              		.cfi_def_cfa_register 7
 3236 0006 7860     		str	r0, [r7, #4]
 3237 0008 3960     		str	r1, [r7]
1195:Drivers/STM32L4xx_HAL_Driver/Src/stm32l4xx_hal_tim_ex.c ****   HAL_StatusTypeDef status = HAL_OK;
 3238              		.loc 1 1195 21
 3239 000a 0023     		movs	r3, #0
 3240 000c FB73     		strb	r3, [r7, #15]
1196:Drivers/STM32L4xx_HAL_Driver/Src/stm32l4xx_hal_tim_ex.c ****   uint32_t tmpsmcr;
1197:Drivers/STM32L4xx_HAL_Driver/Src/stm32l4xx_hal_tim_ex.c **** 
1198:Drivers/STM32L4xx_HAL_Driver/Src/stm32l4xx_hal_tim_ex.c ****   /* Check the parameters */
1199:Drivers/STM32L4xx_HAL_Driver/Src/stm32l4xx_hal_tim_ex.c ****   assert_param(IS_TIM_CCXN_INSTANCE(htim->Instance, Channel));
1200:Drivers/STM32L4xx_HAL_Driver/Src/stm32l4xx_hal_tim_ex.c **** 
1201:Drivers/STM32L4xx_HAL_Driver/Src/stm32l4xx_hal_tim_ex.c ****   /* Check the TIM complementary channel state */
1202:Drivers/STM32L4xx_HAL_Driver/Src/stm32l4xx_hal_tim_ex.c ****   if (TIM_CHANNEL_N_STATE_GET(htim, Channel) != HAL_TIM_CHANNEL_STATE_READY)
 3241              		.loc 1 1202 46
 3242 000e 3B68     		ldr	r3, [r7]
 3243 0010 002B     		cmp	r3, #0
 3244 0012 09D1     		bne	.L221
 3245              		.loc 1 1202 7 discriminator 1
 3246 0014 7B68     		ldr	r3, [r7, #4]
 3247 0016 93F84430 		ldrb	r3, [r3, #68]
 3248 001a DBB2     		uxtb	r3, r3
 3249              		.loc 1 1202 46 discriminator 1
 3250 001c 012B     		cmp	r3, #1
 3251 001e 14BF     		ite	ne
 3252 0020 0123     		movne	r3, #1
 3253 0022 0023     		moveq	r3, #0
 3254 0024 DBB2     		uxtb	r3, r3
 3255 0026 22E0     		b	.L222
 3256              	.L221:
 3257              		.loc 1 1202 46 is_stmt 0 discriminator 2
 3258 0028 3B68     		ldr	r3, [r7]
 3259 002a 042B     		cmp	r3, #4
 3260 002c 09D1     		bne	.L223
 3261              		.loc 1 1202 7 is_stmt 1 discriminator 4
 3262 002e 7B68     		ldr	r3, [r7, #4]
 3263 0030 93F84530 		ldrb	r3, [r3, #69]
 3264 0034 DBB2     		uxtb	r3, r3
 3265              		.loc 1 1202 46 discriminator 4
ARM GAS  /tmp/ccR4xO3u.s 			page 79


 3266 0036 012B     		cmp	r3, #1
 3267 0038 14BF     		ite	ne
 3268 003a 0123     		movne	r3, #1
 3269 003c 0023     		moveq	r3, #0
 3270 003e DBB2     		uxtb	r3, r3
 3271 0040 15E0     		b	.L222
 3272              	.L223:
 3273              		.loc 1 1202 46 is_stmt 0 discriminator 5
 3274 0042 3B68     		ldr	r3, [r7]
 3275 0044 082B     		cmp	r3, #8
 3276 0046 09D1     		bne	.L225
 3277              		.loc 1 1202 7 is_stmt 1 discriminator 7
 3278 0048 7B68     		ldr	r3, [r7, #4]
 3279 004a 93F84630 		ldrb	r3, [r3, #70]
 3280 004e DBB2     		uxtb	r3, r3
 3281              		.loc 1 1202 46 discriminator 7
 3282 0050 012B     		cmp	r3, #1
 3283 0052 14BF     		ite	ne
 3284 0054 0123     		movne	r3, #1
 3285 0056 0023     		moveq	r3, #0
 3286 0058 DBB2     		uxtb	r3, r3
 3287 005a 08E0     		b	.L222
 3288              	.L225:
 3289              		.loc 1 1202 7 discriminator 8
 3290 005c 7B68     		ldr	r3, [r7, #4]
 3291 005e 93F84730 		ldrb	r3, [r3, #71]
 3292 0062 DBB2     		uxtb	r3, r3
 3293              		.loc 1 1202 46 discriminator 8
 3294 0064 012B     		cmp	r3, #1
 3295 0066 14BF     		ite	ne
 3296 0068 0123     		movne	r3, #1
 3297 006a 0023     		moveq	r3, #0
 3298 006c DBB2     		uxtb	r3, r3
 3299              	.L222:
 3300              		.loc 1 1202 6 discriminator 12
 3301 006e 002B     		cmp	r3, #0
 3302 0070 01D0     		beq	.L227
1203:Drivers/STM32L4xx_HAL_Driver/Src/stm32l4xx_hal_tim_ex.c ****   {
1204:Drivers/STM32L4xx_HAL_Driver/Src/stm32l4xx_hal_tim_ex.c ****     return HAL_ERROR;
 3303              		.loc 1 1204 12
 3304 0072 0123     		movs	r3, #1
 3305 0074 90E0     		b	.L228
 3306              	.L227:
1205:Drivers/STM32L4xx_HAL_Driver/Src/stm32l4xx_hal_tim_ex.c ****   }
1206:Drivers/STM32L4xx_HAL_Driver/Src/stm32l4xx_hal_tim_ex.c **** 
1207:Drivers/STM32L4xx_HAL_Driver/Src/stm32l4xx_hal_tim_ex.c ****   /* Set the TIM complementary channel state */
1208:Drivers/STM32L4xx_HAL_Driver/Src/stm32l4xx_hal_tim_ex.c ****   TIM_CHANNEL_N_STATE_SET(htim, Channel, HAL_TIM_CHANNEL_STATE_BUSY);
 3307              		.loc 1 1208 3
 3308 0076 3B68     		ldr	r3, [r7]
 3309 0078 002B     		cmp	r3, #0
 3310 007a 04D1     		bne	.L229
 3311              		.loc 1 1208 3 is_stmt 0 discriminator 1
 3312 007c 7B68     		ldr	r3, [r7, #4]
 3313 007e 0222     		movs	r2, #2
 3314 0080 83F84420 		strb	r2, [r3, #68]
 3315 0084 13E0     		b	.L230
 3316              	.L229:
ARM GAS  /tmp/ccR4xO3u.s 			page 80


 3317              		.loc 1 1208 3 discriminator 2
 3318 0086 3B68     		ldr	r3, [r7]
 3319 0088 042B     		cmp	r3, #4
 3320 008a 04D1     		bne	.L231
 3321              		.loc 1 1208 3 discriminator 3
 3322 008c 7B68     		ldr	r3, [r7, #4]
 3323 008e 0222     		movs	r2, #2
 3324 0090 83F84520 		strb	r2, [r3, #69]
 3325 0094 0BE0     		b	.L230
 3326              	.L231:
 3327              		.loc 1 1208 3 discriminator 4
 3328 0096 3B68     		ldr	r3, [r7]
 3329 0098 082B     		cmp	r3, #8
 3330 009a 04D1     		bne	.L233
 3331              		.loc 1 1208 3 discriminator 6
 3332 009c 7B68     		ldr	r3, [r7, #4]
 3333 009e 0222     		movs	r2, #2
 3334 00a0 83F84620 		strb	r2, [r3, #70]
 3335 00a4 03E0     		b	.L230
 3336              	.L233:
 3337              		.loc 1 1208 3 discriminator 7
 3338 00a6 7B68     		ldr	r3, [r7, #4]
 3339 00a8 0222     		movs	r2, #2
 3340 00aa 83F84720 		strb	r2, [r3, #71]
 3341              	.L230:
1209:Drivers/STM32L4xx_HAL_Driver/Src/stm32l4xx_hal_tim_ex.c **** 
1210:Drivers/STM32L4xx_HAL_Driver/Src/stm32l4xx_hal_tim_ex.c ****   switch (Channel)
 3342              		.loc 1 1210 3 is_stmt 1
 3343 00ae 3B68     		ldr	r3, [r7]
 3344 00b0 082B     		cmp	r3, #8
 3345 00b2 1BD0     		beq	.L235
 3346 00b4 3B68     		ldr	r3, [r7]
 3347 00b6 082B     		cmp	r3, #8
 3348 00b8 21D8     		bhi	.L236
 3349 00ba 3B68     		ldr	r3, [r7]
 3350 00bc 002B     		cmp	r3, #0
 3351 00be 03D0     		beq	.L237
 3352 00c0 3B68     		ldr	r3, [r7]
 3353 00c2 042B     		cmp	r3, #4
 3354 00c4 09D0     		beq	.L238
 3355 00c6 1AE0     		b	.L236
 3356              	.L237:
1211:Drivers/STM32L4xx_HAL_Driver/Src/stm32l4xx_hal_tim_ex.c ****   {
1212:Drivers/STM32L4xx_HAL_Driver/Src/stm32l4xx_hal_tim_ex.c ****     case TIM_CHANNEL_1:
1213:Drivers/STM32L4xx_HAL_Driver/Src/stm32l4xx_hal_tim_ex.c ****     {
1214:Drivers/STM32L4xx_HAL_Driver/Src/stm32l4xx_hal_tim_ex.c ****       /* Enable the TIM Capture/Compare 1 interrupt */
1215:Drivers/STM32L4xx_HAL_Driver/Src/stm32l4xx_hal_tim_ex.c ****       __HAL_TIM_ENABLE_IT(htim, TIM_IT_CC1);
 3357              		.loc 1 1215 7
 3358 00c8 7B68     		ldr	r3, [r7, #4]
 3359 00ca 1B68     		ldr	r3, [r3]
 3360 00cc DA68     		ldr	r2, [r3, #12]
 3361 00ce 7B68     		ldr	r3, [r7, #4]
 3362 00d0 1B68     		ldr	r3, [r3]
 3363 00d2 42F00202 		orr	r2, r2, #2
 3364 00d6 DA60     		str	r2, [r3, #12]
1216:Drivers/STM32L4xx_HAL_Driver/Src/stm32l4xx_hal_tim_ex.c ****       break;
 3365              		.loc 1 1216 7
ARM GAS  /tmp/ccR4xO3u.s 			page 81


 3366 00d8 14E0     		b	.L239
 3367              	.L238:
1217:Drivers/STM32L4xx_HAL_Driver/Src/stm32l4xx_hal_tim_ex.c ****     }
1218:Drivers/STM32L4xx_HAL_Driver/Src/stm32l4xx_hal_tim_ex.c **** 
1219:Drivers/STM32L4xx_HAL_Driver/Src/stm32l4xx_hal_tim_ex.c ****     case TIM_CHANNEL_2:
1220:Drivers/STM32L4xx_HAL_Driver/Src/stm32l4xx_hal_tim_ex.c ****     {
1221:Drivers/STM32L4xx_HAL_Driver/Src/stm32l4xx_hal_tim_ex.c ****       /* Enable the TIM Capture/Compare 2 interrupt */
1222:Drivers/STM32L4xx_HAL_Driver/Src/stm32l4xx_hal_tim_ex.c ****       __HAL_TIM_ENABLE_IT(htim, TIM_IT_CC2);
 3368              		.loc 1 1222 7
 3369 00da 7B68     		ldr	r3, [r7, #4]
 3370 00dc 1B68     		ldr	r3, [r3]
 3371 00de DA68     		ldr	r2, [r3, #12]
 3372 00e0 7B68     		ldr	r3, [r7, #4]
 3373 00e2 1B68     		ldr	r3, [r3]
 3374 00e4 42F00402 		orr	r2, r2, #4
 3375 00e8 DA60     		str	r2, [r3, #12]
1223:Drivers/STM32L4xx_HAL_Driver/Src/stm32l4xx_hal_tim_ex.c ****       break;
 3376              		.loc 1 1223 7
 3377 00ea 0BE0     		b	.L239
 3378              	.L235:
1224:Drivers/STM32L4xx_HAL_Driver/Src/stm32l4xx_hal_tim_ex.c ****     }
1225:Drivers/STM32L4xx_HAL_Driver/Src/stm32l4xx_hal_tim_ex.c **** 
1226:Drivers/STM32L4xx_HAL_Driver/Src/stm32l4xx_hal_tim_ex.c ****     case TIM_CHANNEL_3:
1227:Drivers/STM32L4xx_HAL_Driver/Src/stm32l4xx_hal_tim_ex.c ****     {
1228:Drivers/STM32L4xx_HAL_Driver/Src/stm32l4xx_hal_tim_ex.c ****       /* Enable the TIM Capture/Compare 3 interrupt */
1229:Drivers/STM32L4xx_HAL_Driver/Src/stm32l4xx_hal_tim_ex.c ****       __HAL_TIM_ENABLE_IT(htim, TIM_IT_CC3);
 3379              		.loc 1 1229 7
 3380 00ec 7B68     		ldr	r3, [r7, #4]
 3381 00ee 1B68     		ldr	r3, [r3]
 3382 00f0 DA68     		ldr	r2, [r3, #12]
 3383 00f2 7B68     		ldr	r3, [r7, #4]
 3384 00f4 1B68     		ldr	r3, [r3]
 3385 00f6 42F00802 		orr	r2, r2, #8
 3386 00fa DA60     		str	r2, [r3, #12]
1230:Drivers/STM32L4xx_HAL_Driver/Src/stm32l4xx_hal_tim_ex.c ****       break;
 3387              		.loc 1 1230 7
 3388 00fc 02E0     		b	.L239
 3389              	.L236:
1231:Drivers/STM32L4xx_HAL_Driver/Src/stm32l4xx_hal_tim_ex.c ****     }
1232:Drivers/STM32L4xx_HAL_Driver/Src/stm32l4xx_hal_tim_ex.c **** 
1233:Drivers/STM32L4xx_HAL_Driver/Src/stm32l4xx_hal_tim_ex.c ****     default:
1234:Drivers/STM32L4xx_HAL_Driver/Src/stm32l4xx_hal_tim_ex.c ****       status = HAL_ERROR;
 3390              		.loc 1 1234 14
 3391 00fe 0123     		movs	r3, #1
 3392 0100 FB73     		strb	r3, [r7, #15]
1235:Drivers/STM32L4xx_HAL_Driver/Src/stm32l4xx_hal_tim_ex.c ****       break;
 3393              		.loc 1 1235 7
 3394 0102 00BF     		nop
 3395              	.L239:
1236:Drivers/STM32L4xx_HAL_Driver/Src/stm32l4xx_hal_tim_ex.c ****   }
1237:Drivers/STM32L4xx_HAL_Driver/Src/stm32l4xx_hal_tim_ex.c **** 
1238:Drivers/STM32L4xx_HAL_Driver/Src/stm32l4xx_hal_tim_ex.c ****   if (status == HAL_OK)
 3396              		.loc 1 1238 6
 3397 0104 FB7B     		ldrb	r3, [r7, #15]	@ zero_extendqisi2
 3398 0106 002B     		cmp	r3, #0
 3399 0108 45D1     		bne	.L240
1239:Drivers/STM32L4xx_HAL_Driver/Src/stm32l4xx_hal_tim_ex.c ****   {
ARM GAS  /tmp/ccR4xO3u.s 			page 82


1240:Drivers/STM32L4xx_HAL_Driver/Src/stm32l4xx_hal_tim_ex.c ****     /* Enable the TIM Break interrupt */
1241:Drivers/STM32L4xx_HAL_Driver/Src/stm32l4xx_hal_tim_ex.c ****     __HAL_TIM_ENABLE_IT(htim, TIM_IT_BREAK);
 3400              		.loc 1 1241 5
 3401 010a 7B68     		ldr	r3, [r7, #4]
 3402 010c 1B68     		ldr	r3, [r3]
 3403 010e DA68     		ldr	r2, [r3, #12]
 3404 0110 7B68     		ldr	r3, [r7, #4]
 3405 0112 1B68     		ldr	r3, [r3]
 3406 0114 42F08002 		orr	r2, r2, #128
 3407 0118 DA60     		str	r2, [r3, #12]
1242:Drivers/STM32L4xx_HAL_Driver/Src/stm32l4xx_hal_tim_ex.c **** 
1243:Drivers/STM32L4xx_HAL_Driver/Src/stm32l4xx_hal_tim_ex.c ****     /* Enable the complementary PWM output  */
1244:Drivers/STM32L4xx_HAL_Driver/Src/stm32l4xx_hal_tim_ex.c ****     TIM_CCxNChannelCmd(htim->Instance, Channel, TIM_CCxN_ENABLE);
 3408              		.loc 1 1244 5
 3409 011a 7B68     		ldr	r3, [r7, #4]
 3410 011c 1B68     		ldr	r3, [r3]
 3411 011e 0422     		movs	r2, #4
 3412 0120 3968     		ldr	r1, [r7]
 3413 0122 1846     		mov	r0, r3
 3414 0124 FFF7FEFF 		bl	TIM_CCxNChannelCmd
1245:Drivers/STM32L4xx_HAL_Driver/Src/stm32l4xx_hal_tim_ex.c **** 
1246:Drivers/STM32L4xx_HAL_Driver/Src/stm32l4xx_hal_tim_ex.c ****     /* Enable the Main Output */
1247:Drivers/STM32L4xx_HAL_Driver/Src/stm32l4xx_hal_tim_ex.c ****     __HAL_TIM_MOE_ENABLE(htim);
 3415              		.loc 1 1247 5
 3416 0128 7B68     		ldr	r3, [r7, #4]
 3417 012a 1B68     		ldr	r3, [r3]
 3418 012c 5A6C     		ldr	r2, [r3, #68]
 3419 012e 7B68     		ldr	r3, [r7, #4]
 3420 0130 1B68     		ldr	r3, [r3]
 3421 0132 42F40042 		orr	r2, r2, #32768
 3422 0136 5A64     		str	r2, [r3, #68]
1248:Drivers/STM32L4xx_HAL_Driver/Src/stm32l4xx_hal_tim_ex.c **** 
1249:Drivers/STM32L4xx_HAL_Driver/Src/stm32l4xx_hal_tim_ex.c ****     /* Enable the Peripheral, except in trigger mode where enable is automatically done with trigge
1250:Drivers/STM32L4xx_HAL_Driver/Src/stm32l4xx_hal_tim_ex.c ****     if (IS_TIM_SLAVE_INSTANCE(htim->Instance))
 3423              		.loc 1 1250 9
 3424 0138 7B68     		ldr	r3, [r7, #4]
 3425 013a 1B68     		ldr	r3, [r3]
 3426              		.loc 1 1250 8
 3427 013c 184A     		ldr	r2, .L245
 3428 013e 9342     		cmp	r3, r2
 3429 0140 09D0     		beq	.L241
 3430              		.loc 1 1250 9 discriminator 1
 3431 0142 7B68     		ldr	r3, [r7, #4]
 3432 0144 1B68     		ldr	r3, [r3]
 3433 0146 B3F1804F 		cmp	r3, #1073741824
 3434 014a 04D0     		beq	.L241
 3435              		.loc 1 1250 9 is_stmt 0 discriminator 2
 3436 014c 7B68     		ldr	r3, [r7, #4]
 3437 014e 1B68     		ldr	r3, [r3]
 3438 0150 144A     		ldr	r2, .L245+4
 3439 0152 9342     		cmp	r3, r2
 3440 0154 15D1     		bne	.L242
 3441              	.L241:
1251:Drivers/STM32L4xx_HAL_Driver/Src/stm32l4xx_hal_tim_ex.c ****     {
1252:Drivers/STM32L4xx_HAL_Driver/Src/stm32l4xx_hal_tim_ex.c ****       tmpsmcr = htim->Instance->SMCR & TIM_SMCR_SMS;
 3442              		.loc 1 1252 21 is_stmt 1
 3443 0156 7B68     		ldr	r3, [r7, #4]
ARM GAS  /tmp/ccR4xO3u.s 			page 83


 3444 0158 1B68     		ldr	r3, [r3]
 3445              		.loc 1 1252 31
 3446 015a 9A68     		ldr	r2, [r3, #8]
 3447              		.loc 1 1252 15
 3448 015c 124B     		ldr	r3, .L245+8
 3449 015e 1340     		ands	r3, r3, r2
 3450 0160 BB60     		str	r3, [r7, #8]
1253:Drivers/STM32L4xx_HAL_Driver/Src/stm32l4xx_hal_tim_ex.c ****       if (!IS_TIM_SLAVEMODE_TRIGGER_ENABLED(tmpsmcr))
 3451              		.loc 1 1253 10
 3452 0162 BB68     		ldr	r3, [r7, #8]
 3453 0164 062B     		cmp	r3, #6
 3454 0166 15D0     		beq	.L244
 3455              		.loc 1 1253 11 discriminator 1
 3456 0168 BB68     		ldr	r3, [r7, #8]
 3457 016a B3F5803F 		cmp	r3, #65536
 3458 016e 11D0     		beq	.L244
1254:Drivers/STM32L4xx_HAL_Driver/Src/stm32l4xx_hal_tim_ex.c ****       {
1255:Drivers/STM32L4xx_HAL_Driver/Src/stm32l4xx_hal_tim_ex.c ****         __HAL_TIM_ENABLE(htim);
 3459              		.loc 1 1255 9
 3460 0170 7B68     		ldr	r3, [r7, #4]
 3461 0172 1B68     		ldr	r3, [r3]
 3462 0174 1A68     		ldr	r2, [r3]
 3463 0176 7B68     		ldr	r3, [r7, #4]
 3464 0178 1B68     		ldr	r3, [r3]
 3465 017a 42F00102 		orr	r2, r2, #1
 3466 017e 1A60     		str	r2, [r3]
1253:Drivers/STM32L4xx_HAL_Driver/Src/stm32l4xx_hal_tim_ex.c ****       if (!IS_TIM_SLAVEMODE_TRIGGER_ENABLED(tmpsmcr))
 3467              		.loc 1 1253 10
 3468 0180 08E0     		b	.L244
 3469              	.L242:
1256:Drivers/STM32L4xx_HAL_Driver/Src/stm32l4xx_hal_tim_ex.c ****       }
1257:Drivers/STM32L4xx_HAL_Driver/Src/stm32l4xx_hal_tim_ex.c ****     }
1258:Drivers/STM32L4xx_HAL_Driver/Src/stm32l4xx_hal_tim_ex.c ****     else
1259:Drivers/STM32L4xx_HAL_Driver/Src/stm32l4xx_hal_tim_ex.c ****     {
1260:Drivers/STM32L4xx_HAL_Driver/Src/stm32l4xx_hal_tim_ex.c ****       __HAL_TIM_ENABLE(htim);
 3470              		.loc 1 1260 7
 3471 0182 7B68     		ldr	r3, [r7, #4]
 3472 0184 1B68     		ldr	r3, [r3]
 3473 0186 1A68     		ldr	r2, [r3]
 3474 0188 7B68     		ldr	r3, [r7, #4]
 3475 018a 1B68     		ldr	r3, [r3]
 3476 018c 42F00102 		orr	r2, r2, #1
 3477 0190 1A60     		str	r2, [r3]
 3478 0192 00E0     		b	.L240
 3479              	.L244:
1253:Drivers/STM32L4xx_HAL_Driver/Src/stm32l4xx_hal_tim_ex.c ****       {
 3480              		.loc 1 1253 10
 3481 0194 00BF     		nop
 3482              	.L240:
1261:Drivers/STM32L4xx_HAL_Driver/Src/stm32l4xx_hal_tim_ex.c ****     }
1262:Drivers/STM32L4xx_HAL_Driver/Src/stm32l4xx_hal_tim_ex.c ****   }
1263:Drivers/STM32L4xx_HAL_Driver/Src/stm32l4xx_hal_tim_ex.c **** 
1264:Drivers/STM32L4xx_HAL_Driver/Src/stm32l4xx_hal_tim_ex.c ****   /* Return function status */
1265:Drivers/STM32L4xx_HAL_Driver/Src/stm32l4xx_hal_tim_ex.c ****   return status;
 3483              		.loc 1 1265 10
 3484 0196 FB7B     		ldrb	r3, [r7, #15]	@ zero_extendqisi2
 3485              	.L228:
ARM GAS  /tmp/ccR4xO3u.s 			page 84


1266:Drivers/STM32L4xx_HAL_Driver/Src/stm32l4xx_hal_tim_ex.c **** }
 3486              		.loc 1 1266 1
 3487 0198 1846     		mov	r0, r3
 3488 019a 1037     		adds	r7, r7, #16
 3489              	.LCFI95:
 3490              		.cfi_def_cfa_offset 8
 3491 019c BD46     		mov	sp, r7
 3492              	.LCFI96:
 3493              		.cfi_def_cfa_register 13
 3494              		@ sp needed
 3495 019e 80BD     		pop	{r7, pc}
 3496              	.L246:
 3497              		.align	2
 3498              	.L245:
 3499 01a0 002C0140 		.word	1073818624
 3500 01a4 00400140 		.word	1073823744
 3501 01a8 07000100 		.word	65543
 3502              		.cfi_endproc
 3503              	.LFE150:
 3505              		.section	.text.HAL_TIMEx_PWMN_Stop_IT,"ax",%progbits
 3506              		.align	1
 3507              		.global	HAL_TIMEx_PWMN_Stop_IT
 3508              		.syntax unified
 3509              		.thumb
 3510              		.thumb_func
 3512              	HAL_TIMEx_PWMN_Stop_IT:
 3513              	.LFB151:
1267:Drivers/STM32L4xx_HAL_Driver/Src/stm32l4xx_hal_tim_ex.c **** 
1268:Drivers/STM32L4xx_HAL_Driver/Src/stm32l4xx_hal_tim_ex.c **** /**
1269:Drivers/STM32L4xx_HAL_Driver/Src/stm32l4xx_hal_tim_ex.c ****   * @brief  Stops the PWM signal generation in interrupt mode on the
1270:Drivers/STM32L4xx_HAL_Driver/Src/stm32l4xx_hal_tim_ex.c ****   *         complementary output.
1271:Drivers/STM32L4xx_HAL_Driver/Src/stm32l4xx_hal_tim_ex.c ****   * @param  htim TIM handle
1272:Drivers/STM32L4xx_HAL_Driver/Src/stm32l4xx_hal_tim_ex.c ****   * @param  Channel TIM Channel to be disabled
1273:Drivers/STM32L4xx_HAL_Driver/Src/stm32l4xx_hal_tim_ex.c ****   *          This parameter can be one of the following values:
1274:Drivers/STM32L4xx_HAL_Driver/Src/stm32l4xx_hal_tim_ex.c ****   *            @arg TIM_CHANNEL_1: TIM Channel 1 selected
1275:Drivers/STM32L4xx_HAL_Driver/Src/stm32l4xx_hal_tim_ex.c ****   *            @arg TIM_CHANNEL_2: TIM Channel 2 selected
1276:Drivers/STM32L4xx_HAL_Driver/Src/stm32l4xx_hal_tim_ex.c ****   *            @arg TIM_CHANNEL_3: TIM Channel 3 selected
1277:Drivers/STM32L4xx_HAL_Driver/Src/stm32l4xx_hal_tim_ex.c ****   * @retval HAL status
1278:Drivers/STM32L4xx_HAL_Driver/Src/stm32l4xx_hal_tim_ex.c ****   */
1279:Drivers/STM32L4xx_HAL_Driver/Src/stm32l4xx_hal_tim_ex.c **** HAL_StatusTypeDef HAL_TIMEx_PWMN_Stop_IT(TIM_HandleTypeDef *htim, uint32_t Channel)
1280:Drivers/STM32L4xx_HAL_Driver/Src/stm32l4xx_hal_tim_ex.c **** {
 3514              		.loc 1 1280 1
 3515              		.cfi_startproc
 3516              		@ args = 0, pretend = 0, frame = 16
 3517              		@ frame_needed = 1, uses_anonymous_args = 0
 3518 0000 80B5     		push	{r7, lr}
 3519              	.LCFI97:
 3520              		.cfi_def_cfa_offset 8
 3521              		.cfi_offset 7, -8
 3522              		.cfi_offset 14, -4
 3523 0002 84B0     		sub	sp, sp, #16
 3524              	.LCFI98:
 3525              		.cfi_def_cfa_offset 24
 3526 0004 00AF     		add	r7, sp, #0
 3527              	.LCFI99:
 3528              		.cfi_def_cfa_register 7
 3529 0006 7860     		str	r0, [r7, #4]
ARM GAS  /tmp/ccR4xO3u.s 			page 85


 3530 0008 3960     		str	r1, [r7]
1281:Drivers/STM32L4xx_HAL_Driver/Src/stm32l4xx_hal_tim_ex.c ****   HAL_StatusTypeDef status = HAL_OK;
 3531              		.loc 1 1281 21
 3532 000a 0023     		movs	r3, #0
 3533 000c FB73     		strb	r3, [r7, #15]
1282:Drivers/STM32L4xx_HAL_Driver/Src/stm32l4xx_hal_tim_ex.c ****   uint32_t tmpccer;
1283:Drivers/STM32L4xx_HAL_Driver/Src/stm32l4xx_hal_tim_ex.c **** 
1284:Drivers/STM32L4xx_HAL_Driver/Src/stm32l4xx_hal_tim_ex.c ****   /* Check the parameters */
1285:Drivers/STM32L4xx_HAL_Driver/Src/stm32l4xx_hal_tim_ex.c ****   assert_param(IS_TIM_CCXN_INSTANCE(htim->Instance, Channel));
1286:Drivers/STM32L4xx_HAL_Driver/Src/stm32l4xx_hal_tim_ex.c **** 
1287:Drivers/STM32L4xx_HAL_Driver/Src/stm32l4xx_hal_tim_ex.c ****   switch (Channel)
 3534              		.loc 1 1287 3
 3535 000e 3B68     		ldr	r3, [r7]
 3536 0010 082B     		cmp	r3, #8
 3537 0012 1BD0     		beq	.L248
 3538 0014 3B68     		ldr	r3, [r7]
 3539 0016 082B     		cmp	r3, #8
 3540 0018 21D8     		bhi	.L249
 3541 001a 3B68     		ldr	r3, [r7]
 3542 001c 002B     		cmp	r3, #0
 3543 001e 03D0     		beq	.L250
 3544 0020 3B68     		ldr	r3, [r7]
 3545 0022 042B     		cmp	r3, #4
 3546 0024 09D0     		beq	.L251
 3547 0026 1AE0     		b	.L249
 3548              	.L250:
1288:Drivers/STM32L4xx_HAL_Driver/Src/stm32l4xx_hal_tim_ex.c ****   {
1289:Drivers/STM32L4xx_HAL_Driver/Src/stm32l4xx_hal_tim_ex.c ****     case TIM_CHANNEL_1:
1290:Drivers/STM32L4xx_HAL_Driver/Src/stm32l4xx_hal_tim_ex.c ****     {
1291:Drivers/STM32L4xx_HAL_Driver/Src/stm32l4xx_hal_tim_ex.c ****       /* Disable the TIM Capture/Compare 1 interrupt */
1292:Drivers/STM32L4xx_HAL_Driver/Src/stm32l4xx_hal_tim_ex.c ****       __HAL_TIM_DISABLE_IT(htim, TIM_IT_CC1);
 3549              		.loc 1 1292 7
 3550 0028 7B68     		ldr	r3, [r7, #4]
 3551 002a 1B68     		ldr	r3, [r3]
 3552 002c DA68     		ldr	r2, [r3, #12]
 3553 002e 7B68     		ldr	r3, [r7, #4]
 3554 0030 1B68     		ldr	r3, [r3]
 3555 0032 22F00202 		bic	r2, r2, #2
 3556 0036 DA60     		str	r2, [r3, #12]
1293:Drivers/STM32L4xx_HAL_Driver/Src/stm32l4xx_hal_tim_ex.c ****       break;
 3557              		.loc 1 1293 7
 3558 0038 14E0     		b	.L252
 3559              	.L251:
1294:Drivers/STM32L4xx_HAL_Driver/Src/stm32l4xx_hal_tim_ex.c ****     }
1295:Drivers/STM32L4xx_HAL_Driver/Src/stm32l4xx_hal_tim_ex.c **** 
1296:Drivers/STM32L4xx_HAL_Driver/Src/stm32l4xx_hal_tim_ex.c ****     case TIM_CHANNEL_2:
1297:Drivers/STM32L4xx_HAL_Driver/Src/stm32l4xx_hal_tim_ex.c ****     {
1298:Drivers/STM32L4xx_HAL_Driver/Src/stm32l4xx_hal_tim_ex.c ****       /* Disable the TIM Capture/Compare 2 interrupt */
1299:Drivers/STM32L4xx_HAL_Driver/Src/stm32l4xx_hal_tim_ex.c ****       __HAL_TIM_DISABLE_IT(htim, TIM_IT_CC2);
 3560              		.loc 1 1299 7
 3561 003a 7B68     		ldr	r3, [r7, #4]
 3562 003c 1B68     		ldr	r3, [r3]
 3563 003e DA68     		ldr	r2, [r3, #12]
 3564 0040 7B68     		ldr	r3, [r7, #4]
 3565 0042 1B68     		ldr	r3, [r3]
 3566 0044 22F00402 		bic	r2, r2, #4
 3567 0048 DA60     		str	r2, [r3, #12]
ARM GAS  /tmp/ccR4xO3u.s 			page 86


1300:Drivers/STM32L4xx_HAL_Driver/Src/stm32l4xx_hal_tim_ex.c ****       break;
 3568              		.loc 1 1300 7
 3569 004a 0BE0     		b	.L252
 3570              	.L248:
1301:Drivers/STM32L4xx_HAL_Driver/Src/stm32l4xx_hal_tim_ex.c ****     }
1302:Drivers/STM32L4xx_HAL_Driver/Src/stm32l4xx_hal_tim_ex.c **** 
1303:Drivers/STM32L4xx_HAL_Driver/Src/stm32l4xx_hal_tim_ex.c ****     case TIM_CHANNEL_3:
1304:Drivers/STM32L4xx_HAL_Driver/Src/stm32l4xx_hal_tim_ex.c ****     {
1305:Drivers/STM32L4xx_HAL_Driver/Src/stm32l4xx_hal_tim_ex.c ****       /* Disable the TIM Capture/Compare 3 interrupt */
1306:Drivers/STM32L4xx_HAL_Driver/Src/stm32l4xx_hal_tim_ex.c ****       __HAL_TIM_DISABLE_IT(htim, TIM_IT_CC3);
 3571              		.loc 1 1306 7
 3572 004c 7B68     		ldr	r3, [r7, #4]
 3573 004e 1B68     		ldr	r3, [r3]
 3574 0050 DA68     		ldr	r2, [r3, #12]
 3575 0052 7B68     		ldr	r3, [r7, #4]
 3576 0054 1B68     		ldr	r3, [r3]
 3577 0056 22F00802 		bic	r2, r2, #8
 3578 005a DA60     		str	r2, [r3, #12]
1307:Drivers/STM32L4xx_HAL_Driver/Src/stm32l4xx_hal_tim_ex.c ****       break;
 3579              		.loc 1 1307 7
 3580 005c 02E0     		b	.L252
 3581              	.L249:
1308:Drivers/STM32L4xx_HAL_Driver/Src/stm32l4xx_hal_tim_ex.c ****     }
1309:Drivers/STM32L4xx_HAL_Driver/Src/stm32l4xx_hal_tim_ex.c **** 
1310:Drivers/STM32L4xx_HAL_Driver/Src/stm32l4xx_hal_tim_ex.c ****     default:
1311:Drivers/STM32L4xx_HAL_Driver/Src/stm32l4xx_hal_tim_ex.c ****       status = HAL_ERROR;
 3582              		.loc 1 1311 14
 3583 005e 0123     		movs	r3, #1
 3584 0060 FB73     		strb	r3, [r7, #15]
1312:Drivers/STM32L4xx_HAL_Driver/Src/stm32l4xx_hal_tim_ex.c ****       break;
 3585              		.loc 1 1312 7
 3586 0062 00BF     		nop
 3587              	.L252:
1313:Drivers/STM32L4xx_HAL_Driver/Src/stm32l4xx_hal_tim_ex.c ****   }
1314:Drivers/STM32L4xx_HAL_Driver/Src/stm32l4xx_hal_tim_ex.c **** 
1315:Drivers/STM32L4xx_HAL_Driver/Src/stm32l4xx_hal_tim_ex.c ****   if (status == HAL_OK)
 3588              		.loc 1 1315 6
 3589 0064 FB7B     		ldrb	r3, [r7, #15]	@ zero_extendqisi2
 3590 0066 002B     		cmp	r3, #0
 3591 0068 64D1     		bne	.L253
1316:Drivers/STM32L4xx_HAL_Driver/Src/stm32l4xx_hal_tim_ex.c ****   {
1317:Drivers/STM32L4xx_HAL_Driver/Src/stm32l4xx_hal_tim_ex.c ****     /* Disable the complementary PWM output  */
1318:Drivers/STM32L4xx_HAL_Driver/Src/stm32l4xx_hal_tim_ex.c ****     TIM_CCxNChannelCmd(htim->Instance, Channel, TIM_CCxN_DISABLE);
 3592              		.loc 1 1318 5
 3593 006a 7B68     		ldr	r3, [r7, #4]
 3594 006c 1B68     		ldr	r3, [r3]
 3595 006e 0022     		movs	r2, #0
 3596 0070 3968     		ldr	r1, [r7]
 3597 0072 1846     		mov	r0, r3
 3598 0074 FFF7FEFF 		bl	TIM_CCxNChannelCmd
1319:Drivers/STM32L4xx_HAL_Driver/Src/stm32l4xx_hal_tim_ex.c **** 
1320:Drivers/STM32L4xx_HAL_Driver/Src/stm32l4xx_hal_tim_ex.c ****     /* Disable the TIM Break interrupt (only if no more channel is active) */
1321:Drivers/STM32L4xx_HAL_Driver/Src/stm32l4xx_hal_tim_ex.c ****     tmpccer = htim->Instance->CCER;
 3599              		.loc 1 1321 19
 3600 0078 7B68     		ldr	r3, [r7, #4]
 3601 007a 1B68     		ldr	r3, [r3]
 3602              		.loc 1 1321 13
ARM GAS  /tmp/ccR4xO3u.s 			page 87


 3603 007c 1B6A     		ldr	r3, [r3, #32]
 3604 007e BB60     		str	r3, [r7, #8]
1322:Drivers/STM32L4xx_HAL_Driver/Src/stm32l4xx_hal_tim_ex.c ****     if ((tmpccer & (TIM_CCER_CC1NE | TIM_CCER_CC2NE | TIM_CCER_CC3NE)) == (uint32_t)RESET)
 3605              		.loc 1 1322 18
 3606 0080 BA68     		ldr	r2, [r7, #8]
 3607 0082 40F24443 		movw	r3, #1092
 3608 0086 1340     		ands	r3, r3, r2
 3609              		.loc 1 1322 8
 3610 0088 002B     		cmp	r3, #0
 3611 008a 07D1     		bne	.L254
1323:Drivers/STM32L4xx_HAL_Driver/Src/stm32l4xx_hal_tim_ex.c ****     {
1324:Drivers/STM32L4xx_HAL_Driver/Src/stm32l4xx_hal_tim_ex.c ****       __HAL_TIM_DISABLE_IT(htim, TIM_IT_BREAK);
 3612              		.loc 1 1324 7
 3613 008c 7B68     		ldr	r3, [r7, #4]
 3614 008e 1B68     		ldr	r3, [r3]
 3615 0090 DA68     		ldr	r2, [r3, #12]
 3616 0092 7B68     		ldr	r3, [r7, #4]
 3617 0094 1B68     		ldr	r3, [r3]
 3618 0096 22F08002 		bic	r2, r2, #128
 3619 009a DA60     		str	r2, [r3, #12]
 3620              	.L254:
1325:Drivers/STM32L4xx_HAL_Driver/Src/stm32l4xx_hal_tim_ex.c ****     }
1326:Drivers/STM32L4xx_HAL_Driver/Src/stm32l4xx_hal_tim_ex.c **** 
1327:Drivers/STM32L4xx_HAL_Driver/Src/stm32l4xx_hal_tim_ex.c ****     /* Disable the Main Output */
1328:Drivers/STM32L4xx_HAL_Driver/Src/stm32l4xx_hal_tim_ex.c ****     __HAL_TIM_MOE_DISABLE(htim);
 3621              		.loc 1 1328 5
 3622 009c 7B68     		ldr	r3, [r7, #4]
 3623 009e 1B68     		ldr	r3, [r3]
 3624 00a0 1A6A     		ldr	r2, [r3, #32]
 3625 00a2 41F21113 		movw	r3, #4369
 3626 00a6 1340     		ands	r3, r3, r2
 3627 00a8 002B     		cmp	r3, #0
 3628 00aa 0FD1     		bne	.L255
 3629              		.loc 1 1328 5 is_stmt 0 discriminator 1
 3630 00ac 7B68     		ldr	r3, [r7, #4]
 3631 00ae 1B68     		ldr	r3, [r3]
 3632 00b0 1A6A     		ldr	r2, [r3, #32]
 3633 00b2 40F24443 		movw	r3, #1092
 3634 00b6 1340     		ands	r3, r3, r2
 3635 00b8 002B     		cmp	r3, #0
 3636 00ba 07D1     		bne	.L255
 3637              		.loc 1 1328 5 discriminator 2
 3638 00bc 7B68     		ldr	r3, [r7, #4]
 3639 00be 1B68     		ldr	r3, [r3]
 3640 00c0 5A6C     		ldr	r2, [r3, #68]
 3641 00c2 7B68     		ldr	r3, [r7, #4]
 3642 00c4 1B68     		ldr	r3, [r3]
 3643 00c6 22F40042 		bic	r2, r2, #32768
 3644 00ca 5A64     		str	r2, [r3, #68]
 3645              	.L255:
1329:Drivers/STM32L4xx_HAL_Driver/Src/stm32l4xx_hal_tim_ex.c **** 
1330:Drivers/STM32L4xx_HAL_Driver/Src/stm32l4xx_hal_tim_ex.c ****     /* Disable the Peripheral */
1331:Drivers/STM32L4xx_HAL_Driver/Src/stm32l4xx_hal_tim_ex.c ****     __HAL_TIM_DISABLE(htim);
 3646              		.loc 1 1331 5 is_stmt 1
 3647 00cc 7B68     		ldr	r3, [r7, #4]
 3648 00ce 1B68     		ldr	r3, [r3]
 3649 00d0 1A6A     		ldr	r2, [r3, #32]
ARM GAS  /tmp/ccR4xO3u.s 			page 88


 3650 00d2 41F21113 		movw	r3, #4369
 3651 00d6 1340     		ands	r3, r3, r2
 3652 00d8 002B     		cmp	r3, #0
 3653 00da 0FD1     		bne	.L256
 3654              		.loc 1 1331 5 is_stmt 0 discriminator 1
 3655 00dc 7B68     		ldr	r3, [r7, #4]
 3656 00de 1B68     		ldr	r3, [r3]
 3657 00e0 1A6A     		ldr	r2, [r3, #32]
 3658 00e2 40F24443 		movw	r3, #1092
 3659 00e6 1340     		ands	r3, r3, r2
 3660 00e8 002B     		cmp	r3, #0
 3661 00ea 07D1     		bne	.L256
 3662              		.loc 1 1331 5 discriminator 2
 3663 00ec 7B68     		ldr	r3, [r7, #4]
 3664 00ee 1B68     		ldr	r3, [r3]
 3665 00f0 1A68     		ldr	r2, [r3]
 3666 00f2 7B68     		ldr	r3, [r7, #4]
 3667 00f4 1B68     		ldr	r3, [r3]
 3668 00f6 22F00102 		bic	r2, r2, #1
 3669 00fa 1A60     		str	r2, [r3]
 3670              	.L256:
1332:Drivers/STM32L4xx_HAL_Driver/Src/stm32l4xx_hal_tim_ex.c **** 
1333:Drivers/STM32L4xx_HAL_Driver/Src/stm32l4xx_hal_tim_ex.c ****     /* Set the TIM complementary channel state */
1334:Drivers/STM32L4xx_HAL_Driver/Src/stm32l4xx_hal_tim_ex.c ****     TIM_CHANNEL_N_STATE_SET(htim, Channel, HAL_TIM_CHANNEL_STATE_READY);
 3671              		.loc 1 1334 5 is_stmt 1
 3672 00fc 3B68     		ldr	r3, [r7]
 3673 00fe 002B     		cmp	r3, #0
 3674 0100 04D1     		bne	.L257
 3675              		.loc 1 1334 5 is_stmt 0 discriminator 1
 3676 0102 7B68     		ldr	r3, [r7, #4]
 3677 0104 0122     		movs	r2, #1
 3678 0106 83F84420 		strb	r2, [r3, #68]
 3679 010a 13E0     		b	.L253
 3680              	.L257:
 3681              		.loc 1 1334 5 discriminator 2
 3682 010c 3B68     		ldr	r3, [r7]
 3683 010e 042B     		cmp	r3, #4
 3684 0110 04D1     		bne	.L258
 3685              		.loc 1 1334 5 discriminator 3
 3686 0112 7B68     		ldr	r3, [r7, #4]
 3687 0114 0122     		movs	r2, #1
 3688 0116 83F84520 		strb	r2, [r3, #69]
 3689 011a 0BE0     		b	.L253
 3690              	.L258:
 3691              		.loc 1 1334 5 discriminator 4
 3692 011c 3B68     		ldr	r3, [r7]
 3693 011e 082B     		cmp	r3, #8
 3694 0120 04D1     		bne	.L260
 3695              		.loc 1 1334 5 discriminator 6
 3696 0122 7B68     		ldr	r3, [r7, #4]
 3697 0124 0122     		movs	r2, #1
 3698 0126 83F84620 		strb	r2, [r3, #70]
 3699 012a 03E0     		b	.L253
 3700              	.L260:
 3701              		.loc 1 1334 5 discriminator 7
 3702 012c 7B68     		ldr	r3, [r7, #4]
 3703 012e 0122     		movs	r2, #1
ARM GAS  /tmp/ccR4xO3u.s 			page 89


 3704 0130 83F84720 		strb	r2, [r3, #71]
 3705              	.L253:
1335:Drivers/STM32L4xx_HAL_Driver/Src/stm32l4xx_hal_tim_ex.c ****   }
1336:Drivers/STM32L4xx_HAL_Driver/Src/stm32l4xx_hal_tim_ex.c **** 
1337:Drivers/STM32L4xx_HAL_Driver/Src/stm32l4xx_hal_tim_ex.c ****   /* Return function status */
1338:Drivers/STM32L4xx_HAL_Driver/Src/stm32l4xx_hal_tim_ex.c ****   return status;
 3706              		.loc 1 1338 10 is_stmt 1
 3707 0134 FB7B     		ldrb	r3, [r7, #15]	@ zero_extendqisi2
1339:Drivers/STM32L4xx_HAL_Driver/Src/stm32l4xx_hal_tim_ex.c **** }
 3708              		.loc 1 1339 1
 3709 0136 1846     		mov	r0, r3
 3710 0138 1037     		adds	r7, r7, #16
 3711              	.LCFI100:
 3712              		.cfi_def_cfa_offset 8
 3713 013a BD46     		mov	sp, r7
 3714              	.LCFI101:
 3715              		.cfi_def_cfa_register 13
 3716              		@ sp needed
 3717 013c 80BD     		pop	{r7, pc}
 3718              		.cfi_endproc
 3719              	.LFE151:
 3721              		.section	.text.HAL_TIMEx_PWMN_Start_DMA,"ax",%progbits
 3722              		.align	1
 3723              		.global	HAL_TIMEx_PWMN_Start_DMA
 3724              		.syntax unified
 3725              		.thumb
 3726              		.thumb_func
 3728              	HAL_TIMEx_PWMN_Start_DMA:
 3729              	.LFB152:
1340:Drivers/STM32L4xx_HAL_Driver/Src/stm32l4xx_hal_tim_ex.c **** 
1341:Drivers/STM32L4xx_HAL_Driver/Src/stm32l4xx_hal_tim_ex.c **** /**
1342:Drivers/STM32L4xx_HAL_Driver/Src/stm32l4xx_hal_tim_ex.c ****   * @brief  Starts the TIM PWM signal generation in DMA mode on the
1343:Drivers/STM32L4xx_HAL_Driver/Src/stm32l4xx_hal_tim_ex.c ****   *         complementary output
1344:Drivers/STM32L4xx_HAL_Driver/Src/stm32l4xx_hal_tim_ex.c ****   * @param  htim TIM handle
1345:Drivers/STM32L4xx_HAL_Driver/Src/stm32l4xx_hal_tim_ex.c ****   * @param  Channel TIM Channel to be enabled
1346:Drivers/STM32L4xx_HAL_Driver/Src/stm32l4xx_hal_tim_ex.c ****   *          This parameter can be one of the following values:
1347:Drivers/STM32L4xx_HAL_Driver/Src/stm32l4xx_hal_tim_ex.c ****   *            @arg TIM_CHANNEL_1: TIM Channel 1 selected
1348:Drivers/STM32L4xx_HAL_Driver/Src/stm32l4xx_hal_tim_ex.c ****   *            @arg TIM_CHANNEL_2: TIM Channel 2 selected
1349:Drivers/STM32L4xx_HAL_Driver/Src/stm32l4xx_hal_tim_ex.c ****   *            @arg TIM_CHANNEL_3: TIM Channel 3 selected
1350:Drivers/STM32L4xx_HAL_Driver/Src/stm32l4xx_hal_tim_ex.c ****   * @param  pData The source Buffer address.
1351:Drivers/STM32L4xx_HAL_Driver/Src/stm32l4xx_hal_tim_ex.c ****   * @param  Length The length of data to be transferred from memory to TIM peripheral
1352:Drivers/STM32L4xx_HAL_Driver/Src/stm32l4xx_hal_tim_ex.c ****   * @retval HAL status
1353:Drivers/STM32L4xx_HAL_Driver/Src/stm32l4xx_hal_tim_ex.c ****   */
1354:Drivers/STM32L4xx_HAL_Driver/Src/stm32l4xx_hal_tim_ex.c **** HAL_StatusTypeDef HAL_TIMEx_PWMN_Start_DMA(TIM_HandleTypeDef *htim, uint32_t Channel, const uint32_
1355:Drivers/STM32L4xx_HAL_Driver/Src/stm32l4xx_hal_tim_ex.c ****                                            uint16_t Length)
1356:Drivers/STM32L4xx_HAL_Driver/Src/stm32l4xx_hal_tim_ex.c **** {
 3730              		.loc 1 1356 1
 3731              		.cfi_startproc
 3732              		@ args = 0, pretend = 0, frame = 24
 3733              		@ frame_needed = 1, uses_anonymous_args = 0
 3734 0000 80B5     		push	{r7, lr}
 3735              	.LCFI102:
 3736              		.cfi_def_cfa_offset 8
 3737              		.cfi_offset 7, -8
 3738              		.cfi_offset 14, -4
 3739 0002 86B0     		sub	sp, sp, #24
 3740              	.LCFI103:
ARM GAS  /tmp/ccR4xO3u.s 			page 90


 3741              		.cfi_def_cfa_offset 32
 3742 0004 00AF     		add	r7, sp, #0
 3743              	.LCFI104:
 3744              		.cfi_def_cfa_register 7
 3745 0006 F860     		str	r0, [r7, #12]
 3746 0008 B960     		str	r1, [r7, #8]
 3747 000a 7A60     		str	r2, [r7, #4]
 3748 000c 7B80     		strh	r3, [r7, #2]	@ movhi
1357:Drivers/STM32L4xx_HAL_Driver/Src/stm32l4xx_hal_tim_ex.c ****   HAL_StatusTypeDef status = HAL_OK;
 3749              		.loc 1 1357 21
 3750 000e 0023     		movs	r3, #0
 3751 0010 FB75     		strb	r3, [r7, #23]
1358:Drivers/STM32L4xx_HAL_Driver/Src/stm32l4xx_hal_tim_ex.c ****   uint32_t tmpsmcr;
1359:Drivers/STM32L4xx_HAL_Driver/Src/stm32l4xx_hal_tim_ex.c **** 
1360:Drivers/STM32L4xx_HAL_Driver/Src/stm32l4xx_hal_tim_ex.c ****   /* Check the parameters */
1361:Drivers/STM32L4xx_HAL_Driver/Src/stm32l4xx_hal_tim_ex.c ****   assert_param(IS_TIM_CCXN_INSTANCE(htim->Instance, Channel));
1362:Drivers/STM32L4xx_HAL_Driver/Src/stm32l4xx_hal_tim_ex.c **** 
1363:Drivers/STM32L4xx_HAL_Driver/Src/stm32l4xx_hal_tim_ex.c ****   /* Set the TIM complementary channel state */
1364:Drivers/STM32L4xx_HAL_Driver/Src/stm32l4xx_hal_tim_ex.c ****   if (TIM_CHANNEL_N_STATE_GET(htim, Channel) == HAL_TIM_CHANNEL_STATE_BUSY)
 3752              		.loc 1 1364 46
 3753 0012 BB68     		ldr	r3, [r7, #8]
 3754 0014 002B     		cmp	r3, #0
 3755 0016 09D1     		bne	.L264
 3756              		.loc 1 1364 7 discriminator 1
 3757 0018 FB68     		ldr	r3, [r7, #12]
 3758 001a 93F84430 		ldrb	r3, [r3, #68]
 3759 001e DBB2     		uxtb	r3, r3
 3760              		.loc 1 1364 46 discriminator 1
 3761 0020 022B     		cmp	r3, #2
 3762 0022 0CBF     		ite	eq
 3763 0024 0123     		moveq	r3, #1
 3764 0026 0023     		movne	r3, #0
 3765 0028 DBB2     		uxtb	r3, r3
 3766 002a 22E0     		b	.L265
 3767              	.L264:
 3768              		.loc 1 1364 46 is_stmt 0 discriminator 2
 3769 002c BB68     		ldr	r3, [r7, #8]
 3770 002e 042B     		cmp	r3, #4
 3771 0030 09D1     		bne	.L266
 3772              		.loc 1 1364 7 is_stmt 1 discriminator 4
 3773 0032 FB68     		ldr	r3, [r7, #12]
 3774 0034 93F84530 		ldrb	r3, [r3, #69]
 3775 0038 DBB2     		uxtb	r3, r3
 3776              		.loc 1 1364 46 discriminator 4
 3777 003a 022B     		cmp	r3, #2
 3778 003c 0CBF     		ite	eq
 3779 003e 0123     		moveq	r3, #1
 3780 0040 0023     		movne	r3, #0
 3781 0042 DBB2     		uxtb	r3, r3
 3782 0044 15E0     		b	.L265
 3783              	.L266:
 3784              		.loc 1 1364 46 is_stmt 0 discriminator 5
 3785 0046 BB68     		ldr	r3, [r7, #8]
 3786 0048 082B     		cmp	r3, #8
 3787 004a 09D1     		bne	.L268
 3788              		.loc 1 1364 7 is_stmt 1 discriminator 7
 3789 004c FB68     		ldr	r3, [r7, #12]
ARM GAS  /tmp/ccR4xO3u.s 			page 91


 3790 004e 93F84630 		ldrb	r3, [r3, #70]
 3791 0052 DBB2     		uxtb	r3, r3
 3792              		.loc 1 1364 46 discriminator 7
 3793 0054 022B     		cmp	r3, #2
 3794 0056 0CBF     		ite	eq
 3795 0058 0123     		moveq	r3, #1
 3796 005a 0023     		movne	r3, #0
 3797 005c DBB2     		uxtb	r3, r3
 3798 005e 08E0     		b	.L265
 3799              	.L268:
 3800              		.loc 1 1364 7 discriminator 8
 3801 0060 FB68     		ldr	r3, [r7, #12]
 3802 0062 93F84730 		ldrb	r3, [r3, #71]
 3803 0066 DBB2     		uxtb	r3, r3
 3804              		.loc 1 1364 46 discriminator 8
 3805 0068 022B     		cmp	r3, #2
 3806 006a 0CBF     		ite	eq
 3807 006c 0123     		moveq	r3, #1
 3808 006e 0023     		movne	r3, #0
 3809 0070 DBB2     		uxtb	r3, r3
 3810              	.L265:
 3811              		.loc 1 1364 6 discriminator 12
 3812 0072 002B     		cmp	r3, #0
 3813 0074 01D0     		beq	.L270
1365:Drivers/STM32L4xx_HAL_Driver/Src/stm32l4xx_hal_tim_ex.c ****   {
1366:Drivers/STM32L4xx_HAL_Driver/Src/stm32l4xx_hal_tim_ex.c ****     return HAL_BUSY;
 3814              		.loc 1 1366 12
 3815 0076 0223     		movs	r3, #2
 3816 0078 16E1     		b	.L271
 3817              	.L270:
1367:Drivers/STM32L4xx_HAL_Driver/Src/stm32l4xx_hal_tim_ex.c ****   }
1368:Drivers/STM32L4xx_HAL_Driver/Src/stm32l4xx_hal_tim_ex.c ****   else if (TIM_CHANNEL_N_STATE_GET(htim, Channel) == HAL_TIM_CHANNEL_STATE_READY)
 3818              		.loc 1 1368 51
 3819 007a BB68     		ldr	r3, [r7, #8]
 3820 007c 002B     		cmp	r3, #0
 3821 007e 09D1     		bne	.L272
 3822              		.loc 1 1368 12 discriminator 1
 3823 0080 FB68     		ldr	r3, [r7, #12]
 3824 0082 93F84430 		ldrb	r3, [r3, #68]
 3825 0086 DBB2     		uxtb	r3, r3
 3826              		.loc 1 1368 51 discriminator 1
 3827 0088 012B     		cmp	r3, #1
 3828 008a 0CBF     		ite	eq
 3829 008c 0123     		moveq	r3, #1
 3830 008e 0023     		movne	r3, #0
 3831 0090 DBB2     		uxtb	r3, r3
 3832 0092 22E0     		b	.L273
 3833              	.L272:
 3834              		.loc 1 1368 51 is_stmt 0 discriminator 2
 3835 0094 BB68     		ldr	r3, [r7, #8]
 3836 0096 042B     		cmp	r3, #4
 3837 0098 09D1     		bne	.L274
 3838              		.loc 1 1368 12 is_stmt 1 discriminator 4
 3839 009a FB68     		ldr	r3, [r7, #12]
 3840 009c 93F84530 		ldrb	r3, [r3, #69]
 3841 00a0 DBB2     		uxtb	r3, r3
 3842              		.loc 1 1368 51 discriminator 4
ARM GAS  /tmp/ccR4xO3u.s 			page 92


 3843 00a2 012B     		cmp	r3, #1
 3844 00a4 0CBF     		ite	eq
 3845 00a6 0123     		moveq	r3, #1
 3846 00a8 0023     		movne	r3, #0
 3847 00aa DBB2     		uxtb	r3, r3
 3848 00ac 15E0     		b	.L273
 3849              	.L274:
 3850              		.loc 1 1368 51 is_stmt 0 discriminator 5
 3851 00ae BB68     		ldr	r3, [r7, #8]
 3852 00b0 082B     		cmp	r3, #8
 3853 00b2 09D1     		bne	.L276
 3854              		.loc 1 1368 12 is_stmt 1 discriminator 7
 3855 00b4 FB68     		ldr	r3, [r7, #12]
 3856 00b6 93F84630 		ldrb	r3, [r3, #70]
 3857 00ba DBB2     		uxtb	r3, r3
 3858              		.loc 1 1368 51 discriminator 7
 3859 00bc 012B     		cmp	r3, #1
 3860 00be 0CBF     		ite	eq
 3861 00c0 0123     		moveq	r3, #1
 3862 00c2 0023     		movne	r3, #0
 3863 00c4 DBB2     		uxtb	r3, r3
 3864 00c6 08E0     		b	.L273
 3865              	.L276:
 3866              		.loc 1 1368 12 discriminator 8
 3867 00c8 FB68     		ldr	r3, [r7, #12]
 3868 00ca 93F84730 		ldrb	r3, [r3, #71]
 3869 00ce DBB2     		uxtb	r3, r3
 3870              		.loc 1 1368 51 discriminator 8
 3871 00d0 012B     		cmp	r3, #1
 3872 00d2 0CBF     		ite	eq
 3873 00d4 0123     		moveq	r3, #1
 3874 00d6 0023     		movne	r3, #0
 3875 00d8 DBB2     		uxtb	r3, r3
 3876              	.L273:
 3877              		.loc 1 1368 11 discriminator 12
 3878 00da 002B     		cmp	r3, #0
 3879 00dc 24D0     		beq	.L278
1369:Drivers/STM32L4xx_HAL_Driver/Src/stm32l4xx_hal_tim_ex.c ****   {
1370:Drivers/STM32L4xx_HAL_Driver/Src/stm32l4xx_hal_tim_ex.c ****     if ((pData == NULL) || (Length == 0U))
 3880              		.loc 1 1370 8
 3881 00de 7B68     		ldr	r3, [r7, #4]
 3882 00e0 002B     		cmp	r3, #0
 3883 00e2 02D0     		beq	.L279
 3884              		.loc 1 1370 25 discriminator 1
 3885 00e4 7B88     		ldrh	r3, [r7, #2]
 3886 00e6 002B     		cmp	r3, #0
 3887 00e8 01D1     		bne	.L280
 3888              	.L279:
1371:Drivers/STM32L4xx_HAL_Driver/Src/stm32l4xx_hal_tim_ex.c ****     {
1372:Drivers/STM32L4xx_HAL_Driver/Src/stm32l4xx_hal_tim_ex.c ****       return HAL_ERROR;
 3889              		.loc 1 1372 14
 3890 00ea 0123     		movs	r3, #1
 3891 00ec DCE0     		b	.L271
 3892              	.L280:
1373:Drivers/STM32L4xx_HAL_Driver/Src/stm32l4xx_hal_tim_ex.c ****     }
1374:Drivers/STM32L4xx_HAL_Driver/Src/stm32l4xx_hal_tim_ex.c ****     else
1375:Drivers/STM32L4xx_HAL_Driver/Src/stm32l4xx_hal_tim_ex.c ****     {
ARM GAS  /tmp/ccR4xO3u.s 			page 93


1376:Drivers/STM32L4xx_HAL_Driver/Src/stm32l4xx_hal_tim_ex.c ****       TIM_CHANNEL_N_STATE_SET(htim, Channel, HAL_TIM_CHANNEL_STATE_BUSY);
 3893              		.loc 1 1376 7
 3894 00ee BB68     		ldr	r3, [r7, #8]
 3895 00f0 002B     		cmp	r3, #0
 3896 00f2 04D1     		bne	.L281
 3897              		.loc 1 1376 7 is_stmt 0 discriminator 1
 3898 00f4 FB68     		ldr	r3, [r7, #12]
 3899 00f6 0222     		movs	r2, #2
 3900 00f8 83F84420 		strb	r2, [r3, #68]
 3901 00fc 16E0     		b	.L282
 3902              	.L281:
 3903              		.loc 1 1376 7 discriminator 2
 3904 00fe BB68     		ldr	r3, [r7, #8]
 3905 0100 042B     		cmp	r3, #4
 3906 0102 04D1     		bne	.L283
 3907              		.loc 1 1376 7 discriminator 3
 3908 0104 FB68     		ldr	r3, [r7, #12]
 3909 0106 0222     		movs	r2, #2
 3910 0108 83F84520 		strb	r2, [r3, #69]
 3911 010c 0EE0     		b	.L282
 3912              	.L283:
 3913              		.loc 1 1376 7 discriminator 4
 3914 010e BB68     		ldr	r3, [r7, #8]
 3915 0110 082B     		cmp	r3, #8
 3916 0112 04D1     		bne	.L285
 3917              		.loc 1 1376 7 discriminator 6
 3918 0114 FB68     		ldr	r3, [r7, #12]
 3919 0116 0222     		movs	r2, #2
 3920 0118 83F84620 		strb	r2, [r3, #70]
 3921 011c 06E0     		b	.L282
 3922              	.L285:
 3923              		.loc 1 1376 7 discriminator 7
 3924 011e FB68     		ldr	r3, [r7, #12]
 3925 0120 0222     		movs	r2, #2
 3926 0122 83F84720 		strb	r2, [r3, #71]
 3927 0126 01E0     		b	.L282
 3928              	.L278:
1377:Drivers/STM32L4xx_HAL_Driver/Src/stm32l4xx_hal_tim_ex.c ****     }
1378:Drivers/STM32L4xx_HAL_Driver/Src/stm32l4xx_hal_tim_ex.c ****   }
1379:Drivers/STM32L4xx_HAL_Driver/Src/stm32l4xx_hal_tim_ex.c ****   else
1380:Drivers/STM32L4xx_HAL_Driver/Src/stm32l4xx_hal_tim_ex.c ****   {
1381:Drivers/STM32L4xx_HAL_Driver/Src/stm32l4xx_hal_tim_ex.c ****     return HAL_ERROR;
 3929              		.loc 1 1381 12 is_stmt 1
 3930 0128 0123     		movs	r3, #1
 3931 012a BDE0     		b	.L271
 3932              	.L282:
1382:Drivers/STM32L4xx_HAL_Driver/Src/stm32l4xx_hal_tim_ex.c ****   }
1383:Drivers/STM32L4xx_HAL_Driver/Src/stm32l4xx_hal_tim_ex.c **** 
1384:Drivers/STM32L4xx_HAL_Driver/Src/stm32l4xx_hal_tim_ex.c ****   switch (Channel)
 3933              		.loc 1 1384 3
 3934 012c BB68     		ldr	r3, [r7, #8]
 3935 012e 082B     		cmp	r3, #8
 3936 0130 51D0     		beq	.L287
 3937 0132 BB68     		ldr	r3, [r7, #8]
 3938 0134 082B     		cmp	r3, #8
 3939 0136 72D8     		bhi	.L288
 3940 0138 BB68     		ldr	r3, [r7, #8]
ARM GAS  /tmp/ccR4xO3u.s 			page 94


 3941 013a 002B     		cmp	r3, #0
 3942 013c 03D0     		beq	.L289
 3943 013e BB68     		ldr	r3, [r7, #8]
 3944 0140 042B     		cmp	r3, #4
 3945 0142 24D0     		beq	.L290
 3946 0144 6BE0     		b	.L288
 3947              	.L289:
1385:Drivers/STM32L4xx_HAL_Driver/Src/stm32l4xx_hal_tim_ex.c ****   {
1386:Drivers/STM32L4xx_HAL_Driver/Src/stm32l4xx_hal_tim_ex.c ****     case TIM_CHANNEL_1:
1387:Drivers/STM32L4xx_HAL_Driver/Src/stm32l4xx_hal_tim_ex.c ****     {
1388:Drivers/STM32L4xx_HAL_Driver/Src/stm32l4xx_hal_tim_ex.c ****       /* Set the DMA compare callbacks */
1389:Drivers/STM32L4xx_HAL_Driver/Src/stm32l4xx_hal_tim_ex.c ****       htim->hdma[TIM_DMA_ID_CC1]->XferCpltCallback = TIM_DMADelayPulseNCplt;
 3948              		.loc 1 1389 17
 3949 0146 FB68     		ldr	r3, [r7, #12]
 3950 0148 5B6A     		ldr	r3, [r3, #36]
 3951              		.loc 1 1389 52
 3952 014a 594A     		ldr	r2, .L300
 3953 014c DA62     		str	r2, [r3, #44]
1390:Drivers/STM32L4xx_HAL_Driver/Src/stm32l4xx_hal_tim_ex.c ****       htim->hdma[TIM_DMA_ID_CC1]->XferHalfCpltCallback = TIM_DMADelayPulseHalfCplt;
 3954              		.loc 1 1390 17
 3955 014e FB68     		ldr	r3, [r7, #12]
 3956 0150 5B6A     		ldr	r3, [r3, #36]
 3957              		.loc 1 1390 56
 3958 0152 584A     		ldr	r2, .L300+4
 3959 0154 1A63     		str	r2, [r3, #48]
1391:Drivers/STM32L4xx_HAL_Driver/Src/stm32l4xx_hal_tim_ex.c **** 
1392:Drivers/STM32L4xx_HAL_Driver/Src/stm32l4xx_hal_tim_ex.c ****       /* Set the DMA error callback */
1393:Drivers/STM32L4xx_HAL_Driver/Src/stm32l4xx_hal_tim_ex.c ****       htim->hdma[TIM_DMA_ID_CC1]->XferErrorCallback = TIM_DMAErrorCCxN ;
 3960              		.loc 1 1393 17
 3961 0156 FB68     		ldr	r3, [r7, #12]
 3962 0158 5B6A     		ldr	r3, [r3, #36]
 3963              		.loc 1 1393 53
 3964 015a 574A     		ldr	r2, .L300+8
 3965 015c 5A63     		str	r2, [r3, #52]
1394:Drivers/STM32L4xx_HAL_Driver/Src/stm32l4xx_hal_tim_ex.c **** 
1395:Drivers/STM32L4xx_HAL_Driver/Src/stm32l4xx_hal_tim_ex.c ****       /* Enable the DMA channel */
1396:Drivers/STM32L4xx_HAL_Driver/Src/stm32l4xx_hal_tim_ex.c ****       if (HAL_DMA_Start_IT(htim->hdma[TIM_DMA_ID_CC1], (uint32_t)pData, (uint32_t)&htim->Instance->
 3966              		.loc 1 1396 11
 3967 015e FB68     		ldr	r3, [r7, #12]
 3968 0160 586A     		ldr	r0, [r3, #36]
 3969 0162 7968     		ldr	r1, [r7, #4]
 3970              		.loc 1 1396 88
 3971 0164 FB68     		ldr	r3, [r7, #12]
 3972 0166 1B68     		ldr	r3, [r3]
 3973              		.loc 1 1396 83
 3974 0168 3433     		adds	r3, r3, #52
 3975              		.loc 1 1396 11
 3976 016a 1A46     		mov	r2, r3
 3977 016c 7B88     		ldrh	r3, [r7, #2]
 3978 016e FFF7FEFF 		bl	HAL_DMA_Start_IT
 3979 0172 0346     		mov	r3, r0
 3980              		.loc 1 1396 10
 3981 0174 002B     		cmp	r3, #0
 3982 0176 01D0     		beq	.L291
1397:Drivers/STM32L4xx_HAL_Driver/Src/stm32l4xx_hal_tim_ex.c ****                            Length) != HAL_OK)
1398:Drivers/STM32L4xx_HAL_Driver/Src/stm32l4xx_hal_tim_ex.c ****       {
1399:Drivers/STM32L4xx_HAL_Driver/Src/stm32l4xx_hal_tim_ex.c ****         /* Return error status */
ARM GAS  /tmp/ccR4xO3u.s 			page 95


1400:Drivers/STM32L4xx_HAL_Driver/Src/stm32l4xx_hal_tim_ex.c ****         return HAL_ERROR;
 3983              		.loc 1 1400 16
 3984 0178 0123     		movs	r3, #1
 3985 017a 95E0     		b	.L271
 3986              	.L291:
1401:Drivers/STM32L4xx_HAL_Driver/Src/stm32l4xx_hal_tim_ex.c ****       }
1402:Drivers/STM32L4xx_HAL_Driver/Src/stm32l4xx_hal_tim_ex.c ****       /* Enable the TIM Capture/Compare 1 DMA request */
1403:Drivers/STM32L4xx_HAL_Driver/Src/stm32l4xx_hal_tim_ex.c ****       __HAL_TIM_ENABLE_DMA(htim, TIM_DMA_CC1);
 3987              		.loc 1 1403 7
 3988 017c FB68     		ldr	r3, [r7, #12]
 3989 017e 1B68     		ldr	r3, [r3]
 3990 0180 DA68     		ldr	r2, [r3, #12]
 3991 0182 FB68     		ldr	r3, [r7, #12]
 3992 0184 1B68     		ldr	r3, [r3]
 3993 0186 42F40072 		orr	r2, r2, #512
 3994 018a DA60     		str	r2, [r3, #12]
1404:Drivers/STM32L4xx_HAL_Driver/Src/stm32l4xx_hal_tim_ex.c ****       break;
 3995              		.loc 1 1404 7
 3996 018c 4AE0     		b	.L292
 3997              	.L290:
1405:Drivers/STM32L4xx_HAL_Driver/Src/stm32l4xx_hal_tim_ex.c ****     }
1406:Drivers/STM32L4xx_HAL_Driver/Src/stm32l4xx_hal_tim_ex.c **** 
1407:Drivers/STM32L4xx_HAL_Driver/Src/stm32l4xx_hal_tim_ex.c ****     case TIM_CHANNEL_2:
1408:Drivers/STM32L4xx_HAL_Driver/Src/stm32l4xx_hal_tim_ex.c ****     {
1409:Drivers/STM32L4xx_HAL_Driver/Src/stm32l4xx_hal_tim_ex.c ****       /* Set the DMA compare callbacks */
1410:Drivers/STM32L4xx_HAL_Driver/Src/stm32l4xx_hal_tim_ex.c ****       htim->hdma[TIM_DMA_ID_CC2]->XferCpltCallback = TIM_DMADelayPulseNCplt;
 3998              		.loc 1 1410 17
 3999 018e FB68     		ldr	r3, [r7, #12]
 4000 0190 9B6A     		ldr	r3, [r3, #40]
 4001              		.loc 1 1410 52
 4002 0192 474A     		ldr	r2, .L300
 4003 0194 DA62     		str	r2, [r3, #44]
1411:Drivers/STM32L4xx_HAL_Driver/Src/stm32l4xx_hal_tim_ex.c ****       htim->hdma[TIM_DMA_ID_CC2]->XferHalfCpltCallback = TIM_DMADelayPulseHalfCplt;
 4004              		.loc 1 1411 17
 4005 0196 FB68     		ldr	r3, [r7, #12]
 4006 0198 9B6A     		ldr	r3, [r3, #40]
 4007              		.loc 1 1411 56
 4008 019a 464A     		ldr	r2, .L300+4
 4009 019c 1A63     		str	r2, [r3, #48]
1412:Drivers/STM32L4xx_HAL_Driver/Src/stm32l4xx_hal_tim_ex.c **** 
1413:Drivers/STM32L4xx_HAL_Driver/Src/stm32l4xx_hal_tim_ex.c ****       /* Set the DMA error callback */
1414:Drivers/STM32L4xx_HAL_Driver/Src/stm32l4xx_hal_tim_ex.c ****       htim->hdma[TIM_DMA_ID_CC2]->XferErrorCallback = TIM_DMAErrorCCxN ;
 4010              		.loc 1 1414 17
 4011 019e FB68     		ldr	r3, [r7, #12]
 4012 01a0 9B6A     		ldr	r3, [r3, #40]
 4013              		.loc 1 1414 53
 4014 01a2 454A     		ldr	r2, .L300+8
 4015 01a4 5A63     		str	r2, [r3, #52]
1415:Drivers/STM32L4xx_HAL_Driver/Src/stm32l4xx_hal_tim_ex.c **** 
1416:Drivers/STM32L4xx_HAL_Driver/Src/stm32l4xx_hal_tim_ex.c ****       /* Enable the DMA channel */
1417:Drivers/STM32L4xx_HAL_Driver/Src/stm32l4xx_hal_tim_ex.c ****       if (HAL_DMA_Start_IT(htim->hdma[TIM_DMA_ID_CC2], (uint32_t)pData, (uint32_t)&htim->Instance->
 4016              		.loc 1 1417 11
 4017 01a6 FB68     		ldr	r3, [r7, #12]
 4018 01a8 986A     		ldr	r0, [r3, #40]
 4019 01aa 7968     		ldr	r1, [r7, #4]
 4020              		.loc 1 1417 88
 4021 01ac FB68     		ldr	r3, [r7, #12]
ARM GAS  /tmp/ccR4xO3u.s 			page 96


 4022 01ae 1B68     		ldr	r3, [r3]
 4023              		.loc 1 1417 83
 4024 01b0 3833     		adds	r3, r3, #56
 4025              		.loc 1 1417 11
 4026 01b2 1A46     		mov	r2, r3
 4027 01b4 7B88     		ldrh	r3, [r7, #2]
 4028 01b6 FFF7FEFF 		bl	HAL_DMA_Start_IT
 4029 01ba 0346     		mov	r3, r0
 4030              		.loc 1 1417 10
 4031 01bc 002B     		cmp	r3, #0
 4032 01be 01D0     		beq	.L293
1418:Drivers/STM32L4xx_HAL_Driver/Src/stm32l4xx_hal_tim_ex.c ****                            Length) != HAL_OK)
1419:Drivers/STM32L4xx_HAL_Driver/Src/stm32l4xx_hal_tim_ex.c ****       {
1420:Drivers/STM32L4xx_HAL_Driver/Src/stm32l4xx_hal_tim_ex.c ****         /* Return error status */
1421:Drivers/STM32L4xx_HAL_Driver/Src/stm32l4xx_hal_tim_ex.c ****         return HAL_ERROR;
 4033              		.loc 1 1421 16
 4034 01c0 0123     		movs	r3, #1
 4035 01c2 71E0     		b	.L271
 4036              	.L293:
1422:Drivers/STM32L4xx_HAL_Driver/Src/stm32l4xx_hal_tim_ex.c ****       }
1423:Drivers/STM32L4xx_HAL_Driver/Src/stm32l4xx_hal_tim_ex.c ****       /* Enable the TIM Capture/Compare 2 DMA request */
1424:Drivers/STM32L4xx_HAL_Driver/Src/stm32l4xx_hal_tim_ex.c ****       __HAL_TIM_ENABLE_DMA(htim, TIM_DMA_CC2);
 4037              		.loc 1 1424 7
 4038 01c4 FB68     		ldr	r3, [r7, #12]
 4039 01c6 1B68     		ldr	r3, [r3]
 4040 01c8 DA68     		ldr	r2, [r3, #12]
 4041 01ca FB68     		ldr	r3, [r7, #12]
 4042 01cc 1B68     		ldr	r3, [r3]
 4043 01ce 42F48062 		orr	r2, r2, #1024
 4044 01d2 DA60     		str	r2, [r3, #12]
1425:Drivers/STM32L4xx_HAL_Driver/Src/stm32l4xx_hal_tim_ex.c ****       break;
 4045              		.loc 1 1425 7
 4046 01d4 26E0     		b	.L292
 4047              	.L287:
1426:Drivers/STM32L4xx_HAL_Driver/Src/stm32l4xx_hal_tim_ex.c ****     }
1427:Drivers/STM32L4xx_HAL_Driver/Src/stm32l4xx_hal_tim_ex.c **** 
1428:Drivers/STM32L4xx_HAL_Driver/Src/stm32l4xx_hal_tim_ex.c ****     case TIM_CHANNEL_3:
1429:Drivers/STM32L4xx_HAL_Driver/Src/stm32l4xx_hal_tim_ex.c ****     {
1430:Drivers/STM32L4xx_HAL_Driver/Src/stm32l4xx_hal_tim_ex.c ****       /* Set the DMA compare callbacks */
1431:Drivers/STM32L4xx_HAL_Driver/Src/stm32l4xx_hal_tim_ex.c ****       htim->hdma[TIM_DMA_ID_CC3]->XferCpltCallback = TIM_DMADelayPulseNCplt;
 4048              		.loc 1 1431 17
 4049 01d6 FB68     		ldr	r3, [r7, #12]
 4050 01d8 DB6A     		ldr	r3, [r3, #44]
 4051              		.loc 1 1431 52
 4052 01da 354A     		ldr	r2, .L300
 4053 01dc DA62     		str	r2, [r3, #44]
1432:Drivers/STM32L4xx_HAL_Driver/Src/stm32l4xx_hal_tim_ex.c ****       htim->hdma[TIM_DMA_ID_CC3]->XferHalfCpltCallback = TIM_DMADelayPulseHalfCplt;
 4054              		.loc 1 1432 17
 4055 01de FB68     		ldr	r3, [r7, #12]
 4056 01e0 DB6A     		ldr	r3, [r3, #44]
 4057              		.loc 1 1432 56
 4058 01e2 344A     		ldr	r2, .L300+4
 4059 01e4 1A63     		str	r2, [r3, #48]
1433:Drivers/STM32L4xx_HAL_Driver/Src/stm32l4xx_hal_tim_ex.c **** 
1434:Drivers/STM32L4xx_HAL_Driver/Src/stm32l4xx_hal_tim_ex.c ****       /* Set the DMA error callback */
1435:Drivers/STM32L4xx_HAL_Driver/Src/stm32l4xx_hal_tim_ex.c ****       htim->hdma[TIM_DMA_ID_CC3]->XferErrorCallback = TIM_DMAErrorCCxN ;
 4060              		.loc 1 1435 17
ARM GAS  /tmp/ccR4xO3u.s 			page 97


 4061 01e6 FB68     		ldr	r3, [r7, #12]
 4062 01e8 DB6A     		ldr	r3, [r3, #44]
 4063              		.loc 1 1435 53
 4064 01ea 334A     		ldr	r2, .L300+8
 4065 01ec 5A63     		str	r2, [r3, #52]
1436:Drivers/STM32L4xx_HAL_Driver/Src/stm32l4xx_hal_tim_ex.c **** 
1437:Drivers/STM32L4xx_HAL_Driver/Src/stm32l4xx_hal_tim_ex.c ****       /* Enable the DMA channel */
1438:Drivers/STM32L4xx_HAL_Driver/Src/stm32l4xx_hal_tim_ex.c ****       if (HAL_DMA_Start_IT(htim->hdma[TIM_DMA_ID_CC3], (uint32_t)pData, (uint32_t)&htim->Instance->
 4066              		.loc 1 1438 11
 4067 01ee FB68     		ldr	r3, [r7, #12]
 4068 01f0 D86A     		ldr	r0, [r3, #44]
 4069 01f2 7968     		ldr	r1, [r7, #4]
 4070              		.loc 1 1438 88
 4071 01f4 FB68     		ldr	r3, [r7, #12]
 4072 01f6 1B68     		ldr	r3, [r3]
 4073              		.loc 1 1438 83
 4074 01f8 3C33     		adds	r3, r3, #60
 4075              		.loc 1 1438 11
 4076 01fa 1A46     		mov	r2, r3
 4077 01fc 7B88     		ldrh	r3, [r7, #2]
 4078 01fe FFF7FEFF 		bl	HAL_DMA_Start_IT
 4079 0202 0346     		mov	r3, r0
 4080              		.loc 1 1438 10
 4081 0204 002B     		cmp	r3, #0
 4082 0206 01D0     		beq	.L294
1439:Drivers/STM32L4xx_HAL_Driver/Src/stm32l4xx_hal_tim_ex.c ****                            Length) != HAL_OK)
1440:Drivers/STM32L4xx_HAL_Driver/Src/stm32l4xx_hal_tim_ex.c ****       {
1441:Drivers/STM32L4xx_HAL_Driver/Src/stm32l4xx_hal_tim_ex.c ****         /* Return error status */
1442:Drivers/STM32L4xx_HAL_Driver/Src/stm32l4xx_hal_tim_ex.c ****         return HAL_ERROR;
 4083              		.loc 1 1442 16
 4084 0208 0123     		movs	r3, #1
 4085 020a 4DE0     		b	.L271
 4086              	.L294:
1443:Drivers/STM32L4xx_HAL_Driver/Src/stm32l4xx_hal_tim_ex.c ****       }
1444:Drivers/STM32L4xx_HAL_Driver/Src/stm32l4xx_hal_tim_ex.c ****       /* Enable the TIM Capture/Compare 3 DMA request */
1445:Drivers/STM32L4xx_HAL_Driver/Src/stm32l4xx_hal_tim_ex.c ****       __HAL_TIM_ENABLE_DMA(htim, TIM_DMA_CC3);
 4087              		.loc 1 1445 7
 4088 020c FB68     		ldr	r3, [r7, #12]
 4089 020e 1B68     		ldr	r3, [r3]
 4090 0210 DA68     		ldr	r2, [r3, #12]
 4091 0212 FB68     		ldr	r3, [r7, #12]
 4092 0214 1B68     		ldr	r3, [r3]
 4093 0216 42F40062 		orr	r2, r2, #2048
 4094 021a DA60     		str	r2, [r3, #12]
1446:Drivers/STM32L4xx_HAL_Driver/Src/stm32l4xx_hal_tim_ex.c ****       break;
 4095              		.loc 1 1446 7
 4096 021c 02E0     		b	.L292
 4097              	.L288:
1447:Drivers/STM32L4xx_HAL_Driver/Src/stm32l4xx_hal_tim_ex.c ****     }
1448:Drivers/STM32L4xx_HAL_Driver/Src/stm32l4xx_hal_tim_ex.c **** 
1449:Drivers/STM32L4xx_HAL_Driver/Src/stm32l4xx_hal_tim_ex.c ****     default:
1450:Drivers/STM32L4xx_HAL_Driver/Src/stm32l4xx_hal_tim_ex.c ****       status = HAL_ERROR;
 4098              		.loc 1 1450 14
 4099 021e 0123     		movs	r3, #1
 4100 0220 FB75     		strb	r3, [r7, #23]
1451:Drivers/STM32L4xx_HAL_Driver/Src/stm32l4xx_hal_tim_ex.c ****       break;
 4101              		.loc 1 1451 7
ARM GAS  /tmp/ccR4xO3u.s 			page 98


 4102 0222 00BF     		nop
 4103              	.L292:
1452:Drivers/STM32L4xx_HAL_Driver/Src/stm32l4xx_hal_tim_ex.c ****   }
1453:Drivers/STM32L4xx_HAL_Driver/Src/stm32l4xx_hal_tim_ex.c **** 
1454:Drivers/STM32L4xx_HAL_Driver/Src/stm32l4xx_hal_tim_ex.c ****   if (status == HAL_OK)
 4104              		.loc 1 1454 6
 4105 0224 FB7D     		ldrb	r3, [r7, #23]	@ zero_extendqisi2
 4106 0226 002B     		cmp	r3, #0
 4107 0228 3DD1     		bne	.L295
1455:Drivers/STM32L4xx_HAL_Driver/Src/stm32l4xx_hal_tim_ex.c ****   {
1456:Drivers/STM32L4xx_HAL_Driver/Src/stm32l4xx_hal_tim_ex.c ****     /* Enable the complementary PWM output  */
1457:Drivers/STM32L4xx_HAL_Driver/Src/stm32l4xx_hal_tim_ex.c ****     TIM_CCxNChannelCmd(htim->Instance, Channel, TIM_CCxN_ENABLE);
 4108              		.loc 1 1457 5
 4109 022a FB68     		ldr	r3, [r7, #12]
 4110 022c 1B68     		ldr	r3, [r3]
 4111 022e 0422     		movs	r2, #4
 4112 0230 B968     		ldr	r1, [r7, #8]
 4113 0232 1846     		mov	r0, r3
 4114 0234 FFF7FEFF 		bl	TIM_CCxNChannelCmd
1458:Drivers/STM32L4xx_HAL_Driver/Src/stm32l4xx_hal_tim_ex.c **** 
1459:Drivers/STM32L4xx_HAL_Driver/Src/stm32l4xx_hal_tim_ex.c ****     /* Enable the Main Output */
1460:Drivers/STM32L4xx_HAL_Driver/Src/stm32l4xx_hal_tim_ex.c ****     __HAL_TIM_MOE_ENABLE(htim);
 4115              		.loc 1 1460 5
 4116 0238 FB68     		ldr	r3, [r7, #12]
 4117 023a 1B68     		ldr	r3, [r3]
 4118 023c 5A6C     		ldr	r2, [r3, #68]
 4119 023e FB68     		ldr	r3, [r7, #12]
 4120 0240 1B68     		ldr	r3, [r3]
 4121 0242 42F40042 		orr	r2, r2, #32768
 4122 0246 5A64     		str	r2, [r3, #68]
1461:Drivers/STM32L4xx_HAL_Driver/Src/stm32l4xx_hal_tim_ex.c **** 
1462:Drivers/STM32L4xx_HAL_Driver/Src/stm32l4xx_hal_tim_ex.c ****     /* Enable the Peripheral, except in trigger mode where enable is automatically done with trigge
1463:Drivers/STM32L4xx_HAL_Driver/Src/stm32l4xx_hal_tim_ex.c ****     if (IS_TIM_SLAVE_INSTANCE(htim->Instance))
 4123              		.loc 1 1463 9
 4124 0248 FB68     		ldr	r3, [r7, #12]
 4125 024a 1B68     		ldr	r3, [r3]
 4126              		.loc 1 1463 8
 4127 024c 1B4A     		ldr	r2, .L300+12
 4128 024e 9342     		cmp	r3, r2
 4129 0250 09D0     		beq	.L296
 4130              		.loc 1 1463 9 discriminator 1
 4131 0252 FB68     		ldr	r3, [r7, #12]
 4132 0254 1B68     		ldr	r3, [r3]
 4133 0256 B3F1804F 		cmp	r3, #1073741824
 4134 025a 04D0     		beq	.L296
 4135              		.loc 1 1463 9 is_stmt 0 discriminator 2
 4136 025c FB68     		ldr	r3, [r7, #12]
 4137 025e 1B68     		ldr	r3, [r3]
 4138 0260 174A     		ldr	r2, .L300+16
 4139 0262 9342     		cmp	r3, r2
 4140 0264 15D1     		bne	.L297
 4141              	.L296:
1464:Drivers/STM32L4xx_HAL_Driver/Src/stm32l4xx_hal_tim_ex.c ****     {
1465:Drivers/STM32L4xx_HAL_Driver/Src/stm32l4xx_hal_tim_ex.c ****       tmpsmcr = htim->Instance->SMCR & TIM_SMCR_SMS;
 4142              		.loc 1 1465 21 is_stmt 1
 4143 0266 FB68     		ldr	r3, [r7, #12]
 4144 0268 1B68     		ldr	r3, [r3]
ARM GAS  /tmp/ccR4xO3u.s 			page 99


 4145              		.loc 1 1465 31
 4146 026a 9A68     		ldr	r2, [r3, #8]
 4147              		.loc 1 1465 15
 4148 026c 154B     		ldr	r3, .L300+20
 4149 026e 1340     		ands	r3, r3, r2
 4150 0270 3B61     		str	r3, [r7, #16]
1466:Drivers/STM32L4xx_HAL_Driver/Src/stm32l4xx_hal_tim_ex.c ****       if (!IS_TIM_SLAVEMODE_TRIGGER_ENABLED(tmpsmcr))
 4151              		.loc 1 1466 10
 4152 0272 3B69     		ldr	r3, [r7, #16]
 4153 0274 062B     		cmp	r3, #6
 4154 0276 15D0     		beq	.L299
 4155              		.loc 1 1466 11 discriminator 1
 4156 0278 3B69     		ldr	r3, [r7, #16]
 4157 027a B3F5803F 		cmp	r3, #65536
 4158 027e 11D0     		beq	.L299
1467:Drivers/STM32L4xx_HAL_Driver/Src/stm32l4xx_hal_tim_ex.c ****       {
1468:Drivers/STM32L4xx_HAL_Driver/Src/stm32l4xx_hal_tim_ex.c ****         __HAL_TIM_ENABLE(htim);
 4159              		.loc 1 1468 9
 4160 0280 FB68     		ldr	r3, [r7, #12]
 4161 0282 1B68     		ldr	r3, [r3]
 4162 0284 1A68     		ldr	r2, [r3]
 4163 0286 FB68     		ldr	r3, [r7, #12]
 4164 0288 1B68     		ldr	r3, [r3]
 4165 028a 42F00102 		orr	r2, r2, #1
 4166 028e 1A60     		str	r2, [r3]
1466:Drivers/STM32L4xx_HAL_Driver/Src/stm32l4xx_hal_tim_ex.c ****       if (!IS_TIM_SLAVEMODE_TRIGGER_ENABLED(tmpsmcr))
 4167              		.loc 1 1466 10
 4168 0290 08E0     		b	.L299
 4169              	.L297:
1469:Drivers/STM32L4xx_HAL_Driver/Src/stm32l4xx_hal_tim_ex.c ****       }
1470:Drivers/STM32L4xx_HAL_Driver/Src/stm32l4xx_hal_tim_ex.c ****     }
1471:Drivers/STM32L4xx_HAL_Driver/Src/stm32l4xx_hal_tim_ex.c ****     else
1472:Drivers/STM32L4xx_HAL_Driver/Src/stm32l4xx_hal_tim_ex.c ****     {
1473:Drivers/STM32L4xx_HAL_Driver/Src/stm32l4xx_hal_tim_ex.c ****       __HAL_TIM_ENABLE(htim);
 4170              		.loc 1 1473 7
 4171 0292 FB68     		ldr	r3, [r7, #12]
 4172 0294 1B68     		ldr	r3, [r3]
 4173 0296 1A68     		ldr	r2, [r3]
 4174 0298 FB68     		ldr	r3, [r7, #12]
 4175 029a 1B68     		ldr	r3, [r3]
 4176 029c 42F00102 		orr	r2, r2, #1
 4177 02a0 1A60     		str	r2, [r3]
 4178 02a2 00E0     		b	.L295
 4179              	.L299:
1466:Drivers/STM32L4xx_HAL_Driver/Src/stm32l4xx_hal_tim_ex.c ****       {
 4180              		.loc 1 1466 10
 4181 02a4 00BF     		nop
 4182              	.L295:
1474:Drivers/STM32L4xx_HAL_Driver/Src/stm32l4xx_hal_tim_ex.c ****     }
1475:Drivers/STM32L4xx_HAL_Driver/Src/stm32l4xx_hal_tim_ex.c ****   }
1476:Drivers/STM32L4xx_HAL_Driver/Src/stm32l4xx_hal_tim_ex.c **** 
1477:Drivers/STM32L4xx_HAL_Driver/Src/stm32l4xx_hal_tim_ex.c ****   /* Return function status */
1478:Drivers/STM32L4xx_HAL_Driver/Src/stm32l4xx_hal_tim_ex.c ****   return status;
 4183              		.loc 1 1478 10
 4184 02a6 FB7D     		ldrb	r3, [r7, #23]	@ zero_extendqisi2
 4185              	.L271:
1479:Drivers/STM32L4xx_HAL_Driver/Src/stm32l4xx_hal_tim_ex.c **** }
ARM GAS  /tmp/ccR4xO3u.s 			page 100


 4186              		.loc 1 1479 1
 4187 02a8 1846     		mov	r0, r3
 4188 02aa 1837     		adds	r7, r7, #24
 4189              	.LCFI105:
 4190              		.cfi_def_cfa_offset 8
 4191 02ac BD46     		mov	sp, r7
 4192              	.LCFI106:
 4193              		.cfi_def_cfa_register 13
 4194              		@ sp needed
 4195 02ae 80BD     		pop	{r7, pc}
 4196              	.L301:
 4197              		.align	2
 4198              	.L300:
 4199 02b0 00000000 		.word	TIM_DMADelayPulseNCplt
 4200 02b4 00000000 		.word	TIM_DMADelayPulseHalfCplt
 4201 02b8 00000000 		.word	TIM_DMAErrorCCxN
 4202 02bc 002C0140 		.word	1073818624
 4203 02c0 00400140 		.word	1073823744
 4204 02c4 07000100 		.word	65543
 4205              		.cfi_endproc
 4206              	.LFE152:
 4208              		.section	.text.HAL_TIMEx_PWMN_Stop_DMA,"ax",%progbits
 4209              		.align	1
 4210              		.global	HAL_TIMEx_PWMN_Stop_DMA
 4211              		.syntax unified
 4212              		.thumb
 4213              		.thumb_func
 4215              	HAL_TIMEx_PWMN_Stop_DMA:
 4216              	.LFB153:
1480:Drivers/STM32L4xx_HAL_Driver/Src/stm32l4xx_hal_tim_ex.c **** 
1481:Drivers/STM32L4xx_HAL_Driver/Src/stm32l4xx_hal_tim_ex.c **** /**
1482:Drivers/STM32L4xx_HAL_Driver/Src/stm32l4xx_hal_tim_ex.c ****   * @brief  Stops the TIM PWM signal generation in DMA mode on the complementary
1483:Drivers/STM32L4xx_HAL_Driver/Src/stm32l4xx_hal_tim_ex.c ****   *         output
1484:Drivers/STM32L4xx_HAL_Driver/Src/stm32l4xx_hal_tim_ex.c ****   * @param  htim TIM handle
1485:Drivers/STM32L4xx_HAL_Driver/Src/stm32l4xx_hal_tim_ex.c ****   * @param  Channel TIM Channel to be disabled
1486:Drivers/STM32L4xx_HAL_Driver/Src/stm32l4xx_hal_tim_ex.c ****   *          This parameter can be one of the following values:
1487:Drivers/STM32L4xx_HAL_Driver/Src/stm32l4xx_hal_tim_ex.c ****   *            @arg TIM_CHANNEL_1: TIM Channel 1 selected
1488:Drivers/STM32L4xx_HAL_Driver/Src/stm32l4xx_hal_tim_ex.c ****   *            @arg TIM_CHANNEL_2: TIM Channel 2 selected
1489:Drivers/STM32L4xx_HAL_Driver/Src/stm32l4xx_hal_tim_ex.c ****   *            @arg TIM_CHANNEL_3: TIM Channel 3 selected
1490:Drivers/STM32L4xx_HAL_Driver/Src/stm32l4xx_hal_tim_ex.c ****   * @retval HAL status
1491:Drivers/STM32L4xx_HAL_Driver/Src/stm32l4xx_hal_tim_ex.c ****   */
1492:Drivers/STM32L4xx_HAL_Driver/Src/stm32l4xx_hal_tim_ex.c **** HAL_StatusTypeDef HAL_TIMEx_PWMN_Stop_DMA(TIM_HandleTypeDef *htim, uint32_t Channel)
1493:Drivers/STM32L4xx_HAL_Driver/Src/stm32l4xx_hal_tim_ex.c **** {
 4217              		.loc 1 1493 1
 4218              		.cfi_startproc
 4219              		@ args = 0, pretend = 0, frame = 16
 4220              		@ frame_needed = 1, uses_anonymous_args = 0
 4221 0000 80B5     		push	{r7, lr}
 4222              	.LCFI107:
 4223              		.cfi_def_cfa_offset 8
 4224              		.cfi_offset 7, -8
 4225              		.cfi_offset 14, -4
 4226 0002 84B0     		sub	sp, sp, #16
 4227              	.LCFI108:
 4228              		.cfi_def_cfa_offset 24
 4229 0004 00AF     		add	r7, sp, #0
 4230              	.LCFI109:
ARM GAS  /tmp/ccR4xO3u.s 			page 101


 4231              		.cfi_def_cfa_register 7
 4232 0006 7860     		str	r0, [r7, #4]
 4233 0008 3960     		str	r1, [r7]
1494:Drivers/STM32L4xx_HAL_Driver/Src/stm32l4xx_hal_tim_ex.c ****   HAL_StatusTypeDef status = HAL_OK;
 4234              		.loc 1 1494 21
 4235 000a 0023     		movs	r3, #0
 4236 000c FB73     		strb	r3, [r7, #15]
1495:Drivers/STM32L4xx_HAL_Driver/Src/stm32l4xx_hal_tim_ex.c **** 
1496:Drivers/STM32L4xx_HAL_Driver/Src/stm32l4xx_hal_tim_ex.c ****   /* Check the parameters */
1497:Drivers/STM32L4xx_HAL_Driver/Src/stm32l4xx_hal_tim_ex.c ****   assert_param(IS_TIM_CCXN_INSTANCE(htim->Instance, Channel));
1498:Drivers/STM32L4xx_HAL_Driver/Src/stm32l4xx_hal_tim_ex.c **** 
1499:Drivers/STM32L4xx_HAL_Driver/Src/stm32l4xx_hal_tim_ex.c ****   switch (Channel)
 4237              		.loc 1 1499 3
 4238 000e 3B68     		ldr	r3, [r7]
 4239 0010 082B     		cmp	r3, #8
 4240 0012 25D0     		beq	.L303
 4241 0014 3B68     		ldr	r3, [r7]
 4242 0016 082B     		cmp	r3, #8
 4243 0018 30D8     		bhi	.L304
 4244 001a 3B68     		ldr	r3, [r7]
 4245 001c 002B     		cmp	r3, #0
 4246 001e 03D0     		beq	.L305
 4247 0020 3B68     		ldr	r3, [r7]
 4248 0022 042B     		cmp	r3, #4
 4249 0024 0ED0     		beq	.L306
 4250 0026 29E0     		b	.L304
 4251              	.L305:
1500:Drivers/STM32L4xx_HAL_Driver/Src/stm32l4xx_hal_tim_ex.c ****   {
1501:Drivers/STM32L4xx_HAL_Driver/Src/stm32l4xx_hal_tim_ex.c ****     case TIM_CHANNEL_1:
1502:Drivers/STM32L4xx_HAL_Driver/Src/stm32l4xx_hal_tim_ex.c ****     {
1503:Drivers/STM32L4xx_HAL_Driver/Src/stm32l4xx_hal_tim_ex.c ****       /* Disable the TIM Capture/Compare 1 DMA request */
1504:Drivers/STM32L4xx_HAL_Driver/Src/stm32l4xx_hal_tim_ex.c ****       __HAL_TIM_DISABLE_DMA(htim, TIM_DMA_CC1);
 4252              		.loc 1 1504 7
 4253 0028 7B68     		ldr	r3, [r7, #4]
 4254 002a 1B68     		ldr	r3, [r3]
 4255 002c DA68     		ldr	r2, [r3, #12]
 4256 002e 7B68     		ldr	r3, [r7, #4]
 4257 0030 1B68     		ldr	r3, [r3]
 4258 0032 22F40072 		bic	r2, r2, #512
 4259 0036 DA60     		str	r2, [r3, #12]
1505:Drivers/STM32L4xx_HAL_Driver/Src/stm32l4xx_hal_tim_ex.c ****       (void)HAL_DMA_Abort_IT(htim->hdma[TIM_DMA_ID_CC1]);
 4260              		.loc 1 1505 13
 4261 0038 7B68     		ldr	r3, [r7, #4]
 4262 003a 5B6A     		ldr	r3, [r3, #36]
 4263 003c 1846     		mov	r0, r3
 4264 003e FFF7FEFF 		bl	HAL_DMA_Abort_IT
1506:Drivers/STM32L4xx_HAL_Driver/Src/stm32l4xx_hal_tim_ex.c ****       break;
 4265              		.loc 1 1506 7
 4266 0042 1EE0     		b	.L307
 4267              	.L306:
1507:Drivers/STM32L4xx_HAL_Driver/Src/stm32l4xx_hal_tim_ex.c ****     }
1508:Drivers/STM32L4xx_HAL_Driver/Src/stm32l4xx_hal_tim_ex.c **** 
1509:Drivers/STM32L4xx_HAL_Driver/Src/stm32l4xx_hal_tim_ex.c ****     case TIM_CHANNEL_2:
1510:Drivers/STM32L4xx_HAL_Driver/Src/stm32l4xx_hal_tim_ex.c ****     {
1511:Drivers/STM32L4xx_HAL_Driver/Src/stm32l4xx_hal_tim_ex.c ****       /* Disable the TIM Capture/Compare 2 DMA request */
1512:Drivers/STM32L4xx_HAL_Driver/Src/stm32l4xx_hal_tim_ex.c ****       __HAL_TIM_DISABLE_DMA(htim, TIM_DMA_CC2);
 4268              		.loc 1 1512 7
ARM GAS  /tmp/ccR4xO3u.s 			page 102


 4269 0044 7B68     		ldr	r3, [r7, #4]
 4270 0046 1B68     		ldr	r3, [r3]
 4271 0048 DA68     		ldr	r2, [r3, #12]
 4272 004a 7B68     		ldr	r3, [r7, #4]
 4273 004c 1B68     		ldr	r3, [r3]
 4274 004e 22F48062 		bic	r2, r2, #1024
 4275 0052 DA60     		str	r2, [r3, #12]
1513:Drivers/STM32L4xx_HAL_Driver/Src/stm32l4xx_hal_tim_ex.c ****       (void)HAL_DMA_Abort_IT(htim->hdma[TIM_DMA_ID_CC2]);
 4276              		.loc 1 1513 13
 4277 0054 7B68     		ldr	r3, [r7, #4]
 4278 0056 9B6A     		ldr	r3, [r3, #40]
 4279 0058 1846     		mov	r0, r3
 4280 005a FFF7FEFF 		bl	HAL_DMA_Abort_IT
1514:Drivers/STM32L4xx_HAL_Driver/Src/stm32l4xx_hal_tim_ex.c ****       break;
 4281              		.loc 1 1514 7
 4282 005e 10E0     		b	.L307
 4283              	.L303:
1515:Drivers/STM32L4xx_HAL_Driver/Src/stm32l4xx_hal_tim_ex.c ****     }
1516:Drivers/STM32L4xx_HAL_Driver/Src/stm32l4xx_hal_tim_ex.c **** 
1517:Drivers/STM32L4xx_HAL_Driver/Src/stm32l4xx_hal_tim_ex.c ****     case TIM_CHANNEL_3:
1518:Drivers/STM32L4xx_HAL_Driver/Src/stm32l4xx_hal_tim_ex.c ****     {
1519:Drivers/STM32L4xx_HAL_Driver/Src/stm32l4xx_hal_tim_ex.c ****       /* Disable the TIM Capture/Compare 3 DMA request */
1520:Drivers/STM32L4xx_HAL_Driver/Src/stm32l4xx_hal_tim_ex.c ****       __HAL_TIM_DISABLE_DMA(htim, TIM_DMA_CC3);
 4284              		.loc 1 1520 7
 4285 0060 7B68     		ldr	r3, [r7, #4]
 4286 0062 1B68     		ldr	r3, [r3]
 4287 0064 DA68     		ldr	r2, [r3, #12]
 4288 0066 7B68     		ldr	r3, [r7, #4]
 4289 0068 1B68     		ldr	r3, [r3]
 4290 006a 22F40062 		bic	r2, r2, #2048
 4291 006e DA60     		str	r2, [r3, #12]
1521:Drivers/STM32L4xx_HAL_Driver/Src/stm32l4xx_hal_tim_ex.c ****       (void)HAL_DMA_Abort_IT(htim->hdma[TIM_DMA_ID_CC3]);
 4292              		.loc 1 1521 13
 4293 0070 7B68     		ldr	r3, [r7, #4]
 4294 0072 DB6A     		ldr	r3, [r3, #44]
 4295 0074 1846     		mov	r0, r3
 4296 0076 FFF7FEFF 		bl	HAL_DMA_Abort_IT
1522:Drivers/STM32L4xx_HAL_Driver/Src/stm32l4xx_hal_tim_ex.c ****       break;
 4297              		.loc 1 1522 7
 4298 007a 02E0     		b	.L307
 4299              	.L304:
1523:Drivers/STM32L4xx_HAL_Driver/Src/stm32l4xx_hal_tim_ex.c ****     }
1524:Drivers/STM32L4xx_HAL_Driver/Src/stm32l4xx_hal_tim_ex.c **** 
1525:Drivers/STM32L4xx_HAL_Driver/Src/stm32l4xx_hal_tim_ex.c ****     default:
1526:Drivers/STM32L4xx_HAL_Driver/Src/stm32l4xx_hal_tim_ex.c ****       status = HAL_ERROR;
 4300              		.loc 1 1526 14
 4301 007c 0123     		movs	r3, #1
 4302 007e FB73     		strb	r3, [r7, #15]
1527:Drivers/STM32L4xx_HAL_Driver/Src/stm32l4xx_hal_tim_ex.c ****       break;
 4303              		.loc 1 1527 7
 4304 0080 00BF     		nop
 4305              	.L307:
1528:Drivers/STM32L4xx_HAL_Driver/Src/stm32l4xx_hal_tim_ex.c ****   }
1529:Drivers/STM32L4xx_HAL_Driver/Src/stm32l4xx_hal_tim_ex.c **** 
1530:Drivers/STM32L4xx_HAL_Driver/Src/stm32l4xx_hal_tim_ex.c ****   if (status == HAL_OK)
 4306              		.loc 1 1530 6
 4307 0082 FB7B     		ldrb	r3, [r7, #15]	@ zero_extendqisi2
ARM GAS  /tmp/ccR4xO3u.s 			page 103


 4308 0084 002B     		cmp	r3, #0
 4309 0086 52D1     		bne	.L308
1531:Drivers/STM32L4xx_HAL_Driver/Src/stm32l4xx_hal_tim_ex.c ****   {
1532:Drivers/STM32L4xx_HAL_Driver/Src/stm32l4xx_hal_tim_ex.c ****     /* Disable the complementary PWM output */
1533:Drivers/STM32L4xx_HAL_Driver/Src/stm32l4xx_hal_tim_ex.c ****     TIM_CCxNChannelCmd(htim->Instance, Channel, TIM_CCxN_DISABLE);
 4310              		.loc 1 1533 5
 4311 0088 7B68     		ldr	r3, [r7, #4]
 4312 008a 1B68     		ldr	r3, [r3]
 4313 008c 0022     		movs	r2, #0
 4314 008e 3968     		ldr	r1, [r7]
 4315 0090 1846     		mov	r0, r3
 4316 0092 FFF7FEFF 		bl	TIM_CCxNChannelCmd
1534:Drivers/STM32L4xx_HAL_Driver/Src/stm32l4xx_hal_tim_ex.c **** 
1535:Drivers/STM32L4xx_HAL_Driver/Src/stm32l4xx_hal_tim_ex.c ****     /* Disable the Main Output */
1536:Drivers/STM32L4xx_HAL_Driver/Src/stm32l4xx_hal_tim_ex.c ****     __HAL_TIM_MOE_DISABLE(htim);
 4317              		.loc 1 1536 5
 4318 0096 7B68     		ldr	r3, [r7, #4]
 4319 0098 1B68     		ldr	r3, [r3]
 4320 009a 1A6A     		ldr	r2, [r3, #32]
 4321 009c 41F21113 		movw	r3, #4369
 4322 00a0 1340     		ands	r3, r3, r2
 4323 00a2 002B     		cmp	r3, #0
 4324 00a4 0FD1     		bne	.L309
 4325              		.loc 1 1536 5 is_stmt 0 discriminator 1
 4326 00a6 7B68     		ldr	r3, [r7, #4]
 4327 00a8 1B68     		ldr	r3, [r3]
 4328 00aa 1A6A     		ldr	r2, [r3, #32]
 4329 00ac 40F24443 		movw	r3, #1092
 4330 00b0 1340     		ands	r3, r3, r2
 4331 00b2 002B     		cmp	r3, #0
 4332 00b4 07D1     		bne	.L309
 4333              		.loc 1 1536 5 discriminator 2
 4334 00b6 7B68     		ldr	r3, [r7, #4]
 4335 00b8 1B68     		ldr	r3, [r3]
 4336 00ba 5A6C     		ldr	r2, [r3, #68]
 4337 00bc 7B68     		ldr	r3, [r7, #4]
 4338 00be 1B68     		ldr	r3, [r3]
 4339 00c0 22F40042 		bic	r2, r2, #32768
 4340 00c4 5A64     		str	r2, [r3, #68]
 4341              	.L309:
1537:Drivers/STM32L4xx_HAL_Driver/Src/stm32l4xx_hal_tim_ex.c **** 
1538:Drivers/STM32L4xx_HAL_Driver/Src/stm32l4xx_hal_tim_ex.c ****     /* Disable the Peripheral */
1539:Drivers/STM32L4xx_HAL_Driver/Src/stm32l4xx_hal_tim_ex.c ****     __HAL_TIM_DISABLE(htim);
 4342              		.loc 1 1539 5 is_stmt 1
 4343 00c6 7B68     		ldr	r3, [r7, #4]
 4344 00c8 1B68     		ldr	r3, [r3]
 4345 00ca 1A6A     		ldr	r2, [r3, #32]
 4346 00cc 41F21113 		movw	r3, #4369
 4347 00d0 1340     		ands	r3, r3, r2
 4348 00d2 002B     		cmp	r3, #0
 4349 00d4 0FD1     		bne	.L310
 4350              		.loc 1 1539 5 is_stmt 0 discriminator 1
 4351 00d6 7B68     		ldr	r3, [r7, #4]
 4352 00d8 1B68     		ldr	r3, [r3]
 4353 00da 1A6A     		ldr	r2, [r3, #32]
 4354 00dc 40F24443 		movw	r3, #1092
 4355 00e0 1340     		ands	r3, r3, r2
ARM GAS  /tmp/ccR4xO3u.s 			page 104


 4356 00e2 002B     		cmp	r3, #0
 4357 00e4 07D1     		bne	.L310
 4358              		.loc 1 1539 5 discriminator 2
 4359 00e6 7B68     		ldr	r3, [r7, #4]
 4360 00e8 1B68     		ldr	r3, [r3]
 4361 00ea 1A68     		ldr	r2, [r3]
 4362 00ec 7B68     		ldr	r3, [r7, #4]
 4363 00ee 1B68     		ldr	r3, [r3]
 4364 00f0 22F00102 		bic	r2, r2, #1
 4365 00f4 1A60     		str	r2, [r3]
 4366              	.L310:
1540:Drivers/STM32L4xx_HAL_Driver/Src/stm32l4xx_hal_tim_ex.c **** 
1541:Drivers/STM32L4xx_HAL_Driver/Src/stm32l4xx_hal_tim_ex.c ****     /* Set the TIM complementary channel state */
1542:Drivers/STM32L4xx_HAL_Driver/Src/stm32l4xx_hal_tim_ex.c ****     TIM_CHANNEL_N_STATE_SET(htim, Channel, HAL_TIM_CHANNEL_STATE_READY);
 4367              		.loc 1 1542 5 is_stmt 1
 4368 00f6 3B68     		ldr	r3, [r7]
 4369 00f8 002B     		cmp	r3, #0
 4370 00fa 04D1     		bne	.L311
 4371              		.loc 1 1542 5 is_stmt 0 discriminator 1
 4372 00fc 7B68     		ldr	r3, [r7, #4]
 4373 00fe 0122     		movs	r2, #1
 4374 0100 83F84420 		strb	r2, [r3, #68]
 4375 0104 13E0     		b	.L308
 4376              	.L311:
 4377              		.loc 1 1542 5 discriminator 2
 4378 0106 3B68     		ldr	r3, [r7]
 4379 0108 042B     		cmp	r3, #4
 4380 010a 04D1     		bne	.L312
 4381              		.loc 1 1542 5 discriminator 3
 4382 010c 7B68     		ldr	r3, [r7, #4]
 4383 010e 0122     		movs	r2, #1
 4384 0110 83F84520 		strb	r2, [r3, #69]
 4385 0114 0BE0     		b	.L308
 4386              	.L312:
 4387              		.loc 1 1542 5 discriminator 4
 4388 0116 3B68     		ldr	r3, [r7]
 4389 0118 082B     		cmp	r3, #8
 4390 011a 04D1     		bne	.L314
 4391              		.loc 1 1542 5 discriminator 6
 4392 011c 7B68     		ldr	r3, [r7, #4]
 4393 011e 0122     		movs	r2, #1
 4394 0120 83F84620 		strb	r2, [r3, #70]
 4395 0124 03E0     		b	.L308
 4396              	.L314:
 4397              		.loc 1 1542 5 discriminator 7
 4398 0126 7B68     		ldr	r3, [r7, #4]
 4399 0128 0122     		movs	r2, #1
 4400 012a 83F84720 		strb	r2, [r3, #71]
 4401              	.L308:
1543:Drivers/STM32L4xx_HAL_Driver/Src/stm32l4xx_hal_tim_ex.c ****   }
1544:Drivers/STM32L4xx_HAL_Driver/Src/stm32l4xx_hal_tim_ex.c **** 
1545:Drivers/STM32L4xx_HAL_Driver/Src/stm32l4xx_hal_tim_ex.c ****   /* Return function status */
1546:Drivers/STM32L4xx_HAL_Driver/Src/stm32l4xx_hal_tim_ex.c ****   return status;
 4402              		.loc 1 1546 10 is_stmt 1
 4403 012e FB7B     		ldrb	r3, [r7, #15]	@ zero_extendqisi2
1547:Drivers/STM32L4xx_HAL_Driver/Src/stm32l4xx_hal_tim_ex.c **** }
 4404              		.loc 1 1547 1
ARM GAS  /tmp/ccR4xO3u.s 			page 105


 4405 0130 1846     		mov	r0, r3
 4406 0132 1037     		adds	r7, r7, #16
 4407              	.LCFI110:
 4408              		.cfi_def_cfa_offset 8
 4409 0134 BD46     		mov	sp, r7
 4410              	.LCFI111:
 4411              		.cfi_def_cfa_register 13
 4412              		@ sp needed
 4413 0136 80BD     		pop	{r7, pc}
 4414              		.cfi_endproc
 4415              	.LFE153:
 4417              		.section	.text.HAL_TIMEx_OnePulseN_Start,"ax",%progbits
 4418              		.align	1
 4419              		.global	HAL_TIMEx_OnePulseN_Start
 4420              		.syntax unified
 4421              		.thumb
 4422              		.thumb_func
 4424              	HAL_TIMEx_OnePulseN_Start:
 4425              	.LFB154:
1548:Drivers/STM32L4xx_HAL_Driver/Src/stm32l4xx_hal_tim_ex.c **** 
1549:Drivers/STM32L4xx_HAL_Driver/Src/stm32l4xx_hal_tim_ex.c **** /**
1550:Drivers/STM32L4xx_HAL_Driver/Src/stm32l4xx_hal_tim_ex.c ****   * @}
1551:Drivers/STM32L4xx_HAL_Driver/Src/stm32l4xx_hal_tim_ex.c ****   */
1552:Drivers/STM32L4xx_HAL_Driver/Src/stm32l4xx_hal_tim_ex.c **** 
1553:Drivers/STM32L4xx_HAL_Driver/Src/stm32l4xx_hal_tim_ex.c **** /** @defgroup TIMEx_Exported_Functions_Group4 Extended Timer Complementary One Pulse functions
1554:Drivers/STM32L4xx_HAL_Driver/Src/stm32l4xx_hal_tim_ex.c ****   * @brief    Timer Complementary One Pulse functions
1555:Drivers/STM32L4xx_HAL_Driver/Src/stm32l4xx_hal_tim_ex.c ****   *
1556:Drivers/STM32L4xx_HAL_Driver/Src/stm32l4xx_hal_tim_ex.c **** @verbatim
1557:Drivers/STM32L4xx_HAL_Driver/Src/stm32l4xx_hal_tim_ex.c ****   ==============================================================================
1558:Drivers/STM32L4xx_HAL_Driver/Src/stm32l4xx_hal_tim_ex.c ****                 ##### Timer Complementary One Pulse functions #####
1559:Drivers/STM32L4xx_HAL_Driver/Src/stm32l4xx_hal_tim_ex.c ****   ==============================================================================
1560:Drivers/STM32L4xx_HAL_Driver/Src/stm32l4xx_hal_tim_ex.c ****   [..]
1561:Drivers/STM32L4xx_HAL_Driver/Src/stm32l4xx_hal_tim_ex.c ****     This section provides functions allowing to:
1562:Drivers/STM32L4xx_HAL_Driver/Src/stm32l4xx_hal_tim_ex.c ****     (+) Start the Complementary One Pulse generation.
1563:Drivers/STM32L4xx_HAL_Driver/Src/stm32l4xx_hal_tim_ex.c ****     (+) Stop the Complementary One Pulse.
1564:Drivers/STM32L4xx_HAL_Driver/Src/stm32l4xx_hal_tim_ex.c ****     (+) Start the Complementary One Pulse and enable interrupts.
1565:Drivers/STM32L4xx_HAL_Driver/Src/stm32l4xx_hal_tim_ex.c ****     (+) Stop the Complementary One Pulse and disable interrupts.
1566:Drivers/STM32L4xx_HAL_Driver/Src/stm32l4xx_hal_tim_ex.c **** 
1567:Drivers/STM32L4xx_HAL_Driver/Src/stm32l4xx_hal_tim_ex.c **** @endverbatim
1568:Drivers/STM32L4xx_HAL_Driver/Src/stm32l4xx_hal_tim_ex.c ****   * @{
1569:Drivers/STM32L4xx_HAL_Driver/Src/stm32l4xx_hal_tim_ex.c ****   */
1570:Drivers/STM32L4xx_HAL_Driver/Src/stm32l4xx_hal_tim_ex.c **** 
1571:Drivers/STM32L4xx_HAL_Driver/Src/stm32l4xx_hal_tim_ex.c **** /**
1572:Drivers/STM32L4xx_HAL_Driver/Src/stm32l4xx_hal_tim_ex.c ****   * @brief  Starts the TIM One Pulse signal generation on the complementary
1573:Drivers/STM32L4xx_HAL_Driver/Src/stm32l4xx_hal_tim_ex.c ****   *         output.
1574:Drivers/STM32L4xx_HAL_Driver/Src/stm32l4xx_hal_tim_ex.c ****   * @note OutputChannel must match the pulse output channel chosen when calling
1575:Drivers/STM32L4xx_HAL_Driver/Src/stm32l4xx_hal_tim_ex.c ****   *       @ref HAL_TIM_OnePulse_ConfigChannel().
1576:Drivers/STM32L4xx_HAL_Driver/Src/stm32l4xx_hal_tim_ex.c ****   * @param  htim TIM One Pulse handle
1577:Drivers/STM32L4xx_HAL_Driver/Src/stm32l4xx_hal_tim_ex.c ****   * @param  OutputChannel pulse output channel to enable
1578:Drivers/STM32L4xx_HAL_Driver/Src/stm32l4xx_hal_tim_ex.c ****   *          This parameter can be one of the following values:
1579:Drivers/STM32L4xx_HAL_Driver/Src/stm32l4xx_hal_tim_ex.c ****   *            @arg TIM_CHANNEL_1: TIM Channel 1 selected
1580:Drivers/STM32L4xx_HAL_Driver/Src/stm32l4xx_hal_tim_ex.c ****   *            @arg TIM_CHANNEL_2: TIM Channel 2 selected
1581:Drivers/STM32L4xx_HAL_Driver/Src/stm32l4xx_hal_tim_ex.c ****   * @retval HAL status
1582:Drivers/STM32L4xx_HAL_Driver/Src/stm32l4xx_hal_tim_ex.c ****   */
1583:Drivers/STM32L4xx_HAL_Driver/Src/stm32l4xx_hal_tim_ex.c **** HAL_StatusTypeDef HAL_TIMEx_OnePulseN_Start(TIM_HandleTypeDef *htim, uint32_t OutputChannel)
1584:Drivers/STM32L4xx_HAL_Driver/Src/stm32l4xx_hal_tim_ex.c **** {
 4426              		.loc 1 1584 1
ARM GAS  /tmp/ccR4xO3u.s 			page 106


 4427              		.cfi_startproc
 4428              		@ args = 0, pretend = 0, frame = 16
 4429              		@ frame_needed = 1, uses_anonymous_args = 0
 4430 0000 80B5     		push	{r7, lr}
 4431              	.LCFI112:
 4432              		.cfi_def_cfa_offset 8
 4433              		.cfi_offset 7, -8
 4434              		.cfi_offset 14, -4
 4435 0002 84B0     		sub	sp, sp, #16
 4436              	.LCFI113:
 4437              		.cfi_def_cfa_offset 24
 4438 0004 00AF     		add	r7, sp, #0
 4439              	.LCFI114:
 4440              		.cfi_def_cfa_register 7
 4441 0006 7860     		str	r0, [r7, #4]
 4442 0008 3960     		str	r1, [r7]
1585:Drivers/STM32L4xx_HAL_Driver/Src/stm32l4xx_hal_tim_ex.c ****   uint32_t input_channel = (OutputChannel == TIM_CHANNEL_1) ? TIM_CHANNEL_2 : TIM_CHANNEL_1;
 4443              		.loc 1 1585 77
 4444 000a 3B68     		ldr	r3, [r7]
 4445 000c 002B     		cmp	r3, #0
 4446 000e 01D1     		bne	.L318
 4447              		.loc 1 1585 77 is_stmt 0 discriminator 1
 4448 0010 0423     		movs	r3, #4
 4449 0012 00E0     		b	.L319
 4450              	.L318:
 4451              		.loc 1 1585 77 discriminator 2
 4452 0014 0023     		movs	r3, #0
 4453              	.L319:
 4454              		.loc 1 1585 12 is_stmt 1 discriminator 4
 4455 0016 FB60     		str	r3, [r7, #12]
1586:Drivers/STM32L4xx_HAL_Driver/Src/stm32l4xx_hal_tim_ex.c ****   HAL_TIM_ChannelStateTypeDef channel_1_state = TIM_CHANNEL_STATE_GET(htim, TIM_CHANNEL_1);
 4456              		.loc 1 1586 31 discriminator 4
 4457 0018 7B68     		ldr	r3, [r7, #4]
 4458 001a 93F83E30 		ldrb	r3, [r3, #62]
 4459 001e FB72     		strb	r3, [r7, #11]
1587:Drivers/STM32L4xx_HAL_Driver/Src/stm32l4xx_hal_tim_ex.c ****   HAL_TIM_ChannelStateTypeDef channel_2_state = TIM_CHANNEL_STATE_GET(htim, TIM_CHANNEL_2);
 4460              		.loc 1 1587 31 discriminator 4
 4461 0020 7B68     		ldr	r3, [r7, #4]
 4462 0022 93F83F30 		ldrb	r3, [r3, #63]
 4463 0026 BB72     		strb	r3, [r7, #10]
1588:Drivers/STM32L4xx_HAL_Driver/Src/stm32l4xx_hal_tim_ex.c ****   HAL_TIM_ChannelStateTypeDef complementary_channel_1_state = TIM_CHANNEL_N_STATE_GET(htim, TIM_CHA
 4464              		.loc 1 1588 31 discriminator 4
 4465 0028 7B68     		ldr	r3, [r7, #4]
 4466 002a 93F84430 		ldrb	r3, [r3, #68]
 4467 002e 7B72     		strb	r3, [r7, #9]
1589:Drivers/STM32L4xx_HAL_Driver/Src/stm32l4xx_hal_tim_ex.c ****   HAL_TIM_ChannelStateTypeDef complementary_channel_2_state = TIM_CHANNEL_N_STATE_GET(htim, TIM_CHA
 4468              		.loc 1 1589 31 discriminator 4
 4469 0030 7B68     		ldr	r3, [r7, #4]
 4470 0032 93F84530 		ldrb	r3, [r3, #69]
 4471 0036 3B72     		strb	r3, [r7, #8]
1590:Drivers/STM32L4xx_HAL_Driver/Src/stm32l4xx_hal_tim_ex.c **** 
1591:Drivers/STM32L4xx_HAL_Driver/Src/stm32l4xx_hal_tim_ex.c ****   /* Check the parameters */
1592:Drivers/STM32L4xx_HAL_Driver/Src/stm32l4xx_hal_tim_ex.c ****   assert_param(IS_TIM_CCXN_INSTANCE(htim->Instance, OutputChannel));
1593:Drivers/STM32L4xx_HAL_Driver/Src/stm32l4xx_hal_tim_ex.c **** 
1594:Drivers/STM32L4xx_HAL_Driver/Src/stm32l4xx_hal_tim_ex.c ****   /* Check the TIM channels state */
1595:Drivers/STM32L4xx_HAL_Driver/Src/stm32l4xx_hal_tim_ex.c ****   if ((channel_1_state != HAL_TIM_CHANNEL_STATE_READY)
 4472              		.loc 1 1595 6 discriminator 4
ARM GAS  /tmp/ccR4xO3u.s 			page 107


 4473 0038 FB7A     		ldrb	r3, [r7, #11]	@ zero_extendqisi2
 4474 003a 012B     		cmp	r3, #1
 4475 003c 08D1     		bne	.L320
1596:Drivers/STM32L4xx_HAL_Driver/Src/stm32l4xx_hal_tim_ex.c ****       || (channel_2_state != HAL_TIM_CHANNEL_STATE_READY)
 4476              		.loc 1 1596 7
 4477 003e BB7A     		ldrb	r3, [r7, #10]	@ zero_extendqisi2
 4478 0040 012B     		cmp	r3, #1
 4479 0042 05D1     		bne	.L320
1597:Drivers/STM32L4xx_HAL_Driver/Src/stm32l4xx_hal_tim_ex.c ****       || (complementary_channel_1_state != HAL_TIM_CHANNEL_STATE_READY)
 4480              		.loc 1 1597 7
 4481 0044 7B7A     		ldrb	r3, [r7, #9]	@ zero_extendqisi2
 4482 0046 012B     		cmp	r3, #1
 4483 0048 02D1     		bne	.L320
1598:Drivers/STM32L4xx_HAL_Driver/Src/stm32l4xx_hal_tim_ex.c ****       || (complementary_channel_2_state != HAL_TIM_CHANNEL_STATE_READY))
 4484              		.loc 1 1598 7
 4485 004a 3B7A     		ldrb	r3, [r7, #8]	@ zero_extendqisi2
 4486 004c 012B     		cmp	r3, #1
 4487 004e 01D0     		beq	.L321
 4488              	.L320:
1599:Drivers/STM32L4xx_HAL_Driver/Src/stm32l4xx_hal_tim_ex.c ****   {
1600:Drivers/STM32L4xx_HAL_Driver/Src/stm32l4xx_hal_tim_ex.c ****     return HAL_ERROR;
 4489              		.loc 1 1600 12
 4490 0050 0123     		movs	r3, #1
 4491 0052 26E0     		b	.L322
 4492              	.L321:
1601:Drivers/STM32L4xx_HAL_Driver/Src/stm32l4xx_hal_tim_ex.c ****   }
1602:Drivers/STM32L4xx_HAL_Driver/Src/stm32l4xx_hal_tim_ex.c **** 
1603:Drivers/STM32L4xx_HAL_Driver/Src/stm32l4xx_hal_tim_ex.c ****   /* Set the TIM channels state */
1604:Drivers/STM32L4xx_HAL_Driver/Src/stm32l4xx_hal_tim_ex.c ****   TIM_CHANNEL_STATE_SET(htim, TIM_CHANNEL_1, HAL_TIM_CHANNEL_STATE_BUSY);
 4493              		.loc 1 1604 3
 4494 0054 7B68     		ldr	r3, [r7, #4]
 4495 0056 0222     		movs	r2, #2
 4496 0058 83F83E20 		strb	r2, [r3, #62]
1605:Drivers/STM32L4xx_HAL_Driver/Src/stm32l4xx_hal_tim_ex.c ****   TIM_CHANNEL_STATE_SET(htim, TIM_CHANNEL_2, HAL_TIM_CHANNEL_STATE_BUSY);
 4497              		.loc 1 1605 3
 4498 005c 7B68     		ldr	r3, [r7, #4]
 4499 005e 0222     		movs	r2, #2
 4500 0060 83F83F20 		strb	r2, [r3, #63]
1606:Drivers/STM32L4xx_HAL_Driver/Src/stm32l4xx_hal_tim_ex.c ****   TIM_CHANNEL_N_STATE_SET(htim, TIM_CHANNEL_1, HAL_TIM_CHANNEL_STATE_BUSY);
 4501              		.loc 1 1606 3
 4502 0064 7B68     		ldr	r3, [r7, #4]
 4503 0066 0222     		movs	r2, #2
 4504 0068 83F84420 		strb	r2, [r3, #68]
1607:Drivers/STM32L4xx_HAL_Driver/Src/stm32l4xx_hal_tim_ex.c ****   TIM_CHANNEL_N_STATE_SET(htim, TIM_CHANNEL_2, HAL_TIM_CHANNEL_STATE_BUSY);
 4505              		.loc 1 1607 3
 4506 006c 7B68     		ldr	r3, [r7, #4]
 4507 006e 0222     		movs	r2, #2
 4508 0070 83F84520 		strb	r2, [r3, #69]
1608:Drivers/STM32L4xx_HAL_Driver/Src/stm32l4xx_hal_tim_ex.c **** 
1609:Drivers/STM32L4xx_HAL_Driver/Src/stm32l4xx_hal_tim_ex.c ****   /* Enable the complementary One Pulse output channel and the Input Capture channel */
1610:Drivers/STM32L4xx_HAL_Driver/Src/stm32l4xx_hal_tim_ex.c ****   TIM_CCxNChannelCmd(htim->Instance, OutputChannel, TIM_CCxN_ENABLE);
 4509              		.loc 1 1610 3
 4510 0074 7B68     		ldr	r3, [r7, #4]
 4511 0076 1B68     		ldr	r3, [r3]
 4512 0078 0422     		movs	r2, #4
 4513 007a 3968     		ldr	r1, [r7]
 4514 007c 1846     		mov	r0, r3
ARM GAS  /tmp/ccR4xO3u.s 			page 108


 4515 007e FFF7FEFF 		bl	TIM_CCxNChannelCmd
1611:Drivers/STM32L4xx_HAL_Driver/Src/stm32l4xx_hal_tim_ex.c ****   TIM_CCxChannelCmd(htim->Instance, input_channel, TIM_CCx_ENABLE);
 4516              		.loc 1 1611 3
 4517 0082 7B68     		ldr	r3, [r7, #4]
 4518 0084 1B68     		ldr	r3, [r3]
 4519 0086 0122     		movs	r2, #1
 4520 0088 F968     		ldr	r1, [r7, #12]
 4521 008a 1846     		mov	r0, r3
 4522 008c FFF7FEFF 		bl	TIM_CCxChannelCmd
1612:Drivers/STM32L4xx_HAL_Driver/Src/stm32l4xx_hal_tim_ex.c **** 
1613:Drivers/STM32L4xx_HAL_Driver/Src/stm32l4xx_hal_tim_ex.c ****   /* Enable the Main Output */
1614:Drivers/STM32L4xx_HAL_Driver/Src/stm32l4xx_hal_tim_ex.c ****   __HAL_TIM_MOE_ENABLE(htim);
 4523              		.loc 1 1614 3
 4524 0090 7B68     		ldr	r3, [r7, #4]
 4525 0092 1B68     		ldr	r3, [r3]
 4526 0094 5A6C     		ldr	r2, [r3, #68]
 4527 0096 7B68     		ldr	r3, [r7, #4]
 4528 0098 1B68     		ldr	r3, [r3]
 4529 009a 42F40042 		orr	r2, r2, #32768
 4530 009e 5A64     		str	r2, [r3, #68]
1615:Drivers/STM32L4xx_HAL_Driver/Src/stm32l4xx_hal_tim_ex.c **** 
1616:Drivers/STM32L4xx_HAL_Driver/Src/stm32l4xx_hal_tim_ex.c ****   /* Return function status */
1617:Drivers/STM32L4xx_HAL_Driver/Src/stm32l4xx_hal_tim_ex.c ****   return HAL_OK;
 4531              		.loc 1 1617 10
 4532 00a0 0023     		movs	r3, #0
 4533              	.L322:
1618:Drivers/STM32L4xx_HAL_Driver/Src/stm32l4xx_hal_tim_ex.c **** }
 4534              		.loc 1 1618 1
 4535 00a2 1846     		mov	r0, r3
 4536 00a4 1037     		adds	r7, r7, #16
 4537              	.LCFI115:
 4538              		.cfi_def_cfa_offset 8
 4539 00a6 BD46     		mov	sp, r7
 4540              	.LCFI116:
 4541              		.cfi_def_cfa_register 13
 4542              		@ sp needed
 4543 00a8 80BD     		pop	{r7, pc}
 4544              		.cfi_endproc
 4545              	.LFE154:
 4547              		.section	.text.HAL_TIMEx_OnePulseN_Stop,"ax",%progbits
 4548              		.align	1
 4549              		.global	HAL_TIMEx_OnePulseN_Stop
 4550              		.syntax unified
 4551              		.thumb
 4552              		.thumb_func
 4554              	HAL_TIMEx_OnePulseN_Stop:
 4555              	.LFB155:
1619:Drivers/STM32L4xx_HAL_Driver/Src/stm32l4xx_hal_tim_ex.c **** 
1620:Drivers/STM32L4xx_HAL_Driver/Src/stm32l4xx_hal_tim_ex.c **** /**
1621:Drivers/STM32L4xx_HAL_Driver/Src/stm32l4xx_hal_tim_ex.c ****   * @brief  Stops the TIM One Pulse signal generation on the complementary
1622:Drivers/STM32L4xx_HAL_Driver/Src/stm32l4xx_hal_tim_ex.c ****   *         output.
1623:Drivers/STM32L4xx_HAL_Driver/Src/stm32l4xx_hal_tim_ex.c ****   * @note OutputChannel must match the pulse output channel chosen when calling
1624:Drivers/STM32L4xx_HAL_Driver/Src/stm32l4xx_hal_tim_ex.c ****   *       @ref HAL_TIM_OnePulse_ConfigChannel().
1625:Drivers/STM32L4xx_HAL_Driver/Src/stm32l4xx_hal_tim_ex.c ****   * @param  htim TIM One Pulse handle
1626:Drivers/STM32L4xx_HAL_Driver/Src/stm32l4xx_hal_tim_ex.c ****   * @param  OutputChannel pulse output channel to disable
1627:Drivers/STM32L4xx_HAL_Driver/Src/stm32l4xx_hal_tim_ex.c ****   *          This parameter can be one of the following values:
1628:Drivers/STM32L4xx_HAL_Driver/Src/stm32l4xx_hal_tim_ex.c ****   *            @arg TIM_CHANNEL_1: TIM Channel 1 selected
ARM GAS  /tmp/ccR4xO3u.s 			page 109


1629:Drivers/STM32L4xx_HAL_Driver/Src/stm32l4xx_hal_tim_ex.c ****   *            @arg TIM_CHANNEL_2: TIM Channel 2 selected
1630:Drivers/STM32L4xx_HAL_Driver/Src/stm32l4xx_hal_tim_ex.c ****   * @retval HAL status
1631:Drivers/STM32L4xx_HAL_Driver/Src/stm32l4xx_hal_tim_ex.c ****   */
1632:Drivers/STM32L4xx_HAL_Driver/Src/stm32l4xx_hal_tim_ex.c **** HAL_StatusTypeDef HAL_TIMEx_OnePulseN_Stop(TIM_HandleTypeDef *htim, uint32_t OutputChannel)
1633:Drivers/STM32L4xx_HAL_Driver/Src/stm32l4xx_hal_tim_ex.c **** {
 4556              		.loc 1 1633 1
 4557              		.cfi_startproc
 4558              		@ args = 0, pretend = 0, frame = 16
 4559              		@ frame_needed = 1, uses_anonymous_args = 0
 4560 0000 80B5     		push	{r7, lr}
 4561              	.LCFI117:
 4562              		.cfi_def_cfa_offset 8
 4563              		.cfi_offset 7, -8
 4564              		.cfi_offset 14, -4
 4565 0002 84B0     		sub	sp, sp, #16
 4566              	.LCFI118:
 4567              		.cfi_def_cfa_offset 24
 4568 0004 00AF     		add	r7, sp, #0
 4569              	.LCFI119:
 4570              		.cfi_def_cfa_register 7
 4571 0006 7860     		str	r0, [r7, #4]
 4572 0008 3960     		str	r1, [r7]
1634:Drivers/STM32L4xx_HAL_Driver/Src/stm32l4xx_hal_tim_ex.c ****   uint32_t input_channel = (OutputChannel == TIM_CHANNEL_1) ? TIM_CHANNEL_2 : TIM_CHANNEL_1;
 4573              		.loc 1 1634 77
 4574 000a 3B68     		ldr	r3, [r7]
 4575 000c 002B     		cmp	r3, #0
 4576 000e 01D1     		bne	.L324
 4577              		.loc 1 1634 77 is_stmt 0 discriminator 1
 4578 0010 0423     		movs	r3, #4
 4579 0012 00E0     		b	.L325
 4580              	.L324:
 4581              		.loc 1 1634 77 discriminator 2
 4582 0014 0023     		movs	r3, #0
 4583              	.L325:
 4584              		.loc 1 1634 12 is_stmt 1 discriminator 4
 4585 0016 FB60     		str	r3, [r7, #12]
1635:Drivers/STM32L4xx_HAL_Driver/Src/stm32l4xx_hal_tim_ex.c **** 
1636:Drivers/STM32L4xx_HAL_Driver/Src/stm32l4xx_hal_tim_ex.c ****   /* Check the parameters */
1637:Drivers/STM32L4xx_HAL_Driver/Src/stm32l4xx_hal_tim_ex.c ****   assert_param(IS_TIM_CCXN_INSTANCE(htim->Instance, OutputChannel));
1638:Drivers/STM32L4xx_HAL_Driver/Src/stm32l4xx_hal_tim_ex.c **** 
1639:Drivers/STM32L4xx_HAL_Driver/Src/stm32l4xx_hal_tim_ex.c ****   /* Disable the complementary One Pulse output channel and the Input Capture channel */
1640:Drivers/STM32L4xx_HAL_Driver/Src/stm32l4xx_hal_tim_ex.c ****   TIM_CCxNChannelCmd(htim->Instance, OutputChannel, TIM_CCxN_DISABLE);
 4586              		.loc 1 1640 3 discriminator 4
 4587 0018 7B68     		ldr	r3, [r7, #4]
 4588 001a 1B68     		ldr	r3, [r3]
 4589 001c 0022     		movs	r2, #0
 4590 001e 3968     		ldr	r1, [r7]
 4591 0020 1846     		mov	r0, r3
 4592 0022 FFF7FEFF 		bl	TIM_CCxNChannelCmd
1641:Drivers/STM32L4xx_HAL_Driver/Src/stm32l4xx_hal_tim_ex.c ****   TIM_CCxChannelCmd(htim->Instance, input_channel, TIM_CCx_DISABLE);
 4593              		.loc 1 1641 3 discriminator 4
 4594 0026 7B68     		ldr	r3, [r7, #4]
 4595 0028 1B68     		ldr	r3, [r3]
 4596 002a 0022     		movs	r2, #0
 4597 002c F968     		ldr	r1, [r7, #12]
 4598 002e 1846     		mov	r0, r3
 4599 0030 FFF7FEFF 		bl	TIM_CCxChannelCmd
ARM GAS  /tmp/ccR4xO3u.s 			page 110


1642:Drivers/STM32L4xx_HAL_Driver/Src/stm32l4xx_hal_tim_ex.c **** 
1643:Drivers/STM32L4xx_HAL_Driver/Src/stm32l4xx_hal_tim_ex.c ****   /* Disable the Main Output */
1644:Drivers/STM32L4xx_HAL_Driver/Src/stm32l4xx_hal_tim_ex.c ****   __HAL_TIM_MOE_DISABLE(htim);
 4600              		.loc 1 1644 3 discriminator 4
 4601 0034 7B68     		ldr	r3, [r7, #4]
 4602 0036 1B68     		ldr	r3, [r3]
 4603 0038 1A6A     		ldr	r2, [r3, #32]
 4604 003a 41F21113 		movw	r3, #4369
 4605 003e 1340     		ands	r3, r3, r2
 4606 0040 002B     		cmp	r3, #0
 4607 0042 0FD1     		bne	.L326
 4608              		.loc 1 1644 3 is_stmt 0 discriminator 1
 4609 0044 7B68     		ldr	r3, [r7, #4]
 4610 0046 1B68     		ldr	r3, [r3]
 4611 0048 1A6A     		ldr	r2, [r3, #32]
 4612 004a 40F24443 		movw	r3, #1092
 4613 004e 1340     		ands	r3, r3, r2
 4614 0050 002B     		cmp	r3, #0
 4615 0052 07D1     		bne	.L326
 4616              		.loc 1 1644 3 discriminator 2
 4617 0054 7B68     		ldr	r3, [r7, #4]
 4618 0056 1B68     		ldr	r3, [r3]
 4619 0058 5A6C     		ldr	r2, [r3, #68]
 4620 005a 7B68     		ldr	r3, [r7, #4]
 4621 005c 1B68     		ldr	r3, [r3]
 4622 005e 22F40042 		bic	r2, r2, #32768
 4623 0062 5A64     		str	r2, [r3, #68]
 4624              	.L326:
1645:Drivers/STM32L4xx_HAL_Driver/Src/stm32l4xx_hal_tim_ex.c **** 
1646:Drivers/STM32L4xx_HAL_Driver/Src/stm32l4xx_hal_tim_ex.c ****   /* Disable the Peripheral */
1647:Drivers/STM32L4xx_HAL_Driver/Src/stm32l4xx_hal_tim_ex.c ****   __HAL_TIM_DISABLE(htim);
 4625              		.loc 1 1647 3 is_stmt 1
 4626 0064 7B68     		ldr	r3, [r7, #4]
 4627 0066 1B68     		ldr	r3, [r3]
 4628 0068 1A6A     		ldr	r2, [r3, #32]
 4629 006a 41F21113 		movw	r3, #4369
 4630 006e 1340     		ands	r3, r3, r2
 4631 0070 002B     		cmp	r3, #0
 4632 0072 0FD1     		bne	.L327
 4633              		.loc 1 1647 3 is_stmt 0 discriminator 1
 4634 0074 7B68     		ldr	r3, [r7, #4]
 4635 0076 1B68     		ldr	r3, [r3]
 4636 0078 1A6A     		ldr	r2, [r3, #32]
 4637 007a 40F24443 		movw	r3, #1092
 4638 007e 1340     		ands	r3, r3, r2
 4639 0080 002B     		cmp	r3, #0
 4640 0082 07D1     		bne	.L327
 4641              		.loc 1 1647 3 discriminator 2
 4642 0084 7B68     		ldr	r3, [r7, #4]
 4643 0086 1B68     		ldr	r3, [r3]
 4644 0088 1A68     		ldr	r2, [r3]
 4645 008a 7B68     		ldr	r3, [r7, #4]
 4646 008c 1B68     		ldr	r3, [r3]
 4647 008e 22F00102 		bic	r2, r2, #1
 4648 0092 1A60     		str	r2, [r3]
 4649              	.L327:
1648:Drivers/STM32L4xx_HAL_Driver/Src/stm32l4xx_hal_tim_ex.c **** 
ARM GAS  /tmp/ccR4xO3u.s 			page 111


1649:Drivers/STM32L4xx_HAL_Driver/Src/stm32l4xx_hal_tim_ex.c ****   /* Set the TIM  channels state */
1650:Drivers/STM32L4xx_HAL_Driver/Src/stm32l4xx_hal_tim_ex.c ****   TIM_CHANNEL_STATE_SET(htim, TIM_CHANNEL_1, HAL_TIM_CHANNEL_STATE_READY);
 4650              		.loc 1 1650 3 is_stmt 1
 4651 0094 7B68     		ldr	r3, [r7, #4]
 4652 0096 0122     		movs	r2, #1
 4653 0098 83F83E20 		strb	r2, [r3, #62]
1651:Drivers/STM32L4xx_HAL_Driver/Src/stm32l4xx_hal_tim_ex.c ****   TIM_CHANNEL_STATE_SET(htim, TIM_CHANNEL_2, HAL_TIM_CHANNEL_STATE_READY);
 4654              		.loc 1 1651 3
 4655 009c 7B68     		ldr	r3, [r7, #4]
 4656 009e 0122     		movs	r2, #1
 4657 00a0 83F83F20 		strb	r2, [r3, #63]
1652:Drivers/STM32L4xx_HAL_Driver/Src/stm32l4xx_hal_tim_ex.c ****   TIM_CHANNEL_N_STATE_SET(htim, TIM_CHANNEL_1, HAL_TIM_CHANNEL_STATE_READY);
 4658              		.loc 1 1652 3
 4659 00a4 7B68     		ldr	r3, [r7, #4]
 4660 00a6 0122     		movs	r2, #1
 4661 00a8 83F84420 		strb	r2, [r3, #68]
1653:Drivers/STM32L4xx_HAL_Driver/Src/stm32l4xx_hal_tim_ex.c ****   TIM_CHANNEL_N_STATE_SET(htim, TIM_CHANNEL_2, HAL_TIM_CHANNEL_STATE_READY);
 4662              		.loc 1 1653 3
 4663 00ac 7B68     		ldr	r3, [r7, #4]
 4664 00ae 0122     		movs	r2, #1
 4665 00b0 83F84520 		strb	r2, [r3, #69]
1654:Drivers/STM32L4xx_HAL_Driver/Src/stm32l4xx_hal_tim_ex.c **** 
1655:Drivers/STM32L4xx_HAL_Driver/Src/stm32l4xx_hal_tim_ex.c ****   /* Return function status */
1656:Drivers/STM32L4xx_HAL_Driver/Src/stm32l4xx_hal_tim_ex.c ****   return HAL_OK;
 4666              		.loc 1 1656 10
 4667 00b4 0023     		movs	r3, #0
1657:Drivers/STM32L4xx_HAL_Driver/Src/stm32l4xx_hal_tim_ex.c **** }
 4668              		.loc 1 1657 1
 4669 00b6 1846     		mov	r0, r3
 4670 00b8 1037     		adds	r7, r7, #16
 4671              	.LCFI120:
 4672              		.cfi_def_cfa_offset 8
 4673 00ba BD46     		mov	sp, r7
 4674              	.LCFI121:
 4675              		.cfi_def_cfa_register 13
 4676              		@ sp needed
 4677 00bc 80BD     		pop	{r7, pc}
 4678              		.cfi_endproc
 4679              	.LFE155:
 4681              		.section	.text.HAL_TIMEx_OnePulseN_Start_IT,"ax",%progbits
 4682              		.align	1
 4683              		.global	HAL_TIMEx_OnePulseN_Start_IT
 4684              		.syntax unified
 4685              		.thumb
 4686              		.thumb_func
 4688              	HAL_TIMEx_OnePulseN_Start_IT:
 4689              	.LFB156:
1658:Drivers/STM32L4xx_HAL_Driver/Src/stm32l4xx_hal_tim_ex.c **** 
1659:Drivers/STM32L4xx_HAL_Driver/Src/stm32l4xx_hal_tim_ex.c **** /**
1660:Drivers/STM32L4xx_HAL_Driver/Src/stm32l4xx_hal_tim_ex.c ****   * @brief  Starts the TIM One Pulse signal generation in interrupt mode on the
1661:Drivers/STM32L4xx_HAL_Driver/Src/stm32l4xx_hal_tim_ex.c ****   *         complementary channel.
1662:Drivers/STM32L4xx_HAL_Driver/Src/stm32l4xx_hal_tim_ex.c ****   * @note OutputChannel must match the pulse output channel chosen when calling
1663:Drivers/STM32L4xx_HAL_Driver/Src/stm32l4xx_hal_tim_ex.c ****   *       @ref HAL_TIM_OnePulse_ConfigChannel().
1664:Drivers/STM32L4xx_HAL_Driver/Src/stm32l4xx_hal_tim_ex.c ****   * @param  htim TIM One Pulse handle
1665:Drivers/STM32L4xx_HAL_Driver/Src/stm32l4xx_hal_tim_ex.c ****   * @param  OutputChannel pulse output channel to enable
1666:Drivers/STM32L4xx_HAL_Driver/Src/stm32l4xx_hal_tim_ex.c ****   *          This parameter can be one of the following values:
1667:Drivers/STM32L4xx_HAL_Driver/Src/stm32l4xx_hal_tim_ex.c ****   *            @arg TIM_CHANNEL_1: TIM Channel 1 selected
ARM GAS  /tmp/ccR4xO3u.s 			page 112


1668:Drivers/STM32L4xx_HAL_Driver/Src/stm32l4xx_hal_tim_ex.c ****   *            @arg TIM_CHANNEL_2: TIM Channel 2 selected
1669:Drivers/STM32L4xx_HAL_Driver/Src/stm32l4xx_hal_tim_ex.c ****   * @retval HAL status
1670:Drivers/STM32L4xx_HAL_Driver/Src/stm32l4xx_hal_tim_ex.c ****   */
1671:Drivers/STM32L4xx_HAL_Driver/Src/stm32l4xx_hal_tim_ex.c **** HAL_StatusTypeDef HAL_TIMEx_OnePulseN_Start_IT(TIM_HandleTypeDef *htim, uint32_t OutputChannel)
1672:Drivers/STM32L4xx_HAL_Driver/Src/stm32l4xx_hal_tim_ex.c **** {
 4690              		.loc 1 1672 1
 4691              		.cfi_startproc
 4692              		@ args = 0, pretend = 0, frame = 16
 4693              		@ frame_needed = 1, uses_anonymous_args = 0
 4694 0000 80B5     		push	{r7, lr}
 4695              	.LCFI122:
 4696              		.cfi_def_cfa_offset 8
 4697              		.cfi_offset 7, -8
 4698              		.cfi_offset 14, -4
 4699 0002 84B0     		sub	sp, sp, #16
 4700              	.LCFI123:
 4701              		.cfi_def_cfa_offset 24
 4702 0004 00AF     		add	r7, sp, #0
 4703              	.LCFI124:
 4704              		.cfi_def_cfa_register 7
 4705 0006 7860     		str	r0, [r7, #4]
 4706 0008 3960     		str	r1, [r7]
1673:Drivers/STM32L4xx_HAL_Driver/Src/stm32l4xx_hal_tim_ex.c ****   uint32_t input_channel = (OutputChannel == TIM_CHANNEL_1) ? TIM_CHANNEL_2 : TIM_CHANNEL_1;
 4707              		.loc 1 1673 77
 4708 000a 3B68     		ldr	r3, [r7]
 4709 000c 002B     		cmp	r3, #0
 4710 000e 01D1     		bne	.L330
 4711              		.loc 1 1673 77 is_stmt 0 discriminator 1
 4712 0010 0423     		movs	r3, #4
 4713 0012 00E0     		b	.L331
 4714              	.L330:
 4715              		.loc 1 1673 77 discriminator 2
 4716 0014 0023     		movs	r3, #0
 4717              	.L331:
 4718              		.loc 1 1673 12 is_stmt 1 discriminator 4
 4719 0016 FB60     		str	r3, [r7, #12]
1674:Drivers/STM32L4xx_HAL_Driver/Src/stm32l4xx_hal_tim_ex.c ****   HAL_TIM_ChannelStateTypeDef channel_1_state = TIM_CHANNEL_STATE_GET(htim, TIM_CHANNEL_1);
 4720              		.loc 1 1674 31 discriminator 4
 4721 0018 7B68     		ldr	r3, [r7, #4]
 4722 001a 93F83E30 		ldrb	r3, [r3, #62]
 4723 001e FB72     		strb	r3, [r7, #11]
1675:Drivers/STM32L4xx_HAL_Driver/Src/stm32l4xx_hal_tim_ex.c ****   HAL_TIM_ChannelStateTypeDef channel_2_state = TIM_CHANNEL_STATE_GET(htim, TIM_CHANNEL_2);
 4724              		.loc 1 1675 31 discriminator 4
 4725 0020 7B68     		ldr	r3, [r7, #4]
 4726 0022 93F83F30 		ldrb	r3, [r3, #63]
 4727 0026 BB72     		strb	r3, [r7, #10]
1676:Drivers/STM32L4xx_HAL_Driver/Src/stm32l4xx_hal_tim_ex.c ****   HAL_TIM_ChannelStateTypeDef complementary_channel_1_state = TIM_CHANNEL_N_STATE_GET(htim, TIM_CHA
 4728              		.loc 1 1676 31 discriminator 4
 4729 0028 7B68     		ldr	r3, [r7, #4]
 4730 002a 93F84430 		ldrb	r3, [r3, #68]
 4731 002e 7B72     		strb	r3, [r7, #9]
1677:Drivers/STM32L4xx_HAL_Driver/Src/stm32l4xx_hal_tim_ex.c ****   HAL_TIM_ChannelStateTypeDef complementary_channel_2_state = TIM_CHANNEL_N_STATE_GET(htim, TIM_CHA
 4732              		.loc 1 1677 31 discriminator 4
 4733 0030 7B68     		ldr	r3, [r7, #4]
 4734 0032 93F84530 		ldrb	r3, [r3, #69]
 4735 0036 3B72     		strb	r3, [r7, #8]
1678:Drivers/STM32L4xx_HAL_Driver/Src/stm32l4xx_hal_tim_ex.c **** 
ARM GAS  /tmp/ccR4xO3u.s 			page 113


1679:Drivers/STM32L4xx_HAL_Driver/Src/stm32l4xx_hal_tim_ex.c ****   /* Check the parameters */
1680:Drivers/STM32L4xx_HAL_Driver/Src/stm32l4xx_hal_tim_ex.c ****   assert_param(IS_TIM_CCXN_INSTANCE(htim->Instance, OutputChannel));
1681:Drivers/STM32L4xx_HAL_Driver/Src/stm32l4xx_hal_tim_ex.c **** 
1682:Drivers/STM32L4xx_HAL_Driver/Src/stm32l4xx_hal_tim_ex.c ****   /* Check the TIM channels state */
1683:Drivers/STM32L4xx_HAL_Driver/Src/stm32l4xx_hal_tim_ex.c ****   if ((channel_1_state != HAL_TIM_CHANNEL_STATE_READY)
 4736              		.loc 1 1683 6 discriminator 4
 4737 0038 FB7A     		ldrb	r3, [r7, #11]	@ zero_extendqisi2
 4738 003a 012B     		cmp	r3, #1
 4739 003c 08D1     		bne	.L332
1684:Drivers/STM32L4xx_HAL_Driver/Src/stm32l4xx_hal_tim_ex.c ****       || (channel_2_state != HAL_TIM_CHANNEL_STATE_READY)
 4740              		.loc 1 1684 7
 4741 003e BB7A     		ldrb	r3, [r7, #10]	@ zero_extendqisi2
 4742 0040 012B     		cmp	r3, #1
 4743 0042 05D1     		bne	.L332
1685:Drivers/STM32L4xx_HAL_Driver/Src/stm32l4xx_hal_tim_ex.c ****       || (complementary_channel_1_state != HAL_TIM_CHANNEL_STATE_READY)
 4744              		.loc 1 1685 7
 4745 0044 7B7A     		ldrb	r3, [r7, #9]	@ zero_extendqisi2
 4746 0046 012B     		cmp	r3, #1
 4747 0048 02D1     		bne	.L332
1686:Drivers/STM32L4xx_HAL_Driver/Src/stm32l4xx_hal_tim_ex.c ****       || (complementary_channel_2_state != HAL_TIM_CHANNEL_STATE_READY))
 4748              		.loc 1 1686 7
 4749 004a 3B7A     		ldrb	r3, [r7, #8]	@ zero_extendqisi2
 4750 004c 012B     		cmp	r3, #1
 4751 004e 01D0     		beq	.L333
 4752              	.L332:
1687:Drivers/STM32L4xx_HAL_Driver/Src/stm32l4xx_hal_tim_ex.c ****   {
1688:Drivers/STM32L4xx_HAL_Driver/Src/stm32l4xx_hal_tim_ex.c ****     return HAL_ERROR;
 4753              		.loc 1 1688 12
 4754 0050 0123     		movs	r3, #1
 4755 0052 36E0     		b	.L334
 4756              	.L333:
1689:Drivers/STM32L4xx_HAL_Driver/Src/stm32l4xx_hal_tim_ex.c ****   }
1690:Drivers/STM32L4xx_HAL_Driver/Src/stm32l4xx_hal_tim_ex.c **** 
1691:Drivers/STM32L4xx_HAL_Driver/Src/stm32l4xx_hal_tim_ex.c ****   /* Set the TIM channels state */
1692:Drivers/STM32L4xx_HAL_Driver/Src/stm32l4xx_hal_tim_ex.c ****   TIM_CHANNEL_STATE_SET(htim, TIM_CHANNEL_1, HAL_TIM_CHANNEL_STATE_BUSY);
 4757              		.loc 1 1692 3
 4758 0054 7B68     		ldr	r3, [r7, #4]
 4759 0056 0222     		movs	r2, #2
 4760 0058 83F83E20 		strb	r2, [r3, #62]
1693:Drivers/STM32L4xx_HAL_Driver/Src/stm32l4xx_hal_tim_ex.c ****   TIM_CHANNEL_STATE_SET(htim, TIM_CHANNEL_2, HAL_TIM_CHANNEL_STATE_BUSY);
 4761              		.loc 1 1693 3
 4762 005c 7B68     		ldr	r3, [r7, #4]
 4763 005e 0222     		movs	r2, #2
 4764 0060 83F83F20 		strb	r2, [r3, #63]
1694:Drivers/STM32L4xx_HAL_Driver/Src/stm32l4xx_hal_tim_ex.c ****   TIM_CHANNEL_N_STATE_SET(htim, TIM_CHANNEL_1, HAL_TIM_CHANNEL_STATE_BUSY);
 4765              		.loc 1 1694 3
 4766 0064 7B68     		ldr	r3, [r7, #4]
 4767 0066 0222     		movs	r2, #2
 4768 0068 83F84420 		strb	r2, [r3, #68]
1695:Drivers/STM32L4xx_HAL_Driver/Src/stm32l4xx_hal_tim_ex.c ****   TIM_CHANNEL_N_STATE_SET(htim, TIM_CHANNEL_2, HAL_TIM_CHANNEL_STATE_BUSY);
 4769              		.loc 1 1695 3
 4770 006c 7B68     		ldr	r3, [r7, #4]
 4771 006e 0222     		movs	r2, #2
 4772 0070 83F84520 		strb	r2, [r3, #69]
1696:Drivers/STM32L4xx_HAL_Driver/Src/stm32l4xx_hal_tim_ex.c **** 
1697:Drivers/STM32L4xx_HAL_Driver/Src/stm32l4xx_hal_tim_ex.c ****   /* Enable the TIM Capture/Compare 1 interrupt */
1698:Drivers/STM32L4xx_HAL_Driver/Src/stm32l4xx_hal_tim_ex.c ****   __HAL_TIM_ENABLE_IT(htim, TIM_IT_CC1);
ARM GAS  /tmp/ccR4xO3u.s 			page 114


 4773              		.loc 1 1698 3
 4774 0074 7B68     		ldr	r3, [r7, #4]
 4775 0076 1B68     		ldr	r3, [r3]
 4776 0078 DA68     		ldr	r2, [r3, #12]
 4777 007a 7B68     		ldr	r3, [r7, #4]
 4778 007c 1B68     		ldr	r3, [r3]
 4779 007e 42F00202 		orr	r2, r2, #2
 4780 0082 DA60     		str	r2, [r3, #12]
1699:Drivers/STM32L4xx_HAL_Driver/Src/stm32l4xx_hal_tim_ex.c **** 
1700:Drivers/STM32L4xx_HAL_Driver/Src/stm32l4xx_hal_tim_ex.c ****   /* Enable the TIM Capture/Compare 2 interrupt */
1701:Drivers/STM32L4xx_HAL_Driver/Src/stm32l4xx_hal_tim_ex.c ****   __HAL_TIM_ENABLE_IT(htim, TIM_IT_CC2);
 4781              		.loc 1 1701 3
 4782 0084 7B68     		ldr	r3, [r7, #4]
 4783 0086 1B68     		ldr	r3, [r3]
 4784 0088 DA68     		ldr	r2, [r3, #12]
 4785 008a 7B68     		ldr	r3, [r7, #4]
 4786 008c 1B68     		ldr	r3, [r3]
 4787 008e 42F00402 		orr	r2, r2, #4
 4788 0092 DA60     		str	r2, [r3, #12]
1702:Drivers/STM32L4xx_HAL_Driver/Src/stm32l4xx_hal_tim_ex.c **** 
1703:Drivers/STM32L4xx_HAL_Driver/Src/stm32l4xx_hal_tim_ex.c ****   /* Enable the complementary One Pulse output channel and the Input Capture channel */
1704:Drivers/STM32L4xx_HAL_Driver/Src/stm32l4xx_hal_tim_ex.c ****   TIM_CCxNChannelCmd(htim->Instance, OutputChannel, TIM_CCxN_ENABLE);
 4789              		.loc 1 1704 3
 4790 0094 7B68     		ldr	r3, [r7, #4]
 4791 0096 1B68     		ldr	r3, [r3]
 4792 0098 0422     		movs	r2, #4
 4793 009a 3968     		ldr	r1, [r7]
 4794 009c 1846     		mov	r0, r3
 4795 009e FFF7FEFF 		bl	TIM_CCxNChannelCmd
1705:Drivers/STM32L4xx_HAL_Driver/Src/stm32l4xx_hal_tim_ex.c ****   TIM_CCxChannelCmd(htim->Instance, input_channel, TIM_CCx_ENABLE);
 4796              		.loc 1 1705 3
 4797 00a2 7B68     		ldr	r3, [r7, #4]
 4798 00a4 1B68     		ldr	r3, [r3]
 4799 00a6 0122     		movs	r2, #1
 4800 00a8 F968     		ldr	r1, [r7, #12]
 4801 00aa 1846     		mov	r0, r3
 4802 00ac FFF7FEFF 		bl	TIM_CCxChannelCmd
1706:Drivers/STM32L4xx_HAL_Driver/Src/stm32l4xx_hal_tim_ex.c **** 
1707:Drivers/STM32L4xx_HAL_Driver/Src/stm32l4xx_hal_tim_ex.c ****   /* Enable the Main Output */
1708:Drivers/STM32L4xx_HAL_Driver/Src/stm32l4xx_hal_tim_ex.c ****   __HAL_TIM_MOE_ENABLE(htim);
 4803              		.loc 1 1708 3
 4804 00b0 7B68     		ldr	r3, [r7, #4]
 4805 00b2 1B68     		ldr	r3, [r3]
 4806 00b4 5A6C     		ldr	r2, [r3, #68]
 4807 00b6 7B68     		ldr	r3, [r7, #4]
 4808 00b8 1B68     		ldr	r3, [r3]
 4809 00ba 42F40042 		orr	r2, r2, #32768
 4810 00be 5A64     		str	r2, [r3, #68]
1709:Drivers/STM32L4xx_HAL_Driver/Src/stm32l4xx_hal_tim_ex.c **** 
1710:Drivers/STM32L4xx_HAL_Driver/Src/stm32l4xx_hal_tim_ex.c ****   /* Return function status */
1711:Drivers/STM32L4xx_HAL_Driver/Src/stm32l4xx_hal_tim_ex.c ****   return HAL_OK;
 4811              		.loc 1 1711 10
 4812 00c0 0023     		movs	r3, #0
 4813              	.L334:
1712:Drivers/STM32L4xx_HAL_Driver/Src/stm32l4xx_hal_tim_ex.c **** }
 4814              		.loc 1 1712 1
 4815 00c2 1846     		mov	r0, r3
ARM GAS  /tmp/ccR4xO3u.s 			page 115


 4816 00c4 1037     		adds	r7, r7, #16
 4817              	.LCFI125:
 4818              		.cfi_def_cfa_offset 8
 4819 00c6 BD46     		mov	sp, r7
 4820              	.LCFI126:
 4821              		.cfi_def_cfa_register 13
 4822              		@ sp needed
 4823 00c8 80BD     		pop	{r7, pc}
 4824              		.cfi_endproc
 4825              	.LFE156:
 4827              		.section	.text.HAL_TIMEx_OnePulseN_Stop_IT,"ax",%progbits
 4828              		.align	1
 4829              		.global	HAL_TIMEx_OnePulseN_Stop_IT
 4830              		.syntax unified
 4831              		.thumb
 4832              		.thumb_func
 4834              	HAL_TIMEx_OnePulseN_Stop_IT:
 4835              	.LFB157:
1713:Drivers/STM32L4xx_HAL_Driver/Src/stm32l4xx_hal_tim_ex.c **** 
1714:Drivers/STM32L4xx_HAL_Driver/Src/stm32l4xx_hal_tim_ex.c **** /**
1715:Drivers/STM32L4xx_HAL_Driver/Src/stm32l4xx_hal_tim_ex.c ****   * @brief  Stops the TIM One Pulse signal generation in interrupt mode on the
1716:Drivers/STM32L4xx_HAL_Driver/Src/stm32l4xx_hal_tim_ex.c ****   *         complementary channel.
1717:Drivers/STM32L4xx_HAL_Driver/Src/stm32l4xx_hal_tim_ex.c ****   * @note OutputChannel must match the pulse output channel chosen when calling
1718:Drivers/STM32L4xx_HAL_Driver/Src/stm32l4xx_hal_tim_ex.c ****   *       @ref HAL_TIM_OnePulse_ConfigChannel().
1719:Drivers/STM32L4xx_HAL_Driver/Src/stm32l4xx_hal_tim_ex.c ****   * @param  htim TIM One Pulse handle
1720:Drivers/STM32L4xx_HAL_Driver/Src/stm32l4xx_hal_tim_ex.c ****   * @param  OutputChannel pulse output channel to disable
1721:Drivers/STM32L4xx_HAL_Driver/Src/stm32l4xx_hal_tim_ex.c ****   *          This parameter can be one of the following values:
1722:Drivers/STM32L4xx_HAL_Driver/Src/stm32l4xx_hal_tim_ex.c ****   *            @arg TIM_CHANNEL_1: TIM Channel 1 selected
1723:Drivers/STM32L4xx_HAL_Driver/Src/stm32l4xx_hal_tim_ex.c ****   *            @arg TIM_CHANNEL_2: TIM Channel 2 selected
1724:Drivers/STM32L4xx_HAL_Driver/Src/stm32l4xx_hal_tim_ex.c ****   * @retval HAL status
1725:Drivers/STM32L4xx_HAL_Driver/Src/stm32l4xx_hal_tim_ex.c ****   */
1726:Drivers/STM32L4xx_HAL_Driver/Src/stm32l4xx_hal_tim_ex.c **** HAL_StatusTypeDef HAL_TIMEx_OnePulseN_Stop_IT(TIM_HandleTypeDef *htim, uint32_t OutputChannel)
1727:Drivers/STM32L4xx_HAL_Driver/Src/stm32l4xx_hal_tim_ex.c **** {
 4836              		.loc 1 1727 1
 4837              		.cfi_startproc
 4838              		@ args = 0, pretend = 0, frame = 16
 4839              		@ frame_needed = 1, uses_anonymous_args = 0
 4840 0000 80B5     		push	{r7, lr}
 4841              	.LCFI127:
 4842              		.cfi_def_cfa_offset 8
 4843              		.cfi_offset 7, -8
 4844              		.cfi_offset 14, -4
 4845 0002 84B0     		sub	sp, sp, #16
 4846              	.LCFI128:
 4847              		.cfi_def_cfa_offset 24
 4848 0004 00AF     		add	r7, sp, #0
 4849              	.LCFI129:
 4850              		.cfi_def_cfa_register 7
 4851 0006 7860     		str	r0, [r7, #4]
 4852 0008 3960     		str	r1, [r7]
1728:Drivers/STM32L4xx_HAL_Driver/Src/stm32l4xx_hal_tim_ex.c ****   uint32_t input_channel = (OutputChannel == TIM_CHANNEL_1) ? TIM_CHANNEL_2 : TIM_CHANNEL_1;
 4853              		.loc 1 1728 77
 4854 000a 3B68     		ldr	r3, [r7]
 4855 000c 002B     		cmp	r3, #0
 4856 000e 01D1     		bne	.L336
 4857              		.loc 1 1728 77 is_stmt 0 discriminator 1
 4858 0010 0423     		movs	r3, #4
ARM GAS  /tmp/ccR4xO3u.s 			page 116


 4859 0012 00E0     		b	.L337
 4860              	.L336:
 4861              		.loc 1 1728 77 discriminator 2
 4862 0014 0023     		movs	r3, #0
 4863              	.L337:
 4864              		.loc 1 1728 12 is_stmt 1 discriminator 4
 4865 0016 FB60     		str	r3, [r7, #12]
1729:Drivers/STM32L4xx_HAL_Driver/Src/stm32l4xx_hal_tim_ex.c **** 
1730:Drivers/STM32L4xx_HAL_Driver/Src/stm32l4xx_hal_tim_ex.c ****   /* Check the parameters */
1731:Drivers/STM32L4xx_HAL_Driver/Src/stm32l4xx_hal_tim_ex.c ****   assert_param(IS_TIM_CCXN_INSTANCE(htim->Instance, OutputChannel));
1732:Drivers/STM32L4xx_HAL_Driver/Src/stm32l4xx_hal_tim_ex.c **** 
1733:Drivers/STM32L4xx_HAL_Driver/Src/stm32l4xx_hal_tim_ex.c ****   /* Disable the TIM Capture/Compare 1 interrupt */
1734:Drivers/STM32L4xx_HAL_Driver/Src/stm32l4xx_hal_tim_ex.c ****   __HAL_TIM_DISABLE_IT(htim, TIM_IT_CC1);
 4866              		.loc 1 1734 3 discriminator 4
 4867 0018 7B68     		ldr	r3, [r7, #4]
 4868 001a 1B68     		ldr	r3, [r3]
 4869 001c DA68     		ldr	r2, [r3, #12]
 4870 001e 7B68     		ldr	r3, [r7, #4]
 4871 0020 1B68     		ldr	r3, [r3]
 4872 0022 22F00202 		bic	r2, r2, #2
 4873 0026 DA60     		str	r2, [r3, #12]
1735:Drivers/STM32L4xx_HAL_Driver/Src/stm32l4xx_hal_tim_ex.c **** 
1736:Drivers/STM32L4xx_HAL_Driver/Src/stm32l4xx_hal_tim_ex.c ****   /* Disable the TIM Capture/Compare 2 interrupt */
1737:Drivers/STM32L4xx_HAL_Driver/Src/stm32l4xx_hal_tim_ex.c ****   __HAL_TIM_DISABLE_IT(htim, TIM_IT_CC2);
 4874              		.loc 1 1737 3 discriminator 4
 4875 0028 7B68     		ldr	r3, [r7, #4]
 4876 002a 1B68     		ldr	r3, [r3]
 4877 002c DA68     		ldr	r2, [r3, #12]
 4878 002e 7B68     		ldr	r3, [r7, #4]
 4879 0030 1B68     		ldr	r3, [r3]
 4880 0032 22F00402 		bic	r2, r2, #4
 4881 0036 DA60     		str	r2, [r3, #12]
1738:Drivers/STM32L4xx_HAL_Driver/Src/stm32l4xx_hal_tim_ex.c **** 
1739:Drivers/STM32L4xx_HAL_Driver/Src/stm32l4xx_hal_tim_ex.c ****   /* Disable the complementary One Pulse output channel and the Input Capture channel */
1740:Drivers/STM32L4xx_HAL_Driver/Src/stm32l4xx_hal_tim_ex.c ****   TIM_CCxNChannelCmd(htim->Instance, OutputChannel, TIM_CCxN_DISABLE);
 4882              		.loc 1 1740 3 discriminator 4
 4883 0038 7B68     		ldr	r3, [r7, #4]
 4884 003a 1B68     		ldr	r3, [r3]
 4885 003c 0022     		movs	r2, #0
 4886 003e 3968     		ldr	r1, [r7]
 4887 0040 1846     		mov	r0, r3
 4888 0042 FFF7FEFF 		bl	TIM_CCxNChannelCmd
1741:Drivers/STM32L4xx_HAL_Driver/Src/stm32l4xx_hal_tim_ex.c ****   TIM_CCxChannelCmd(htim->Instance, input_channel, TIM_CCx_DISABLE);
 4889              		.loc 1 1741 3 discriminator 4
 4890 0046 7B68     		ldr	r3, [r7, #4]
 4891 0048 1B68     		ldr	r3, [r3]
 4892 004a 0022     		movs	r2, #0
 4893 004c F968     		ldr	r1, [r7, #12]
 4894 004e 1846     		mov	r0, r3
 4895 0050 FFF7FEFF 		bl	TIM_CCxChannelCmd
1742:Drivers/STM32L4xx_HAL_Driver/Src/stm32l4xx_hal_tim_ex.c **** 
1743:Drivers/STM32L4xx_HAL_Driver/Src/stm32l4xx_hal_tim_ex.c ****   /* Disable the Main Output */
1744:Drivers/STM32L4xx_HAL_Driver/Src/stm32l4xx_hal_tim_ex.c ****   __HAL_TIM_MOE_DISABLE(htim);
 4896              		.loc 1 1744 3 discriminator 4
 4897 0054 7B68     		ldr	r3, [r7, #4]
 4898 0056 1B68     		ldr	r3, [r3]
 4899 0058 1A6A     		ldr	r2, [r3, #32]
ARM GAS  /tmp/ccR4xO3u.s 			page 117


 4900 005a 41F21113 		movw	r3, #4369
 4901 005e 1340     		ands	r3, r3, r2
 4902 0060 002B     		cmp	r3, #0
 4903 0062 0FD1     		bne	.L338
 4904              		.loc 1 1744 3 is_stmt 0 discriminator 1
 4905 0064 7B68     		ldr	r3, [r7, #4]
 4906 0066 1B68     		ldr	r3, [r3]
 4907 0068 1A6A     		ldr	r2, [r3, #32]
 4908 006a 40F24443 		movw	r3, #1092
 4909 006e 1340     		ands	r3, r3, r2
 4910 0070 002B     		cmp	r3, #0
 4911 0072 07D1     		bne	.L338
 4912              		.loc 1 1744 3 discriminator 2
 4913 0074 7B68     		ldr	r3, [r7, #4]
 4914 0076 1B68     		ldr	r3, [r3]
 4915 0078 5A6C     		ldr	r2, [r3, #68]
 4916 007a 7B68     		ldr	r3, [r7, #4]
 4917 007c 1B68     		ldr	r3, [r3]
 4918 007e 22F40042 		bic	r2, r2, #32768
 4919 0082 5A64     		str	r2, [r3, #68]
 4920              	.L338:
1745:Drivers/STM32L4xx_HAL_Driver/Src/stm32l4xx_hal_tim_ex.c **** 
1746:Drivers/STM32L4xx_HAL_Driver/Src/stm32l4xx_hal_tim_ex.c ****   /* Disable the Peripheral */
1747:Drivers/STM32L4xx_HAL_Driver/Src/stm32l4xx_hal_tim_ex.c ****   __HAL_TIM_DISABLE(htim);
 4921              		.loc 1 1747 3 is_stmt 1
 4922 0084 7B68     		ldr	r3, [r7, #4]
 4923 0086 1B68     		ldr	r3, [r3]
 4924 0088 1A6A     		ldr	r2, [r3, #32]
 4925 008a 41F21113 		movw	r3, #4369
 4926 008e 1340     		ands	r3, r3, r2
 4927 0090 002B     		cmp	r3, #0
 4928 0092 0FD1     		bne	.L339
 4929              		.loc 1 1747 3 is_stmt 0 discriminator 1
 4930 0094 7B68     		ldr	r3, [r7, #4]
 4931 0096 1B68     		ldr	r3, [r3]
 4932 0098 1A6A     		ldr	r2, [r3, #32]
 4933 009a 40F24443 		movw	r3, #1092
 4934 009e 1340     		ands	r3, r3, r2
 4935 00a0 002B     		cmp	r3, #0
 4936 00a2 07D1     		bne	.L339
 4937              		.loc 1 1747 3 discriminator 2
 4938 00a4 7B68     		ldr	r3, [r7, #4]
 4939 00a6 1B68     		ldr	r3, [r3]
 4940 00a8 1A68     		ldr	r2, [r3]
 4941 00aa 7B68     		ldr	r3, [r7, #4]
 4942 00ac 1B68     		ldr	r3, [r3]
 4943 00ae 22F00102 		bic	r2, r2, #1
 4944 00b2 1A60     		str	r2, [r3]
 4945              	.L339:
1748:Drivers/STM32L4xx_HAL_Driver/Src/stm32l4xx_hal_tim_ex.c **** 
1749:Drivers/STM32L4xx_HAL_Driver/Src/stm32l4xx_hal_tim_ex.c ****   /* Set the TIM  channels state */
1750:Drivers/STM32L4xx_HAL_Driver/Src/stm32l4xx_hal_tim_ex.c ****   TIM_CHANNEL_STATE_SET(htim, TIM_CHANNEL_1, HAL_TIM_CHANNEL_STATE_READY);
 4946              		.loc 1 1750 3 is_stmt 1
 4947 00b4 7B68     		ldr	r3, [r7, #4]
 4948 00b6 0122     		movs	r2, #1
 4949 00b8 83F83E20 		strb	r2, [r3, #62]
1751:Drivers/STM32L4xx_HAL_Driver/Src/stm32l4xx_hal_tim_ex.c ****   TIM_CHANNEL_STATE_SET(htim, TIM_CHANNEL_2, HAL_TIM_CHANNEL_STATE_READY);
ARM GAS  /tmp/ccR4xO3u.s 			page 118


 4950              		.loc 1 1751 3
 4951 00bc 7B68     		ldr	r3, [r7, #4]
 4952 00be 0122     		movs	r2, #1
 4953 00c0 83F83F20 		strb	r2, [r3, #63]
1752:Drivers/STM32L4xx_HAL_Driver/Src/stm32l4xx_hal_tim_ex.c ****   TIM_CHANNEL_N_STATE_SET(htim, TIM_CHANNEL_1, HAL_TIM_CHANNEL_STATE_READY);
 4954              		.loc 1 1752 3
 4955 00c4 7B68     		ldr	r3, [r7, #4]
 4956 00c6 0122     		movs	r2, #1
 4957 00c8 83F84420 		strb	r2, [r3, #68]
1753:Drivers/STM32L4xx_HAL_Driver/Src/stm32l4xx_hal_tim_ex.c ****   TIM_CHANNEL_N_STATE_SET(htim, TIM_CHANNEL_2, HAL_TIM_CHANNEL_STATE_READY);
 4958              		.loc 1 1753 3
 4959 00cc 7B68     		ldr	r3, [r7, #4]
 4960 00ce 0122     		movs	r2, #1
 4961 00d0 83F84520 		strb	r2, [r3, #69]
1754:Drivers/STM32L4xx_HAL_Driver/Src/stm32l4xx_hal_tim_ex.c **** 
1755:Drivers/STM32L4xx_HAL_Driver/Src/stm32l4xx_hal_tim_ex.c ****   /* Return function status */
1756:Drivers/STM32L4xx_HAL_Driver/Src/stm32l4xx_hal_tim_ex.c ****   return HAL_OK;
 4962              		.loc 1 1756 10
 4963 00d4 0023     		movs	r3, #0
1757:Drivers/STM32L4xx_HAL_Driver/Src/stm32l4xx_hal_tim_ex.c **** }
 4964              		.loc 1 1757 1
 4965 00d6 1846     		mov	r0, r3
 4966 00d8 1037     		adds	r7, r7, #16
 4967              	.LCFI130:
 4968              		.cfi_def_cfa_offset 8
 4969 00da BD46     		mov	sp, r7
 4970              	.LCFI131:
 4971              		.cfi_def_cfa_register 13
 4972              		@ sp needed
 4973 00dc 80BD     		pop	{r7, pc}
 4974              		.cfi_endproc
 4975              	.LFE157:
 4977              		.section	.text.HAL_TIMEx_ConfigCommutEvent,"ax",%progbits
 4978              		.align	1
 4979              		.global	HAL_TIMEx_ConfigCommutEvent
 4980              		.syntax unified
 4981              		.thumb
 4982              		.thumb_func
 4984              	HAL_TIMEx_ConfigCommutEvent:
 4985              	.LFB158:
1758:Drivers/STM32L4xx_HAL_Driver/Src/stm32l4xx_hal_tim_ex.c **** 
1759:Drivers/STM32L4xx_HAL_Driver/Src/stm32l4xx_hal_tim_ex.c **** /**
1760:Drivers/STM32L4xx_HAL_Driver/Src/stm32l4xx_hal_tim_ex.c ****   * @}
1761:Drivers/STM32L4xx_HAL_Driver/Src/stm32l4xx_hal_tim_ex.c ****   */
1762:Drivers/STM32L4xx_HAL_Driver/Src/stm32l4xx_hal_tim_ex.c **** 
1763:Drivers/STM32L4xx_HAL_Driver/Src/stm32l4xx_hal_tim_ex.c **** /** @defgroup TIMEx_Exported_Functions_Group5 Extended Peripheral Control functions
1764:Drivers/STM32L4xx_HAL_Driver/Src/stm32l4xx_hal_tim_ex.c ****   * @brief    Peripheral Control functions
1765:Drivers/STM32L4xx_HAL_Driver/Src/stm32l4xx_hal_tim_ex.c ****   *
1766:Drivers/STM32L4xx_HAL_Driver/Src/stm32l4xx_hal_tim_ex.c **** @verbatim
1767:Drivers/STM32L4xx_HAL_Driver/Src/stm32l4xx_hal_tim_ex.c ****   ==============================================================================
1768:Drivers/STM32L4xx_HAL_Driver/Src/stm32l4xx_hal_tim_ex.c ****                     ##### Peripheral Control functions #####
1769:Drivers/STM32L4xx_HAL_Driver/Src/stm32l4xx_hal_tim_ex.c ****   ==============================================================================
1770:Drivers/STM32L4xx_HAL_Driver/Src/stm32l4xx_hal_tim_ex.c ****   [..]
1771:Drivers/STM32L4xx_HAL_Driver/Src/stm32l4xx_hal_tim_ex.c ****     This section provides functions allowing to:
1772:Drivers/STM32L4xx_HAL_Driver/Src/stm32l4xx_hal_tim_ex.c ****       (+) Configure the commutation event in case of use of the Hall sensor interface.
1773:Drivers/STM32L4xx_HAL_Driver/Src/stm32l4xx_hal_tim_ex.c ****       (+) Configure Output channels for OC and PWM mode.
1774:Drivers/STM32L4xx_HAL_Driver/Src/stm32l4xx_hal_tim_ex.c **** 
ARM GAS  /tmp/ccR4xO3u.s 			page 119


1775:Drivers/STM32L4xx_HAL_Driver/Src/stm32l4xx_hal_tim_ex.c ****       (+) Configure Complementary channels, break features and dead time.
1776:Drivers/STM32L4xx_HAL_Driver/Src/stm32l4xx_hal_tim_ex.c ****       (+) Configure Master synchronization.
1777:Drivers/STM32L4xx_HAL_Driver/Src/stm32l4xx_hal_tim_ex.c ****       (+) Configure timer remapping capabilities.
1778:Drivers/STM32L4xx_HAL_Driver/Src/stm32l4xx_hal_tim_ex.c ****       (+) Enable or disable channel grouping.
1779:Drivers/STM32L4xx_HAL_Driver/Src/stm32l4xx_hal_tim_ex.c **** 
1780:Drivers/STM32L4xx_HAL_Driver/Src/stm32l4xx_hal_tim_ex.c **** @endverbatim
1781:Drivers/STM32L4xx_HAL_Driver/Src/stm32l4xx_hal_tim_ex.c ****   * @{
1782:Drivers/STM32L4xx_HAL_Driver/Src/stm32l4xx_hal_tim_ex.c ****   */
1783:Drivers/STM32L4xx_HAL_Driver/Src/stm32l4xx_hal_tim_ex.c **** 
1784:Drivers/STM32L4xx_HAL_Driver/Src/stm32l4xx_hal_tim_ex.c **** /**
1785:Drivers/STM32L4xx_HAL_Driver/Src/stm32l4xx_hal_tim_ex.c ****   * @brief  Configure the TIM commutation event sequence.
1786:Drivers/STM32L4xx_HAL_Driver/Src/stm32l4xx_hal_tim_ex.c ****   * @note  This function is mandatory to use the commutation event in order to
1787:Drivers/STM32L4xx_HAL_Driver/Src/stm32l4xx_hal_tim_ex.c ****   *        update the configuration at each commutation detection on the TRGI input of the Timer,
1788:Drivers/STM32L4xx_HAL_Driver/Src/stm32l4xx_hal_tim_ex.c ****   *        the typical use of this feature is with the use of another Timer(interface Timer)
1789:Drivers/STM32L4xx_HAL_Driver/Src/stm32l4xx_hal_tim_ex.c ****   *        configured in Hall sensor interface, this interface Timer will generate the
1790:Drivers/STM32L4xx_HAL_Driver/Src/stm32l4xx_hal_tim_ex.c ****   *        commutation at its TRGO output (connected to Timer used in this function) each time
1791:Drivers/STM32L4xx_HAL_Driver/Src/stm32l4xx_hal_tim_ex.c ****   *        the TI1 of the Interface Timer detect a commutation at its input TI1.
1792:Drivers/STM32L4xx_HAL_Driver/Src/stm32l4xx_hal_tim_ex.c ****   * @param  htim TIM handle
1793:Drivers/STM32L4xx_HAL_Driver/Src/stm32l4xx_hal_tim_ex.c ****   * @param  InputTrigger the Internal trigger corresponding to the Timer Interfacing with the Hall 
1794:Drivers/STM32L4xx_HAL_Driver/Src/stm32l4xx_hal_tim_ex.c ****   *          This parameter can be one of the following values:
1795:Drivers/STM32L4xx_HAL_Driver/Src/stm32l4xx_hal_tim_ex.c ****   *            @arg TIM_TS_ITR0: Internal trigger 0 selected
1796:Drivers/STM32L4xx_HAL_Driver/Src/stm32l4xx_hal_tim_ex.c ****   *            @arg TIM_TS_ITR1: Internal trigger 1 selected
1797:Drivers/STM32L4xx_HAL_Driver/Src/stm32l4xx_hal_tim_ex.c ****   *            @arg TIM_TS_ITR2: Internal trigger 2 selected
1798:Drivers/STM32L4xx_HAL_Driver/Src/stm32l4xx_hal_tim_ex.c ****   *            @arg TIM_TS_ITR3: Internal trigger 3 selected
1799:Drivers/STM32L4xx_HAL_Driver/Src/stm32l4xx_hal_tim_ex.c ****   *            @arg TIM_TS_NONE: No trigger is needed
1800:Drivers/STM32L4xx_HAL_Driver/Src/stm32l4xx_hal_tim_ex.c ****   * @param  CommutationSource the Commutation Event source
1801:Drivers/STM32L4xx_HAL_Driver/Src/stm32l4xx_hal_tim_ex.c ****   *          This parameter can be one of the following values:
1802:Drivers/STM32L4xx_HAL_Driver/Src/stm32l4xx_hal_tim_ex.c ****   *            @arg TIM_COMMUTATION_TRGI: Commutation source is the TRGI of the Interface Timer
1803:Drivers/STM32L4xx_HAL_Driver/Src/stm32l4xx_hal_tim_ex.c ****   *            @arg TIM_COMMUTATION_SOFTWARE:  Commutation source is set by software using the COMG
1804:Drivers/STM32L4xx_HAL_Driver/Src/stm32l4xx_hal_tim_ex.c ****   * @retval HAL status
1805:Drivers/STM32L4xx_HAL_Driver/Src/stm32l4xx_hal_tim_ex.c ****   */
1806:Drivers/STM32L4xx_HAL_Driver/Src/stm32l4xx_hal_tim_ex.c **** HAL_StatusTypeDef HAL_TIMEx_ConfigCommutEvent(TIM_HandleTypeDef *htim, uint32_t  InputTrigger,
1807:Drivers/STM32L4xx_HAL_Driver/Src/stm32l4xx_hal_tim_ex.c ****                                               uint32_t  CommutationSource)
1808:Drivers/STM32L4xx_HAL_Driver/Src/stm32l4xx_hal_tim_ex.c **** {
 4986              		.loc 1 1808 1
 4987              		.cfi_startproc
 4988              		@ args = 0, pretend = 0, frame = 16
 4989              		@ frame_needed = 1, uses_anonymous_args = 0
 4990              		@ link register save eliminated.
 4991 0000 80B4     		push	{r7}
 4992              	.LCFI132:
 4993              		.cfi_def_cfa_offset 4
 4994              		.cfi_offset 7, -4
 4995 0002 85B0     		sub	sp, sp, #20
 4996              	.LCFI133:
 4997              		.cfi_def_cfa_offset 24
 4998 0004 00AF     		add	r7, sp, #0
 4999              	.LCFI134:
 5000              		.cfi_def_cfa_register 7
 5001 0006 F860     		str	r0, [r7, #12]
 5002 0008 B960     		str	r1, [r7, #8]
 5003 000a 7A60     		str	r2, [r7, #4]
1809:Drivers/STM32L4xx_HAL_Driver/Src/stm32l4xx_hal_tim_ex.c ****   /* Check the parameters */
1810:Drivers/STM32L4xx_HAL_Driver/Src/stm32l4xx_hal_tim_ex.c ****   assert_param(IS_TIM_COMMUTATION_EVENT_INSTANCE(htim->Instance));
1811:Drivers/STM32L4xx_HAL_Driver/Src/stm32l4xx_hal_tim_ex.c ****   assert_param(IS_TIM_INTERNAL_TRIGGEREVENT_SELECTION(InputTrigger));
1812:Drivers/STM32L4xx_HAL_Driver/Src/stm32l4xx_hal_tim_ex.c **** 
1813:Drivers/STM32L4xx_HAL_Driver/Src/stm32l4xx_hal_tim_ex.c ****   __HAL_LOCK(htim);
ARM GAS  /tmp/ccR4xO3u.s 			page 120


 5004              		.loc 1 1813 3
 5005 000c FB68     		ldr	r3, [r7, #12]
 5006 000e 93F83C30 		ldrb	r3, [r3, #60]	@ zero_extendqisi2
 5007 0012 012B     		cmp	r3, #1
 5008 0014 01D1     		bne	.L342
 5009              		.loc 1 1813 3 is_stmt 0 discriminator 1
 5010 0016 0223     		movs	r3, #2
 5011 0018 4CE0     		b	.L343
 5012              	.L342:
 5013              		.loc 1 1813 3 discriminator 2
 5014 001a FB68     		ldr	r3, [r7, #12]
 5015 001c 0122     		movs	r2, #1
 5016 001e 83F83C20 		strb	r2, [r3, #60]
1814:Drivers/STM32L4xx_HAL_Driver/Src/stm32l4xx_hal_tim_ex.c **** 
1815:Drivers/STM32L4xx_HAL_Driver/Src/stm32l4xx_hal_tim_ex.c ****   if ((InputTrigger == TIM_TS_ITR0) || (InputTrigger == TIM_TS_ITR1) ||
 5017              		.loc 1 1815 6 is_stmt 1 discriminator 2
 5018 0022 BB68     		ldr	r3, [r7, #8]
 5019 0024 002B     		cmp	r3, #0
 5020 0026 08D0     		beq	.L344
 5021              		.loc 1 1815 37 discriminator 1
 5022 0028 BB68     		ldr	r3, [r7, #8]
 5023 002a 102B     		cmp	r3, #16
 5024 002c 05D0     		beq	.L344
 5025              		.loc 1 1815 70 discriminator 2
 5026 002e BB68     		ldr	r3, [r7, #8]
 5027 0030 202B     		cmp	r3, #32
 5028 0032 02D0     		beq	.L344
1816:Drivers/STM32L4xx_HAL_Driver/Src/stm32l4xx_hal_tim_ex.c ****       (InputTrigger == TIM_TS_ITR2) || (InputTrigger == TIM_TS_ITR3))
 5029              		.loc 1 1816 37
 5030 0034 BB68     		ldr	r3, [r7, #8]
 5031 0036 302B     		cmp	r3, #48
 5032 0038 0FD1     		bne	.L345
 5033              	.L344:
1817:Drivers/STM32L4xx_HAL_Driver/Src/stm32l4xx_hal_tim_ex.c ****   {
1818:Drivers/STM32L4xx_HAL_Driver/Src/stm32l4xx_hal_tim_ex.c ****     /* Select the Input trigger */
1819:Drivers/STM32L4xx_HAL_Driver/Src/stm32l4xx_hal_tim_ex.c ****     htim->Instance->SMCR &= ~TIM_SMCR_TS;
 5034              		.loc 1 1819 9
 5035 003a FB68     		ldr	r3, [r7, #12]
 5036 003c 1B68     		ldr	r3, [r3]
 5037              		.loc 1 1819 26
 5038 003e 9A68     		ldr	r2, [r3, #8]
 5039              		.loc 1 1819 9
 5040 0040 FB68     		ldr	r3, [r7, #12]
 5041 0042 1B68     		ldr	r3, [r3]
 5042              		.loc 1 1819 26
 5043 0044 22F07002 		bic	r2, r2, #112
 5044 0048 9A60     		str	r2, [r3, #8]
1820:Drivers/STM32L4xx_HAL_Driver/Src/stm32l4xx_hal_tim_ex.c ****     htim->Instance->SMCR |= InputTrigger;
 5045              		.loc 1 1820 9
 5046 004a FB68     		ldr	r3, [r7, #12]
 5047 004c 1B68     		ldr	r3, [r3]
 5048              		.loc 1 1820 26
 5049 004e 9968     		ldr	r1, [r3, #8]
 5050              		.loc 1 1820 9
 5051 0050 FB68     		ldr	r3, [r7, #12]
 5052 0052 1B68     		ldr	r3, [r3]
 5053              		.loc 1 1820 26
ARM GAS  /tmp/ccR4xO3u.s 			page 121


 5054 0054 BA68     		ldr	r2, [r7, #8]
 5055 0056 0A43     		orrs	r2, r2, r1
 5056 0058 9A60     		str	r2, [r3, #8]
 5057              	.L345:
1821:Drivers/STM32L4xx_HAL_Driver/Src/stm32l4xx_hal_tim_ex.c ****   }
1822:Drivers/STM32L4xx_HAL_Driver/Src/stm32l4xx_hal_tim_ex.c **** 
1823:Drivers/STM32L4xx_HAL_Driver/Src/stm32l4xx_hal_tim_ex.c ****   /* Select the Capture Compare preload feature */
1824:Drivers/STM32L4xx_HAL_Driver/Src/stm32l4xx_hal_tim_ex.c ****   htim->Instance->CR2 |= TIM_CR2_CCPC;
 5058              		.loc 1 1824 7
 5059 005a FB68     		ldr	r3, [r7, #12]
 5060 005c 1B68     		ldr	r3, [r3]
 5061              		.loc 1 1824 23
 5062 005e 5A68     		ldr	r2, [r3, #4]
 5063              		.loc 1 1824 7
 5064 0060 FB68     		ldr	r3, [r7, #12]
 5065 0062 1B68     		ldr	r3, [r3]
 5066              		.loc 1 1824 23
 5067 0064 42F00102 		orr	r2, r2, #1
 5068 0068 5A60     		str	r2, [r3, #4]
1825:Drivers/STM32L4xx_HAL_Driver/Src/stm32l4xx_hal_tim_ex.c ****   /* Select the Commutation event source */
1826:Drivers/STM32L4xx_HAL_Driver/Src/stm32l4xx_hal_tim_ex.c ****   htim->Instance->CR2 &= ~TIM_CR2_CCUS;
 5069              		.loc 1 1826 7
 5070 006a FB68     		ldr	r3, [r7, #12]
 5071 006c 1B68     		ldr	r3, [r3]
 5072              		.loc 1 1826 23
 5073 006e 5A68     		ldr	r2, [r3, #4]
 5074              		.loc 1 1826 7
 5075 0070 FB68     		ldr	r3, [r7, #12]
 5076 0072 1B68     		ldr	r3, [r3]
 5077              		.loc 1 1826 23
 5078 0074 22F00402 		bic	r2, r2, #4
 5079 0078 5A60     		str	r2, [r3, #4]
1827:Drivers/STM32L4xx_HAL_Driver/Src/stm32l4xx_hal_tim_ex.c ****   htim->Instance->CR2 |= CommutationSource;
 5080              		.loc 1 1827 7
 5081 007a FB68     		ldr	r3, [r7, #12]
 5082 007c 1B68     		ldr	r3, [r3]
 5083              		.loc 1 1827 23
 5084 007e 5968     		ldr	r1, [r3, #4]
 5085              		.loc 1 1827 7
 5086 0080 FB68     		ldr	r3, [r7, #12]
 5087 0082 1B68     		ldr	r3, [r3]
 5088              		.loc 1 1827 23
 5089 0084 7A68     		ldr	r2, [r7, #4]
 5090 0086 0A43     		orrs	r2, r2, r1
 5091 0088 5A60     		str	r2, [r3, #4]
1828:Drivers/STM32L4xx_HAL_Driver/Src/stm32l4xx_hal_tim_ex.c **** 
1829:Drivers/STM32L4xx_HAL_Driver/Src/stm32l4xx_hal_tim_ex.c ****   /* Disable Commutation Interrupt */
1830:Drivers/STM32L4xx_HAL_Driver/Src/stm32l4xx_hal_tim_ex.c ****   __HAL_TIM_DISABLE_IT(htim, TIM_IT_COM);
 5092              		.loc 1 1830 3
 5093 008a FB68     		ldr	r3, [r7, #12]
 5094 008c 1B68     		ldr	r3, [r3]
 5095 008e DA68     		ldr	r2, [r3, #12]
 5096 0090 FB68     		ldr	r3, [r7, #12]
 5097 0092 1B68     		ldr	r3, [r3]
 5098 0094 22F02002 		bic	r2, r2, #32
 5099 0098 DA60     		str	r2, [r3, #12]
1831:Drivers/STM32L4xx_HAL_Driver/Src/stm32l4xx_hal_tim_ex.c **** 
ARM GAS  /tmp/ccR4xO3u.s 			page 122


1832:Drivers/STM32L4xx_HAL_Driver/Src/stm32l4xx_hal_tim_ex.c ****   /* Disable Commutation DMA request */
1833:Drivers/STM32L4xx_HAL_Driver/Src/stm32l4xx_hal_tim_ex.c ****   __HAL_TIM_DISABLE_DMA(htim, TIM_DMA_COM);
 5100              		.loc 1 1833 3
 5101 009a FB68     		ldr	r3, [r7, #12]
 5102 009c 1B68     		ldr	r3, [r3]
 5103 009e DA68     		ldr	r2, [r3, #12]
 5104 00a0 FB68     		ldr	r3, [r7, #12]
 5105 00a2 1B68     		ldr	r3, [r3]
 5106 00a4 22F40052 		bic	r2, r2, #8192
 5107 00a8 DA60     		str	r2, [r3, #12]
1834:Drivers/STM32L4xx_HAL_Driver/Src/stm32l4xx_hal_tim_ex.c **** 
1835:Drivers/STM32L4xx_HAL_Driver/Src/stm32l4xx_hal_tim_ex.c ****   __HAL_UNLOCK(htim);
 5108              		.loc 1 1835 3
 5109 00aa FB68     		ldr	r3, [r7, #12]
 5110 00ac 0022     		movs	r2, #0
 5111 00ae 83F83C20 		strb	r2, [r3, #60]
1836:Drivers/STM32L4xx_HAL_Driver/Src/stm32l4xx_hal_tim_ex.c **** 
1837:Drivers/STM32L4xx_HAL_Driver/Src/stm32l4xx_hal_tim_ex.c ****   return HAL_OK;
 5112              		.loc 1 1837 10
 5113 00b2 0023     		movs	r3, #0
 5114              	.L343:
1838:Drivers/STM32L4xx_HAL_Driver/Src/stm32l4xx_hal_tim_ex.c **** }
 5115              		.loc 1 1838 1
 5116 00b4 1846     		mov	r0, r3
 5117 00b6 1437     		adds	r7, r7, #20
 5118              	.LCFI135:
 5119              		.cfi_def_cfa_offset 4
 5120 00b8 BD46     		mov	sp, r7
 5121              	.LCFI136:
 5122              		.cfi_def_cfa_register 13
 5123              		@ sp needed
 5124 00ba 5DF8047B 		ldr	r7, [sp], #4
 5125              	.LCFI137:
 5126              		.cfi_restore 7
 5127              		.cfi_def_cfa_offset 0
 5128 00be 7047     		bx	lr
 5129              		.cfi_endproc
 5130              	.LFE158:
 5132              		.section	.text.HAL_TIMEx_ConfigCommutEvent_IT,"ax",%progbits
 5133              		.align	1
 5134              		.global	HAL_TIMEx_ConfigCommutEvent_IT
 5135              		.syntax unified
 5136              		.thumb
 5137              		.thumb_func
 5139              	HAL_TIMEx_ConfigCommutEvent_IT:
 5140              	.LFB159:
1839:Drivers/STM32L4xx_HAL_Driver/Src/stm32l4xx_hal_tim_ex.c **** 
1840:Drivers/STM32L4xx_HAL_Driver/Src/stm32l4xx_hal_tim_ex.c **** /**
1841:Drivers/STM32L4xx_HAL_Driver/Src/stm32l4xx_hal_tim_ex.c ****   * @brief  Configure the TIM commutation event sequence with interrupt.
1842:Drivers/STM32L4xx_HAL_Driver/Src/stm32l4xx_hal_tim_ex.c ****   * @note  This function is mandatory to use the commutation event in order to
1843:Drivers/STM32L4xx_HAL_Driver/Src/stm32l4xx_hal_tim_ex.c ****   *        update the configuration at each commutation detection on the TRGI input of the Timer,
1844:Drivers/STM32L4xx_HAL_Driver/Src/stm32l4xx_hal_tim_ex.c ****   *        the typical use of this feature is with the use of another Timer(interface Timer)
1845:Drivers/STM32L4xx_HAL_Driver/Src/stm32l4xx_hal_tim_ex.c ****   *        configured in Hall sensor interface, this interface Timer will generate the
1846:Drivers/STM32L4xx_HAL_Driver/Src/stm32l4xx_hal_tim_ex.c ****   *        commutation at its TRGO output (connected to Timer used in this function) each time
1847:Drivers/STM32L4xx_HAL_Driver/Src/stm32l4xx_hal_tim_ex.c ****   *        the TI1 of the Interface Timer detect a commutation at its input TI1.
1848:Drivers/STM32L4xx_HAL_Driver/Src/stm32l4xx_hal_tim_ex.c ****   * @param  htim TIM handle
1849:Drivers/STM32L4xx_HAL_Driver/Src/stm32l4xx_hal_tim_ex.c ****   * @param  InputTrigger the Internal trigger corresponding to the Timer Interfacing with the Hall 
ARM GAS  /tmp/ccR4xO3u.s 			page 123


1850:Drivers/STM32L4xx_HAL_Driver/Src/stm32l4xx_hal_tim_ex.c ****   *          This parameter can be one of the following values:
1851:Drivers/STM32L4xx_HAL_Driver/Src/stm32l4xx_hal_tim_ex.c ****   *            @arg TIM_TS_ITR0: Internal trigger 0 selected
1852:Drivers/STM32L4xx_HAL_Driver/Src/stm32l4xx_hal_tim_ex.c ****   *            @arg TIM_TS_ITR1: Internal trigger 1 selected
1853:Drivers/STM32L4xx_HAL_Driver/Src/stm32l4xx_hal_tim_ex.c ****   *            @arg TIM_TS_ITR2: Internal trigger 2 selected
1854:Drivers/STM32L4xx_HAL_Driver/Src/stm32l4xx_hal_tim_ex.c ****   *            @arg TIM_TS_ITR3: Internal trigger 3 selected
1855:Drivers/STM32L4xx_HAL_Driver/Src/stm32l4xx_hal_tim_ex.c ****   *            @arg TIM_TS_NONE: No trigger is needed
1856:Drivers/STM32L4xx_HAL_Driver/Src/stm32l4xx_hal_tim_ex.c ****   * @param  CommutationSource the Commutation Event source
1857:Drivers/STM32L4xx_HAL_Driver/Src/stm32l4xx_hal_tim_ex.c ****   *          This parameter can be one of the following values:
1858:Drivers/STM32L4xx_HAL_Driver/Src/stm32l4xx_hal_tim_ex.c ****   *            @arg TIM_COMMUTATION_TRGI: Commutation source is the TRGI of the Interface Timer
1859:Drivers/STM32L4xx_HAL_Driver/Src/stm32l4xx_hal_tim_ex.c ****   *            @arg TIM_COMMUTATION_SOFTWARE:  Commutation source is set by software using the COMG
1860:Drivers/STM32L4xx_HAL_Driver/Src/stm32l4xx_hal_tim_ex.c ****   * @retval HAL status
1861:Drivers/STM32L4xx_HAL_Driver/Src/stm32l4xx_hal_tim_ex.c ****   */
1862:Drivers/STM32L4xx_HAL_Driver/Src/stm32l4xx_hal_tim_ex.c **** HAL_StatusTypeDef HAL_TIMEx_ConfigCommutEvent_IT(TIM_HandleTypeDef *htim, uint32_t  InputTrigger,
1863:Drivers/STM32L4xx_HAL_Driver/Src/stm32l4xx_hal_tim_ex.c ****                                                  uint32_t  CommutationSource)
1864:Drivers/STM32L4xx_HAL_Driver/Src/stm32l4xx_hal_tim_ex.c **** {
 5141              		.loc 1 1864 1
 5142              		.cfi_startproc
 5143              		@ args = 0, pretend = 0, frame = 16
 5144              		@ frame_needed = 1, uses_anonymous_args = 0
 5145              		@ link register save eliminated.
 5146 0000 80B4     		push	{r7}
 5147              	.LCFI138:
 5148              		.cfi_def_cfa_offset 4
 5149              		.cfi_offset 7, -4
 5150 0002 85B0     		sub	sp, sp, #20
 5151              	.LCFI139:
 5152              		.cfi_def_cfa_offset 24
 5153 0004 00AF     		add	r7, sp, #0
 5154              	.LCFI140:
 5155              		.cfi_def_cfa_register 7
 5156 0006 F860     		str	r0, [r7, #12]
 5157 0008 B960     		str	r1, [r7, #8]
 5158 000a 7A60     		str	r2, [r7, #4]
1865:Drivers/STM32L4xx_HAL_Driver/Src/stm32l4xx_hal_tim_ex.c ****   /* Check the parameters */
1866:Drivers/STM32L4xx_HAL_Driver/Src/stm32l4xx_hal_tim_ex.c ****   assert_param(IS_TIM_COMMUTATION_EVENT_INSTANCE(htim->Instance));
1867:Drivers/STM32L4xx_HAL_Driver/Src/stm32l4xx_hal_tim_ex.c ****   assert_param(IS_TIM_INTERNAL_TRIGGEREVENT_SELECTION(InputTrigger));
1868:Drivers/STM32L4xx_HAL_Driver/Src/stm32l4xx_hal_tim_ex.c **** 
1869:Drivers/STM32L4xx_HAL_Driver/Src/stm32l4xx_hal_tim_ex.c ****   __HAL_LOCK(htim);
 5159              		.loc 1 1869 3
 5160 000c FB68     		ldr	r3, [r7, #12]
 5161 000e 93F83C30 		ldrb	r3, [r3, #60]	@ zero_extendqisi2
 5162 0012 012B     		cmp	r3, #1
 5163 0014 01D1     		bne	.L347
 5164              		.loc 1 1869 3 is_stmt 0 discriminator 1
 5165 0016 0223     		movs	r3, #2
 5166 0018 4CE0     		b	.L348
 5167              	.L347:
 5168              		.loc 1 1869 3 discriminator 2
 5169 001a FB68     		ldr	r3, [r7, #12]
 5170 001c 0122     		movs	r2, #1
 5171 001e 83F83C20 		strb	r2, [r3, #60]
1870:Drivers/STM32L4xx_HAL_Driver/Src/stm32l4xx_hal_tim_ex.c **** 
1871:Drivers/STM32L4xx_HAL_Driver/Src/stm32l4xx_hal_tim_ex.c ****   if ((InputTrigger == TIM_TS_ITR0) || (InputTrigger == TIM_TS_ITR1) ||
 5172              		.loc 1 1871 6 is_stmt 1 discriminator 2
 5173 0022 BB68     		ldr	r3, [r7, #8]
 5174 0024 002B     		cmp	r3, #0
 5175 0026 08D0     		beq	.L349
ARM GAS  /tmp/ccR4xO3u.s 			page 124


 5176              		.loc 1 1871 37 discriminator 1
 5177 0028 BB68     		ldr	r3, [r7, #8]
 5178 002a 102B     		cmp	r3, #16
 5179 002c 05D0     		beq	.L349
 5180              		.loc 1 1871 70 discriminator 2
 5181 002e BB68     		ldr	r3, [r7, #8]
 5182 0030 202B     		cmp	r3, #32
 5183 0032 02D0     		beq	.L349
1872:Drivers/STM32L4xx_HAL_Driver/Src/stm32l4xx_hal_tim_ex.c ****       (InputTrigger == TIM_TS_ITR2) || (InputTrigger == TIM_TS_ITR3))
 5184              		.loc 1 1872 37
 5185 0034 BB68     		ldr	r3, [r7, #8]
 5186 0036 302B     		cmp	r3, #48
 5187 0038 0FD1     		bne	.L350
 5188              	.L349:
1873:Drivers/STM32L4xx_HAL_Driver/Src/stm32l4xx_hal_tim_ex.c ****   {
1874:Drivers/STM32L4xx_HAL_Driver/Src/stm32l4xx_hal_tim_ex.c ****     /* Select the Input trigger */
1875:Drivers/STM32L4xx_HAL_Driver/Src/stm32l4xx_hal_tim_ex.c ****     htim->Instance->SMCR &= ~TIM_SMCR_TS;
 5189              		.loc 1 1875 9
 5190 003a FB68     		ldr	r3, [r7, #12]
 5191 003c 1B68     		ldr	r3, [r3]
 5192              		.loc 1 1875 26
 5193 003e 9A68     		ldr	r2, [r3, #8]
 5194              		.loc 1 1875 9
 5195 0040 FB68     		ldr	r3, [r7, #12]
 5196 0042 1B68     		ldr	r3, [r3]
 5197              		.loc 1 1875 26
 5198 0044 22F07002 		bic	r2, r2, #112
 5199 0048 9A60     		str	r2, [r3, #8]
1876:Drivers/STM32L4xx_HAL_Driver/Src/stm32l4xx_hal_tim_ex.c ****     htim->Instance->SMCR |= InputTrigger;
 5200              		.loc 1 1876 9
 5201 004a FB68     		ldr	r3, [r7, #12]
 5202 004c 1B68     		ldr	r3, [r3]
 5203              		.loc 1 1876 26
 5204 004e 9968     		ldr	r1, [r3, #8]
 5205              		.loc 1 1876 9
 5206 0050 FB68     		ldr	r3, [r7, #12]
 5207 0052 1B68     		ldr	r3, [r3]
 5208              		.loc 1 1876 26
 5209 0054 BA68     		ldr	r2, [r7, #8]
 5210 0056 0A43     		orrs	r2, r2, r1
 5211 0058 9A60     		str	r2, [r3, #8]
 5212              	.L350:
1877:Drivers/STM32L4xx_HAL_Driver/Src/stm32l4xx_hal_tim_ex.c ****   }
1878:Drivers/STM32L4xx_HAL_Driver/Src/stm32l4xx_hal_tim_ex.c **** 
1879:Drivers/STM32L4xx_HAL_Driver/Src/stm32l4xx_hal_tim_ex.c ****   /* Select the Capture Compare preload feature */
1880:Drivers/STM32L4xx_HAL_Driver/Src/stm32l4xx_hal_tim_ex.c ****   htim->Instance->CR2 |= TIM_CR2_CCPC;
 5213              		.loc 1 1880 7
 5214 005a FB68     		ldr	r3, [r7, #12]
 5215 005c 1B68     		ldr	r3, [r3]
 5216              		.loc 1 1880 23
 5217 005e 5A68     		ldr	r2, [r3, #4]
 5218              		.loc 1 1880 7
 5219 0060 FB68     		ldr	r3, [r7, #12]
 5220 0062 1B68     		ldr	r3, [r3]
 5221              		.loc 1 1880 23
 5222 0064 42F00102 		orr	r2, r2, #1
 5223 0068 5A60     		str	r2, [r3, #4]
ARM GAS  /tmp/ccR4xO3u.s 			page 125


1881:Drivers/STM32L4xx_HAL_Driver/Src/stm32l4xx_hal_tim_ex.c ****   /* Select the Commutation event source */
1882:Drivers/STM32L4xx_HAL_Driver/Src/stm32l4xx_hal_tim_ex.c ****   htim->Instance->CR2 &= ~TIM_CR2_CCUS;
 5224              		.loc 1 1882 7
 5225 006a FB68     		ldr	r3, [r7, #12]
 5226 006c 1B68     		ldr	r3, [r3]
 5227              		.loc 1 1882 23
 5228 006e 5A68     		ldr	r2, [r3, #4]
 5229              		.loc 1 1882 7
 5230 0070 FB68     		ldr	r3, [r7, #12]
 5231 0072 1B68     		ldr	r3, [r3]
 5232              		.loc 1 1882 23
 5233 0074 22F00402 		bic	r2, r2, #4
 5234 0078 5A60     		str	r2, [r3, #4]
1883:Drivers/STM32L4xx_HAL_Driver/Src/stm32l4xx_hal_tim_ex.c ****   htim->Instance->CR2 |= CommutationSource;
 5235              		.loc 1 1883 7
 5236 007a FB68     		ldr	r3, [r7, #12]
 5237 007c 1B68     		ldr	r3, [r3]
 5238              		.loc 1 1883 23
 5239 007e 5968     		ldr	r1, [r3, #4]
 5240              		.loc 1 1883 7
 5241 0080 FB68     		ldr	r3, [r7, #12]
 5242 0082 1B68     		ldr	r3, [r3]
 5243              		.loc 1 1883 23
 5244 0084 7A68     		ldr	r2, [r7, #4]
 5245 0086 0A43     		orrs	r2, r2, r1
 5246 0088 5A60     		str	r2, [r3, #4]
1884:Drivers/STM32L4xx_HAL_Driver/Src/stm32l4xx_hal_tim_ex.c **** 
1885:Drivers/STM32L4xx_HAL_Driver/Src/stm32l4xx_hal_tim_ex.c ****   /* Disable Commutation DMA request */
1886:Drivers/STM32L4xx_HAL_Driver/Src/stm32l4xx_hal_tim_ex.c ****   __HAL_TIM_DISABLE_DMA(htim, TIM_DMA_COM);
 5247              		.loc 1 1886 3
 5248 008a FB68     		ldr	r3, [r7, #12]
 5249 008c 1B68     		ldr	r3, [r3]
 5250 008e DA68     		ldr	r2, [r3, #12]
 5251 0090 FB68     		ldr	r3, [r7, #12]
 5252 0092 1B68     		ldr	r3, [r3]
 5253 0094 22F40052 		bic	r2, r2, #8192
 5254 0098 DA60     		str	r2, [r3, #12]
1887:Drivers/STM32L4xx_HAL_Driver/Src/stm32l4xx_hal_tim_ex.c **** 
1888:Drivers/STM32L4xx_HAL_Driver/Src/stm32l4xx_hal_tim_ex.c ****   /* Enable the Commutation Interrupt */
1889:Drivers/STM32L4xx_HAL_Driver/Src/stm32l4xx_hal_tim_ex.c ****   __HAL_TIM_ENABLE_IT(htim, TIM_IT_COM);
 5255              		.loc 1 1889 3
 5256 009a FB68     		ldr	r3, [r7, #12]
 5257 009c 1B68     		ldr	r3, [r3]
 5258 009e DA68     		ldr	r2, [r3, #12]
 5259 00a0 FB68     		ldr	r3, [r7, #12]
 5260 00a2 1B68     		ldr	r3, [r3]
 5261 00a4 42F02002 		orr	r2, r2, #32
 5262 00a8 DA60     		str	r2, [r3, #12]
1890:Drivers/STM32L4xx_HAL_Driver/Src/stm32l4xx_hal_tim_ex.c **** 
1891:Drivers/STM32L4xx_HAL_Driver/Src/stm32l4xx_hal_tim_ex.c ****   __HAL_UNLOCK(htim);
 5263              		.loc 1 1891 3
 5264 00aa FB68     		ldr	r3, [r7, #12]
 5265 00ac 0022     		movs	r2, #0
 5266 00ae 83F83C20 		strb	r2, [r3, #60]
1892:Drivers/STM32L4xx_HAL_Driver/Src/stm32l4xx_hal_tim_ex.c **** 
1893:Drivers/STM32L4xx_HAL_Driver/Src/stm32l4xx_hal_tim_ex.c ****   return HAL_OK;
 5267              		.loc 1 1893 10
ARM GAS  /tmp/ccR4xO3u.s 			page 126


 5268 00b2 0023     		movs	r3, #0
 5269              	.L348:
1894:Drivers/STM32L4xx_HAL_Driver/Src/stm32l4xx_hal_tim_ex.c **** }
 5270              		.loc 1 1894 1
 5271 00b4 1846     		mov	r0, r3
 5272 00b6 1437     		adds	r7, r7, #20
 5273              	.LCFI141:
 5274              		.cfi_def_cfa_offset 4
 5275 00b8 BD46     		mov	sp, r7
 5276              	.LCFI142:
 5277              		.cfi_def_cfa_register 13
 5278              		@ sp needed
 5279 00ba 5DF8047B 		ldr	r7, [sp], #4
 5280              	.LCFI143:
 5281              		.cfi_restore 7
 5282              		.cfi_def_cfa_offset 0
 5283 00be 7047     		bx	lr
 5284              		.cfi_endproc
 5285              	.LFE159:
 5287              		.section	.text.HAL_TIMEx_ConfigCommutEvent_DMA,"ax",%progbits
 5288              		.align	1
 5289              		.global	HAL_TIMEx_ConfigCommutEvent_DMA
 5290              		.syntax unified
 5291              		.thumb
 5292              		.thumb_func
 5294              	HAL_TIMEx_ConfigCommutEvent_DMA:
 5295              	.LFB160:
1895:Drivers/STM32L4xx_HAL_Driver/Src/stm32l4xx_hal_tim_ex.c **** 
1896:Drivers/STM32L4xx_HAL_Driver/Src/stm32l4xx_hal_tim_ex.c **** /**
1897:Drivers/STM32L4xx_HAL_Driver/Src/stm32l4xx_hal_tim_ex.c ****   * @brief  Configure the TIM commutation event sequence with DMA.
1898:Drivers/STM32L4xx_HAL_Driver/Src/stm32l4xx_hal_tim_ex.c ****   * @note  This function is mandatory to use the commutation event in order to
1899:Drivers/STM32L4xx_HAL_Driver/Src/stm32l4xx_hal_tim_ex.c ****   *        update the configuration at each commutation detection on the TRGI input of the Timer,
1900:Drivers/STM32L4xx_HAL_Driver/Src/stm32l4xx_hal_tim_ex.c ****   *        the typical use of this feature is with the use of another Timer(interface Timer)
1901:Drivers/STM32L4xx_HAL_Driver/Src/stm32l4xx_hal_tim_ex.c ****   *        configured in Hall sensor interface, this interface Timer will generate the
1902:Drivers/STM32L4xx_HAL_Driver/Src/stm32l4xx_hal_tim_ex.c ****   *        commutation at its TRGO output (connected to Timer used in this function) each time
1903:Drivers/STM32L4xx_HAL_Driver/Src/stm32l4xx_hal_tim_ex.c ****   *        the TI1 of the Interface Timer detect a commutation at its input TI1.
1904:Drivers/STM32L4xx_HAL_Driver/Src/stm32l4xx_hal_tim_ex.c ****   * @note  The user should configure the DMA in his own software, in This function only the COMDE b
1905:Drivers/STM32L4xx_HAL_Driver/Src/stm32l4xx_hal_tim_ex.c ****   * @param  htim TIM handle
1906:Drivers/STM32L4xx_HAL_Driver/Src/stm32l4xx_hal_tim_ex.c ****   * @param  InputTrigger the Internal trigger corresponding to the Timer Interfacing with the Hall 
1907:Drivers/STM32L4xx_HAL_Driver/Src/stm32l4xx_hal_tim_ex.c ****   *          This parameter can be one of the following values:
1908:Drivers/STM32L4xx_HAL_Driver/Src/stm32l4xx_hal_tim_ex.c ****   *            @arg TIM_TS_ITR0: Internal trigger 0 selected
1909:Drivers/STM32L4xx_HAL_Driver/Src/stm32l4xx_hal_tim_ex.c ****   *            @arg TIM_TS_ITR1: Internal trigger 1 selected
1910:Drivers/STM32L4xx_HAL_Driver/Src/stm32l4xx_hal_tim_ex.c ****   *            @arg TIM_TS_ITR2: Internal trigger 2 selected
1911:Drivers/STM32L4xx_HAL_Driver/Src/stm32l4xx_hal_tim_ex.c ****   *            @arg TIM_TS_ITR3: Internal trigger 3 selected
1912:Drivers/STM32L4xx_HAL_Driver/Src/stm32l4xx_hal_tim_ex.c ****   *            @arg TIM_TS_NONE: No trigger is needed
1913:Drivers/STM32L4xx_HAL_Driver/Src/stm32l4xx_hal_tim_ex.c ****   * @param  CommutationSource the Commutation Event source
1914:Drivers/STM32L4xx_HAL_Driver/Src/stm32l4xx_hal_tim_ex.c ****   *          This parameter can be one of the following values:
1915:Drivers/STM32L4xx_HAL_Driver/Src/stm32l4xx_hal_tim_ex.c ****   *            @arg TIM_COMMUTATION_TRGI: Commutation source is the TRGI of the Interface Timer
1916:Drivers/STM32L4xx_HAL_Driver/Src/stm32l4xx_hal_tim_ex.c ****   *            @arg TIM_COMMUTATION_SOFTWARE:  Commutation source is set by software using the COMG
1917:Drivers/STM32L4xx_HAL_Driver/Src/stm32l4xx_hal_tim_ex.c ****   * @retval HAL status
1918:Drivers/STM32L4xx_HAL_Driver/Src/stm32l4xx_hal_tim_ex.c ****   */
1919:Drivers/STM32L4xx_HAL_Driver/Src/stm32l4xx_hal_tim_ex.c **** HAL_StatusTypeDef HAL_TIMEx_ConfigCommutEvent_DMA(TIM_HandleTypeDef *htim, uint32_t  InputTrigger,
1920:Drivers/STM32L4xx_HAL_Driver/Src/stm32l4xx_hal_tim_ex.c ****                                                   uint32_t  CommutationSource)
1921:Drivers/STM32L4xx_HAL_Driver/Src/stm32l4xx_hal_tim_ex.c **** {
 5296              		.loc 1 1921 1
 5297              		.cfi_startproc
 5298              		@ args = 0, pretend = 0, frame = 16
ARM GAS  /tmp/ccR4xO3u.s 			page 127


 5299              		@ frame_needed = 1, uses_anonymous_args = 0
 5300              		@ link register save eliminated.
 5301 0000 80B4     		push	{r7}
 5302              	.LCFI144:
 5303              		.cfi_def_cfa_offset 4
 5304              		.cfi_offset 7, -4
 5305 0002 85B0     		sub	sp, sp, #20
 5306              	.LCFI145:
 5307              		.cfi_def_cfa_offset 24
 5308 0004 00AF     		add	r7, sp, #0
 5309              	.LCFI146:
 5310              		.cfi_def_cfa_register 7
 5311 0006 F860     		str	r0, [r7, #12]
 5312 0008 B960     		str	r1, [r7, #8]
 5313 000a 7A60     		str	r2, [r7, #4]
1922:Drivers/STM32L4xx_HAL_Driver/Src/stm32l4xx_hal_tim_ex.c ****   /* Check the parameters */
1923:Drivers/STM32L4xx_HAL_Driver/Src/stm32l4xx_hal_tim_ex.c ****   assert_param(IS_TIM_COMMUTATION_EVENT_INSTANCE(htim->Instance));
1924:Drivers/STM32L4xx_HAL_Driver/Src/stm32l4xx_hal_tim_ex.c ****   assert_param(IS_TIM_INTERNAL_TRIGGEREVENT_SELECTION(InputTrigger));
1925:Drivers/STM32L4xx_HAL_Driver/Src/stm32l4xx_hal_tim_ex.c **** 
1926:Drivers/STM32L4xx_HAL_Driver/Src/stm32l4xx_hal_tim_ex.c ****   __HAL_LOCK(htim);
 5314              		.loc 1 1926 3
 5315 000c FB68     		ldr	r3, [r7, #12]
 5316 000e 93F83C30 		ldrb	r3, [r3, #60]	@ zero_extendqisi2
 5317 0012 012B     		cmp	r3, #1
 5318 0014 01D1     		bne	.L352
 5319              		.loc 1 1926 3 is_stmt 0 discriminator 1
 5320 0016 0223     		movs	r3, #2
 5321 0018 58E0     		b	.L353
 5322              	.L352:
 5323              		.loc 1 1926 3 discriminator 2
 5324 001a FB68     		ldr	r3, [r7, #12]
 5325 001c 0122     		movs	r2, #1
 5326 001e 83F83C20 		strb	r2, [r3, #60]
1927:Drivers/STM32L4xx_HAL_Driver/Src/stm32l4xx_hal_tim_ex.c **** 
1928:Drivers/STM32L4xx_HAL_Driver/Src/stm32l4xx_hal_tim_ex.c ****   if ((InputTrigger == TIM_TS_ITR0) || (InputTrigger == TIM_TS_ITR1) ||
 5327              		.loc 1 1928 6 is_stmt 1 discriminator 2
 5328 0022 BB68     		ldr	r3, [r7, #8]
 5329 0024 002B     		cmp	r3, #0
 5330 0026 08D0     		beq	.L354
 5331              		.loc 1 1928 37 discriminator 1
 5332 0028 BB68     		ldr	r3, [r7, #8]
 5333 002a 102B     		cmp	r3, #16
 5334 002c 05D0     		beq	.L354
 5335              		.loc 1 1928 70 discriminator 2
 5336 002e BB68     		ldr	r3, [r7, #8]
 5337 0030 202B     		cmp	r3, #32
 5338 0032 02D0     		beq	.L354
1929:Drivers/STM32L4xx_HAL_Driver/Src/stm32l4xx_hal_tim_ex.c ****       (InputTrigger == TIM_TS_ITR2) || (InputTrigger == TIM_TS_ITR3))
 5339              		.loc 1 1929 37
 5340 0034 BB68     		ldr	r3, [r7, #8]
 5341 0036 302B     		cmp	r3, #48
 5342 0038 0FD1     		bne	.L355
 5343              	.L354:
1930:Drivers/STM32L4xx_HAL_Driver/Src/stm32l4xx_hal_tim_ex.c ****   {
1931:Drivers/STM32L4xx_HAL_Driver/Src/stm32l4xx_hal_tim_ex.c ****     /* Select the Input trigger */
1932:Drivers/STM32L4xx_HAL_Driver/Src/stm32l4xx_hal_tim_ex.c ****     htim->Instance->SMCR &= ~TIM_SMCR_TS;
 5344              		.loc 1 1932 9
ARM GAS  /tmp/ccR4xO3u.s 			page 128


 5345 003a FB68     		ldr	r3, [r7, #12]
 5346 003c 1B68     		ldr	r3, [r3]
 5347              		.loc 1 1932 26
 5348 003e 9A68     		ldr	r2, [r3, #8]
 5349              		.loc 1 1932 9
 5350 0040 FB68     		ldr	r3, [r7, #12]
 5351 0042 1B68     		ldr	r3, [r3]
 5352              		.loc 1 1932 26
 5353 0044 22F07002 		bic	r2, r2, #112
 5354 0048 9A60     		str	r2, [r3, #8]
1933:Drivers/STM32L4xx_HAL_Driver/Src/stm32l4xx_hal_tim_ex.c ****     htim->Instance->SMCR |= InputTrigger;
 5355              		.loc 1 1933 9
 5356 004a FB68     		ldr	r3, [r7, #12]
 5357 004c 1B68     		ldr	r3, [r3]
 5358              		.loc 1 1933 26
 5359 004e 9968     		ldr	r1, [r3, #8]
 5360              		.loc 1 1933 9
 5361 0050 FB68     		ldr	r3, [r7, #12]
 5362 0052 1B68     		ldr	r3, [r3]
 5363              		.loc 1 1933 26
 5364 0054 BA68     		ldr	r2, [r7, #8]
 5365 0056 0A43     		orrs	r2, r2, r1
 5366 0058 9A60     		str	r2, [r3, #8]
 5367              	.L355:
1934:Drivers/STM32L4xx_HAL_Driver/Src/stm32l4xx_hal_tim_ex.c ****   }
1935:Drivers/STM32L4xx_HAL_Driver/Src/stm32l4xx_hal_tim_ex.c **** 
1936:Drivers/STM32L4xx_HAL_Driver/Src/stm32l4xx_hal_tim_ex.c ****   /* Select the Capture Compare preload feature */
1937:Drivers/STM32L4xx_HAL_Driver/Src/stm32l4xx_hal_tim_ex.c ****   htim->Instance->CR2 |= TIM_CR2_CCPC;
 5368              		.loc 1 1937 7
 5369 005a FB68     		ldr	r3, [r7, #12]
 5370 005c 1B68     		ldr	r3, [r3]
 5371              		.loc 1 1937 23
 5372 005e 5A68     		ldr	r2, [r3, #4]
 5373              		.loc 1 1937 7
 5374 0060 FB68     		ldr	r3, [r7, #12]
 5375 0062 1B68     		ldr	r3, [r3]
 5376              		.loc 1 1937 23
 5377 0064 42F00102 		orr	r2, r2, #1
 5378 0068 5A60     		str	r2, [r3, #4]
1938:Drivers/STM32L4xx_HAL_Driver/Src/stm32l4xx_hal_tim_ex.c ****   /* Select the Commutation event source */
1939:Drivers/STM32L4xx_HAL_Driver/Src/stm32l4xx_hal_tim_ex.c ****   htim->Instance->CR2 &= ~TIM_CR2_CCUS;
 5379              		.loc 1 1939 7
 5380 006a FB68     		ldr	r3, [r7, #12]
 5381 006c 1B68     		ldr	r3, [r3]
 5382              		.loc 1 1939 23
 5383 006e 5A68     		ldr	r2, [r3, #4]
 5384              		.loc 1 1939 7
 5385 0070 FB68     		ldr	r3, [r7, #12]
 5386 0072 1B68     		ldr	r3, [r3]
 5387              		.loc 1 1939 23
 5388 0074 22F00402 		bic	r2, r2, #4
 5389 0078 5A60     		str	r2, [r3, #4]
1940:Drivers/STM32L4xx_HAL_Driver/Src/stm32l4xx_hal_tim_ex.c ****   htim->Instance->CR2 |= CommutationSource;
 5390              		.loc 1 1940 7
 5391 007a FB68     		ldr	r3, [r7, #12]
 5392 007c 1B68     		ldr	r3, [r3]
 5393              		.loc 1 1940 23
ARM GAS  /tmp/ccR4xO3u.s 			page 129


 5394 007e 5968     		ldr	r1, [r3, #4]
 5395              		.loc 1 1940 7
 5396 0080 FB68     		ldr	r3, [r7, #12]
 5397 0082 1B68     		ldr	r3, [r3]
 5398              		.loc 1 1940 23
 5399 0084 7A68     		ldr	r2, [r7, #4]
 5400 0086 0A43     		orrs	r2, r2, r1
 5401 0088 5A60     		str	r2, [r3, #4]
1941:Drivers/STM32L4xx_HAL_Driver/Src/stm32l4xx_hal_tim_ex.c **** 
1942:Drivers/STM32L4xx_HAL_Driver/Src/stm32l4xx_hal_tim_ex.c ****   /* Enable the Commutation DMA Request */
1943:Drivers/STM32L4xx_HAL_Driver/Src/stm32l4xx_hal_tim_ex.c ****   /* Set the DMA Commutation Callback */
1944:Drivers/STM32L4xx_HAL_Driver/Src/stm32l4xx_hal_tim_ex.c ****   htim->hdma[TIM_DMA_ID_COMMUTATION]->XferCpltCallback = TIMEx_DMACommutationCplt;
 5402              		.loc 1 1944 13
 5403 008a FB68     		ldr	r3, [r7, #12]
 5404 008c 5B6B     		ldr	r3, [r3, #52]
 5405              		.loc 1 1944 56
 5406 008e 124A     		ldr	r2, .L356
 5407 0090 DA62     		str	r2, [r3, #44]
1945:Drivers/STM32L4xx_HAL_Driver/Src/stm32l4xx_hal_tim_ex.c ****   htim->hdma[TIM_DMA_ID_COMMUTATION]->XferHalfCpltCallback = TIMEx_DMACommutationHalfCplt;
 5408              		.loc 1 1945 13
 5409 0092 FB68     		ldr	r3, [r7, #12]
 5410 0094 5B6B     		ldr	r3, [r3, #52]
 5411              		.loc 1 1945 60
 5412 0096 114A     		ldr	r2, .L356+4
 5413 0098 1A63     		str	r2, [r3, #48]
1946:Drivers/STM32L4xx_HAL_Driver/Src/stm32l4xx_hal_tim_ex.c ****   /* Set the DMA error callback */
1947:Drivers/STM32L4xx_HAL_Driver/Src/stm32l4xx_hal_tim_ex.c ****   htim->hdma[TIM_DMA_ID_COMMUTATION]->XferErrorCallback = TIM_DMAError;
 5414              		.loc 1 1947 13
 5415 009a FB68     		ldr	r3, [r7, #12]
 5416 009c 5B6B     		ldr	r3, [r3, #52]
 5417              		.loc 1 1947 57
 5418 009e 104A     		ldr	r2, .L356+8
 5419 00a0 5A63     		str	r2, [r3, #52]
1948:Drivers/STM32L4xx_HAL_Driver/Src/stm32l4xx_hal_tim_ex.c **** 
1949:Drivers/STM32L4xx_HAL_Driver/Src/stm32l4xx_hal_tim_ex.c ****   /* Disable Commutation Interrupt */
1950:Drivers/STM32L4xx_HAL_Driver/Src/stm32l4xx_hal_tim_ex.c ****   __HAL_TIM_DISABLE_IT(htim, TIM_IT_COM);
 5420              		.loc 1 1950 3
 5421 00a2 FB68     		ldr	r3, [r7, #12]
 5422 00a4 1B68     		ldr	r3, [r3]
 5423 00a6 DA68     		ldr	r2, [r3, #12]
 5424 00a8 FB68     		ldr	r3, [r7, #12]
 5425 00aa 1B68     		ldr	r3, [r3]
 5426 00ac 22F02002 		bic	r2, r2, #32
 5427 00b0 DA60     		str	r2, [r3, #12]
1951:Drivers/STM32L4xx_HAL_Driver/Src/stm32l4xx_hal_tim_ex.c **** 
1952:Drivers/STM32L4xx_HAL_Driver/Src/stm32l4xx_hal_tim_ex.c ****   /* Enable the Commutation DMA Request */
1953:Drivers/STM32L4xx_HAL_Driver/Src/stm32l4xx_hal_tim_ex.c ****   __HAL_TIM_ENABLE_DMA(htim, TIM_DMA_COM);
 5428              		.loc 1 1953 3
 5429 00b2 FB68     		ldr	r3, [r7, #12]
 5430 00b4 1B68     		ldr	r3, [r3]
 5431 00b6 DA68     		ldr	r2, [r3, #12]
 5432 00b8 FB68     		ldr	r3, [r7, #12]
 5433 00ba 1B68     		ldr	r3, [r3]
 5434 00bc 42F40052 		orr	r2, r2, #8192
 5435 00c0 DA60     		str	r2, [r3, #12]
1954:Drivers/STM32L4xx_HAL_Driver/Src/stm32l4xx_hal_tim_ex.c **** 
1955:Drivers/STM32L4xx_HAL_Driver/Src/stm32l4xx_hal_tim_ex.c ****   __HAL_UNLOCK(htim);
ARM GAS  /tmp/ccR4xO3u.s 			page 130


 5436              		.loc 1 1955 3
 5437 00c2 FB68     		ldr	r3, [r7, #12]
 5438 00c4 0022     		movs	r2, #0
 5439 00c6 83F83C20 		strb	r2, [r3, #60]
1956:Drivers/STM32L4xx_HAL_Driver/Src/stm32l4xx_hal_tim_ex.c **** 
1957:Drivers/STM32L4xx_HAL_Driver/Src/stm32l4xx_hal_tim_ex.c ****   return HAL_OK;
 5440              		.loc 1 1957 10
 5441 00ca 0023     		movs	r3, #0
 5442              	.L353:
1958:Drivers/STM32L4xx_HAL_Driver/Src/stm32l4xx_hal_tim_ex.c **** }
 5443              		.loc 1 1958 1
 5444 00cc 1846     		mov	r0, r3
 5445 00ce 1437     		adds	r7, r7, #20
 5446              	.LCFI147:
 5447              		.cfi_def_cfa_offset 4
 5448 00d0 BD46     		mov	sp, r7
 5449              	.LCFI148:
 5450              		.cfi_def_cfa_register 13
 5451              		@ sp needed
 5452 00d2 5DF8047B 		ldr	r7, [sp], #4
 5453              	.LCFI149:
 5454              		.cfi_restore 7
 5455              		.cfi_def_cfa_offset 0
 5456 00d6 7047     		bx	lr
 5457              	.L357:
 5458              		.align	2
 5459              	.L356:
 5460 00d8 00000000 		.word	TIMEx_DMACommutationCplt
 5461 00dc 00000000 		.word	TIMEx_DMACommutationHalfCplt
 5462 00e0 00000000 		.word	TIM_DMAError
 5463              		.cfi_endproc
 5464              	.LFE160:
 5466              		.section	.text.HAL_TIMEx_MasterConfigSynchronization,"ax",%progbits
 5467              		.align	1
 5468              		.global	HAL_TIMEx_MasterConfigSynchronization
 5469              		.syntax unified
 5470              		.thumb
 5471              		.thumb_func
 5473              	HAL_TIMEx_MasterConfigSynchronization:
 5474              	.LFB161:
1959:Drivers/STM32L4xx_HAL_Driver/Src/stm32l4xx_hal_tim_ex.c **** 
1960:Drivers/STM32L4xx_HAL_Driver/Src/stm32l4xx_hal_tim_ex.c **** /**
1961:Drivers/STM32L4xx_HAL_Driver/Src/stm32l4xx_hal_tim_ex.c ****   * @brief  Configures the TIM in master mode.
1962:Drivers/STM32L4xx_HAL_Driver/Src/stm32l4xx_hal_tim_ex.c ****   * @param  htim TIM handle.
1963:Drivers/STM32L4xx_HAL_Driver/Src/stm32l4xx_hal_tim_ex.c ****   * @param  sMasterConfig pointer to a TIM_MasterConfigTypeDef structure that
1964:Drivers/STM32L4xx_HAL_Driver/Src/stm32l4xx_hal_tim_ex.c ****   *         contains the selected trigger output (TRGO) and the Master/Slave
1965:Drivers/STM32L4xx_HAL_Driver/Src/stm32l4xx_hal_tim_ex.c ****   *         mode.
1966:Drivers/STM32L4xx_HAL_Driver/Src/stm32l4xx_hal_tim_ex.c ****   * @retval HAL status
1967:Drivers/STM32L4xx_HAL_Driver/Src/stm32l4xx_hal_tim_ex.c ****   */
1968:Drivers/STM32L4xx_HAL_Driver/Src/stm32l4xx_hal_tim_ex.c **** HAL_StatusTypeDef HAL_TIMEx_MasterConfigSynchronization(TIM_HandleTypeDef *htim,
1969:Drivers/STM32L4xx_HAL_Driver/Src/stm32l4xx_hal_tim_ex.c ****                                                         const TIM_MasterConfigTypeDef *sMasterConfi
1970:Drivers/STM32L4xx_HAL_Driver/Src/stm32l4xx_hal_tim_ex.c **** {
 5475              		.loc 1 1970 1
 5476              		.cfi_startproc
 5477              		@ args = 0, pretend = 0, frame = 16
 5478              		@ frame_needed = 1, uses_anonymous_args = 0
 5479              		@ link register save eliminated.
ARM GAS  /tmp/ccR4xO3u.s 			page 131


 5480 0000 80B4     		push	{r7}
 5481              	.LCFI150:
 5482              		.cfi_def_cfa_offset 4
 5483              		.cfi_offset 7, -4
 5484 0002 85B0     		sub	sp, sp, #20
 5485              	.LCFI151:
 5486              		.cfi_def_cfa_offset 24
 5487 0004 00AF     		add	r7, sp, #0
 5488              	.LCFI152:
 5489              		.cfi_def_cfa_register 7
 5490 0006 7860     		str	r0, [r7, #4]
 5491 0008 3960     		str	r1, [r7]
1971:Drivers/STM32L4xx_HAL_Driver/Src/stm32l4xx_hal_tim_ex.c ****   uint32_t tmpcr2;
1972:Drivers/STM32L4xx_HAL_Driver/Src/stm32l4xx_hal_tim_ex.c ****   uint32_t tmpsmcr;
1973:Drivers/STM32L4xx_HAL_Driver/Src/stm32l4xx_hal_tim_ex.c **** 
1974:Drivers/STM32L4xx_HAL_Driver/Src/stm32l4xx_hal_tim_ex.c ****   /* Check the parameters */
1975:Drivers/STM32L4xx_HAL_Driver/Src/stm32l4xx_hal_tim_ex.c ****   assert_param(IS_TIM_MASTER_INSTANCE(htim->Instance));
1976:Drivers/STM32L4xx_HAL_Driver/Src/stm32l4xx_hal_tim_ex.c ****   assert_param(IS_TIM_TRGO_SOURCE(sMasterConfig->MasterOutputTrigger));
1977:Drivers/STM32L4xx_HAL_Driver/Src/stm32l4xx_hal_tim_ex.c ****   assert_param(IS_TIM_MSM_STATE(sMasterConfig->MasterSlaveMode));
1978:Drivers/STM32L4xx_HAL_Driver/Src/stm32l4xx_hal_tim_ex.c **** 
1979:Drivers/STM32L4xx_HAL_Driver/Src/stm32l4xx_hal_tim_ex.c ****   /* Check input state */
1980:Drivers/STM32L4xx_HAL_Driver/Src/stm32l4xx_hal_tim_ex.c ****   __HAL_LOCK(htim);
 5492              		.loc 1 1980 3
 5493 000a 7B68     		ldr	r3, [r7, #4]
 5494 000c 93F83C30 		ldrb	r3, [r3, #60]	@ zero_extendqisi2
 5495 0010 012B     		cmp	r3, #1
 5496 0012 01D1     		bne	.L359
 5497              		.loc 1 1980 3 is_stmt 0 discriminator 1
 5498 0014 0223     		movs	r3, #2
 5499 0016 4FE0     		b	.L360
 5500              	.L359:
 5501              		.loc 1 1980 3 discriminator 2
 5502 0018 7B68     		ldr	r3, [r7, #4]
 5503 001a 0122     		movs	r2, #1
 5504 001c 83F83C20 		strb	r2, [r3, #60]
1981:Drivers/STM32L4xx_HAL_Driver/Src/stm32l4xx_hal_tim_ex.c **** 
1982:Drivers/STM32L4xx_HAL_Driver/Src/stm32l4xx_hal_tim_ex.c ****   /* Change the handler state */
1983:Drivers/STM32L4xx_HAL_Driver/Src/stm32l4xx_hal_tim_ex.c ****   htim->State = HAL_TIM_STATE_BUSY;
 5505              		.loc 1 1983 15 is_stmt 1 discriminator 2
 5506 0020 7B68     		ldr	r3, [r7, #4]
 5507 0022 0222     		movs	r2, #2
 5508 0024 83F83D20 		strb	r2, [r3, #61]
1984:Drivers/STM32L4xx_HAL_Driver/Src/stm32l4xx_hal_tim_ex.c **** 
1985:Drivers/STM32L4xx_HAL_Driver/Src/stm32l4xx_hal_tim_ex.c ****   /* Get the TIMx CR2 register value */
1986:Drivers/STM32L4xx_HAL_Driver/Src/stm32l4xx_hal_tim_ex.c ****   tmpcr2 = htim->Instance->CR2;
 5509              		.loc 1 1986 16 discriminator 2
 5510 0028 7B68     		ldr	r3, [r7, #4]
 5511 002a 1B68     		ldr	r3, [r3]
 5512              		.loc 1 1986 10 discriminator 2
 5513 002c 5B68     		ldr	r3, [r3, #4]
 5514 002e FB60     		str	r3, [r7, #12]
1987:Drivers/STM32L4xx_HAL_Driver/Src/stm32l4xx_hal_tim_ex.c **** 
1988:Drivers/STM32L4xx_HAL_Driver/Src/stm32l4xx_hal_tim_ex.c ****   /* Get the TIMx SMCR register value */
1989:Drivers/STM32L4xx_HAL_Driver/Src/stm32l4xx_hal_tim_ex.c ****   tmpsmcr = htim->Instance->SMCR;
 5515              		.loc 1 1989 17 discriminator 2
 5516 0030 7B68     		ldr	r3, [r7, #4]
 5517 0032 1B68     		ldr	r3, [r3]
ARM GAS  /tmp/ccR4xO3u.s 			page 132


 5518              		.loc 1 1989 11 discriminator 2
 5519 0034 9B68     		ldr	r3, [r3, #8]
 5520 0036 BB60     		str	r3, [r7, #8]
1990:Drivers/STM32L4xx_HAL_Driver/Src/stm32l4xx_hal_tim_ex.c **** 
1991:Drivers/STM32L4xx_HAL_Driver/Src/stm32l4xx_hal_tim_ex.c ****   /* If the timer supports ADC synchronization through TRGO2, set the master mode selection 2 */
1992:Drivers/STM32L4xx_HAL_Driver/Src/stm32l4xx_hal_tim_ex.c ****   if (IS_TIM_TRGO2_INSTANCE(htim->Instance))
 5521              		.loc 1 1992 7 discriminator 2
 5522 0038 7B68     		ldr	r3, [r7, #4]
 5523 003a 1B68     		ldr	r3, [r3]
 5524              		.loc 1 1992 6 discriminator 2
 5525 003c 214A     		ldr	r2, .L364
 5526 003e 9342     		cmp	r3, r2
 5527 0040 08D1     		bne	.L361
1993:Drivers/STM32L4xx_HAL_Driver/Src/stm32l4xx_hal_tim_ex.c ****   {
1994:Drivers/STM32L4xx_HAL_Driver/Src/stm32l4xx_hal_tim_ex.c ****     /* Check the parameters */
1995:Drivers/STM32L4xx_HAL_Driver/Src/stm32l4xx_hal_tim_ex.c ****     assert_param(IS_TIM_TRGO2_SOURCE(sMasterConfig->MasterOutputTrigger2));
1996:Drivers/STM32L4xx_HAL_Driver/Src/stm32l4xx_hal_tim_ex.c **** 
1997:Drivers/STM32L4xx_HAL_Driver/Src/stm32l4xx_hal_tim_ex.c ****     /* Clear the MMS2 bits */
1998:Drivers/STM32L4xx_HAL_Driver/Src/stm32l4xx_hal_tim_ex.c ****     tmpcr2 &= ~TIM_CR2_MMS2;
 5528              		.loc 1 1998 12
 5529 0042 FB68     		ldr	r3, [r7, #12]
 5530 0044 23F47003 		bic	r3, r3, #15728640
 5531 0048 FB60     		str	r3, [r7, #12]
1999:Drivers/STM32L4xx_HAL_Driver/Src/stm32l4xx_hal_tim_ex.c ****     /* Select the TRGO2 source*/
2000:Drivers/STM32L4xx_HAL_Driver/Src/stm32l4xx_hal_tim_ex.c ****     tmpcr2 |= sMasterConfig->MasterOutputTrigger2;
 5532              		.loc 1 2000 28
 5533 004a 3B68     		ldr	r3, [r7]
 5534 004c 5B68     		ldr	r3, [r3, #4]
 5535              		.loc 1 2000 12
 5536 004e FA68     		ldr	r2, [r7, #12]
 5537 0050 1343     		orrs	r3, r3, r2
 5538 0052 FB60     		str	r3, [r7, #12]
 5539              	.L361:
2001:Drivers/STM32L4xx_HAL_Driver/Src/stm32l4xx_hal_tim_ex.c ****   }
2002:Drivers/STM32L4xx_HAL_Driver/Src/stm32l4xx_hal_tim_ex.c **** 
2003:Drivers/STM32L4xx_HAL_Driver/Src/stm32l4xx_hal_tim_ex.c ****   /* Reset the MMS Bits */
2004:Drivers/STM32L4xx_HAL_Driver/Src/stm32l4xx_hal_tim_ex.c ****   tmpcr2 &= ~TIM_CR2_MMS;
 5540              		.loc 1 2004 10
 5541 0054 FB68     		ldr	r3, [r7, #12]
 5542 0056 23F07003 		bic	r3, r3, #112
 5543 005a FB60     		str	r3, [r7, #12]
2005:Drivers/STM32L4xx_HAL_Driver/Src/stm32l4xx_hal_tim_ex.c ****   /* Select the TRGO source */
2006:Drivers/STM32L4xx_HAL_Driver/Src/stm32l4xx_hal_tim_ex.c ****   tmpcr2 |=  sMasterConfig->MasterOutputTrigger;
 5544              		.loc 1 2006 27
 5545 005c 3B68     		ldr	r3, [r7]
 5546 005e 1B68     		ldr	r3, [r3]
 5547              		.loc 1 2006 10
 5548 0060 FA68     		ldr	r2, [r7, #12]
 5549 0062 1343     		orrs	r3, r3, r2
 5550 0064 FB60     		str	r3, [r7, #12]
2007:Drivers/STM32L4xx_HAL_Driver/Src/stm32l4xx_hal_tim_ex.c **** 
2008:Drivers/STM32L4xx_HAL_Driver/Src/stm32l4xx_hal_tim_ex.c ****   /* Update TIMx CR2 */
2009:Drivers/STM32L4xx_HAL_Driver/Src/stm32l4xx_hal_tim_ex.c ****   htim->Instance->CR2 = tmpcr2;
 5551              		.loc 1 2009 7
 5552 0066 7B68     		ldr	r3, [r7, #4]
 5553 0068 1B68     		ldr	r3, [r3]
 5554              		.loc 1 2009 23
ARM GAS  /tmp/ccR4xO3u.s 			page 133


 5555 006a FA68     		ldr	r2, [r7, #12]
 5556 006c 5A60     		str	r2, [r3, #4]
2010:Drivers/STM32L4xx_HAL_Driver/Src/stm32l4xx_hal_tim_ex.c **** 
2011:Drivers/STM32L4xx_HAL_Driver/Src/stm32l4xx_hal_tim_ex.c ****   if (IS_TIM_SLAVE_INSTANCE(htim->Instance))
 5557              		.loc 1 2011 7
 5558 006e 7B68     		ldr	r3, [r7, #4]
 5559 0070 1B68     		ldr	r3, [r3]
 5560              		.loc 1 2011 6
 5561 0072 144A     		ldr	r2, .L364
 5562 0074 9342     		cmp	r3, r2
 5563 0076 09D0     		beq	.L362
 5564              		.loc 1 2011 7 discriminator 1
 5565 0078 7B68     		ldr	r3, [r7, #4]
 5566 007a 1B68     		ldr	r3, [r3]
 5567 007c B3F1804F 		cmp	r3, #1073741824
 5568 0080 04D0     		beq	.L362
 5569              		.loc 1 2011 7 is_stmt 0 discriminator 2
 5570 0082 7B68     		ldr	r3, [r7, #4]
 5571 0084 1B68     		ldr	r3, [r3]
 5572 0086 104A     		ldr	r2, .L364+4
 5573 0088 9342     		cmp	r3, r2
 5574 008a 0CD1     		bne	.L363
 5575              	.L362:
2012:Drivers/STM32L4xx_HAL_Driver/Src/stm32l4xx_hal_tim_ex.c ****   {
2013:Drivers/STM32L4xx_HAL_Driver/Src/stm32l4xx_hal_tim_ex.c ****     /* Reset the MSM Bit */
2014:Drivers/STM32L4xx_HAL_Driver/Src/stm32l4xx_hal_tim_ex.c ****     tmpsmcr &= ~TIM_SMCR_MSM;
 5576              		.loc 1 2014 13 is_stmt 1
 5577 008c BB68     		ldr	r3, [r7, #8]
 5578 008e 23F08003 		bic	r3, r3, #128
 5579 0092 BB60     		str	r3, [r7, #8]
2015:Drivers/STM32L4xx_HAL_Driver/Src/stm32l4xx_hal_tim_ex.c ****     /* Set master mode */
2016:Drivers/STM32L4xx_HAL_Driver/Src/stm32l4xx_hal_tim_ex.c ****     tmpsmcr |= sMasterConfig->MasterSlaveMode;
 5580              		.loc 1 2016 29
 5581 0094 3B68     		ldr	r3, [r7]
 5582 0096 9B68     		ldr	r3, [r3, #8]
 5583              		.loc 1 2016 13
 5584 0098 BA68     		ldr	r2, [r7, #8]
 5585 009a 1343     		orrs	r3, r3, r2
 5586 009c BB60     		str	r3, [r7, #8]
2017:Drivers/STM32L4xx_HAL_Driver/Src/stm32l4xx_hal_tim_ex.c **** 
2018:Drivers/STM32L4xx_HAL_Driver/Src/stm32l4xx_hal_tim_ex.c ****     /* Update TIMx SMCR */
2019:Drivers/STM32L4xx_HAL_Driver/Src/stm32l4xx_hal_tim_ex.c ****     htim->Instance->SMCR = tmpsmcr;
 5587              		.loc 1 2019 9
 5588 009e 7B68     		ldr	r3, [r7, #4]
 5589 00a0 1B68     		ldr	r3, [r3]
 5590              		.loc 1 2019 26
 5591 00a2 BA68     		ldr	r2, [r7, #8]
 5592 00a4 9A60     		str	r2, [r3, #8]
 5593              	.L363:
2020:Drivers/STM32L4xx_HAL_Driver/Src/stm32l4xx_hal_tim_ex.c ****   }
2021:Drivers/STM32L4xx_HAL_Driver/Src/stm32l4xx_hal_tim_ex.c **** 
2022:Drivers/STM32L4xx_HAL_Driver/Src/stm32l4xx_hal_tim_ex.c ****   /* Change the htim state */
2023:Drivers/STM32L4xx_HAL_Driver/Src/stm32l4xx_hal_tim_ex.c ****   htim->State = HAL_TIM_STATE_READY;
 5594              		.loc 1 2023 15
 5595 00a6 7B68     		ldr	r3, [r7, #4]
 5596 00a8 0122     		movs	r2, #1
 5597 00aa 83F83D20 		strb	r2, [r3, #61]
ARM GAS  /tmp/ccR4xO3u.s 			page 134


2024:Drivers/STM32L4xx_HAL_Driver/Src/stm32l4xx_hal_tim_ex.c **** 
2025:Drivers/STM32L4xx_HAL_Driver/Src/stm32l4xx_hal_tim_ex.c ****   __HAL_UNLOCK(htim);
 5598              		.loc 1 2025 3
 5599 00ae 7B68     		ldr	r3, [r7, #4]
 5600 00b0 0022     		movs	r2, #0
 5601 00b2 83F83C20 		strb	r2, [r3, #60]
2026:Drivers/STM32L4xx_HAL_Driver/Src/stm32l4xx_hal_tim_ex.c **** 
2027:Drivers/STM32L4xx_HAL_Driver/Src/stm32l4xx_hal_tim_ex.c ****   return HAL_OK;
 5602              		.loc 1 2027 10
 5603 00b6 0023     		movs	r3, #0
 5604              	.L360:
2028:Drivers/STM32L4xx_HAL_Driver/Src/stm32l4xx_hal_tim_ex.c **** }
 5605              		.loc 1 2028 1
 5606 00b8 1846     		mov	r0, r3
 5607 00ba 1437     		adds	r7, r7, #20
 5608              	.LCFI153:
 5609              		.cfi_def_cfa_offset 4
 5610 00bc BD46     		mov	sp, r7
 5611              	.LCFI154:
 5612              		.cfi_def_cfa_register 13
 5613              		@ sp needed
 5614 00be 5DF8047B 		ldr	r7, [sp], #4
 5615              	.LCFI155:
 5616              		.cfi_restore 7
 5617              		.cfi_def_cfa_offset 0
 5618 00c2 7047     		bx	lr
 5619              	.L365:
 5620              		.align	2
 5621              	.L364:
 5622 00c4 002C0140 		.word	1073818624
 5623 00c8 00400140 		.word	1073823744
 5624              		.cfi_endproc
 5625              	.LFE161:
 5627              		.section	.text.HAL_TIMEx_ConfigBreakDeadTime,"ax",%progbits
 5628              		.align	1
 5629              		.global	HAL_TIMEx_ConfigBreakDeadTime
 5630              		.syntax unified
 5631              		.thumb
 5632              		.thumb_func
 5634              	HAL_TIMEx_ConfigBreakDeadTime:
 5635              	.LFB162:
2029:Drivers/STM32L4xx_HAL_Driver/Src/stm32l4xx_hal_tim_ex.c **** 
2030:Drivers/STM32L4xx_HAL_Driver/Src/stm32l4xx_hal_tim_ex.c **** /**
2031:Drivers/STM32L4xx_HAL_Driver/Src/stm32l4xx_hal_tim_ex.c ****   * @brief  Configures the Break feature, dead time, Lock level, OSSI/OSSR State
2032:Drivers/STM32L4xx_HAL_Driver/Src/stm32l4xx_hal_tim_ex.c ****   *         and the AOE(automatic output enable).
2033:Drivers/STM32L4xx_HAL_Driver/Src/stm32l4xx_hal_tim_ex.c ****   * @param  htim TIM handle
2034:Drivers/STM32L4xx_HAL_Driver/Src/stm32l4xx_hal_tim_ex.c ****   * @param  sBreakDeadTimeConfig pointer to a TIM_ConfigBreakDeadConfigTypeDef structure that
2035:Drivers/STM32L4xx_HAL_Driver/Src/stm32l4xx_hal_tim_ex.c ****   *         contains the BDTR Register configuration  information for the TIM peripheral.
2036:Drivers/STM32L4xx_HAL_Driver/Src/stm32l4xx_hal_tim_ex.c ****   * @note   Interrupts can be generated when an active level is detected on the
2037:Drivers/STM32L4xx_HAL_Driver/Src/stm32l4xx_hal_tim_ex.c ****   *         break input, the break 2 input or the system break input. Break
2038:Drivers/STM32L4xx_HAL_Driver/Src/stm32l4xx_hal_tim_ex.c ****   *         interrupt can be enabled by calling the @ref __HAL_TIM_ENABLE_IT macro.
2039:Drivers/STM32L4xx_HAL_Driver/Src/stm32l4xx_hal_tim_ex.c ****   * @retval HAL status
2040:Drivers/STM32L4xx_HAL_Driver/Src/stm32l4xx_hal_tim_ex.c ****   */
2041:Drivers/STM32L4xx_HAL_Driver/Src/stm32l4xx_hal_tim_ex.c **** HAL_StatusTypeDef HAL_TIMEx_ConfigBreakDeadTime(TIM_HandleTypeDef *htim,
2042:Drivers/STM32L4xx_HAL_Driver/Src/stm32l4xx_hal_tim_ex.c ****                                                 const TIM_BreakDeadTimeConfigTypeDef *sBreakDeadTim
2043:Drivers/STM32L4xx_HAL_Driver/Src/stm32l4xx_hal_tim_ex.c **** {
 5636              		.loc 1 2043 1
ARM GAS  /tmp/ccR4xO3u.s 			page 135


 5637              		.cfi_startproc
 5638              		@ args = 0, pretend = 0, frame = 16
 5639              		@ frame_needed = 1, uses_anonymous_args = 0
 5640              		@ link register save eliminated.
 5641 0000 80B4     		push	{r7}
 5642              	.LCFI156:
 5643              		.cfi_def_cfa_offset 4
 5644              		.cfi_offset 7, -4
 5645 0002 85B0     		sub	sp, sp, #20
 5646              	.LCFI157:
 5647              		.cfi_def_cfa_offset 24
 5648 0004 00AF     		add	r7, sp, #0
 5649              	.LCFI158:
 5650              		.cfi_def_cfa_register 7
 5651 0006 7860     		str	r0, [r7, #4]
 5652 0008 3960     		str	r1, [r7]
2044:Drivers/STM32L4xx_HAL_Driver/Src/stm32l4xx_hal_tim_ex.c ****   /* Keep this variable initialized to 0 as it is used to configure BDTR register */
2045:Drivers/STM32L4xx_HAL_Driver/Src/stm32l4xx_hal_tim_ex.c ****   uint32_t tmpbdtr = 0U;
 5653              		.loc 1 2045 12
 5654 000a 0023     		movs	r3, #0
 5655 000c FB60     		str	r3, [r7, #12]
2046:Drivers/STM32L4xx_HAL_Driver/Src/stm32l4xx_hal_tim_ex.c **** 
2047:Drivers/STM32L4xx_HAL_Driver/Src/stm32l4xx_hal_tim_ex.c ****   /* Check the parameters */
2048:Drivers/STM32L4xx_HAL_Driver/Src/stm32l4xx_hal_tim_ex.c ****   assert_param(IS_TIM_BREAK_INSTANCE(htim->Instance));
2049:Drivers/STM32L4xx_HAL_Driver/Src/stm32l4xx_hal_tim_ex.c ****   assert_param(IS_TIM_OSSR_STATE(sBreakDeadTimeConfig->OffStateRunMode));
2050:Drivers/STM32L4xx_HAL_Driver/Src/stm32l4xx_hal_tim_ex.c ****   assert_param(IS_TIM_OSSI_STATE(sBreakDeadTimeConfig->OffStateIDLEMode));
2051:Drivers/STM32L4xx_HAL_Driver/Src/stm32l4xx_hal_tim_ex.c ****   assert_param(IS_TIM_LOCK_LEVEL(sBreakDeadTimeConfig->LockLevel));
2052:Drivers/STM32L4xx_HAL_Driver/Src/stm32l4xx_hal_tim_ex.c ****   assert_param(IS_TIM_DEADTIME(sBreakDeadTimeConfig->DeadTime));
2053:Drivers/STM32L4xx_HAL_Driver/Src/stm32l4xx_hal_tim_ex.c ****   assert_param(IS_TIM_BREAK_STATE(sBreakDeadTimeConfig->BreakState));
2054:Drivers/STM32L4xx_HAL_Driver/Src/stm32l4xx_hal_tim_ex.c ****   assert_param(IS_TIM_BREAK_POLARITY(sBreakDeadTimeConfig->BreakPolarity));
2055:Drivers/STM32L4xx_HAL_Driver/Src/stm32l4xx_hal_tim_ex.c ****   assert_param(IS_TIM_BREAK_FILTER(sBreakDeadTimeConfig->BreakFilter));
2056:Drivers/STM32L4xx_HAL_Driver/Src/stm32l4xx_hal_tim_ex.c ****   assert_param(IS_TIM_AUTOMATIC_OUTPUT_STATE(sBreakDeadTimeConfig->AutomaticOutput));
2057:Drivers/STM32L4xx_HAL_Driver/Src/stm32l4xx_hal_tim_ex.c **** 
2058:Drivers/STM32L4xx_HAL_Driver/Src/stm32l4xx_hal_tim_ex.c ****   /* Check input state */
2059:Drivers/STM32L4xx_HAL_Driver/Src/stm32l4xx_hal_tim_ex.c ****   __HAL_LOCK(htim);
 5656              		.loc 1 2059 3
 5657 000e 7B68     		ldr	r3, [r7, #4]
 5658 0010 93F83C30 		ldrb	r3, [r3, #60]	@ zero_extendqisi2
 5659 0014 012B     		cmp	r3, #1
 5660 0016 01D1     		bne	.L367
 5661              		.loc 1 2059 3 is_stmt 0 discriminator 1
 5662 0018 0223     		movs	r3, #2
 5663 001a 60E0     		b	.L368
 5664              	.L367:
 5665              		.loc 1 2059 3 discriminator 2
 5666 001c 7B68     		ldr	r3, [r7, #4]
 5667 001e 0122     		movs	r2, #1
 5668 0020 83F83C20 		strb	r2, [r3, #60]
2060:Drivers/STM32L4xx_HAL_Driver/Src/stm32l4xx_hal_tim_ex.c **** 
2061:Drivers/STM32L4xx_HAL_Driver/Src/stm32l4xx_hal_tim_ex.c ****   /* Set the Lock level, the Break enable Bit and the Polarity, the OSSR State,
2062:Drivers/STM32L4xx_HAL_Driver/Src/stm32l4xx_hal_tim_ex.c ****      the OSSI State, the dead time value and the Automatic Output Enable Bit */
2063:Drivers/STM32L4xx_HAL_Driver/Src/stm32l4xx_hal_tim_ex.c **** 
2064:Drivers/STM32L4xx_HAL_Driver/Src/stm32l4xx_hal_tim_ex.c ****   /* Set the BDTR bits */
2065:Drivers/STM32L4xx_HAL_Driver/Src/stm32l4xx_hal_tim_ex.c ****   MODIFY_REG(tmpbdtr, TIM_BDTR_DTG, sBreakDeadTimeConfig->DeadTime);
 5669              		.loc 1 2065 3 is_stmt 1 discriminator 2
 5670 0024 FB68     		ldr	r3, [r7, #12]
 5671 0026 23F0FF02 		bic	r2, r3, #255
ARM GAS  /tmp/ccR4xO3u.s 			page 136


 5672 002a 3B68     		ldr	r3, [r7]
 5673 002c DB68     		ldr	r3, [r3, #12]
 5674 002e 1343     		orrs	r3, r3, r2
 5675 0030 FB60     		str	r3, [r7, #12]
2066:Drivers/STM32L4xx_HAL_Driver/Src/stm32l4xx_hal_tim_ex.c ****   MODIFY_REG(tmpbdtr, TIM_BDTR_LOCK, sBreakDeadTimeConfig->LockLevel);
 5676              		.loc 1 2066 3 discriminator 2
 5677 0032 FB68     		ldr	r3, [r7, #12]
 5678 0034 23F44072 		bic	r2, r3, #768
 5679 0038 3B68     		ldr	r3, [r7]
 5680 003a 9B68     		ldr	r3, [r3, #8]
 5681 003c 1343     		orrs	r3, r3, r2
 5682 003e FB60     		str	r3, [r7, #12]
2067:Drivers/STM32L4xx_HAL_Driver/Src/stm32l4xx_hal_tim_ex.c ****   MODIFY_REG(tmpbdtr, TIM_BDTR_OSSI, sBreakDeadTimeConfig->OffStateIDLEMode);
 5683              		.loc 1 2067 3 discriminator 2
 5684 0040 FB68     		ldr	r3, [r7, #12]
 5685 0042 23F48062 		bic	r2, r3, #1024
 5686 0046 3B68     		ldr	r3, [r7]
 5687 0048 5B68     		ldr	r3, [r3, #4]
 5688 004a 1343     		orrs	r3, r3, r2
 5689 004c FB60     		str	r3, [r7, #12]
2068:Drivers/STM32L4xx_HAL_Driver/Src/stm32l4xx_hal_tim_ex.c ****   MODIFY_REG(tmpbdtr, TIM_BDTR_OSSR, sBreakDeadTimeConfig->OffStateRunMode);
 5690              		.loc 1 2068 3 discriminator 2
 5691 004e FB68     		ldr	r3, [r7, #12]
 5692 0050 23F40062 		bic	r2, r3, #2048
 5693 0054 3B68     		ldr	r3, [r7]
 5694 0056 1B68     		ldr	r3, [r3]
 5695 0058 1343     		orrs	r3, r3, r2
 5696 005a FB60     		str	r3, [r7, #12]
2069:Drivers/STM32L4xx_HAL_Driver/Src/stm32l4xx_hal_tim_ex.c ****   MODIFY_REG(tmpbdtr, TIM_BDTR_BKE, sBreakDeadTimeConfig->BreakState);
 5697              		.loc 1 2069 3 discriminator 2
 5698 005c FB68     		ldr	r3, [r7, #12]
 5699 005e 23F48052 		bic	r2, r3, #4096
 5700 0062 3B68     		ldr	r3, [r7]
 5701 0064 1B69     		ldr	r3, [r3, #16]
 5702 0066 1343     		orrs	r3, r3, r2
 5703 0068 FB60     		str	r3, [r7, #12]
2070:Drivers/STM32L4xx_HAL_Driver/Src/stm32l4xx_hal_tim_ex.c ****   MODIFY_REG(tmpbdtr, TIM_BDTR_BKP, sBreakDeadTimeConfig->BreakPolarity);
 5704              		.loc 1 2070 3 discriminator 2
 5705 006a FB68     		ldr	r3, [r7, #12]
 5706 006c 23F40052 		bic	r2, r3, #8192
 5707 0070 3B68     		ldr	r3, [r7]
 5708 0072 5B69     		ldr	r3, [r3, #20]
 5709 0074 1343     		orrs	r3, r3, r2
 5710 0076 FB60     		str	r3, [r7, #12]
2071:Drivers/STM32L4xx_HAL_Driver/Src/stm32l4xx_hal_tim_ex.c ****   MODIFY_REG(tmpbdtr, TIM_BDTR_AOE, sBreakDeadTimeConfig->AutomaticOutput);
 5711              		.loc 1 2071 3 discriminator 2
 5712 0078 FB68     		ldr	r3, [r7, #12]
 5713 007a 23F48042 		bic	r2, r3, #16384
 5714 007e 3B68     		ldr	r3, [r7]
 5715 0080 9B6A     		ldr	r3, [r3, #40]
 5716 0082 1343     		orrs	r3, r3, r2
 5717 0084 FB60     		str	r3, [r7, #12]
2072:Drivers/STM32L4xx_HAL_Driver/Src/stm32l4xx_hal_tim_ex.c ****   MODIFY_REG(tmpbdtr, TIM_BDTR_BKF, (sBreakDeadTimeConfig->BreakFilter << TIM_BDTR_BKF_Pos));
 5718              		.loc 1 2072 3 discriminator 2
 5719 0086 FB68     		ldr	r3, [r7, #12]
 5720 0088 23F47022 		bic	r2, r3, #983040
 5721 008c 3B68     		ldr	r3, [r7]
ARM GAS  /tmp/ccR4xO3u.s 			page 137


 5722 008e 9B69     		ldr	r3, [r3, #24]
 5723 0090 1B04     		lsls	r3, r3, #16
 5724 0092 1343     		orrs	r3, r3, r2
 5725 0094 FB60     		str	r3, [r7, #12]
2073:Drivers/STM32L4xx_HAL_Driver/Src/stm32l4xx_hal_tim_ex.c **** 
2074:Drivers/STM32L4xx_HAL_Driver/Src/stm32l4xx_hal_tim_ex.c ****   if (IS_TIM_BKIN2_INSTANCE(htim->Instance))
 5726              		.loc 1 2074 7 discriminator 2
 5727 0096 7B68     		ldr	r3, [r7, #4]
 5728 0098 1B68     		ldr	r3, [r3]
 5729              		.loc 1 2074 6 discriminator 2
 5730 009a 144A     		ldr	r2, .L370
 5731 009c 9342     		cmp	r3, r2
 5732 009e 15D1     		bne	.L369
2075:Drivers/STM32L4xx_HAL_Driver/Src/stm32l4xx_hal_tim_ex.c ****   {
2076:Drivers/STM32L4xx_HAL_Driver/Src/stm32l4xx_hal_tim_ex.c ****     /* Check the parameters */
2077:Drivers/STM32L4xx_HAL_Driver/Src/stm32l4xx_hal_tim_ex.c ****     assert_param(IS_TIM_BREAK2_STATE(sBreakDeadTimeConfig->Break2State));
2078:Drivers/STM32L4xx_HAL_Driver/Src/stm32l4xx_hal_tim_ex.c ****     assert_param(IS_TIM_BREAK2_POLARITY(sBreakDeadTimeConfig->Break2Polarity));
2079:Drivers/STM32L4xx_HAL_Driver/Src/stm32l4xx_hal_tim_ex.c ****     assert_param(IS_TIM_BREAK_FILTER(sBreakDeadTimeConfig->Break2Filter));
2080:Drivers/STM32L4xx_HAL_Driver/Src/stm32l4xx_hal_tim_ex.c **** 
2081:Drivers/STM32L4xx_HAL_Driver/Src/stm32l4xx_hal_tim_ex.c ****     /* Set the BREAK2 input related BDTR bits */
2082:Drivers/STM32L4xx_HAL_Driver/Src/stm32l4xx_hal_tim_ex.c ****     MODIFY_REG(tmpbdtr, TIM_BDTR_BK2F, (sBreakDeadTimeConfig->Break2Filter << TIM_BDTR_BK2F_Pos));
 5733              		.loc 1 2082 5
 5734 00a0 FB68     		ldr	r3, [r7, #12]
 5735 00a2 23F47002 		bic	r2, r3, #15728640
 5736 00a6 3B68     		ldr	r3, [r7]
 5737 00a8 5B6A     		ldr	r3, [r3, #36]
 5738 00aa 1B05     		lsls	r3, r3, #20
 5739 00ac 1343     		orrs	r3, r3, r2
 5740 00ae FB60     		str	r3, [r7, #12]
2083:Drivers/STM32L4xx_HAL_Driver/Src/stm32l4xx_hal_tim_ex.c ****     MODIFY_REG(tmpbdtr, TIM_BDTR_BK2E, sBreakDeadTimeConfig->Break2State);
 5741              		.loc 1 2083 5
 5742 00b0 FB68     		ldr	r3, [r7, #12]
 5743 00b2 23F08072 		bic	r2, r3, #16777216
 5744 00b6 3B68     		ldr	r3, [r7]
 5745 00b8 DB69     		ldr	r3, [r3, #28]
 5746 00ba 1343     		orrs	r3, r3, r2
 5747 00bc FB60     		str	r3, [r7, #12]
2084:Drivers/STM32L4xx_HAL_Driver/Src/stm32l4xx_hal_tim_ex.c ****     MODIFY_REG(tmpbdtr, TIM_BDTR_BK2P, sBreakDeadTimeConfig->Break2Polarity);
 5748              		.loc 1 2084 5
 5749 00be FB68     		ldr	r3, [r7, #12]
 5750 00c0 23F00072 		bic	r2, r3, #33554432
 5751 00c4 3B68     		ldr	r3, [r7]
 5752 00c6 1B6A     		ldr	r3, [r3, #32]
 5753 00c8 1343     		orrs	r3, r3, r2
 5754 00ca FB60     		str	r3, [r7, #12]
 5755              	.L369:
2085:Drivers/STM32L4xx_HAL_Driver/Src/stm32l4xx_hal_tim_ex.c ****   }
2086:Drivers/STM32L4xx_HAL_Driver/Src/stm32l4xx_hal_tim_ex.c **** 
2087:Drivers/STM32L4xx_HAL_Driver/Src/stm32l4xx_hal_tim_ex.c ****   /* Set TIMx_BDTR */
2088:Drivers/STM32L4xx_HAL_Driver/Src/stm32l4xx_hal_tim_ex.c ****   htim->Instance->BDTR = tmpbdtr;
 5756              		.loc 1 2088 7
 5757 00cc 7B68     		ldr	r3, [r7, #4]
 5758 00ce 1B68     		ldr	r3, [r3]
 5759              		.loc 1 2088 24
 5760 00d0 FA68     		ldr	r2, [r7, #12]
 5761 00d2 5A64     		str	r2, [r3, #68]
2089:Drivers/STM32L4xx_HAL_Driver/Src/stm32l4xx_hal_tim_ex.c **** 
ARM GAS  /tmp/ccR4xO3u.s 			page 138


2090:Drivers/STM32L4xx_HAL_Driver/Src/stm32l4xx_hal_tim_ex.c ****   __HAL_UNLOCK(htim);
 5762              		.loc 1 2090 3
 5763 00d4 7B68     		ldr	r3, [r7, #4]
 5764 00d6 0022     		movs	r2, #0
 5765 00d8 83F83C20 		strb	r2, [r3, #60]
2091:Drivers/STM32L4xx_HAL_Driver/Src/stm32l4xx_hal_tim_ex.c **** 
2092:Drivers/STM32L4xx_HAL_Driver/Src/stm32l4xx_hal_tim_ex.c ****   return HAL_OK;
 5766              		.loc 1 2092 10
 5767 00dc 0023     		movs	r3, #0
 5768              	.L368:
2093:Drivers/STM32L4xx_HAL_Driver/Src/stm32l4xx_hal_tim_ex.c **** }
 5769              		.loc 1 2093 1
 5770 00de 1846     		mov	r0, r3
 5771 00e0 1437     		adds	r7, r7, #20
 5772              	.LCFI159:
 5773              		.cfi_def_cfa_offset 4
 5774 00e2 BD46     		mov	sp, r7
 5775              	.LCFI160:
 5776              		.cfi_def_cfa_register 13
 5777              		@ sp needed
 5778 00e4 5DF8047B 		ldr	r7, [sp], #4
 5779              	.LCFI161:
 5780              		.cfi_restore 7
 5781              		.cfi_def_cfa_offset 0
 5782 00e8 7047     		bx	lr
 5783              	.L371:
 5784 00ea 00BF     		.align	2
 5785              	.L370:
 5786 00ec 002C0140 		.word	1073818624
 5787              		.cfi_endproc
 5788              	.LFE162:
 5790              		.section	.text.HAL_TIMEx_ConfigBreakInput,"ax",%progbits
 5791              		.align	1
 5792              		.global	HAL_TIMEx_ConfigBreakInput
 5793              		.syntax unified
 5794              		.thumb
 5795              		.thumb_func
 5797              	HAL_TIMEx_ConfigBreakInput:
 5798              	.LFB163:
2094:Drivers/STM32L4xx_HAL_Driver/Src/stm32l4xx_hal_tim_ex.c **** 
2095:Drivers/STM32L4xx_HAL_Driver/Src/stm32l4xx_hal_tim_ex.c **** /**
2096:Drivers/STM32L4xx_HAL_Driver/Src/stm32l4xx_hal_tim_ex.c ****   * @brief  Configures the break input source.
2097:Drivers/STM32L4xx_HAL_Driver/Src/stm32l4xx_hal_tim_ex.c ****   * @param  htim TIM handle.
2098:Drivers/STM32L4xx_HAL_Driver/Src/stm32l4xx_hal_tim_ex.c ****   * @param  BreakInput Break input to configure
2099:Drivers/STM32L4xx_HAL_Driver/Src/stm32l4xx_hal_tim_ex.c ****   *          This parameter can be one of the following values:
2100:Drivers/STM32L4xx_HAL_Driver/Src/stm32l4xx_hal_tim_ex.c ****   *            @arg TIM_BREAKINPUT_BRK: Timer break input
2101:Drivers/STM32L4xx_HAL_Driver/Src/stm32l4xx_hal_tim_ex.c ****   *            @arg TIM_BREAKINPUT_BRK2: Timer break 2 input
2102:Drivers/STM32L4xx_HAL_Driver/Src/stm32l4xx_hal_tim_ex.c ****   * @param  sBreakInputConfig Break input source configuration
2103:Drivers/STM32L4xx_HAL_Driver/Src/stm32l4xx_hal_tim_ex.c ****   * @retval HAL status
2104:Drivers/STM32L4xx_HAL_Driver/Src/stm32l4xx_hal_tim_ex.c ****   */
2105:Drivers/STM32L4xx_HAL_Driver/Src/stm32l4xx_hal_tim_ex.c **** HAL_StatusTypeDef HAL_TIMEx_ConfigBreakInput(TIM_HandleTypeDef *htim,
2106:Drivers/STM32L4xx_HAL_Driver/Src/stm32l4xx_hal_tim_ex.c ****                                              uint32_t BreakInput,
2107:Drivers/STM32L4xx_HAL_Driver/Src/stm32l4xx_hal_tim_ex.c ****                                              const TIMEx_BreakInputConfigTypeDef *sBreakInputConfig
2108:Drivers/STM32L4xx_HAL_Driver/Src/stm32l4xx_hal_tim_ex.c **** 
2109:Drivers/STM32L4xx_HAL_Driver/Src/stm32l4xx_hal_tim_ex.c **** {
 5799              		.loc 1 2109 1
 5800              		.cfi_startproc
ARM GAS  /tmp/ccR4xO3u.s 			page 139


 5801              		@ args = 0, pretend = 0, frame = 40
 5802              		@ frame_needed = 1, uses_anonymous_args = 0
 5803              		@ link register save eliminated.
 5804 0000 80B4     		push	{r7}
 5805              	.LCFI162:
 5806              		.cfi_def_cfa_offset 4
 5807              		.cfi_offset 7, -4
 5808 0002 8BB0     		sub	sp, sp, #44
 5809              	.LCFI163:
 5810              		.cfi_def_cfa_offset 48
 5811 0004 00AF     		add	r7, sp, #0
 5812              	.LCFI164:
 5813              		.cfi_def_cfa_register 7
 5814 0006 F860     		str	r0, [r7, #12]
 5815 0008 B960     		str	r1, [r7, #8]
 5816 000a 7A60     		str	r2, [r7, #4]
2110:Drivers/STM32L4xx_HAL_Driver/Src/stm32l4xx_hal_tim_ex.c ****   HAL_StatusTypeDef status = HAL_OK;
 5817              		.loc 1 2110 21
 5818 000c 0023     		movs	r3, #0
 5819 000e 87F82730 		strb	r3, [r7, #39]
2111:Drivers/STM32L4xx_HAL_Driver/Src/stm32l4xx_hal_tim_ex.c ****   uint32_t tmporx;
2112:Drivers/STM32L4xx_HAL_Driver/Src/stm32l4xx_hal_tim_ex.c ****   uint32_t bkin_enable_mask;
2113:Drivers/STM32L4xx_HAL_Driver/Src/stm32l4xx_hal_tim_ex.c ****   uint32_t bkin_polarity_mask;
2114:Drivers/STM32L4xx_HAL_Driver/Src/stm32l4xx_hal_tim_ex.c ****   uint32_t bkin_enable_bitpos;
2115:Drivers/STM32L4xx_HAL_Driver/Src/stm32l4xx_hal_tim_ex.c ****   uint32_t bkin_polarity_bitpos;
2116:Drivers/STM32L4xx_HAL_Driver/Src/stm32l4xx_hal_tim_ex.c **** 
2117:Drivers/STM32L4xx_HAL_Driver/Src/stm32l4xx_hal_tim_ex.c ****   /* Check the parameters */
2118:Drivers/STM32L4xx_HAL_Driver/Src/stm32l4xx_hal_tim_ex.c ****   assert_param(IS_TIM_BREAK_INSTANCE(htim->Instance));
2119:Drivers/STM32L4xx_HAL_Driver/Src/stm32l4xx_hal_tim_ex.c ****   assert_param(IS_TIM_BREAKINPUT(BreakInput));
2120:Drivers/STM32L4xx_HAL_Driver/Src/stm32l4xx_hal_tim_ex.c ****   assert_param(IS_TIM_BREAKINPUTSOURCE(sBreakInputConfig->Source));
2121:Drivers/STM32L4xx_HAL_Driver/Src/stm32l4xx_hal_tim_ex.c ****   assert_param(IS_TIM_BREAKINPUTSOURCE_STATE(sBreakInputConfig->Enable));
2122:Drivers/STM32L4xx_HAL_Driver/Src/stm32l4xx_hal_tim_ex.c **** #if defined(DFSDM1_Channel0)
2123:Drivers/STM32L4xx_HAL_Driver/Src/stm32l4xx_hal_tim_ex.c ****   if (sBreakInputConfig->Source != TIM_BREAKINPUTSOURCE_DFSDM1)
2124:Drivers/STM32L4xx_HAL_Driver/Src/stm32l4xx_hal_tim_ex.c ****   {
2125:Drivers/STM32L4xx_HAL_Driver/Src/stm32l4xx_hal_tim_ex.c ****     assert_param(IS_TIM_BREAKINPUTSOURCE_POLARITY(sBreakInputConfig->Polarity));
2126:Drivers/STM32L4xx_HAL_Driver/Src/stm32l4xx_hal_tim_ex.c ****   }
2127:Drivers/STM32L4xx_HAL_Driver/Src/stm32l4xx_hal_tim_ex.c **** #else
2128:Drivers/STM32L4xx_HAL_Driver/Src/stm32l4xx_hal_tim_ex.c ****   assert_param(IS_TIM_BREAKINPUTSOURCE_POLARITY(sBreakInputConfig->Polarity));
2129:Drivers/STM32L4xx_HAL_Driver/Src/stm32l4xx_hal_tim_ex.c **** #endif /* DFSDM1_Channel0 */
2130:Drivers/STM32L4xx_HAL_Driver/Src/stm32l4xx_hal_tim_ex.c **** 
2131:Drivers/STM32L4xx_HAL_Driver/Src/stm32l4xx_hal_tim_ex.c ****   /* Check input state */
2132:Drivers/STM32L4xx_HAL_Driver/Src/stm32l4xx_hal_tim_ex.c ****   __HAL_LOCK(htim);
 5820              		.loc 1 2132 3
 5821 0012 FB68     		ldr	r3, [r7, #12]
 5822 0014 93F83C30 		ldrb	r3, [r3, #60]	@ zero_extendqisi2
 5823 0018 012B     		cmp	r3, #1
 5824 001a 01D1     		bne	.L373
 5825              		.loc 1 2132 3 is_stmt 0 discriminator 1
 5826 001c 0223     		movs	r3, #2
 5827 001e 90E0     		b	.L374
 5828              	.L373:
 5829              		.loc 1 2132 3 discriminator 2
 5830 0020 FB68     		ldr	r3, [r7, #12]
 5831 0022 0122     		movs	r2, #1
 5832 0024 83F83C20 		strb	r2, [r3, #60]
2133:Drivers/STM32L4xx_HAL_Driver/Src/stm32l4xx_hal_tim_ex.c **** 
2134:Drivers/STM32L4xx_HAL_Driver/Src/stm32l4xx_hal_tim_ex.c ****   switch (sBreakInputConfig->Source)
ARM GAS  /tmp/ccR4xO3u.s 			page 140


 5833              		.loc 1 2134 28 is_stmt 1 discriminator 2
 5834 0028 7B68     		ldr	r3, [r7, #4]
 5835 002a 1B68     		ldr	r3, [r3]
 5836              		.loc 1 2134 3 discriminator 2
 5837 002c 042B     		cmp	r3, #4
 5838 002e 1AD0     		beq	.L375
 5839              		.loc 1 2134 3 is_stmt 0
 5840 0030 042B     		cmp	r3, #4
 5841 0032 22D8     		bhi	.L376
 5842 0034 012B     		cmp	r3, #1
 5843 0036 02D0     		beq	.L377
 5844 0038 022B     		cmp	r3, #2
 5845 003a 0AD0     		beq	.L378
 5846 003c 1DE0     		b	.L376
 5847              	.L377:
2135:Drivers/STM32L4xx_HAL_Driver/Src/stm32l4xx_hal_tim_ex.c ****   {
2136:Drivers/STM32L4xx_HAL_Driver/Src/stm32l4xx_hal_tim_ex.c ****     case TIM_BREAKINPUTSOURCE_BKIN:
2137:Drivers/STM32L4xx_HAL_Driver/Src/stm32l4xx_hal_tim_ex.c ****     {
2138:Drivers/STM32L4xx_HAL_Driver/Src/stm32l4xx_hal_tim_ex.c ****       bkin_enable_mask = TIM1_OR2_BKINE;
 5848              		.loc 1 2138 24 is_stmt 1
 5849 003e 0123     		movs	r3, #1
 5850 0040 3B62     		str	r3, [r7, #32]
2139:Drivers/STM32L4xx_HAL_Driver/Src/stm32l4xx_hal_tim_ex.c ****       bkin_enable_bitpos = TIM1_OR2_BKINE_Pos;
 5851              		.loc 1 2139 26
 5852 0042 0023     		movs	r3, #0
 5853 0044 BB61     		str	r3, [r7, #24]
2140:Drivers/STM32L4xx_HAL_Driver/Src/stm32l4xx_hal_tim_ex.c ****       bkin_polarity_mask = TIM1_OR2_BKINP;
 5854              		.loc 1 2140 26
 5855 0046 4FF40073 		mov	r3, #512
 5856 004a FB61     		str	r3, [r7, #28]
2141:Drivers/STM32L4xx_HAL_Driver/Src/stm32l4xx_hal_tim_ex.c ****       bkin_polarity_bitpos = TIM1_OR2_BKINP_Pos;
 5857              		.loc 1 2141 28
 5858 004c 0923     		movs	r3, #9
 5859 004e 7B61     		str	r3, [r7, #20]
2142:Drivers/STM32L4xx_HAL_Driver/Src/stm32l4xx_hal_tim_ex.c ****       break;
 5860              		.loc 1 2142 7
 5861 0050 1CE0     		b	.L379
 5862              	.L378:
2143:Drivers/STM32L4xx_HAL_Driver/Src/stm32l4xx_hal_tim_ex.c ****     }
2144:Drivers/STM32L4xx_HAL_Driver/Src/stm32l4xx_hal_tim_ex.c ****     case TIM_BREAKINPUTSOURCE_COMP1:
2145:Drivers/STM32L4xx_HAL_Driver/Src/stm32l4xx_hal_tim_ex.c ****     {
2146:Drivers/STM32L4xx_HAL_Driver/Src/stm32l4xx_hal_tim_ex.c ****       bkin_enable_mask = TIM1_OR2_BKCMP1E;
 5863              		.loc 1 2146 24
 5864 0052 0223     		movs	r3, #2
 5865 0054 3B62     		str	r3, [r7, #32]
2147:Drivers/STM32L4xx_HAL_Driver/Src/stm32l4xx_hal_tim_ex.c ****       bkin_enable_bitpos = TIM1_OR2_BKCMP1E_Pos;
 5866              		.loc 1 2147 26
 5867 0056 0123     		movs	r3, #1
 5868 0058 BB61     		str	r3, [r7, #24]
2148:Drivers/STM32L4xx_HAL_Driver/Src/stm32l4xx_hal_tim_ex.c ****       bkin_polarity_mask = TIM1_OR2_BKCMP1P;
 5869              		.loc 1 2148 26
 5870 005a 4FF48063 		mov	r3, #1024
 5871 005e FB61     		str	r3, [r7, #28]
2149:Drivers/STM32L4xx_HAL_Driver/Src/stm32l4xx_hal_tim_ex.c ****       bkin_polarity_bitpos = TIM1_OR2_BKCMP1P_Pos;
 5872              		.loc 1 2149 28
 5873 0060 0A23     		movs	r3, #10
 5874 0062 7B61     		str	r3, [r7, #20]
ARM GAS  /tmp/ccR4xO3u.s 			page 141


2150:Drivers/STM32L4xx_HAL_Driver/Src/stm32l4xx_hal_tim_ex.c ****       break;
 5875              		.loc 1 2150 7
 5876 0064 12E0     		b	.L379
 5877              	.L375:
2151:Drivers/STM32L4xx_HAL_Driver/Src/stm32l4xx_hal_tim_ex.c ****     }
2152:Drivers/STM32L4xx_HAL_Driver/Src/stm32l4xx_hal_tim_ex.c ****     case TIM_BREAKINPUTSOURCE_COMP2:
2153:Drivers/STM32L4xx_HAL_Driver/Src/stm32l4xx_hal_tim_ex.c ****     {
2154:Drivers/STM32L4xx_HAL_Driver/Src/stm32l4xx_hal_tim_ex.c ****       bkin_enable_mask = TIM1_OR2_BKCMP2E;
 5878              		.loc 1 2154 24
 5879 0066 0423     		movs	r3, #4
 5880 0068 3B62     		str	r3, [r7, #32]
2155:Drivers/STM32L4xx_HAL_Driver/Src/stm32l4xx_hal_tim_ex.c ****       bkin_enable_bitpos = TIM1_OR2_BKCMP2E_Pos;
 5881              		.loc 1 2155 26
 5882 006a 0223     		movs	r3, #2
 5883 006c BB61     		str	r3, [r7, #24]
2156:Drivers/STM32L4xx_HAL_Driver/Src/stm32l4xx_hal_tim_ex.c ****       bkin_polarity_mask = TIM1_OR2_BKCMP2P;
 5884              		.loc 1 2156 26
 5885 006e 4FF40063 		mov	r3, #2048
 5886 0072 FB61     		str	r3, [r7, #28]
2157:Drivers/STM32L4xx_HAL_Driver/Src/stm32l4xx_hal_tim_ex.c ****       bkin_polarity_bitpos = TIM1_OR2_BKCMP2P_Pos;
 5887              		.loc 1 2157 28
 5888 0074 0B23     		movs	r3, #11
 5889 0076 7B61     		str	r3, [r7, #20]
2158:Drivers/STM32L4xx_HAL_Driver/Src/stm32l4xx_hal_tim_ex.c ****       break;
 5890              		.loc 1 2158 7
 5891 0078 08E0     		b	.L379
 5892              	.L376:
2159:Drivers/STM32L4xx_HAL_Driver/Src/stm32l4xx_hal_tim_ex.c ****     }
2160:Drivers/STM32L4xx_HAL_Driver/Src/stm32l4xx_hal_tim_ex.c **** #if defined(DFSDM1_Channel0)
2161:Drivers/STM32L4xx_HAL_Driver/Src/stm32l4xx_hal_tim_ex.c ****     case TIM_BREAKINPUTSOURCE_DFSDM1:
2162:Drivers/STM32L4xx_HAL_Driver/Src/stm32l4xx_hal_tim_ex.c ****     {
2163:Drivers/STM32L4xx_HAL_Driver/Src/stm32l4xx_hal_tim_ex.c ****       bkin_enable_mask = TIM1_OR2_BKDF1BK0E;
2164:Drivers/STM32L4xx_HAL_Driver/Src/stm32l4xx_hal_tim_ex.c ****       bkin_enable_bitpos = TIM1_OR2_BKDF1BK0E_Pos;
2165:Drivers/STM32L4xx_HAL_Driver/Src/stm32l4xx_hal_tim_ex.c ****       bkin_polarity_mask = 0U;
2166:Drivers/STM32L4xx_HAL_Driver/Src/stm32l4xx_hal_tim_ex.c ****       bkin_polarity_bitpos = 0U;
2167:Drivers/STM32L4xx_HAL_Driver/Src/stm32l4xx_hal_tim_ex.c ****       break;
2168:Drivers/STM32L4xx_HAL_Driver/Src/stm32l4xx_hal_tim_ex.c ****     }
2169:Drivers/STM32L4xx_HAL_Driver/Src/stm32l4xx_hal_tim_ex.c **** #endif /* DFSDM1_Channel0 */
2170:Drivers/STM32L4xx_HAL_Driver/Src/stm32l4xx_hal_tim_ex.c **** 
2171:Drivers/STM32L4xx_HAL_Driver/Src/stm32l4xx_hal_tim_ex.c ****     default:
2172:Drivers/STM32L4xx_HAL_Driver/Src/stm32l4xx_hal_tim_ex.c ****     {
2173:Drivers/STM32L4xx_HAL_Driver/Src/stm32l4xx_hal_tim_ex.c ****       bkin_enable_mask = 0U;
 5893              		.loc 1 2173 24
 5894 007a 0023     		movs	r3, #0
 5895 007c 3B62     		str	r3, [r7, #32]
2174:Drivers/STM32L4xx_HAL_Driver/Src/stm32l4xx_hal_tim_ex.c ****       bkin_polarity_mask = 0U;
 5896              		.loc 1 2174 26
 5897 007e 0023     		movs	r3, #0
 5898 0080 FB61     		str	r3, [r7, #28]
2175:Drivers/STM32L4xx_HAL_Driver/Src/stm32l4xx_hal_tim_ex.c ****       bkin_enable_bitpos = 0U;
 5899              		.loc 1 2175 26
 5900 0082 0023     		movs	r3, #0
 5901 0084 BB61     		str	r3, [r7, #24]
2176:Drivers/STM32L4xx_HAL_Driver/Src/stm32l4xx_hal_tim_ex.c ****       bkin_polarity_bitpos = 0U;
 5902              		.loc 1 2176 28
 5903 0086 0023     		movs	r3, #0
 5904 0088 7B61     		str	r3, [r7, #20]
ARM GAS  /tmp/ccR4xO3u.s 			page 142


2177:Drivers/STM32L4xx_HAL_Driver/Src/stm32l4xx_hal_tim_ex.c ****       break;
 5905              		.loc 1 2177 7
 5906 008a 00BF     		nop
 5907              	.L379:
2178:Drivers/STM32L4xx_HAL_Driver/Src/stm32l4xx_hal_tim_ex.c ****     }
2179:Drivers/STM32L4xx_HAL_Driver/Src/stm32l4xx_hal_tim_ex.c ****   }
2180:Drivers/STM32L4xx_HAL_Driver/Src/stm32l4xx_hal_tim_ex.c **** 
2181:Drivers/STM32L4xx_HAL_Driver/Src/stm32l4xx_hal_tim_ex.c ****   switch (BreakInput)
 5908              		.loc 1 2181 3
 5909 008c BB68     		ldr	r3, [r7, #8]
 5910 008e 012B     		cmp	r3, #1
 5911 0090 03D0     		beq	.L380
 5912 0092 BB68     		ldr	r3, [r7, #8]
 5913 0094 022B     		cmp	r3, #2
 5914 0096 25D0     		beq	.L381
 5915 0098 49E0     		b	.L384
 5916              	.L380:
2182:Drivers/STM32L4xx_HAL_Driver/Src/stm32l4xx_hal_tim_ex.c ****   {
2183:Drivers/STM32L4xx_HAL_Driver/Src/stm32l4xx_hal_tim_ex.c ****     case TIM_BREAKINPUT_BRK:
2184:Drivers/STM32L4xx_HAL_Driver/Src/stm32l4xx_hal_tim_ex.c ****     {
2185:Drivers/STM32L4xx_HAL_Driver/Src/stm32l4xx_hal_tim_ex.c ****       /* Get the TIMx_OR2 register value */
2186:Drivers/STM32L4xx_HAL_Driver/Src/stm32l4xx_hal_tim_ex.c ****       tmporx = htim->Instance->OR2;
 5917              		.loc 1 2186 20
 5918 009a FB68     		ldr	r3, [r7, #12]
 5919 009c 1B68     		ldr	r3, [r3]
 5920              		.loc 1 2186 14
 5921 009e 1B6E     		ldr	r3, [r3, #96]
 5922 00a0 3B61     		str	r3, [r7, #16]
2187:Drivers/STM32L4xx_HAL_Driver/Src/stm32l4xx_hal_tim_ex.c **** 
2188:Drivers/STM32L4xx_HAL_Driver/Src/stm32l4xx_hal_tim_ex.c ****       /* Enable the break input */
2189:Drivers/STM32L4xx_HAL_Driver/Src/stm32l4xx_hal_tim_ex.c ****       tmporx &= ~bkin_enable_mask;
 5923              		.loc 1 2189 17
 5924 00a2 3B6A     		ldr	r3, [r7, #32]
 5925 00a4 DB43     		mvns	r3, r3
 5926              		.loc 1 2189 14
 5927 00a6 3A69     		ldr	r2, [r7, #16]
 5928 00a8 1340     		ands	r3, r3, r2
 5929 00aa 3B61     		str	r3, [r7, #16]
2190:Drivers/STM32L4xx_HAL_Driver/Src/stm32l4xx_hal_tim_ex.c ****       tmporx |= (sBreakInputConfig->Enable << bkin_enable_bitpos) & bkin_enable_mask;
 5930              		.loc 1 2190 35
 5931 00ac 7B68     		ldr	r3, [r7, #4]
 5932 00ae 5A68     		ldr	r2, [r3, #4]
 5933              		.loc 1 2190 44
 5934 00b0 BB69     		ldr	r3, [r7, #24]
 5935 00b2 9A40     		lsls	r2, r2, r3
 5936              		.loc 1 2190 67
 5937 00b4 3B6A     		ldr	r3, [r7, #32]
 5938 00b6 1340     		ands	r3, r3, r2
 5939              		.loc 1 2190 14
 5940 00b8 3A69     		ldr	r2, [r7, #16]
 5941 00ba 1343     		orrs	r3, r3, r2
 5942 00bc 3B61     		str	r3, [r7, #16]
2191:Drivers/STM32L4xx_HAL_Driver/Src/stm32l4xx_hal_tim_ex.c **** 
2192:Drivers/STM32L4xx_HAL_Driver/Src/stm32l4xx_hal_tim_ex.c ****       /* Set the break input polarity */
2193:Drivers/STM32L4xx_HAL_Driver/Src/stm32l4xx_hal_tim_ex.c **** #if defined(DFSDM1_Channel0)
2194:Drivers/STM32L4xx_HAL_Driver/Src/stm32l4xx_hal_tim_ex.c ****       if (sBreakInputConfig->Source != TIM_BREAKINPUTSOURCE_DFSDM1)
2195:Drivers/STM32L4xx_HAL_Driver/Src/stm32l4xx_hal_tim_ex.c **** #endif /* DFSDM1_Channel0 */
ARM GAS  /tmp/ccR4xO3u.s 			page 143


2196:Drivers/STM32L4xx_HAL_Driver/Src/stm32l4xx_hal_tim_ex.c ****       {
2197:Drivers/STM32L4xx_HAL_Driver/Src/stm32l4xx_hal_tim_ex.c ****         tmporx &= ~bkin_polarity_mask;
 5943              		.loc 1 2197 19
 5944 00be FB69     		ldr	r3, [r7, #28]
 5945 00c0 DB43     		mvns	r3, r3
 5946              		.loc 1 2197 16
 5947 00c2 3A69     		ldr	r2, [r7, #16]
 5948 00c4 1340     		ands	r3, r3, r2
 5949 00c6 3B61     		str	r3, [r7, #16]
2198:Drivers/STM32L4xx_HAL_Driver/Src/stm32l4xx_hal_tim_ex.c ****         tmporx |= (sBreakInputConfig->Polarity << bkin_polarity_bitpos) & bkin_polarity_mask;
 5950              		.loc 1 2198 37
 5951 00c8 7B68     		ldr	r3, [r7, #4]
 5952 00ca 9A68     		ldr	r2, [r3, #8]
 5953              		.loc 1 2198 48
 5954 00cc 7B69     		ldr	r3, [r7, #20]
 5955 00ce 9A40     		lsls	r2, r2, r3
 5956              		.loc 1 2198 73
 5957 00d0 FB69     		ldr	r3, [r7, #28]
 5958 00d2 1340     		ands	r3, r3, r2
 5959              		.loc 1 2198 16
 5960 00d4 3A69     		ldr	r2, [r7, #16]
 5961 00d6 1343     		orrs	r3, r3, r2
 5962 00d8 3B61     		str	r3, [r7, #16]
2199:Drivers/STM32L4xx_HAL_Driver/Src/stm32l4xx_hal_tim_ex.c ****       }
2200:Drivers/STM32L4xx_HAL_Driver/Src/stm32l4xx_hal_tim_ex.c **** 
2201:Drivers/STM32L4xx_HAL_Driver/Src/stm32l4xx_hal_tim_ex.c ****       /* Set TIMx_OR2 */
2202:Drivers/STM32L4xx_HAL_Driver/Src/stm32l4xx_hal_tim_ex.c ****       htim->Instance->OR2 = tmporx;
 5963              		.loc 1 2202 11
 5964 00da FB68     		ldr	r3, [r7, #12]
 5965 00dc 1B68     		ldr	r3, [r3]
 5966              		.loc 1 2202 27
 5967 00de 3A69     		ldr	r2, [r7, #16]
 5968 00e0 1A66     		str	r2, [r3, #96]
2203:Drivers/STM32L4xx_HAL_Driver/Src/stm32l4xx_hal_tim_ex.c ****       break;
 5969              		.loc 1 2203 7
 5970 00e2 28E0     		b	.L383
 5971              	.L381:
2204:Drivers/STM32L4xx_HAL_Driver/Src/stm32l4xx_hal_tim_ex.c ****     }
2205:Drivers/STM32L4xx_HAL_Driver/Src/stm32l4xx_hal_tim_ex.c ****     case TIM_BREAKINPUT_BRK2:
2206:Drivers/STM32L4xx_HAL_Driver/Src/stm32l4xx_hal_tim_ex.c ****     {
2207:Drivers/STM32L4xx_HAL_Driver/Src/stm32l4xx_hal_tim_ex.c ****       /* Get the TIMx_OR3 register value */
2208:Drivers/STM32L4xx_HAL_Driver/Src/stm32l4xx_hal_tim_ex.c ****       tmporx = htim->Instance->OR3;
 5972              		.loc 1 2208 20
 5973 00e4 FB68     		ldr	r3, [r7, #12]
 5974 00e6 1B68     		ldr	r3, [r3]
 5975              		.loc 1 2208 14
 5976 00e8 5B6E     		ldr	r3, [r3, #100]
 5977 00ea 3B61     		str	r3, [r7, #16]
2209:Drivers/STM32L4xx_HAL_Driver/Src/stm32l4xx_hal_tim_ex.c **** 
2210:Drivers/STM32L4xx_HAL_Driver/Src/stm32l4xx_hal_tim_ex.c ****       /* Enable the break input */
2211:Drivers/STM32L4xx_HAL_Driver/Src/stm32l4xx_hal_tim_ex.c ****       tmporx &= ~bkin_enable_mask;
 5978              		.loc 1 2211 17
 5979 00ec 3B6A     		ldr	r3, [r7, #32]
 5980 00ee DB43     		mvns	r3, r3
 5981              		.loc 1 2211 14
 5982 00f0 3A69     		ldr	r2, [r7, #16]
 5983 00f2 1340     		ands	r3, r3, r2
ARM GAS  /tmp/ccR4xO3u.s 			page 144


 5984 00f4 3B61     		str	r3, [r7, #16]
2212:Drivers/STM32L4xx_HAL_Driver/Src/stm32l4xx_hal_tim_ex.c ****       tmporx |= (sBreakInputConfig->Enable << bkin_enable_bitpos) & bkin_enable_mask;
 5985              		.loc 1 2212 35
 5986 00f6 7B68     		ldr	r3, [r7, #4]
 5987 00f8 5A68     		ldr	r2, [r3, #4]
 5988              		.loc 1 2212 44
 5989 00fa BB69     		ldr	r3, [r7, #24]
 5990 00fc 9A40     		lsls	r2, r2, r3
 5991              		.loc 1 2212 67
 5992 00fe 3B6A     		ldr	r3, [r7, #32]
 5993 0100 1340     		ands	r3, r3, r2
 5994              		.loc 1 2212 14
 5995 0102 3A69     		ldr	r2, [r7, #16]
 5996 0104 1343     		orrs	r3, r3, r2
 5997 0106 3B61     		str	r3, [r7, #16]
2213:Drivers/STM32L4xx_HAL_Driver/Src/stm32l4xx_hal_tim_ex.c **** 
2214:Drivers/STM32L4xx_HAL_Driver/Src/stm32l4xx_hal_tim_ex.c ****       /* Set the break input polarity */
2215:Drivers/STM32L4xx_HAL_Driver/Src/stm32l4xx_hal_tim_ex.c **** #if defined(DFSDM1_Channel0)
2216:Drivers/STM32L4xx_HAL_Driver/Src/stm32l4xx_hal_tim_ex.c ****       if (sBreakInputConfig->Source != TIM_BREAKINPUTSOURCE_DFSDM1)
2217:Drivers/STM32L4xx_HAL_Driver/Src/stm32l4xx_hal_tim_ex.c **** #endif /* DFSDM1_Channel0 */
2218:Drivers/STM32L4xx_HAL_Driver/Src/stm32l4xx_hal_tim_ex.c ****       {
2219:Drivers/STM32L4xx_HAL_Driver/Src/stm32l4xx_hal_tim_ex.c ****         tmporx &= ~bkin_polarity_mask;
 5998              		.loc 1 2219 19
 5999 0108 FB69     		ldr	r3, [r7, #28]
 6000 010a DB43     		mvns	r3, r3
 6001              		.loc 1 2219 16
 6002 010c 3A69     		ldr	r2, [r7, #16]
 6003 010e 1340     		ands	r3, r3, r2
 6004 0110 3B61     		str	r3, [r7, #16]
2220:Drivers/STM32L4xx_HAL_Driver/Src/stm32l4xx_hal_tim_ex.c ****         tmporx |= (sBreakInputConfig->Polarity << bkin_polarity_bitpos) & bkin_polarity_mask;
 6005              		.loc 1 2220 37
 6006 0112 7B68     		ldr	r3, [r7, #4]
 6007 0114 9A68     		ldr	r2, [r3, #8]
 6008              		.loc 1 2220 48
 6009 0116 7B69     		ldr	r3, [r7, #20]
 6010 0118 9A40     		lsls	r2, r2, r3
 6011              		.loc 1 2220 73
 6012 011a FB69     		ldr	r3, [r7, #28]
 6013 011c 1340     		ands	r3, r3, r2
 6014              		.loc 1 2220 16
 6015 011e 3A69     		ldr	r2, [r7, #16]
 6016 0120 1343     		orrs	r3, r3, r2
 6017 0122 3B61     		str	r3, [r7, #16]
2221:Drivers/STM32L4xx_HAL_Driver/Src/stm32l4xx_hal_tim_ex.c ****       }
2222:Drivers/STM32L4xx_HAL_Driver/Src/stm32l4xx_hal_tim_ex.c **** 
2223:Drivers/STM32L4xx_HAL_Driver/Src/stm32l4xx_hal_tim_ex.c ****       /* Set TIMx_OR3 */
2224:Drivers/STM32L4xx_HAL_Driver/Src/stm32l4xx_hal_tim_ex.c ****       htim->Instance->OR3 = tmporx;
 6018              		.loc 1 2224 11
 6019 0124 FB68     		ldr	r3, [r7, #12]
 6020 0126 1B68     		ldr	r3, [r3]
 6021              		.loc 1 2224 27
 6022 0128 3A69     		ldr	r2, [r7, #16]
 6023 012a 5A66     		str	r2, [r3, #100]
2225:Drivers/STM32L4xx_HAL_Driver/Src/stm32l4xx_hal_tim_ex.c ****       break;
 6024              		.loc 1 2225 7
 6025 012c 03E0     		b	.L383
 6026              	.L384:
ARM GAS  /tmp/ccR4xO3u.s 			page 145


2226:Drivers/STM32L4xx_HAL_Driver/Src/stm32l4xx_hal_tim_ex.c ****     }
2227:Drivers/STM32L4xx_HAL_Driver/Src/stm32l4xx_hal_tim_ex.c ****     default:
2228:Drivers/STM32L4xx_HAL_Driver/Src/stm32l4xx_hal_tim_ex.c ****       status = HAL_ERROR;
 6027              		.loc 1 2228 14
 6028 012e 0123     		movs	r3, #1
 6029 0130 87F82730 		strb	r3, [r7, #39]
2229:Drivers/STM32L4xx_HAL_Driver/Src/stm32l4xx_hal_tim_ex.c ****       break;
 6030              		.loc 1 2229 7
 6031 0134 00BF     		nop
 6032              	.L383:
2230:Drivers/STM32L4xx_HAL_Driver/Src/stm32l4xx_hal_tim_ex.c ****   }
2231:Drivers/STM32L4xx_HAL_Driver/Src/stm32l4xx_hal_tim_ex.c **** 
2232:Drivers/STM32L4xx_HAL_Driver/Src/stm32l4xx_hal_tim_ex.c ****   __HAL_UNLOCK(htim);
 6033              		.loc 1 2232 3
 6034 0136 FB68     		ldr	r3, [r7, #12]
 6035 0138 0022     		movs	r2, #0
 6036 013a 83F83C20 		strb	r2, [r3, #60]
2233:Drivers/STM32L4xx_HAL_Driver/Src/stm32l4xx_hal_tim_ex.c **** 
2234:Drivers/STM32L4xx_HAL_Driver/Src/stm32l4xx_hal_tim_ex.c ****   return status;
 6037              		.loc 1 2234 10
 6038 013e 97F82730 		ldrb	r3, [r7, #39]	@ zero_extendqisi2
 6039              	.L374:
2235:Drivers/STM32L4xx_HAL_Driver/Src/stm32l4xx_hal_tim_ex.c **** }
 6040              		.loc 1 2235 1
 6041 0142 1846     		mov	r0, r3
 6042 0144 2C37     		adds	r7, r7, #44
 6043              	.LCFI165:
 6044              		.cfi_def_cfa_offset 4
 6045 0146 BD46     		mov	sp, r7
 6046              	.LCFI166:
 6047              		.cfi_def_cfa_register 13
 6048              		@ sp needed
 6049 0148 5DF8047B 		ldr	r7, [sp], #4
 6050              	.LCFI167:
 6051              		.cfi_restore 7
 6052              		.cfi_def_cfa_offset 0
 6053 014c 7047     		bx	lr
 6054              		.cfi_endproc
 6055              	.LFE163:
 6057              		.section	.text.HAL_TIMEx_RemapConfig,"ax",%progbits
 6058              		.align	1
 6059              		.global	HAL_TIMEx_RemapConfig
 6060              		.syntax unified
 6061              		.thumb
 6062              		.thumb_func
 6064              	HAL_TIMEx_RemapConfig:
 6065              	.LFB164:
2236:Drivers/STM32L4xx_HAL_Driver/Src/stm32l4xx_hal_tim_ex.c **** 
2237:Drivers/STM32L4xx_HAL_Driver/Src/stm32l4xx_hal_tim_ex.c **** /**
2238:Drivers/STM32L4xx_HAL_Driver/Src/stm32l4xx_hal_tim_ex.c ****   * @brief  Configures the TIMx Remapping input capabilities.
2239:Drivers/STM32L4xx_HAL_Driver/Src/stm32l4xx_hal_tim_ex.c ****   * @param  htim TIM handle.
2240:Drivers/STM32L4xx_HAL_Driver/Src/stm32l4xx_hal_tim_ex.c ****   * @param  Remap specifies the TIM remapping source.
2241:Drivers/STM32L4xx_HAL_Driver/Src/stm32l4xx_hal_tim_ex.c ****     @if STM32L422xx
2242:Drivers/STM32L4xx_HAL_Driver/Src/stm32l4xx_hal_tim_ex.c ****   *         For TIM1, the parameter is a combination of 2 fields (field1 | field2):
2243:Drivers/STM32L4xx_HAL_Driver/Src/stm32l4xx_hal_tim_ex.c ****   *
2244:Drivers/STM32L4xx_HAL_Driver/Src/stm32l4xx_hal_tim_ex.c ****   *                   field1 can have the following values:
2245:Drivers/STM32L4xx_HAL_Driver/Src/stm32l4xx_hal_tim_ex.c ****   *            @arg TIM_TIM1_ETR_ADC1_NONE:           TIM1_ETR is not connected to any ADC1 AWD (an
ARM GAS  /tmp/ccR4xO3u.s 			page 146


2246:Drivers/STM32L4xx_HAL_Driver/Src/stm32l4xx_hal_tim_ex.c ****   *            @arg TIM_TIM1_ETR_ADC1_AWD1:           TIM1_ETR is connected to ADC1 AWD1
2247:Drivers/STM32L4xx_HAL_Driver/Src/stm32l4xx_hal_tim_ex.c ****   *            @arg TIM_TIM1_ETR_ADC1_AWD2:           TIM1_ETR is connected to ADC1 AWD2
2248:Drivers/STM32L4xx_HAL_Driver/Src/stm32l4xx_hal_tim_ex.c ****   *            @arg TIM_TIM1_ETR_ADC1_AWD3:           TIM1_ETR is connected to ADC1 AWD3
2249:Drivers/STM32L4xx_HAL_Driver/Src/stm32l4xx_hal_tim_ex.c ****   *
2250:Drivers/STM32L4xx_HAL_Driver/Src/stm32l4xx_hal_tim_ex.c ****   *                   field2 can have the following values:
2251:Drivers/STM32L4xx_HAL_Driver/Src/stm32l4xx_hal_tim_ex.c ****   *            @arg TIM_TIM1_TI1_GPIO:                TIM1 TI1 is connected to GPIO
2252:Drivers/STM32L4xx_HAL_Driver/Src/stm32l4xx_hal_tim_ex.c ****   *            @arg TIM_TIM1_TI1_COMP1:               TIM1 TI1 is connected to COMP1 output
2253:Drivers/STM32L4xx_HAL_Driver/Src/stm32l4xx_hal_tim_ex.c ****   *
2254:Drivers/STM32L4xx_HAL_Driver/Src/stm32l4xx_hal_tim_ex.c ****   @endif
2255:Drivers/STM32L4xx_HAL_Driver/Src/stm32l4xx_hal_tim_ex.c **** @if STM32L486xx
2256:Drivers/STM32L4xx_HAL_Driver/Src/stm32l4xx_hal_tim_ex.c ****   *         For TIM1, the parameter is a combination of 4 fields (field1 | field2 | field3 | field4
2257:Drivers/STM32L4xx_HAL_Driver/Src/stm32l4xx_hal_tim_ex.c ****   *
2258:Drivers/STM32L4xx_HAL_Driver/Src/stm32l4xx_hal_tim_ex.c ****   *                   field1 can have the following values:
2259:Drivers/STM32L4xx_HAL_Driver/Src/stm32l4xx_hal_tim_ex.c ****   *            @arg TIM_TIM1_ETR_ADC1_NONE:           TIM1_ETR is not connected to any ADC1 AWD (an
2260:Drivers/STM32L4xx_HAL_Driver/Src/stm32l4xx_hal_tim_ex.c ****   *            @arg TIM_TIM1_ETR_ADC1_AWD1:           TIM1_ETR is connected to ADC1 AWD1
2261:Drivers/STM32L4xx_HAL_Driver/Src/stm32l4xx_hal_tim_ex.c ****   *            @arg TIM_TIM1_ETR_ADC1_AWD2:           TIM1_ETR is connected to ADC1 AWD2
2262:Drivers/STM32L4xx_HAL_Driver/Src/stm32l4xx_hal_tim_ex.c ****   *            @arg TIM_TIM1_ETR_ADC1_AWD3:           TIM1_ETR is connected to ADC1 AWD3
2263:Drivers/STM32L4xx_HAL_Driver/Src/stm32l4xx_hal_tim_ex.c ****   *
2264:Drivers/STM32L4xx_HAL_Driver/Src/stm32l4xx_hal_tim_ex.c ****   *                   field2 can have the following values:
2265:Drivers/STM32L4xx_HAL_Driver/Src/stm32l4xx_hal_tim_ex.c ****   *            @arg TIM_TIM1_ETR_ADC3_NONE:           TIM1_ETR is not connected to any ADC3 AWD (an
2266:Drivers/STM32L4xx_HAL_Driver/Src/stm32l4xx_hal_tim_ex.c ****   *            @arg TIM_TIM1_ETR_ADC3_AWD1:           TIM1_ETR is connected to ADC3 AWD1
2267:Drivers/STM32L4xx_HAL_Driver/Src/stm32l4xx_hal_tim_ex.c ****   *            @arg TIM_TIM1_ETR_ADC3_AWD2:           TIM1_ETR is connected to ADC3 AWD2
2268:Drivers/STM32L4xx_HAL_Driver/Src/stm32l4xx_hal_tim_ex.c ****   *            @arg TIM_TIM1_ETR_ADC3_AWD3:           TIM1_ETR is connected to ADC3 AWD3
2269:Drivers/STM32L4xx_HAL_Driver/Src/stm32l4xx_hal_tim_ex.c ****   *
2270:Drivers/STM32L4xx_HAL_Driver/Src/stm32l4xx_hal_tim_ex.c ****   *                   field3 can have the following values:
2271:Drivers/STM32L4xx_HAL_Driver/Src/stm32l4xx_hal_tim_ex.c ****   *            @arg TIM_TIM1_TI1_GPIO:                TIM1 TI1 is connected to GPIO
2272:Drivers/STM32L4xx_HAL_Driver/Src/stm32l4xx_hal_tim_ex.c ****   *            @arg TIM_TIM1_TI1_COMP1:               TIM1 TI1 is connected to COMP1 output
2273:Drivers/STM32L4xx_HAL_Driver/Src/stm32l4xx_hal_tim_ex.c ****   *
2274:Drivers/STM32L4xx_HAL_Driver/Src/stm32l4xx_hal_tim_ex.c ****   *                   field4 can have the following values:
2275:Drivers/STM32L4xx_HAL_Driver/Src/stm32l4xx_hal_tim_ex.c ****   *            @arg TIM_TIM1_ETR_COMP1:               TIM1_ETR is connected to COMP1 output
2276:Drivers/STM32L4xx_HAL_Driver/Src/stm32l4xx_hal_tim_ex.c ****   *            @arg TIM_TIM1_ETR_COMP2:               TIM1_ETR is connected to COMP2 output
2277:Drivers/STM32L4xx_HAL_Driver/Src/stm32l4xx_hal_tim_ex.c ****   *            @note  When field4 is set to TIM_TIM1_ETR_COMP1 or TIM_TIM1_ETR_COMP2 field1 and fie
2278:Drivers/STM32L4xx_HAL_Driver/Src/stm32l4xx_hal_tim_ex.c ****   @endif
2279:Drivers/STM32L4xx_HAL_Driver/Src/stm32l4xx_hal_tim_ex.c ****   @if STM32L443xx
2280:Drivers/STM32L4xx_HAL_Driver/Src/stm32l4xx_hal_tim_ex.c ****   *         For TIM1, the parameter is a combination of 3 fields (field1 | field2 | field3):
2281:Drivers/STM32L4xx_HAL_Driver/Src/stm32l4xx_hal_tim_ex.c ****   *
2282:Drivers/STM32L4xx_HAL_Driver/Src/stm32l4xx_hal_tim_ex.c ****   *                   field1 can have the following values:
2283:Drivers/STM32L4xx_HAL_Driver/Src/stm32l4xx_hal_tim_ex.c ****   *            @arg TIM_TIM1_ETR_ADC1_NONE:           TIM1_ETR is not connected to any ADC1 AWD (an
2284:Drivers/STM32L4xx_HAL_Driver/Src/stm32l4xx_hal_tim_ex.c ****   *            @arg TIM_TIM1_ETR_ADC1_AWD1:           TIM1_ETR is connected to ADC1 AWD1
2285:Drivers/STM32L4xx_HAL_Driver/Src/stm32l4xx_hal_tim_ex.c ****   *            @arg TIM_TIM1_ETR_ADC1_AWD2:           TIM1_ETR is connected to ADC1 AWD2
2286:Drivers/STM32L4xx_HAL_Driver/Src/stm32l4xx_hal_tim_ex.c ****   *            @arg TIM_TIM1_ETR_ADC1_AWD3:           TIM1_ETR is connected to ADC1 AWD3
2287:Drivers/STM32L4xx_HAL_Driver/Src/stm32l4xx_hal_tim_ex.c ****   *
2288:Drivers/STM32L4xx_HAL_Driver/Src/stm32l4xx_hal_tim_ex.c ****   *                   field2 can have the following values:
2289:Drivers/STM32L4xx_HAL_Driver/Src/stm32l4xx_hal_tim_ex.c ****   *            @arg TIM_TIM1_TI1_GPIO:                TIM1 TI1 is connected to GPIO
2290:Drivers/STM32L4xx_HAL_Driver/Src/stm32l4xx_hal_tim_ex.c ****   *            @arg TIM_TIM1_TI1_COMP1:               TIM1 TI1 is connected to COMP1 output
2291:Drivers/STM32L4xx_HAL_Driver/Src/stm32l4xx_hal_tim_ex.c ****   *
2292:Drivers/STM32L4xx_HAL_Driver/Src/stm32l4xx_hal_tim_ex.c ****   *                   field3 can have the following values:
2293:Drivers/STM32L4xx_HAL_Driver/Src/stm32l4xx_hal_tim_ex.c ****   *            @arg TIM_TIM1_ETR_COMP1:               TIM1_ETR is connected to COMP1 output
2294:Drivers/STM32L4xx_HAL_Driver/Src/stm32l4xx_hal_tim_ex.c ****   *            @arg TIM_TIM1_ETR_COMP2:               TIM1_ETR is connected to COMP2 output
2295:Drivers/STM32L4xx_HAL_Driver/Src/stm32l4xx_hal_tim_ex.c ****   *
2296:Drivers/STM32L4xx_HAL_Driver/Src/stm32l4xx_hal_tim_ex.c ****   *            @note  When field3 is set to TIM_TIM1_ETR_COMP1 or TIM_TIM1_ETR_COMP2 field1 values 
2297:Drivers/STM32L4xx_HAL_Driver/Src/stm32l4xx_hal_tim_ex.c ****   *
2298:Drivers/STM32L4xx_HAL_Driver/Src/stm32l4xx_hal_tim_ex.c ****   @endif
2299:Drivers/STM32L4xx_HAL_Driver/Src/stm32l4xx_hal_tim_ex.c ****   @if STM32L486xx
2300:Drivers/STM32L4xx_HAL_Driver/Src/stm32l4xx_hal_tim_ex.c ****   *         For TIM2, the parameter is a combination of 3 fields (field1 | field2 | field3):
2301:Drivers/STM32L4xx_HAL_Driver/Src/stm32l4xx_hal_tim_ex.c ****   *
2302:Drivers/STM32L4xx_HAL_Driver/Src/stm32l4xx_hal_tim_ex.c ****   *                   field1 can have the following values:
ARM GAS  /tmp/ccR4xO3u.s 			page 147


2303:Drivers/STM32L4xx_HAL_Driver/Src/stm32l4xx_hal_tim_ex.c ****   *            @arg TIM_TIM2_ITR1_TIM8_TRGO:          TIM2_ITR1 is connected to TIM8_TRGO
2304:Drivers/STM32L4xx_HAL_Driver/Src/stm32l4xx_hal_tim_ex.c ****   *            @arg TIM_TIM2_ITR1_OTG_FS_SOF:         TIM2_ITR1 is connected to OTG_FS SOF
2305:Drivers/STM32L4xx_HAL_Driver/Src/stm32l4xx_hal_tim_ex.c ****   *
2306:Drivers/STM32L4xx_HAL_Driver/Src/stm32l4xx_hal_tim_ex.c ****   *                   field2 can have the following values:
2307:Drivers/STM32L4xx_HAL_Driver/Src/stm32l4xx_hal_tim_ex.c ****   *            @arg TIM_TIM2_ETR_GPIO:                TIM2_ETR is connected to GPIO
2308:Drivers/STM32L4xx_HAL_Driver/Src/stm32l4xx_hal_tim_ex.c ****   *            @arg TIM_TIM2_ETR_LSE:                 TIM2_ETR is connected to LSE
2309:Drivers/STM32L4xx_HAL_Driver/Src/stm32l4xx_hal_tim_ex.c ****   *            @arg TIM_TIM2_ETR_COMP1:               TIM2_ETR is connected to COMP1 output
2310:Drivers/STM32L4xx_HAL_Driver/Src/stm32l4xx_hal_tim_ex.c ****   *            @arg TIM_TIM2_ETR_COMP2:               TIM2_ETR is connected to COMP2 output
2311:Drivers/STM32L4xx_HAL_Driver/Src/stm32l4xx_hal_tim_ex.c ****   *
2312:Drivers/STM32L4xx_HAL_Driver/Src/stm32l4xx_hal_tim_ex.c ****   *                   field3 can have the following values:
2313:Drivers/STM32L4xx_HAL_Driver/Src/stm32l4xx_hal_tim_ex.c ****   *            @arg TIM_TIM2_TI4_GPIO:                TIM2 TI4 is connected to GPIO
2314:Drivers/STM32L4xx_HAL_Driver/Src/stm32l4xx_hal_tim_ex.c ****   *            @arg TIM_TIM2_TI4_COMP1:               TIM2 TI4 is connected to COMP1 output
2315:Drivers/STM32L4xx_HAL_Driver/Src/stm32l4xx_hal_tim_ex.c ****   *            @arg TIM_TIM2_TI4_COMP2:               TIM2 TI4 is connected to COMP2 output
2316:Drivers/STM32L4xx_HAL_Driver/Src/stm32l4xx_hal_tim_ex.c ****   *            @arg TIM_TIM2_TI4_COMP1_COMP2:         TIM2 TI4 is connected to logical OR between C
2317:Drivers/STM32L4xx_HAL_Driver/Src/stm32l4xx_hal_tim_ex.c ****   @endif
2318:Drivers/STM32L4xx_HAL_Driver/Src/stm32l4xx_hal_tim_ex.c ****   @if STM32L422xx
2319:Drivers/STM32L4xx_HAL_Driver/Src/stm32l4xx_hal_tim_ex.c ****   *         For TIM2, the parameter is a combination of 3 fields (field1 | field2 | field3):
2320:Drivers/STM32L4xx_HAL_Driver/Src/stm32l4xx_hal_tim_ex.c ****   *
2321:Drivers/STM32L4xx_HAL_Driver/Src/stm32l4xx_hal_tim_ex.c ****   *                   field1 can have the following values:
2322:Drivers/STM32L4xx_HAL_Driver/Src/stm32l4xx_hal_tim_ex.c ****   *            @arg TIM_TIM2_ITR1_NONE:               No internal trigger on TIM2_ITR1
2323:Drivers/STM32L4xx_HAL_Driver/Src/stm32l4xx_hal_tim_ex.c ****   *            @arg TIM_TIM2_ITR1_USB_SOF:            TIM2_ITR1 is connected to USB SOF
2324:Drivers/STM32L4xx_HAL_Driver/Src/stm32l4xx_hal_tim_ex.c ****   *
2325:Drivers/STM32L4xx_HAL_Driver/Src/stm32l4xx_hal_tim_ex.c ****   *                   field2 can have the following values:
2326:Drivers/STM32L4xx_HAL_Driver/Src/stm32l4xx_hal_tim_ex.c ****   *            @arg TIM_TIM2_ETR_GPIO:                TIM2_ETR is connected to GPIO
2327:Drivers/STM32L4xx_HAL_Driver/Src/stm32l4xx_hal_tim_ex.c ****   *            @arg TIM_TIM2_ETR_LSE:                 TIM2_ETR is connected to LSE
2328:Drivers/STM32L4xx_HAL_Driver/Src/stm32l4xx_hal_tim_ex.c ****   *            @arg TIM_TIM2_ETR_COMP1:               TIM2_ETR is connected to COMP1 output
2329:Drivers/STM32L4xx_HAL_Driver/Src/stm32l4xx_hal_tim_ex.c ****   *
2330:Drivers/STM32L4xx_HAL_Driver/Src/stm32l4xx_hal_tim_ex.c ****   *                   field3 can have the following values:
2331:Drivers/STM32L4xx_HAL_Driver/Src/stm32l4xx_hal_tim_ex.c ****   *            @arg TIM_TIM2_TI4_GPIO:                TIM2 TI4 is connected to GPIO
2332:Drivers/STM32L4xx_HAL_Driver/Src/stm32l4xx_hal_tim_ex.c ****   *            @arg TIM_TIM2_TI4_COMP1:               TIM2 TI4 is connected to COMP1 output
2333:Drivers/STM32L4xx_HAL_Driver/Src/stm32l4xx_hal_tim_ex.c ****   *
2334:Drivers/STM32L4xx_HAL_Driver/Src/stm32l4xx_hal_tim_ex.c ****   @endif
2335:Drivers/STM32L4xx_HAL_Driver/Src/stm32l4xx_hal_tim_ex.c ****   @if STM32L443xx
2336:Drivers/STM32L4xx_HAL_Driver/Src/stm32l4xx_hal_tim_ex.c ****   *         For TIM2, the parameter is a combination of 3 fields (field1 | field2 | field3):
2337:Drivers/STM32L4xx_HAL_Driver/Src/stm32l4xx_hal_tim_ex.c ****   *
2338:Drivers/STM32L4xx_HAL_Driver/Src/stm32l4xx_hal_tim_ex.c ****   *                   field1 can have the following values:
2339:Drivers/STM32L4xx_HAL_Driver/Src/stm32l4xx_hal_tim_ex.c ****   *            @arg TIM_TIM2_ITR1_NONE:               No internal trigger on TIM2_ITR1
2340:Drivers/STM32L4xx_HAL_Driver/Src/stm32l4xx_hal_tim_ex.c ****   *            @arg TIM_TIM2_ITR1_USB_SOF:            TIM2_ITR1 is connected to USB SOF
2341:Drivers/STM32L4xx_HAL_Driver/Src/stm32l4xx_hal_tim_ex.c ****   *
2342:Drivers/STM32L4xx_HAL_Driver/Src/stm32l4xx_hal_tim_ex.c ****   *                   field2 can have the following values:
2343:Drivers/STM32L4xx_HAL_Driver/Src/stm32l4xx_hal_tim_ex.c ****   *            @arg TIM_TIM2_ETR_GPIO:                TIM2_ETR is connected to GPIO
2344:Drivers/STM32L4xx_HAL_Driver/Src/stm32l4xx_hal_tim_ex.c ****   *            @arg TIM_TIM2_ETR_LSE:                 TIM2_ETR is connected to LSE
2345:Drivers/STM32L4xx_HAL_Driver/Src/stm32l4xx_hal_tim_ex.c ****   *            @arg TIM_TIM2_ETR_COMP1:               TIM2_ETR is connected to COMP1 output
2346:Drivers/STM32L4xx_HAL_Driver/Src/stm32l4xx_hal_tim_ex.c ****   *            @arg TIM_TIM2_ETR_COMP2:               TIM2_ETR is connected to COMP2 output
2347:Drivers/STM32L4xx_HAL_Driver/Src/stm32l4xx_hal_tim_ex.c ****   *
2348:Drivers/STM32L4xx_HAL_Driver/Src/stm32l4xx_hal_tim_ex.c ****   *                   field3 can have the following values:
2349:Drivers/STM32L4xx_HAL_Driver/Src/stm32l4xx_hal_tim_ex.c ****   *            @arg TIM_TIM2_TI4_GPIO:                TIM2 TI4 is connected to GPIO
2350:Drivers/STM32L4xx_HAL_Driver/Src/stm32l4xx_hal_tim_ex.c ****   *            @arg TIM_TIM2_TI4_COMP1:               TIM2 TI4 is connected to COMP1 output
2351:Drivers/STM32L4xx_HAL_Driver/Src/stm32l4xx_hal_tim_ex.c ****   *            @arg TIM_TIM2_TI4_COMP2:               TIM2 TI4 is connected to COMP2 output
2352:Drivers/STM32L4xx_HAL_Driver/Src/stm32l4xx_hal_tim_ex.c ****   *            @arg TIM_TIM2_TI4_COMP1_COMP2:         TIM2 TI4 is connected to logical OR between C
2353:Drivers/STM32L4xx_HAL_Driver/Src/stm32l4xx_hal_tim_ex.c ****   *
2354:Drivers/STM32L4xx_HAL_Driver/Src/stm32l4xx_hal_tim_ex.c ****   @endif
2355:Drivers/STM32L4xx_HAL_Driver/Src/stm32l4xx_hal_tim_ex.c ****   @if STM32L486xx
2356:Drivers/STM32L4xx_HAL_Driver/Src/stm32l4xx_hal_tim_ex.c ****   *         For TIM3, the parameter is a combination 2 fields(field1 | field2):
2357:Drivers/STM32L4xx_HAL_Driver/Src/stm32l4xx_hal_tim_ex.c ****   *
2358:Drivers/STM32L4xx_HAL_Driver/Src/stm32l4xx_hal_tim_ex.c ****   *                   field1 can have the following values:
2359:Drivers/STM32L4xx_HAL_Driver/Src/stm32l4xx_hal_tim_ex.c ****   *            @arg TIM_TIM3_TI1_GPIO:                TIM3 TI1 is connected to GPIO
ARM GAS  /tmp/ccR4xO3u.s 			page 148


2360:Drivers/STM32L4xx_HAL_Driver/Src/stm32l4xx_hal_tim_ex.c ****   *            @arg TIM_TIM3_TI1_COMP1:               TIM3 TI1 is connected to COMP1 output
2361:Drivers/STM32L4xx_HAL_Driver/Src/stm32l4xx_hal_tim_ex.c ****   *            @arg TIM_TIM3_TI1_COMP2:               TIM3 TI1 is connected to COMP2 output
2362:Drivers/STM32L4xx_HAL_Driver/Src/stm32l4xx_hal_tim_ex.c ****   *            @arg TIM_TIM3_TI1_COMP1_COMP2:         TIM3 TI1 is connected to logical OR between C
2363:Drivers/STM32L4xx_HAL_Driver/Src/stm32l4xx_hal_tim_ex.c ****   *
2364:Drivers/STM32L4xx_HAL_Driver/Src/stm32l4xx_hal_tim_ex.c ****   *                   field2 can have the following values:
2365:Drivers/STM32L4xx_HAL_Driver/Src/stm32l4xx_hal_tim_ex.c ****   *            @arg TIM_TIM3_ETR_GPIO:                TIM3_ETR is connected to GPIO
2366:Drivers/STM32L4xx_HAL_Driver/Src/stm32l4xx_hal_tim_ex.c ****   *            @arg TIM_TIM3_ETR_COMP1:               TIM3_ETR is connected to COMP1 output
2367:Drivers/STM32L4xx_HAL_Driver/Src/stm32l4xx_hal_tim_ex.c ****   *
2368:Drivers/STM32L4xx_HAL_Driver/Src/stm32l4xx_hal_tim_ex.c ****   @endif
2369:Drivers/STM32L4xx_HAL_Driver/Src/stm32l4xx_hal_tim_ex.c ****   @if STM32L486xx
2370:Drivers/STM32L4xx_HAL_Driver/Src/stm32l4xx_hal_tim_ex.c ****   *         For TIM8, the parameter is a combination of 3 fields (field1 | field2 | field3):
2371:Drivers/STM32L4xx_HAL_Driver/Src/stm32l4xx_hal_tim_ex.c ****   *
2372:Drivers/STM32L4xx_HAL_Driver/Src/stm32l4xx_hal_tim_ex.c ****   *                   field1 can have the following values:
2373:Drivers/STM32L4xx_HAL_Driver/Src/stm32l4xx_hal_tim_ex.c ****   *            @arg TIM_TIM8_ETR_ADC2_NONE:          TIM8_ETR is not connected to any ADC2 AWD (ana
2374:Drivers/STM32L4xx_HAL_Driver/Src/stm32l4xx_hal_tim_ex.c ****   *            @arg TIM_TIM8_ETR_ADC2_AWD1:          TIM8_ETR is connected to ADC2 AWD1
2375:Drivers/STM32L4xx_HAL_Driver/Src/stm32l4xx_hal_tim_ex.c ****   *            @arg TIM_TIM8_ETR_ADC2_AWD2:          TIM8_ETR is connected to ADC2 AWD2
2376:Drivers/STM32L4xx_HAL_Driver/Src/stm32l4xx_hal_tim_ex.c ****   *            @arg TIM_TIM8_ETR_ADC2_AWD3:          TIM8_ETR is connected to ADC2 AWD3
2377:Drivers/STM32L4xx_HAL_Driver/Src/stm32l4xx_hal_tim_ex.c ****   *
2378:Drivers/STM32L4xx_HAL_Driver/Src/stm32l4xx_hal_tim_ex.c ****   *                   field2 can have the following values:
2379:Drivers/STM32L4xx_HAL_Driver/Src/stm32l4xx_hal_tim_ex.c ****   *            @arg TIM_TIM8_ETR_ADC3_NONE:          TIM8_ETR is not connected to any ADC3 AWD (ana
2380:Drivers/STM32L4xx_HAL_Driver/Src/stm32l4xx_hal_tim_ex.c ****   *            @arg TIM_TIM8_ETR_ADC3_AWD1:          TIM8_ETR is connected to ADC3 AWD1
2381:Drivers/STM32L4xx_HAL_Driver/Src/stm32l4xx_hal_tim_ex.c ****   *            @arg TIM_TIM8_ETR_ADC3_AWD2:          TIM8_ETR is connected to ADC3 AWD2
2382:Drivers/STM32L4xx_HAL_Driver/Src/stm32l4xx_hal_tim_ex.c ****   *            @arg TIM_TIM8_ETR_ADC3_AWD3:          TIM8_ETR is connected to ADC3 AWD3
2383:Drivers/STM32L4xx_HAL_Driver/Src/stm32l4xx_hal_tim_ex.c ****   *
2384:Drivers/STM32L4xx_HAL_Driver/Src/stm32l4xx_hal_tim_ex.c ****   *                   field3 can have the following values:
2385:Drivers/STM32L4xx_HAL_Driver/Src/stm32l4xx_hal_tim_ex.c ****   *            @arg TIM_TIM8_TI1_GPIO:               TIM8 TI1 is connected to GPIO
2386:Drivers/STM32L4xx_HAL_Driver/Src/stm32l4xx_hal_tim_ex.c ****   *            @arg TIM_TIM8_TI1_COMP2:              TIM8 TI1 is connected to COMP2 output
2387:Drivers/STM32L4xx_HAL_Driver/Src/stm32l4xx_hal_tim_ex.c ****   *
2388:Drivers/STM32L4xx_HAL_Driver/Src/stm32l4xx_hal_tim_ex.c ****   *                   field4 can have the following values:
2389:Drivers/STM32L4xx_HAL_Driver/Src/stm32l4xx_hal_tim_ex.c ****   *            @arg TIM_TIM8_ETR_COMP1:               TIM8_ETR is connected to COMP1 output
2390:Drivers/STM32L4xx_HAL_Driver/Src/stm32l4xx_hal_tim_ex.c ****   *            @arg TIM_TIM8_ETR_COMP2:               TIM8_ETR is connected to COMP2 output
2391:Drivers/STM32L4xx_HAL_Driver/Src/stm32l4xx_hal_tim_ex.c ****   *            @note  When field4 is set to TIM_TIM8_ETR_COMP1 or TIM_TIM8_ETR_COMP2 field1 and fie
2392:Drivers/STM32L4xx_HAL_Driver/Src/stm32l4xx_hal_tim_ex.c ****   *
2393:Drivers/STM32L4xx_HAL_Driver/Src/stm32l4xx_hal_tim_ex.c ****   @endif
2394:Drivers/STM32L4xx_HAL_Driver/Src/stm32l4xx_hal_tim_ex.c ****   @if STM32L422xx
2395:Drivers/STM32L4xx_HAL_Driver/Src/stm32l4xx_hal_tim_ex.c ****   *         For TIM15, the parameter is a combination of 2 fields (field1 | field2):
2396:Drivers/STM32L4xx_HAL_Driver/Src/stm32l4xx_hal_tim_ex.c ****   *
2397:Drivers/STM32L4xx_HAL_Driver/Src/stm32l4xx_hal_tim_ex.c ****   *                   field1 can have the following values:
2398:Drivers/STM32L4xx_HAL_Driver/Src/stm32l4xx_hal_tim_ex.c ****   *            @arg TIM_TIM15_TI1_GPIO:              TIM15 TI1 is connected to GPIO
2399:Drivers/STM32L4xx_HAL_Driver/Src/stm32l4xx_hal_tim_ex.c ****   *            @arg TIM_TIM15_TI1_LSE:               TIM15 TI1 is connected to LSE
2400:Drivers/STM32L4xx_HAL_Driver/Src/stm32l4xx_hal_tim_ex.c ****   *
2401:Drivers/STM32L4xx_HAL_Driver/Src/stm32l4xx_hal_tim_ex.c ****   *                   field2 can have the following values:
2402:Drivers/STM32L4xx_HAL_Driver/Src/stm32l4xx_hal_tim_ex.c ****   *            @arg TIM_TIM15_ENCODERMODE_NONE:      No redirection
2403:Drivers/STM32L4xx_HAL_Driver/Src/stm32l4xx_hal_tim_ex.c ****   *            @arg TIM_TIM15_ENCODERMODE_TIM2:      TIM2 IC1 and TIM2 IC2 are connected to TIM15 I
2404:Drivers/STM32L4xx_HAL_Driver/Src/stm32l4xx_hal_tim_ex.c ****   *
2405:Drivers/STM32L4xx_HAL_Driver/Src/stm32l4xx_hal_tim_ex.c ****   @endif
2406:Drivers/STM32L4xx_HAL_Driver/Src/stm32l4xx_hal_tim_ex.c ****   @if STM32L443xx
2407:Drivers/STM32L4xx_HAL_Driver/Src/stm32l4xx_hal_tim_ex.c ****   *         For TIM15, the parameter is a combination of 2 fields (field1 | field2):
2408:Drivers/STM32L4xx_HAL_Driver/Src/stm32l4xx_hal_tim_ex.c ****   *
2409:Drivers/STM32L4xx_HAL_Driver/Src/stm32l4xx_hal_tim_ex.c ****   *                   field1 can have the following values:
2410:Drivers/STM32L4xx_HAL_Driver/Src/stm32l4xx_hal_tim_ex.c ****   *            @arg TIM_TIM15_TI1_GPIO:              TIM15 TI1 is connected to GPIO
2411:Drivers/STM32L4xx_HAL_Driver/Src/stm32l4xx_hal_tim_ex.c ****   *            @arg TIM_TIM15_TI1_LSE:               TIM15 TI1 is connected to LSE
2412:Drivers/STM32L4xx_HAL_Driver/Src/stm32l4xx_hal_tim_ex.c ****   *
2413:Drivers/STM32L4xx_HAL_Driver/Src/stm32l4xx_hal_tim_ex.c ****   *                   field2 can have the following values:
2414:Drivers/STM32L4xx_HAL_Driver/Src/stm32l4xx_hal_tim_ex.c ****   *            @arg TIM_TIM15_ENCODERMODE_NONE:      No redirection
2415:Drivers/STM32L4xx_HAL_Driver/Src/stm32l4xx_hal_tim_ex.c ****   *            @arg TIM_TIM15_ENCODERMODE_TIM2:      TIM2 IC1 and TIM2 IC2 are connected to TIM15 I
2416:Drivers/STM32L4xx_HAL_Driver/Src/stm32l4xx_hal_tim_ex.c ****   *            @arg TIM_TIM15_ENCODERMODE_TIM3:      TIM3 IC1 and TIM3 IC2 are connected to TIM15 I
ARM GAS  /tmp/ccR4xO3u.s 			page 149


2417:Drivers/STM32L4xx_HAL_Driver/Src/stm32l4xx_hal_tim_ex.c ****   *            @arg TIM_TIM15_ENCODERMODE_TIM4:      TIM4 IC1 and TIM4 IC2 are connected to TIM15 I
2418:Drivers/STM32L4xx_HAL_Driver/Src/stm32l4xx_hal_tim_ex.c ****   *
2419:Drivers/STM32L4xx_HAL_Driver/Src/stm32l4xx_hal_tim_ex.c ****   @endif
2420:Drivers/STM32L4xx_HAL_Driver/Src/stm32l4xx_hal_tim_ex.c ****   @if STM32L486xx
2421:Drivers/STM32L4xx_HAL_Driver/Src/stm32l4xx_hal_tim_ex.c ****   *            @arg TIM_TIM16_TI1_GPIO:              TIM16 TI1 is connected to GPIO
2422:Drivers/STM32L4xx_HAL_Driver/Src/stm32l4xx_hal_tim_ex.c ****   *            @arg TIM_TIM16_TI1_LSI:               TIM16 TI1 is connected to LSI
2423:Drivers/STM32L4xx_HAL_Driver/Src/stm32l4xx_hal_tim_ex.c ****   *            @arg TIM_TIM16_TI1_LSE:               TIM16 TI1 is connected to LSE
2424:Drivers/STM32L4xx_HAL_Driver/Src/stm32l4xx_hal_tim_ex.c ****   *            @arg TIM_TIM16_TI1_RTC:               TIM16 TI1 is connected to RTC wakeup interrupt
2425:Drivers/STM32L4xx_HAL_Driver/Src/stm32l4xx_hal_tim_ex.c ****   *
2426:Drivers/STM32L4xx_HAL_Driver/Src/stm32l4xx_hal_tim_ex.c ****   @endif
2427:Drivers/STM32L4xx_HAL_Driver/Src/stm32l4xx_hal_tim_ex.c ****   @if STM32L422xx
2428:Drivers/STM32L4xx_HAL_Driver/Src/stm32l4xx_hal_tim_ex.c ****   *         For TIM16, the parameter can have the following values:
2429:Drivers/STM32L4xx_HAL_Driver/Src/stm32l4xx_hal_tim_ex.c ****   *            @arg TIM_TIM16_TI1_GPIO:              TIM16 TI1 is connected to GPIO
2430:Drivers/STM32L4xx_HAL_Driver/Src/stm32l4xx_hal_tim_ex.c ****   *            @arg TIM_TIM16_TI1_LSI:               TIM16 TI1 is connected to LSI
2431:Drivers/STM32L4xx_HAL_Driver/Src/stm32l4xx_hal_tim_ex.c ****   *            @arg TIM_TIM16_TI1_LSE:               TIM16 TI1 is connected to LSE
2432:Drivers/STM32L4xx_HAL_Driver/Src/stm32l4xx_hal_tim_ex.c ****   *            @arg TIM_TIM16_TI1_RTC:               TIM16 TI1 is connected to RTC wakeup interrupt
2433:Drivers/STM32L4xx_HAL_Driver/Src/stm32l4xx_hal_tim_ex.c ****   *            @arg TIM_TIM16_TI1_MSI:               TIM16 TI1 is connected to MSI  (constraints: M
2434:Drivers/STM32L4xx_HAL_Driver/Src/stm32l4xx_hal_tim_ex.c ****   *            @arg TIM_TIM16_TI1_HSE_32:            TIM16 TI1 is connected to HSE div 32  (note th
2435:Drivers/STM32L4xx_HAL_Driver/Src/stm32l4xx_hal_tim_ex.c ****   *            @arg TIM_TIM16_TI1_MCO:               TIM16 TI1 is connected to MCO
2436:Drivers/STM32L4xx_HAL_Driver/Src/stm32l4xx_hal_tim_ex.c ****   *
2437:Drivers/STM32L4xx_HAL_Driver/Src/stm32l4xx_hal_tim_ex.c ****   @endif
2438:Drivers/STM32L4xx_HAL_Driver/Src/stm32l4xx_hal_tim_ex.c ****   @if STM32L443xx
2439:Drivers/STM32L4xx_HAL_Driver/Src/stm32l4xx_hal_tim_ex.c ****   *         For TIM16, the parameter can have the following values:
2440:Drivers/STM32L4xx_HAL_Driver/Src/stm32l4xx_hal_tim_ex.c ****   *            @arg TIM_TIM16_TI1_GPIO:              TIM16 TI1 is connected to GPIO
2441:Drivers/STM32L4xx_HAL_Driver/Src/stm32l4xx_hal_tim_ex.c ****   *            @arg TIM_TIM16_TI1_LSI:               TIM16 TI1 is connected to LSI
2442:Drivers/STM32L4xx_HAL_Driver/Src/stm32l4xx_hal_tim_ex.c ****   *            @arg TIM_TIM16_TI1_LSE:               TIM16 TI1 is connected to LSE
2443:Drivers/STM32L4xx_HAL_Driver/Src/stm32l4xx_hal_tim_ex.c ****   *            @arg TIM_TIM16_TI1_RTC:               TIM16 TI1 is connected to RTC wakeup interrupt
2444:Drivers/STM32L4xx_HAL_Driver/Src/stm32l4xx_hal_tim_ex.c ****   *            @arg TIM_TIM16_TI1_MSI:               TIM16 TI1 is connected to MSI  (constraints: M
2445:Drivers/STM32L4xx_HAL_Driver/Src/stm32l4xx_hal_tim_ex.c ****   *            @arg TIM_TIM16_TI1_HSE_32:            TIM16 TI1 is connected to HSE div 32  (note th
2446:Drivers/STM32L4xx_HAL_Driver/Src/stm32l4xx_hal_tim_ex.c ****   *            @arg TIM_TIM16_TI1_MCO:               TIM16 TI1 is connected to MCO
2447:Drivers/STM32L4xx_HAL_Driver/Src/stm32l4xx_hal_tim_ex.c ****   *
2448:Drivers/STM32L4xx_HAL_Driver/Src/stm32l4xx_hal_tim_ex.c ****   @endif
2449:Drivers/STM32L4xx_HAL_Driver/Src/stm32l4xx_hal_tim_ex.c ****   @if STM32L486xx
2450:Drivers/STM32L4xx_HAL_Driver/Src/stm32l4xx_hal_tim_ex.c ****   *         For TIM17, the parameter can have the following values:
2451:Drivers/STM32L4xx_HAL_Driver/Src/stm32l4xx_hal_tim_ex.c ****   *            @arg TIM_TIM17_TI1_GPIO:              TIM17 TI1 is connected to GPIO
2452:Drivers/STM32L4xx_HAL_Driver/Src/stm32l4xx_hal_tim_ex.c ****   *            @arg TIM_TIM17_TI1_MSI:               TIM17 TI1 is connected to MSI  (constraints: M
2453:Drivers/STM32L4xx_HAL_Driver/Src/stm32l4xx_hal_tim_ex.c ****   *            @arg TIM_TIM17_TI1_HSE_32:            TIM17 TI1 is connected to HSE div 32
2454:Drivers/STM32L4xx_HAL_Driver/Src/stm32l4xx_hal_tim_ex.c ****   *            @arg TIM_TIM17_TI1_MCO:               TIM17 TI1 is connected to MCO
2455:Drivers/STM32L4xx_HAL_Driver/Src/stm32l4xx_hal_tim_ex.c ****   @endif
2456:Drivers/STM32L4xx_HAL_Driver/Src/stm32l4xx_hal_tim_ex.c ****   *
2457:Drivers/STM32L4xx_HAL_Driver/Src/stm32l4xx_hal_tim_ex.c ****   * @retval HAL status
2458:Drivers/STM32L4xx_HAL_Driver/Src/stm32l4xx_hal_tim_ex.c ****   */
2459:Drivers/STM32L4xx_HAL_Driver/Src/stm32l4xx_hal_tim_ex.c **** HAL_StatusTypeDef HAL_TIMEx_RemapConfig(TIM_HandleTypeDef *htim, uint32_t Remap)
2460:Drivers/STM32L4xx_HAL_Driver/Src/stm32l4xx_hal_tim_ex.c **** {
 6066              		.loc 1 2460 1
 6067              		.cfi_startproc
 6068              		@ args = 0, pretend = 0, frame = 16
 6069              		@ frame_needed = 1, uses_anonymous_args = 0
 6070              		@ link register save eliminated.
 6071 0000 80B4     		push	{r7}
 6072              	.LCFI168:
 6073              		.cfi_def_cfa_offset 4
 6074              		.cfi_offset 7, -4
 6075 0002 85B0     		sub	sp, sp, #20
 6076              	.LCFI169:
 6077              		.cfi_def_cfa_offset 24
 6078 0004 00AF     		add	r7, sp, #0
ARM GAS  /tmp/ccR4xO3u.s 			page 150


 6079              	.LCFI170:
 6080              		.cfi_def_cfa_register 7
 6081 0006 7860     		str	r0, [r7, #4]
 6082 0008 3960     		str	r1, [r7]
2461:Drivers/STM32L4xx_HAL_Driver/Src/stm32l4xx_hal_tim_ex.c ****   uint32_t tmpor1;
2462:Drivers/STM32L4xx_HAL_Driver/Src/stm32l4xx_hal_tim_ex.c ****   uint32_t tmpor2;
2463:Drivers/STM32L4xx_HAL_Driver/Src/stm32l4xx_hal_tim_ex.c **** 
2464:Drivers/STM32L4xx_HAL_Driver/Src/stm32l4xx_hal_tim_ex.c ****   /* Check parameters */
2465:Drivers/STM32L4xx_HAL_Driver/Src/stm32l4xx_hal_tim_ex.c ****   assert_param(IS_TIM_REMAP_INSTANCE(htim->Instance));
2466:Drivers/STM32L4xx_HAL_Driver/Src/stm32l4xx_hal_tim_ex.c ****   assert_param(IS_TIM_REMAP(Remap));
2467:Drivers/STM32L4xx_HAL_Driver/Src/stm32l4xx_hal_tim_ex.c **** 
2468:Drivers/STM32L4xx_HAL_Driver/Src/stm32l4xx_hal_tim_ex.c ****   __HAL_LOCK(htim);
 6083              		.loc 1 2468 3
 6084 000a 7B68     		ldr	r3, [r7, #4]
 6085 000c 93F83C30 		ldrb	r3, [r3, #60]	@ zero_extendqisi2
 6086 0010 012B     		cmp	r3, #1
 6087 0012 01D1     		bne	.L386
 6088              		.loc 1 2468 3 is_stmt 0 discriminator 1
 6089 0014 0223     		movs	r3, #2
 6090 0016 2EE0     		b	.L387
 6091              	.L386:
 6092              		.loc 1 2468 3 discriminator 2
 6093 0018 7B68     		ldr	r3, [r7, #4]
 6094 001a 0122     		movs	r2, #1
 6095 001c 83F83C20 		strb	r2, [r3, #60]
2469:Drivers/STM32L4xx_HAL_Driver/Src/stm32l4xx_hal_tim_ex.c **** 
2470:Drivers/STM32L4xx_HAL_Driver/Src/stm32l4xx_hal_tim_ex.c ****   /* Set ETR_SEL bit field (if required) */
2471:Drivers/STM32L4xx_HAL_Driver/Src/stm32l4xx_hal_tim_ex.c ****   if (IS_TIM_ETRSEL_INSTANCE(htim->Instance))
 6096              		.loc 1 2471 7 is_stmt 1 discriminator 2
 6097 0020 7B68     		ldr	r3, [r7, #4]
 6098 0022 1B68     		ldr	r3, [r3]
 6099              		.loc 1 2471 6 discriminator 2
 6100 0024 174A     		ldr	r2, .L390
 6101 0026 9342     		cmp	r3, r2
 6102 0028 04D0     		beq	.L388
 6103              		.loc 1 2471 7 discriminator 1
 6104 002a 7B68     		ldr	r3, [r7, #4]
 6105 002c 1B68     		ldr	r3, [r3]
 6106 002e B3F1804F 		cmp	r3, #1073741824
 6107 0032 11D1     		bne	.L389
 6108              	.L388:
2472:Drivers/STM32L4xx_HAL_Driver/Src/stm32l4xx_hal_tim_ex.c ****   {
2473:Drivers/STM32L4xx_HAL_Driver/Src/stm32l4xx_hal_tim_ex.c ****     tmpor2 = htim->Instance->OR2;
 6109              		.loc 1 2473 18
 6110 0034 7B68     		ldr	r3, [r7, #4]
 6111 0036 1B68     		ldr	r3, [r3]
 6112              		.loc 1 2473 12
 6113 0038 1B6E     		ldr	r3, [r3, #96]
 6114 003a FB60     		str	r3, [r7, #12]
2474:Drivers/STM32L4xx_HAL_Driver/Src/stm32l4xx_hal_tim_ex.c ****     tmpor2 &= ~TIM1_OR2_ETRSEL_Msk;
 6115              		.loc 1 2474 12
 6116 003c FB68     		ldr	r3, [r7, #12]
 6117 003e 23F4E033 		bic	r3, r3, #114688
 6118 0042 FB60     		str	r3, [r7, #12]
2475:Drivers/STM32L4xx_HAL_Driver/Src/stm32l4xx_hal_tim_ex.c ****     tmpor2 |= (Remap & TIM1_OR2_ETRSEL_Msk);
 6119              		.loc 1 2475 22
 6120 0044 3B68     		ldr	r3, [r7]
ARM GAS  /tmp/ccR4xO3u.s 			page 151


 6121 0046 03F4E033 		and	r3, r3, #114688
 6122              		.loc 1 2475 12
 6123 004a FA68     		ldr	r2, [r7, #12]
 6124 004c 1343     		orrs	r3, r3, r2
 6125 004e FB60     		str	r3, [r7, #12]
2476:Drivers/STM32L4xx_HAL_Driver/Src/stm32l4xx_hal_tim_ex.c **** 
2477:Drivers/STM32L4xx_HAL_Driver/Src/stm32l4xx_hal_tim_ex.c ****     /* Set TIMx_OR2 */
2478:Drivers/STM32L4xx_HAL_Driver/Src/stm32l4xx_hal_tim_ex.c ****     htim->Instance->OR2 = tmpor2;
 6126              		.loc 1 2478 9
 6127 0050 7B68     		ldr	r3, [r7, #4]
 6128 0052 1B68     		ldr	r3, [r3]
 6129              		.loc 1 2478 25
 6130 0054 FA68     		ldr	r2, [r7, #12]
 6131 0056 1A66     		str	r2, [r3, #96]
 6132              	.L389:
2479:Drivers/STM32L4xx_HAL_Driver/Src/stm32l4xx_hal_tim_ex.c ****   }
2480:Drivers/STM32L4xx_HAL_Driver/Src/stm32l4xx_hal_tim_ex.c **** 
2481:Drivers/STM32L4xx_HAL_Driver/Src/stm32l4xx_hal_tim_ex.c ****   /* Set other remapping capabilities */
2482:Drivers/STM32L4xx_HAL_Driver/Src/stm32l4xx_hal_tim_ex.c ****   tmpor1 = Remap;
 6133              		.loc 1 2482 10
 6134 0058 3B68     		ldr	r3, [r7]
 6135 005a BB60     		str	r3, [r7, #8]
2483:Drivers/STM32L4xx_HAL_Driver/Src/stm32l4xx_hal_tim_ex.c ****   tmpor1 &= ~TIM1_OR2_ETRSEL_Msk;
 6136              		.loc 1 2483 10
 6137 005c BB68     		ldr	r3, [r7, #8]
 6138 005e 23F4E033 		bic	r3, r3, #114688
 6139 0062 BB60     		str	r3, [r7, #8]
2484:Drivers/STM32L4xx_HAL_Driver/Src/stm32l4xx_hal_tim_ex.c **** 
2485:Drivers/STM32L4xx_HAL_Driver/Src/stm32l4xx_hal_tim_ex.c ****   /* Set TIMx_OR1 */
2486:Drivers/STM32L4xx_HAL_Driver/Src/stm32l4xx_hal_tim_ex.c ****   htim->Instance->OR1 = tmpor1;
 6140              		.loc 1 2486 7
 6141 0064 7B68     		ldr	r3, [r7, #4]
 6142 0066 1B68     		ldr	r3, [r3]
 6143              		.loc 1 2486 23
 6144 0068 BA68     		ldr	r2, [r7, #8]
 6145 006a 1A65     		str	r2, [r3, #80]
2487:Drivers/STM32L4xx_HAL_Driver/Src/stm32l4xx_hal_tim_ex.c **** 
2488:Drivers/STM32L4xx_HAL_Driver/Src/stm32l4xx_hal_tim_ex.c ****   __HAL_UNLOCK(htim);
 6146              		.loc 1 2488 3
 6147 006c 7B68     		ldr	r3, [r7, #4]
 6148 006e 0022     		movs	r2, #0
 6149 0070 83F83C20 		strb	r2, [r3, #60]
2489:Drivers/STM32L4xx_HAL_Driver/Src/stm32l4xx_hal_tim_ex.c **** 
2490:Drivers/STM32L4xx_HAL_Driver/Src/stm32l4xx_hal_tim_ex.c ****   return HAL_OK;
 6150              		.loc 1 2490 10
 6151 0074 0023     		movs	r3, #0
 6152              	.L387:
2491:Drivers/STM32L4xx_HAL_Driver/Src/stm32l4xx_hal_tim_ex.c **** }
 6153              		.loc 1 2491 1
 6154 0076 1846     		mov	r0, r3
 6155 0078 1437     		adds	r7, r7, #20
 6156              	.LCFI171:
 6157              		.cfi_def_cfa_offset 4
 6158 007a BD46     		mov	sp, r7
 6159              	.LCFI172:
 6160              		.cfi_def_cfa_register 13
 6161              		@ sp needed
ARM GAS  /tmp/ccR4xO3u.s 			page 152


 6162 007c 5DF8047B 		ldr	r7, [sp], #4
 6163              	.LCFI173:
 6164              		.cfi_restore 7
 6165              		.cfi_def_cfa_offset 0
 6166 0080 7047     		bx	lr
 6167              	.L391:
 6168 0082 00BF     		.align	2
 6169              	.L390:
 6170 0084 002C0140 		.word	1073818624
 6171              		.cfi_endproc
 6172              	.LFE164:
 6174              		.section	.text.HAL_TIMEx_GroupChannel5,"ax",%progbits
 6175              		.align	1
 6176              		.global	HAL_TIMEx_GroupChannel5
 6177              		.syntax unified
 6178              		.thumb
 6179              		.thumb_func
 6181              	HAL_TIMEx_GroupChannel5:
 6182              	.LFB165:
2492:Drivers/STM32L4xx_HAL_Driver/Src/stm32l4xx_hal_tim_ex.c **** 
2493:Drivers/STM32L4xx_HAL_Driver/Src/stm32l4xx_hal_tim_ex.c **** /**
2494:Drivers/STM32L4xx_HAL_Driver/Src/stm32l4xx_hal_tim_ex.c ****   * @brief  Group channel 5 and channel 1, 2 or 3
2495:Drivers/STM32L4xx_HAL_Driver/Src/stm32l4xx_hal_tim_ex.c ****   * @param  htim TIM handle.
2496:Drivers/STM32L4xx_HAL_Driver/Src/stm32l4xx_hal_tim_ex.c ****   * @param  Channels specifies the reference signal(s) the OC5REF is combined with.
2497:Drivers/STM32L4xx_HAL_Driver/Src/stm32l4xx_hal_tim_ex.c ****   *         This parameter can be any combination of the following values:
2498:Drivers/STM32L4xx_HAL_Driver/Src/stm32l4xx_hal_tim_ex.c ****   *         TIM_GROUPCH5_NONE: No effect of OC5REF on OC1REFC, OC2REFC and OC3REFC
2499:Drivers/STM32L4xx_HAL_Driver/Src/stm32l4xx_hal_tim_ex.c ****   *         TIM_GROUPCH5_OC1REFC: OC1REFC is the logical AND of OC1REFC and OC5REF
2500:Drivers/STM32L4xx_HAL_Driver/Src/stm32l4xx_hal_tim_ex.c ****   *         TIM_GROUPCH5_OC2REFC: OC2REFC is the logical AND of OC2REFC and OC5REF
2501:Drivers/STM32L4xx_HAL_Driver/Src/stm32l4xx_hal_tim_ex.c ****   *         TIM_GROUPCH5_OC3REFC: OC3REFC is the logical AND of OC3REFC and OC5REF
2502:Drivers/STM32L4xx_HAL_Driver/Src/stm32l4xx_hal_tim_ex.c ****   * @retval HAL status
2503:Drivers/STM32L4xx_HAL_Driver/Src/stm32l4xx_hal_tim_ex.c ****   */
2504:Drivers/STM32L4xx_HAL_Driver/Src/stm32l4xx_hal_tim_ex.c **** HAL_StatusTypeDef HAL_TIMEx_GroupChannel5(TIM_HandleTypeDef *htim, uint32_t Channels)
2505:Drivers/STM32L4xx_HAL_Driver/Src/stm32l4xx_hal_tim_ex.c **** {
 6183              		.loc 1 2505 1
 6184              		.cfi_startproc
 6185              		@ args = 0, pretend = 0, frame = 8
 6186              		@ frame_needed = 1, uses_anonymous_args = 0
 6187              		@ link register save eliminated.
 6188 0000 80B4     		push	{r7}
 6189              	.LCFI174:
 6190              		.cfi_def_cfa_offset 4
 6191              		.cfi_offset 7, -4
 6192 0002 83B0     		sub	sp, sp, #12
 6193              	.LCFI175:
 6194              		.cfi_def_cfa_offset 16
 6195 0004 00AF     		add	r7, sp, #0
 6196              	.LCFI176:
 6197              		.cfi_def_cfa_register 7
 6198 0006 7860     		str	r0, [r7, #4]
 6199 0008 3960     		str	r1, [r7]
2506:Drivers/STM32L4xx_HAL_Driver/Src/stm32l4xx_hal_tim_ex.c ****   /* Check parameters */
2507:Drivers/STM32L4xx_HAL_Driver/Src/stm32l4xx_hal_tim_ex.c ****   assert_param(IS_TIM_COMBINED3PHASEPWM_INSTANCE(htim->Instance));
2508:Drivers/STM32L4xx_HAL_Driver/Src/stm32l4xx_hal_tim_ex.c ****   assert_param(IS_TIM_GROUPCH5(Channels));
2509:Drivers/STM32L4xx_HAL_Driver/Src/stm32l4xx_hal_tim_ex.c **** 
2510:Drivers/STM32L4xx_HAL_Driver/Src/stm32l4xx_hal_tim_ex.c ****   /* Process Locked */
2511:Drivers/STM32L4xx_HAL_Driver/Src/stm32l4xx_hal_tim_ex.c ****   __HAL_LOCK(htim);
 6200              		.loc 1 2511 3
ARM GAS  /tmp/ccR4xO3u.s 			page 153


 6201 000a 7B68     		ldr	r3, [r7, #4]
 6202 000c 93F83C30 		ldrb	r3, [r3, #60]	@ zero_extendqisi2
 6203 0010 012B     		cmp	r3, #1
 6204 0012 01D1     		bne	.L393
 6205              		.loc 1 2511 3 is_stmt 0 discriminator 1
 6206 0014 0223     		movs	r3, #2
 6207 0016 20E0     		b	.L394
 6208              	.L393:
 6209              		.loc 1 2511 3 discriminator 2
 6210 0018 7B68     		ldr	r3, [r7, #4]
 6211 001a 0122     		movs	r2, #1
 6212 001c 83F83C20 		strb	r2, [r3, #60]
2512:Drivers/STM32L4xx_HAL_Driver/Src/stm32l4xx_hal_tim_ex.c **** 
2513:Drivers/STM32L4xx_HAL_Driver/Src/stm32l4xx_hal_tim_ex.c ****   htim->State = HAL_TIM_STATE_BUSY;
 6213              		.loc 1 2513 15 is_stmt 1 discriminator 2
 6214 0020 7B68     		ldr	r3, [r7, #4]
 6215 0022 0222     		movs	r2, #2
 6216 0024 83F83D20 		strb	r2, [r3, #61]
2514:Drivers/STM32L4xx_HAL_Driver/Src/stm32l4xx_hal_tim_ex.c **** 
2515:Drivers/STM32L4xx_HAL_Driver/Src/stm32l4xx_hal_tim_ex.c ****   /* Clear GC5Cx bit fields */
2516:Drivers/STM32L4xx_HAL_Driver/Src/stm32l4xx_hal_tim_ex.c ****   htim->Instance->CCR5 &= ~(TIM_CCR5_GC5C3 | TIM_CCR5_GC5C2 | TIM_CCR5_GC5C1);
 6217              		.loc 1 2516 7 discriminator 2
 6218 0028 7B68     		ldr	r3, [r7, #4]
 6219 002a 1B68     		ldr	r3, [r3]
 6220              		.loc 1 2516 24 discriminator 2
 6221 002c 9A6D     		ldr	r2, [r3, #88]
 6222              		.loc 1 2516 7 discriminator 2
 6223 002e 7B68     		ldr	r3, [r7, #4]
 6224 0030 1B68     		ldr	r3, [r3]
 6225              		.loc 1 2516 24 discriminator 2
 6226 0032 22F06042 		bic	r2, r2, #-536870912
 6227 0036 9A65     		str	r2, [r3, #88]
2517:Drivers/STM32L4xx_HAL_Driver/Src/stm32l4xx_hal_tim_ex.c **** 
2518:Drivers/STM32L4xx_HAL_Driver/Src/stm32l4xx_hal_tim_ex.c ****   /* Set GC5Cx bit fields */
2519:Drivers/STM32L4xx_HAL_Driver/Src/stm32l4xx_hal_tim_ex.c ****   htim->Instance->CCR5 |= Channels;
 6228              		.loc 1 2519 7 discriminator 2
 6229 0038 7B68     		ldr	r3, [r7, #4]
 6230 003a 1B68     		ldr	r3, [r3]
 6231              		.loc 1 2519 24 discriminator 2
 6232 003c 996D     		ldr	r1, [r3, #88]
 6233              		.loc 1 2519 7 discriminator 2
 6234 003e 7B68     		ldr	r3, [r7, #4]
 6235 0040 1B68     		ldr	r3, [r3]
 6236              		.loc 1 2519 24 discriminator 2
 6237 0042 3A68     		ldr	r2, [r7]
 6238 0044 0A43     		orrs	r2, r2, r1
 6239 0046 9A65     		str	r2, [r3, #88]
2520:Drivers/STM32L4xx_HAL_Driver/Src/stm32l4xx_hal_tim_ex.c **** 
2521:Drivers/STM32L4xx_HAL_Driver/Src/stm32l4xx_hal_tim_ex.c ****   /* Change the htim state */
2522:Drivers/STM32L4xx_HAL_Driver/Src/stm32l4xx_hal_tim_ex.c ****   htim->State = HAL_TIM_STATE_READY;
 6240              		.loc 1 2522 15 discriminator 2
 6241 0048 7B68     		ldr	r3, [r7, #4]
 6242 004a 0122     		movs	r2, #1
 6243 004c 83F83D20 		strb	r2, [r3, #61]
2523:Drivers/STM32L4xx_HAL_Driver/Src/stm32l4xx_hal_tim_ex.c **** 
2524:Drivers/STM32L4xx_HAL_Driver/Src/stm32l4xx_hal_tim_ex.c ****   __HAL_UNLOCK(htim);
 6244              		.loc 1 2524 3 discriminator 2
ARM GAS  /tmp/ccR4xO3u.s 			page 154


 6245 0050 7B68     		ldr	r3, [r7, #4]
 6246 0052 0022     		movs	r2, #0
 6247 0054 83F83C20 		strb	r2, [r3, #60]
2525:Drivers/STM32L4xx_HAL_Driver/Src/stm32l4xx_hal_tim_ex.c **** 
2526:Drivers/STM32L4xx_HAL_Driver/Src/stm32l4xx_hal_tim_ex.c ****   return HAL_OK;
 6248              		.loc 1 2526 10 discriminator 2
 6249 0058 0023     		movs	r3, #0
 6250              	.L394:
2527:Drivers/STM32L4xx_HAL_Driver/Src/stm32l4xx_hal_tim_ex.c **** }
 6251              		.loc 1 2527 1
 6252 005a 1846     		mov	r0, r3
 6253 005c 0C37     		adds	r7, r7, #12
 6254              	.LCFI177:
 6255              		.cfi_def_cfa_offset 4
 6256 005e BD46     		mov	sp, r7
 6257              	.LCFI178:
 6258              		.cfi_def_cfa_register 13
 6259              		@ sp needed
 6260 0060 5DF8047B 		ldr	r7, [sp], #4
 6261              	.LCFI179:
 6262              		.cfi_restore 7
 6263              		.cfi_def_cfa_offset 0
 6264 0064 7047     		bx	lr
 6265              		.cfi_endproc
 6266              	.LFE165:
 6268              		.section	.text.HAL_TIMEx_CommutCallback,"ax",%progbits
 6269              		.align	1
 6270              		.weak	HAL_TIMEx_CommutCallback
 6271              		.syntax unified
 6272              		.thumb
 6273              		.thumb_func
 6275              	HAL_TIMEx_CommutCallback:
 6276              	.LFB166:
2528:Drivers/STM32L4xx_HAL_Driver/Src/stm32l4xx_hal_tim_ex.c **** 
2529:Drivers/STM32L4xx_HAL_Driver/Src/stm32l4xx_hal_tim_ex.c **** /**
2530:Drivers/STM32L4xx_HAL_Driver/Src/stm32l4xx_hal_tim_ex.c ****   * @}
2531:Drivers/STM32L4xx_HAL_Driver/Src/stm32l4xx_hal_tim_ex.c ****   */
2532:Drivers/STM32L4xx_HAL_Driver/Src/stm32l4xx_hal_tim_ex.c **** 
2533:Drivers/STM32L4xx_HAL_Driver/Src/stm32l4xx_hal_tim_ex.c **** /** @defgroup TIMEx_Exported_Functions_Group6 Extended Callbacks functions
2534:Drivers/STM32L4xx_HAL_Driver/Src/stm32l4xx_hal_tim_ex.c ****   * @brief    Extended Callbacks functions
2535:Drivers/STM32L4xx_HAL_Driver/Src/stm32l4xx_hal_tim_ex.c ****   *
2536:Drivers/STM32L4xx_HAL_Driver/Src/stm32l4xx_hal_tim_ex.c **** @verbatim
2537:Drivers/STM32L4xx_HAL_Driver/Src/stm32l4xx_hal_tim_ex.c ****   ==============================================================================
2538:Drivers/STM32L4xx_HAL_Driver/Src/stm32l4xx_hal_tim_ex.c ****                     ##### Extended Callbacks functions #####
2539:Drivers/STM32L4xx_HAL_Driver/Src/stm32l4xx_hal_tim_ex.c ****   ==============================================================================
2540:Drivers/STM32L4xx_HAL_Driver/Src/stm32l4xx_hal_tim_ex.c ****   [..]
2541:Drivers/STM32L4xx_HAL_Driver/Src/stm32l4xx_hal_tim_ex.c ****     This section provides Extended TIM callback functions:
2542:Drivers/STM32L4xx_HAL_Driver/Src/stm32l4xx_hal_tim_ex.c ****     (+) Timer Commutation callback
2543:Drivers/STM32L4xx_HAL_Driver/Src/stm32l4xx_hal_tim_ex.c ****     (+) Timer Break callback
2544:Drivers/STM32L4xx_HAL_Driver/Src/stm32l4xx_hal_tim_ex.c **** 
2545:Drivers/STM32L4xx_HAL_Driver/Src/stm32l4xx_hal_tim_ex.c **** @endverbatim
2546:Drivers/STM32L4xx_HAL_Driver/Src/stm32l4xx_hal_tim_ex.c ****   * @{
2547:Drivers/STM32L4xx_HAL_Driver/Src/stm32l4xx_hal_tim_ex.c ****   */
2548:Drivers/STM32L4xx_HAL_Driver/Src/stm32l4xx_hal_tim_ex.c **** 
2549:Drivers/STM32L4xx_HAL_Driver/Src/stm32l4xx_hal_tim_ex.c **** /**
2550:Drivers/STM32L4xx_HAL_Driver/Src/stm32l4xx_hal_tim_ex.c ****   * @brief  Hall commutation changed callback in non-blocking mode
2551:Drivers/STM32L4xx_HAL_Driver/Src/stm32l4xx_hal_tim_ex.c ****   * @param  htim TIM handle
ARM GAS  /tmp/ccR4xO3u.s 			page 155


2552:Drivers/STM32L4xx_HAL_Driver/Src/stm32l4xx_hal_tim_ex.c ****   * @retval None
2553:Drivers/STM32L4xx_HAL_Driver/Src/stm32l4xx_hal_tim_ex.c ****   */
2554:Drivers/STM32L4xx_HAL_Driver/Src/stm32l4xx_hal_tim_ex.c **** __weak void HAL_TIMEx_CommutCallback(TIM_HandleTypeDef *htim)
2555:Drivers/STM32L4xx_HAL_Driver/Src/stm32l4xx_hal_tim_ex.c **** {
 6277              		.loc 1 2555 1
 6278              		.cfi_startproc
 6279              		@ args = 0, pretend = 0, frame = 8
 6280              		@ frame_needed = 1, uses_anonymous_args = 0
 6281              		@ link register save eliminated.
 6282 0000 80B4     		push	{r7}
 6283              	.LCFI180:
 6284              		.cfi_def_cfa_offset 4
 6285              		.cfi_offset 7, -4
 6286 0002 83B0     		sub	sp, sp, #12
 6287              	.LCFI181:
 6288              		.cfi_def_cfa_offset 16
 6289 0004 00AF     		add	r7, sp, #0
 6290              	.LCFI182:
 6291              		.cfi_def_cfa_register 7
 6292 0006 7860     		str	r0, [r7, #4]
2556:Drivers/STM32L4xx_HAL_Driver/Src/stm32l4xx_hal_tim_ex.c ****   /* Prevent unused argument(s) compilation warning */
2557:Drivers/STM32L4xx_HAL_Driver/Src/stm32l4xx_hal_tim_ex.c ****   UNUSED(htim);
2558:Drivers/STM32L4xx_HAL_Driver/Src/stm32l4xx_hal_tim_ex.c **** 
2559:Drivers/STM32L4xx_HAL_Driver/Src/stm32l4xx_hal_tim_ex.c ****   /* NOTE : This function should not be modified, when the callback is needed,
2560:Drivers/STM32L4xx_HAL_Driver/Src/stm32l4xx_hal_tim_ex.c ****             the HAL_TIMEx_CommutCallback could be implemented in the user file
2561:Drivers/STM32L4xx_HAL_Driver/Src/stm32l4xx_hal_tim_ex.c ****    */
2562:Drivers/STM32L4xx_HAL_Driver/Src/stm32l4xx_hal_tim_ex.c **** }
 6293              		.loc 1 2562 1
 6294 0008 00BF     		nop
 6295 000a 0C37     		adds	r7, r7, #12
 6296              	.LCFI183:
 6297              		.cfi_def_cfa_offset 4
 6298 000c BD46     		mov	sp, r7
 6299              	.LCFI184:
 6300              		.cfi_def_cfa_register 13
 6301              		@ sp needed
 6302 000e 5DF8047B 		ldr	r7, [sp], #4
 6303              	.LCFI185:
 6304              		.cfi_restore 7
 6305              		.cfi_def_cfa_offset 0
 6306 0012 7047     		bx	lr
 6307              		.cfi_endproc
 6308              	.LFE166:
 6310              		.section	.text.HAL_TIMEx_CommutHalfCpltCallback,"ax",%progbits
 6311              		.align	1
 6312              		.weak	HAL_TIMEx_CommutHalfCpltCallback
 6313              		.syntax unified
 6314              		.thumb
 6315              		.thumb_func
 6317              	HAL_TIMEx_CommutHalfCpltCallback:
 6318              	.LFB167:
2563:Drivers/STM32L4xx_HAL_Driver/Src/stm32l4xx_hal_tim_ex.c **** /**
2564:Drivers/STM32L4xx_HAL_Driver/Src/stm32l4xx_hal_tim_ex.c ****   * @brief  Hall commutation changed half complete callback in non-blocking mode
2565:Drivers/STM32L4xx_HAL_Driver/Src/stm32l4xx_hal_tim_ex.c ****   * @param  htim TIM handle
2566:Drivers/STM32L4xx_HAL_Driver/Src/stm32l4xx_hal_tim_ex.c ****   * @retval None
2567:Drivers/STM32L4xx_HAL_Driver/Src/stm32l4xx_hal_tim_ex.c ****   */
2568:Drivers/STM32L4xx_HAL_Driver/Src/stm32l4xx_hal_tim_ex.c **** __weak void HAL_TIMEx_CommutHalfCpltCallback(TIM_HandleTypeDef *htim)
ARM GAS  /tmp/ccR4xO3u.s 			page 156


2569:Drivers/STM32L4xx_HAL_Driver/Src/stm32l4xx_hal_tim_ex.c **** {
 6319              		.loc 1 2569 1
 6320              		.cfi_startproc
 6321              		@ args = 0, pretend = 0, frame = 8
 6322              		@ frame_needed = 1, uses_anonymous_args = 0
 6323              		@ link register save eliminated.
 6324 0000 80B4     		push	{r7}
 6325              	.LCFI186:
 6326              		.cfi_def_cfa_offset 4
 6327              		.cfi_offset 7, -4
 6328 0002 83B0     		sub	sp, sp, #12
 6329              	.LCFI187:
 6330              		.cfi_def_cfa_offset 16
 6331 0004 00AF     		add	r7, sp, #0
 6332              	.LCFI188:
 6333              		.cfi_def_cfa_register 7
 6334 0006 7860     		str	r0, [r7, #4]
2570:Drivers/STM32L4xx_HAL_Driver/Src/stm32l4xx_hal_tim_ex.c ****   /* Prevent unused argument(s) compilation warning */
2571:Drivers/STM32L4xx_HAL_Driver/Src/stm32l4xx_hal_tim_ex.c ****   UNUSED(htim);
2572:Drivers/STM32L4xx_HAL_Driver/Src/stm32l4xx_hal_tim_ex.c **** 
2573:Drivers/STM32L4xx_HAL_Driver/Src/stm32l4xx_hal_tim_ex.c ****   /* NOTE : This function should not be modified, when the callback is needed,
2574:Drivers/STM32L4xx_HAL_Driver/Src/stm32l4xx_hal_tim_ex.c ****             the HAL_TIMEx_CommutHalfCpltCallback could be implemented in the user file
2575:Drivers/STM32L4xx_HAL_Driver/Src/stm32l4xx_hal_tim_ex.c ****    */
2576:Drivers/STM32L4xx_HAL_Driver/Src/stm32l4xx_hal_tim_ex.c **** }
 6335              		.loc 1 2576 1
 6336 0008 00BF     		nop
 6337 000a 0C37     		adds	r7, r7, #12
 6338              	.LCFI189:
 6339              		.cfi_def_cfa_offset 4
 6340 000c BD46     		mov	sp, r7
 6341              	.LCFI190:
 6342              		.cfi_def_cfa_register 13
 6343              		@ sp needed
 6344 000e 5DF8047B 		ldr	r7, [sp], #4
 6345              	.LCFI191:
 6346              		.cfi_restore 7
 6347              		.cfi_def_cfa_offset 0
 6348 0012 7047     		bx	lr
 6349              		.cfi_endproc
 6350              	.LFE167:
 6352              		.section	.text.HAL_TIMEx_BreakCallback,"ax",%progbits
 6353              		.align	1
 6354              		.weak	HAL_TIMEx_BreakCallback
 6355              		.syntax unified
 6356              		.thumb
 6357              		.thumb_func
 6359              	HAL_TIMEx_BreakCallback:
 6360              	.LFB168:
2577:Drivers/STM32L4xx_HAL_Driver/Src/stm32l4xx_hal_tim_ex.c **** 
2578:Drivers/STM32L4xx_HAL_Driver/Src/stm32l4xx_hal_tim_ex.c **** /**
2579:Drivers/STM32L4xx_HAL_Driver/Src/stm32l4xx_hal_tim_ex.c ****   * @brief  Hall Break detection callback in non-blocking mode
2580:Drivers/STM32L4xx_HAL_Driver/Src/stm32l4xx_hal_tim_ex.c ****   * @param  htim TIM handle
2581:Drivers/STM32L4xx_HAL_Driver/Src/stm32l4xx_hal_tim_ex.c ****   * @retval None
2582:Drivers/STM32L4xx_HAL_Driver/Src/stm32l4xx_hal_tim_ex.c ****   */
2583:Drivers/STM32L4xx_HAL_Driver/Src/stm32l4xx_hal_tim_ex.c **** __weak void HAL_TIMEx_BreakCallback(TIM_HandleTypeDef *htim)
2584:Drivers/STM32L4xx_HAL_Driver/Src/stm32l4xx_hal_tim_ex.c **** {
 6361              		.loc 1 2584 1
ARM GAS  /tmp/ccR4xO3u.s 			page 157


 6362              		.cfi_startproc
 6363              		@ args = 0, pretend = 0, frame = 8
 6364              		@ frame_needed = 1, uses_anonymous_args = 0
 6365              		@ link register save eliminated.
 6366 0000 80B4     		push	{r7}
 6367              	.LCFI192:
 6368              		.cfi_def_cfa_offset 4
 6369              		.cfi_offset 7, -4
 6370 0002 83B0     		sub	sp, sp, #12
 6371              	.LCFI193:
 6372              		.cfi_def_cfa_offset 16
 6373 0004 00AF     		add	r7, sp, #0
 6374              	.LCFI194:
 6375              		.cfi_def_cfa_register 7
 6376 0006 7860     		str	r0, [r7, #4]
2585:Drivers/STM32L4xx_HAL_Driver/Src/stm32l4xx_hal_tim_ex.c ****   /* Prevent unused argument(s) compilation warning */
2586:Drivers/STM32L4xx_HAL_Driver/Src/stm32l4xx_hal_tim_ex.c ****   UNUSED(htim);
2587:Drivers/STM32L4xx_HAL_Driver/Src/stm32l4xx_hal_tim_ex.c **** 
2588:Drivers/STM32L4xx_HAL_Driver/Src/stm32l4xx_hal_tim_ex.c ****   /* NOTE : This function should not be modified, when the callback is needed,
2589:Drivers/STM32L4xx_HAL_Driver/Src/stm32l4xx_hal_tim_ex.c ****             the HAL_TIMEx_BreakCallback could be implemented in the user file
2590:Drivers/STM32L4xx_HAL_Driver/Src/stm32l4xx_hal_tim_ex.c ****    */
2591:Drivers/STM32L4xx_HAL_Driver/Src/stm32l4xx_hal_tim_ex.c **** }
 6377              		.loc 1 2591 1
 6378 0008 00BF     		nop
 6379 000a 0C37     		adds	r7, r7, #12
 6380              	.LCFI195:
 6381              		.cfi_def_cfa_offset 4
 6382 000c BD46     		mov	sp, r7
 6383              	.LCFI196:
 6384              		.cfi_def_cfa_register 13
 6385              		@ sp needed
 6386 000e 5DF8047B 		ldr	r7, [sp], #4
 6387              	.LCFI197:
 6388              		.cfi_restore 7
 6389              		.cfi_def_cfa_offset 0
 6390 0012 7047     		bx	lr
 6391              		.cfi_endproc
 6392              	.LFE168:
 6394              		.section	.text.HAL_TIMEx_Break2Callback,"ax",%progbits
 6395              		.align	1
 6396              		.weak	HAL_TIMEx_Break2Callback
 6397              		.syntax unified
 6398              		.thumb
 6399              		.thumb_func
 6401              	HAL_TIMEx_Break2Callback:
 6402              	.LFB169:
2592:Drivers/STM32L4xx_HAL_Driver/Src/stm32l4xx_hal_tim_ex.c **** 
2593:Drivers/STM32L4xx_HAL_Driver/Src/stm32l4xx_hal_tim_ex.c **** /**
2594:Drivers/STM32L4xx_HAL_Driver/Src/stm32l4xx_hal_tim_ex.c ****   * @brief  Hall Break2 detection callback in non blocking mode
2595:Drivers/STM32L4xx_HAL_Driver/Src/stm32l4xx_hal_tim_ex.c ****   * @param  htim: TIM handle
2596:Drivers/STM32L4xx_HAL_Driver/Src/stm32l4xx_hal_tim_ex.c ****   * @retval None
2597:Drivers/STM32L4xx_HAL_Driver/Src/stm32l4xx_hal_tim_ex.c ****   */
2598:Drivers/STM32L4xx_HAL_Driver/Src/stm32l4xx_hal_tim_ex.c **** __weak void HAL_TIMEx_Break2Callback(TIM_HandleTypeDef *htim)
2599:Drivers/STM32L4xx_HAL_Driver/Src/stm32l4xx_hal_tim_ex.c **** {
 6403              		.loc 1 2599 1
 6404              		.cfi_startproc
 6405              		@ args = 0, pretend = 0, frame = 8
ARM GAS  /tmp/ccR4xO3u.s 			page 158


 6406              		@ frame_needed = 1, uses_anonymous_args = 0
 6407              		@ link register save eliminated.
 6408 0000 80B4     		push	{r7}
 6409              	.LCFI198:
 6410              		.cfi_def_cfa_offset 4
 6411              		.cfi_offset 7, -4
 6412 0002 83B0     		sub	sp, sp, #12
 6413              	.LCFI199:
 6414              		.cfi_def_cfa_offset 16
 6415 0004 00AF     		add	r7, sp, #0
 6416              	.LCFI200:
 6417              		.cfi_def_cfa_register 7
 6418 0006 7860     		str	r0, [r7, #4]
2600:Drivers/STM32L4xx_HAL_Driver/Src/stm32l4xx_hal_tim_ex.c ****   /* Prevent unused argument(s) compilation warning */
2601:Drivers/STM32L4xx_HAL_Driver/Src/stm32l4xx_hal_tim_ex.c ****   UNUSED(htim);
2602:Drivers/STM32L4xx_HAL_Driver/Src/stm32l4xx_hal_tim_ex.c **** 
2603:Drivers/STM32L4xx_HAL_Driver/Src/stm32l4xx_hal_tim_ex.c ****   /* NOTE : This function Should not be modified, when the callback is needed,
2604:Drivers/STM32L4xx_HAL_Driver/Src/stm32l4xx_hal_tim_ex.c ****             the HAL_TIMEx_Break2Callback could be implemented in the user file
2605:Drivers/STM32L4xx_HAL_Driver/Src/stm32l4xx_hal_tim_ex.c ****    */
2606:Drivers/STM32L4xx_HAL_Driver/Src/stm32l4xx_hal_tim_ex.c **** }
 6419              		.loc 1 2606 1
 6420 0008 00BF     		nop
 6421 000a 0C37     		adds	r7, r7, #12
 6422              	.LCFI201:
 6423              		.cfi_def_cfa_offset 4
 6424 000c BD46     		mov	sp, r7
 6425              	.LCFI202:
 6426              		.cfi_def_cfa_register 13
 6427              		@ sp needed
 6428 000e 5DF8047B 		ldr	r7, [sp], #4
 6429              	.LCFI203:
 6430              		.cfi_restore 7
 6431              		.cfi_def_cfa_offset 0
 6432 0012 7047     		bx	lr
 6433              		.cfi_endproc
 6434              	.LFE169:
 6436              		.section	.text.HAL_TIMEx_HallSensor_GetState,"ax",%progbits
 6437              		.align	1
 6438              		.global	HAL_TIMEx_HallSensor_GetState
 6439              		.syntax unified
 6440              		.thumb
 6441              		.thumb_func
 6443              	HAL_TIMEx_HallSensor_GetState:
 6444              	.LFB170:
2607:Drivers/STM32L4xx_HAL_Driver/Src/stm32l4xx_hal_tim_ex.c **** /**
2608:Drivers/STM32L4xx_HAL_Driver/Src/stm32l4xx_hal_tim_ex.c ****   * @}
2609:Drivers/STM32L4xx_HAL_Driver/Src/stm32l4xx_hal_tim_ex.c ****   */
2610:Drivers/STM32L4xx_HAL_Driver/Src/stm32l4xx_hal_tim_ex.c **** 
2611:Drivers/STM32L4xx_HAL_Driver/Src/stm32l4xx_hal_tim_ex.c **** /** @defgroup TIMEx_Exported_Functions_Group7 Extended Peripheral State functions
2612:Drivers/STM32L4xx_HAL_Driver/Src/stm32l4xx_hal_tim_ex.c ****   * @brief    Extended Peripheral State functions
2613:Drivers/STM32L4xx_HAL_Driver/Src/stm32l4xx_hal_tim_ex.c ****   *
2614:Drivers/STM32L4xx_HAL_Driver/Src/stm32l4xx_hal_tim_ex.c **** @verbatim
2615:Drivers/STM32L4xx_HAL_Driver/Src/stm32l4xx_hal_tim_ex.c ****   ==============================================================================
2616:Drivers/STM32L4xx_HAL_Driver/Src/stm32l4xx_hal_tim_ex.c ****                 ##### Extended Peripheral State functions #####
2617:Drivers/STM32L4xx_HAL_Driver/Src/stm32l4xx_hal_tim_ex.c ****   ==============================================================================
2618:Drivers/STM32L4xx_HAL_Driver/Src/stm32l4xx_hal_tim_ex.c ****   [..]
2619:Drivers/STM32L4xx_HAL_Driver/Src/stm32l4xx_hal_tim_ex.c ****     This subsection permits to get in run-time the status of the peripheral
ARM GAS  /tmp/ccR4xO3u.s 			page 159


2620:Drivers/STM32L4xx_HAL_Driver/Src/stm32l4xx_hal_tim_ex.c ****     and the data flow.
2621:Drivers/STM32L4xx_HAL_Driver/Src/stm32l4xx_hal_tim_ex.c **** 
2622:Drivers/STM32L4xx_HAL_Driver/Src/stm32l4xx_hal_tim_ex.c **** @endverbatim
2623:Drivers/STM32L4xx_HAL_Driver/Src/stm32l4xx_hal_tim_ex.c ****   * @{
2624:Drivers/STM32L4xx_HAL_Driver/Src/stm32l4xx_hal_tim_ex.c ****   */
2625:Drivers/STM32L4xx_HAL_Driver/Src/stm32l4xx_hal_tim_ex.c **** 
2626:Drivers/STM32L4xx_HAL_Driver/Src/stm32l4xx_hal_tim_ex.c **** /**
2627:Drivers/STM32L4xx_HAL_Driver/Src/stm32l4xx_hal_tim_ex.c ****   * @brief  Return the TIM Hall Sensor interface handle state.
2628:Drivers/STM32L4xx_HAL_Driver/Src/stm32l4xx_hal_tim_ex.c ****   * @param  htim TIM Hall Sensor handle
2629:Drivers/STM32L4xx_HAL_Driver/Src/stm32l4xx_hal_tim_ex.c ****   * @retval HAL state
2630:Drivers/STM32L4xx_HAL_Driver/Src/stm32l4xx_hal_tim_ex.c ****   */
2631:Drivers/STM32L4xx_HAL_Driver/Src/stm32l4xx_hal_tim_ex.c **** HAL_TIM_StateTypeDef HAL_TIMEx_HallSensor_GetState(const TIM_HandleTypeDef *htim)
2632:Drivers/STM32L4xx_HAL_Driver/Src/stm32l4xx_hal_tim_ex.c **** {
 6445              		.loc 1 2632 1
 6446              		.cfi_startproc
 6447              		@ args = 0, pretend = 0, frame = 8
 6448              		@ frame_needed = 1, uses_anonymous_args = 0
 6449              		@ link register save eliminated.
 6450 0000 80B4     		push	{r7}
 6451              	.LCFI204:
 6452              		.cfi_def_cfa_offset 4
 6453              		.cfi_offset 7, -4
 6454 0002 83B0     		sub	sp, sp, #12
 6455              	.LCFI205:
 6456              		.cfi_def_cfa_offset 16
 6457 0004 00AF     		add	r7, sp, #0
 6458              	.LCFI206:
 6459              		.cfi_def_cfa_register 7
 6460 0006 7860     		str	r0, [r7, #4]
2633:Drivers/STM32L4xx_HAL_Driver/Src/stm32l4xx_hal_tim_ex.c ****   return htim->State;
 6461              		.loc 1 2633 14
 6462 0008 7B68     		ldr	r3, [r7, #4]
 6463 000a 93F83D30 		ldrb	r3, [r3, #61]
 6464 000e DBB2     		uxtb	r3, r3
2634:Drivers/STM32L4xx_HAL_Driver/Src/stm32l4xx_hal_tim_ex.c **** }
 6465              		.loc 1 2634 1
 6466 0010 1846     		mov	r0, r3
 6467 0012 0C37     		adds	r7, r7, #12
 6468              	.LCFI207:
 6469              		.cfi_def_cfa_offset 4
 6470 0014 BD46     		mov	sp, r7
 6471              	.LCFI208:
 6472              		.cfi_def_cfa_register 13
 6473              		@ sp needed
 6474 0016 5DF8047B 		ldr	r7, [sp], #4
 6475              	.LCFI209:
 6476              		.cfi_restore 7
 6477              		.cfi_def_cfa_offset 0
 6478 001a 7047     		bx	lr
 6479              		.cfi_endproc
 6480              	.LFE170:
 6482              		.section	.text.HAL_TIMEx_GetChannelNState,"ax",%progbits
 6483              		.align	1
 6484              		.global	HAL_TIMEx_GetChannelNState
 6485              		.syntax unified
 6486              		.thumb
 6487              		.thumb_func
ARM GAS  /tmp/ccR4xO3u.s 			page 160


 6489              	HAL_TIMEx_GetChannelNState:
 6490              	.LFB171:
2635:Drivers/STM32L4xx_HAL_Driver/Src/stm32l4xx_hal_tim_ex.c **** 
2636:Drivers/STM32L4xx_HAL_Driver/Src/stm32l4xx_hal_tim_ex.c **** /**
2637:Drivers/STM32L4xx_HAL_Driver/Src/stm32l4xx_hal_tim_ex.c ****   * @brief  Return actual state of the TIM complementary channel.
2638:Drivers/STM32L4xx_HAL_Driver/Src/stm32l4xx_hal_tim_ex.c ****   * @param  htim TIM handle
2639:Drivers/STM32L4xx_HAL_Driver/Src/stm32l4xx_hal_tim_ex.c ****   * @param  ChannelN TIM Complementary channel
2640:Drivers/STM32L4xx_HAL_Driver/Src/stm32l4xx_hal_tim_ex.c ****   *          This parameter can be one of the following values:
2641:Drivers/STM32L4xx_HAL_Driver/Src/stm32l4xx_hal_tim_ex.c ****   *            @arg TIM_CHANNEL_1: TIM Channel 1
2642:Drivers/STM32L4xx_HAL_Driver/Src/stm32l4xx_hal_tim_ex.c ****   *            @arg TIM_CHANNEL_2: TIM Channel 2
2643:Drivers/STM32L4xx_HAL_Driver/Src/stm32l4xx_hal_tim_ex.c ****   *            @arg TIM_CHANNEL_3: TIM Channel 3
2644:Drivers/STM32L4xx_HAL_Driver/Src/stm32l4xx_hal_tim_ex.c ****   * @retval TIM Complementary channel state
2645:Drivers/STM32L4xx_HAL_Driver/Src/stm32l4xx_hal_tim_ex.c ****   */
2646:Drivers/STM32L4xx_HAL_Driver/Src/stm32l4xx_hal_tim_ex.c **** HAL_TIM_ChannelStateTypeDef HAL_TIMEx_GetChannelNState(const TIM_HandleTypeDef *htim,  uint32_t Cha
2647:Drivers/STM32L4xx_HAL_Driver/Src/stm32l4xx_hal_tim_ex.c **** {
 6491              		.loc 1 2647 1
 6492              		.cfi_startproc
 6493              		@ args = 0, pretend = 0, frame = 16
 6494              		@ frame_needed = 1, uses_anonymous_args = 0
 6495              		@ link register save eliminated.
 6496 0000 80B4     		push	{r7}
 6497              	.LCFI210:
 6498              		.cfi_def_cfa_offset 4
 6499              		.cfi_offset 7, -4
 6500 0002 85B0     		sub	sp, sp, #20
 6501              	.LCFI211:
 6502              		.cfi_def_cfa_offset 24
 6503 0004 00AF     		add	r7, sp, #0
 6504              	.LCFI212:
 6505              		.cfi_def_cfa_register 7
 6506 0006 7860     		str	r0, [r7, #4]
 6507 0008 3960     		str	r1, [r7]
2648:Drivers/STM32L4xx_HAL_Driver/Src/stm32l4xx_hal_tim_ex.c ****   HAL_TIM_ChannelStateTypeDef channel_state;
2649:Drivers/STM32L4xx_HAL_Driver/Src/stm32l4xx_hal_tim_ex.c **** 
2650:Drivers/STM32L4xx_HAL_Driver/Src/stm32l4xx_hal_tim_ex.c ****   /* Check the parameters */
2651:Drivers/STM32L4xx_HAL_Driver/Src/stm32l4xx_hal_tim_ex.c ****   assert_param(IS_TIM_CCXN_INSTANCE(htim->Instance, ChannelN));
2652:Drivers/STM32L4xx_HAL_Driver/Src/stm32l4xx_hal_tim_ex.c **** 
2653:Drivers/STM32L4xx_HAL_Driver/Src/stm32l4xx_hal_tim_ex.c ****   channel_state = TIM_CHANNEL_N_STATE_GET(htim, ChannelN);
 6508              		.loc 1 2653 19
 6509 000a 3B68     		ldr	r3, [r7]
 6510 000c 002B     		cmp	r3, #0
 6511 000e 04D1     		bne	.L402
 6512              		.loc 1 2653 19 is_stmt 0 discriminator 1
 6513 0010 7B68     		ldr	r3, [r7, #4]
 6514 0012 93F84430 		ldrb	r3, [r3, #68]
 6515 0016 DBB2     		uxtb	r3, r3
 6516 0018 13E0     		b	.L403
 6517              	.L402:
 6518              		.loc 1 2653 19 discriminator 2
 6519 001a 3B68     		ldr	r3, [r7]
 6520 001c 042B     		cmp	r3, #4
 6521 001e 04D1     		bne	.L404
 6522              		.loc 1 2653 19 discriminator 4
 6523 0020 7B68     		ldr	r3, [r7, #4]
 6524 0022 93F84530 		ldrb	r3, [r3, #69]
 6525 0026 DBB2     		uxtb	r3, r3
 6526 0028 0BE0     		b	.L403
ARM GAS  /tmp/ccR4xO3u.s 			page 161


 6527              	.L404:
 6528              		.loc 1 2653 19 discriminator 5
 6529 002a 3B68     		ldr	r3, [r7]
 6530 002c 082B     		cmp	r3, #8
 6531 002e 04D1     		bne	.L406
 6532              		.loc 1 2653 19 discriminator 7
 6533 0030 7B68     		ldr	r3, [r7, #4]
 6534 0032 93F84630 		ldrb	r3, [r3, #70]
 6535 0036 DBB2     		uxtb	r3, r3
 6536 0038 03E0     		b	.L403
 6537              	.L406:
 6538              		.loc 1 2653 19 discriminator 8
 6539 003a 7B68     		ldr	r3, [r7, #4]
 6540 003c 93F84730 		ldrb	r3, [r3, #71]
 6541 0040 DBB2     		uxtb	r3, r3
 6542              	.L403:
 6543              		.loc 1 2653 17 is_stmt 1 discriminator 12
 6544 0042 FB73     		strb	r3, [r7, #15]
2654:Drivers/STM32L4xx_HAL_Driver/Src/stm32l4xx_hal_tim_ex.c **** 
2655:Drivers/STM32L4xx_HAL_Driver/Src/stm32l4xx_hal_tim_ex.c ****   return channel_state;
 6545              		.loc 1 2655 10 discriminator 12
 6546 0044 FB7B     		ldrb	r3, [r7, #15]	@ zero_extendqisi2
2656:Drivers/STM32L4xx_HAL_Driver/Src/stm32l4xx_hal_tim_ex.c **** }
 6547              		.loc 1 2656 1 discriminator 12
 6548 0046 1846     		mov	r0, r3
 6549 0048 1437     		adds	r7, r7, #20
 6550              	.LCFI213:
 6551              		.cfi_def_cfa_offset 4
 6552 004a BD46     		mov	sp, r7
 6553              	.LCFI214:
 6554              		.cfi_def_cfa_register 13
 6555              		@ sp needed
 6556 004c 5DF8047B 		ldr	r7, [sp], #4
 6557              	.LCFI215:
 6558              		.cfi_restore 7
 6559              		.cfi_def_cfa_offset 0
 6560 0050 7047     		bx	lr
 6561              		.cfi_endproc
 6562              	.LFE171:
 6564              		.section	.text.TIMEx_DMACommutationCplt,"ax",%progbits
 6565              		.align	1
 6566              		.global	TIMEx_DMACommutationCplt
 6567              		.syntax unified
 6568              		.thumb
 6569              		.thumb_func
 6571              	TIMEx_DMACommutationCplt:
 6572              	.LFB172:
2657:Drivers/STM32L4xx_HAL_Driver/Src/stm32l4xx_hal_tim_ex.c **** /**
2658:Drivers/STM32L4xx_HAL_Driver/Src/stm32l4xx_hal_tim_ex.c ****   * @}
2659:Drivers/STM32L4xx_HAL_Driver/Src/stm32l4xx_hal_tim_ex.c ****   */
2660:Drivers/STM32L4xx_HAL_Driver/Src/stm32l4xx_hal_tim_ex.c **** 
2661:Drivers/STM32L4xx_HAL_Driver/Src/stm32l4xx_hal_tim_ex.c **** /**
2662:Drivers/STM32L4xx_HAL_Driver/Src/stm32l4xx_hal_tim_ex.c ****   * @}
2663:Drivers/STM32L4xx_HAL_Driver/Src/stm32l4xx_hal_tim_ex.c ****   */
2664:Drivers/STM32L4xx_HAL_Driver/Src/stm32l4xx_hal_tim_ex.c **** 
2665:Drivers/STM32L4xx_HAL_Driver/Src/stm32l4xx_hal_tim_ex.c **** /* Private functions ---------------------------------------------------------*/
2666:Drivers/STM32L4xx_HAL_Driver/Src/stm32l4xx_hal_tim_ex.c **** /** @defgroup TIMEx_Private_Functions TIM Extended Private Functions
ARM GAS  /tmp/ccR4xO3u.s 			page 162


2667:Drivers/STM32L4xx_HAL_Driver/Src/stm32l4xx_hal_tim_ex.c ****   * @{
2668:Drivers/STM32L4xx_HAL_Driver/Src/stm32l4xx_hal_tim_ex.c ****   */
2669:Drivers/STM32L4xx_HAL_Driver/Src/stm32l4xx_hal_tim_ex.c **** 
2670:Drivers/STM32L4xx_HAL_Driver/Src/stm32l4xx_hal_tim_ex.c **** /**
2671:Drivers/STM32L4xx_HAL_Driver/Src/stm32l4xx_hal_tim_ex.c ****   * @brief  TIM DMA Commutation callback.
2672:Drivers/STM32L4xx_HAL_Driver/Src/stm32l4xx_hal_tim_ex.c ****   * @param  hdma pointer to DMA handle.
2673:Drivers/STM32L4xx_HAL_Driver/Src/stm32l4xx_hal_tim_ex.c ****   * @retval None
2674:Drivers/STM32L4xx_HAL_Driver/Src/stm32l4xx_hal_tim_ex.c ****   */
2675:Drivers/STM32L4xx_HAL_Driver/Src/stm32l4xx_hal_tim_ex.c **** void TIMEx_DMACommutationCplt(DMA_HandleTypeDef *hdma)
2676:Drivers/STM32L4xx_HAL_Driver/Src/stm32l4xx_hal_tim_ex.c **** {
 6573              		.loc 1 2676 1
 6574              		.cfi_startproc
 6575              		@ args = 0, pretend = 0, frame = 16
 6576              		@ frame_needed = 1, uses_anonymous_args = 0
 6577 0000 80B5     		push	{r7, lr}
 6578              	.LCFI216:
 6579              		.cfi_def_cfa_offset 8
 6580              		.cfi_offset 7, -8
 6581              		.cfi_offset 14, -4
 6582 0002 84B0     		sub	sp, sp, #16
 6583              	.LCFI217:
 6584              		.cfi_def_cfa_offset 24
 6585 0004 00AF     		add	r7, sp, #0
 6586              	.LCFI218:
 6587              		.cfi_def_cfa_register 7
 6588 0006 7860     		str	r0, [r7, #4]
2677:Drivers/STM32L4xx_HAL_Driver/Src/stm32l4xx_hal_tim_ex.c ****   TIM_HandleTypeDef *htim = (TIM_HandleTypeDef *)((DMA_HandleTypeDef *)hdma)->Parent;
 6589              		.loc 1 2677 22
 6590 0008 7B68     		ldr	r3, [r7, #4]
 6591 000a 9B6A     		ldr	r3, [r3, #40]
 6592 000c FB60     		str	r3, [r7, #12]
2678:Drivers/STM32L4xx_HAL_Driver/Src/stm32l4xx_hal_tim_ex.c **** 
2679:Drivers/STM32L4xx_HAL_Driver/Src/stm32l4xx_hal_tim_ex.c ****   /* Change the htim state */
2680:Drivers/STM32L4xx_HAL_Driver/Src/stm32l4xx_hal_tim_ex.c ****   htim->State = HAL_TIM_STATE_READY;
 6593              		.loc 1 2680 15
 6594 000e FB68     		ldr	r3, [r7, #12]
 6595 0010 0122     		movs	r2, #1
 6596 0012 83F83D20 		strb	r2, [r3, #61]
2681:Drivers/STM32L4xx_HAL_Driver/Src/stm32l4xx_hal_tim_ex.c **** 
2682:Drivers/STM32L4xx_HAL_Driver/Src/stm32l4xx_hal_tim_ex.c **** #if (USE_HAL_TIM_REGISTER_CALLBACKS == 1)
2683:Drivers/STM32L4xx_HAL_Driver/Src/stm32l4xx_hal_tim_ex.c ****   htim->CommutationCallback(htim);
2684:Drivers/STM32L4xx_HAL_Driver/Src/stm32l4xx_hal_tim_ex.c **** #else
2685:Drivers/STM32L4xx_HAL_Driver/Src/stm32l4xx_hal_tim_ex.c ****   HAL_TIMEx_CommutCallback(htim);
 6597              		.loc 1 2685 3
 6598 0016 F868     		ldr	r0, [r7, #12]
 6599 0018 FFF7FEFF 		bl	HAL_TIMEx_CommutCallback
2686:Drivers/STM32L4xx_HAL_Driver/Src/stm32l4xx_hal_tim_ex.c **** #endif /* USE_HAL_TIM_REGISTER_CALLBACKS */
2687:Drivers/STM32L4xx_HAL_Driver/Src/stm32l4xx_hal_tim_ex.c **** }
 6600              		.loc 1 2687 1
 6601 001c 00BF     		nop
 6602 001e 1037     		adds	r7, r7, #16
 6603              	.LCFI219:
 6604              		.cfi_def_cfa_offset 8
 6605 0020 BD46     		mov	sp, r7
 6606              	.LCFI220:
 6607              		.cfi_def_cfa_register 13
 6608              		@ sp needed
ARM GAS  /tmp/ccR4xO3u.s 			page 163


 6609 0022 80BD     		pop	{r7, pc}
 6610              		.cfi_endproc
 6611              	.LFE172:
 6613              		.section	.text.TIMEx_DMACommutationHalfCplt,"ax",%progbits
 6614              		.align	1
 6615              		.global	TIMEx_DMACommutationHalfCplt
 6616              		.syntax unified
 6617              		.thumb
 6618              		.thumb_func
 6620              	TIMEx_DMACommutationHalfCplt:
 6621              	.LFB173:
2688:Drivers/STM32L4xx_HAL_Driver/Src/stm32l4xx_hal_tim_ex.c **** 
2689:Drivers/STM32L4xx_HAL_Driver/Src/stm32l4xx_hal_tim_ex.c **** /**
2690:Drivers/STM32L4xx_HAL_Driver/Src/stm32l4xx_hal_tim_ex.c ****   * @brief  TIM DMA Commutation half complete callback.
2691:Drivers/STM32L4xx_HAL_Driver/Src/stm32l4xx_hal_tim_ex.c ****   * @param  hdma pointer to DMA handle.
2692:Drivers/STM32L4xx_HAL_Driver/Src/stm32l4xx_hal_tim_ex.c ****   * @retval None
2693:Drivers/STM32L4xx_HAL_Driver/Src/stm32l4xx_hal_tim_ex.c ****   */
2694:Drivers/STM32L4xx_HAL_Driver/Src/stm32l4xx_hal_tim_ex.c **** void TIMEx_DMACommutationHalfCplt(DMA_HandleTypeDef *hdma)
2695:Drivers/STM32L4xx_HAL_Driver/Src/stm32l4xx_hal_tim_ex.c **** {
 6622              		.loc 1 2695 1
 6623              		.cfi_startproc
 6624              		@ args = 0, pretend = 0, frame = 16
 6625              		@ frame_needed = 1, uses_anonymous_args = 0
 6626 0000 80B5     		push	{r7, lr}
 6627              	.LCFI221:
 6628              		.cfi_def_cfa_offset 8
 6629              		.cfi_offset 7, -8
 6630              		.cfi_offset 14, -4
 6631 0002 84B0     		sub	sp, sp, #16
 6632              	.LCFI222:
 6633              		.cfi_def_cfa_offset 24
 6634 0004 00AF     		add	r7, sp, #0
 6635              	.LCFI223:
 6636              		.cfi_def_cfa_register 7
 6637 0006 7860     		str	r0, [r7, #4]
2696:Drivers/STM32L4xx_HAL_Driver/Src/stm32l4xx_hal_tim_ex.c ****   TIM_HandleTypeDef *htim = (TIM_HandleTypeDef *)((DMA_HandleTypeDef *)hdma)->Parent;
 6638              		.loc 1 2696 22
 6639 0008 7B68     		ldr	r3, [r7, #4]
 6640 000a 9B6A     		ldr	r3, [r3, #40]
 6641 000c FB60     		str	r3, [r7, #12]
2697:Drivers/STM32L4xx_HAL_Driver/Src/stm32l4xx_hal_tim_ex.c **** 
2698:Drivers/STM32L4xx_HAL_Driver/Src/stm32l4xx_hal_tim_ex.c ****   /* Change the htim state */
2699:Drivers/STM32L4xx_HAL_Driver/Src/stm32l4xx_hal_tim_ex.c ****   htim->State = HAL_TIM_STATE_READY;
 6642              		.loc 1 2699 15
 6643 000e FB68     		ldr	r3, [r7, #12]
 6644 0010 0122     		movs	r2, #1
 6645 0012 83F83D20 		strb	r2, [r3, #61]
2700:Drivers/STM32L4xx_HAL_Driver/Src/stm32l4xx_hal_tim_ex.c **** 
2701:Drivers/STM32L4xx_HAL_Driver/Src/stm32l4xx_hal_tim_ex.c **** #if (USE_HAL_TIM_REGISTER_CALLBACKS == 1)
2702:Drivers/STM32L4xx_HAL_Driver/Src/stm32l4xx_hal_tim_ex.c ****   htim->CommutationHalfCpltCallback(htim);
2703:Drivers/STM32L4xx_HAL_Driver/Src/stm32l4xx_hal_tim_ex.c **** #else
2704:Drivers/STM32L4xx_HAL_Driver/Src/stm32l4xx_hal_tim_ex.c ****   HAL_TIMEx_CommutHalfCpltCallback(htim);
 6646              		.loc 1 2704 3
 6647 0016 F868     		ldr	r0, [r7, #12]
 6648 0018 FFF7FEFF 		bl	HAL_TIMEx_CommutHalfCpltCallback
2705:Drivers/STM32L4xx_HAL_Driver/Src/stm32l4xx_hal_tim_ex.c **** #endif /* USE_HAL_TIM_REGISTER_CALLBACKS */
2706:Drivers/STM32L4xx_HAL_Driver/Src/stm32l4xx_hal_tim_ex.c **** }
ARM GAS  /tmp/ccR4xO3u.s 			page 164


 6649              		.loc 1 2706 1
 6650 001c 00BF     		nop
 6651 001e 1037     		adds	r7, r7, #16
 6652              	.LCFI224:
 6653              		.cfi_def_cfa_offset 8
 6654 0020 BD46     		mov	sp, r7
 6655              	.LCFI225:
 6656              		.cfi_def_cfa_register 13
 6657              		@ sp needed
 6658 0022 80BD     		pop	{r7, pc}
 6659              		.cfi_endproc
 6660              	.LFE173:
 6662              		.section	.text.TIM_DMADelayPulseNCplt,"ax",%progbits
 6663              		.align	1
 6664              		.syntax unified
 6665              		.thumb
 6666              		.thumb_func
 6668              	TIM_DMADelayPulseNCplt:
 6669              	.LFB174:
2707:Drivers/STM32L4xx_HAL_Driver/Src/stm32l4xx_hal_tim_ex.c **** 
2708:Drivers/STM32L4xx_HAL_Driver/Src/stm32l4xx_hal_tim_ex.c **** 
2709:Drivers/STM32L4xx_HAL_Driver/Src/stm32l4xx_hal_tim_ex.c **** /**
2710:Drivers/STM32L4xx_HAL_Driver/Src/stm32l4xx_hal_tim_ex.c ****   * @brief  TIM DMA Delay Pulse complete callback (complementary channel).
2711:Drivers/STM32L4xx_HAL_Driver/Src/stm32l4xx_hal_tim_ex.c ****   * @param  hdma pointer to DMA handle.
2712:Drivers/STM32L4xx_HAL_Driver/Src/stm32l4xx_hal_tim_ex.c ****   * @retval None
2713:Drivers/STM32L4xx_HAL_Driver/Src/stm32l4xx_hal_tim_ex.c ****   */
2714:Drivers/STM32L4xx_HAL_Driver/Src/stm32l4xx_hal_tim_ex.c **** static void TIM_DMADelayPulseNCplt(DMA_HandleTypeDef *hdma)
2715:Drivers/STM32L4xx_HAL_Driver/Src/stm32l4xx_hal_tim_ex.c **** {
 6670              		.loc 1 2715 1
 6671              		.cfi_startproc
 6672              		@ args = 0, pretend = 0, frame = 16
 6673              		@ frame_needed = 1, uses_anonymous_args = 0
 6674 0000 80B5     		push	{r7, lr}
 6675              	.LCFI226:
 6676              		.cfi_def_cfa_offset 8
 6677              		.cfi_offset 7, -8
 6678              		.cfi_offset 14, -4
 6679 0002 84B0     		sub	sp, sp, #16
 6680              	.LCFI227:
 6681              		.cfi_def_cfa_offset 24
 6682 0004 00AF     		add	r7, sp, #0
 6683              	.LCFI228:
 6684              		.cfi_def_cfa_register 7
 6685 0006 7860     		str	r0, [r7, #4]
2716:Drivers/STM32L4xx_HAL_Driver/Src/stm32l4xx_hal_tim_ex.c ****   TIM_HandleTypeDef *htim = (TIM_HandleTypeDef *)((DMA_HandleTypeDef *)hdma)->Parent;
 6686              		.loc 1 2716 22
 6687 0008 7B68     		ldr	r3, [r7, #4]
 6688 000a 9B6A     		ldr	r3, [r3, #40]
 6689 000c FB60     		str	r3, [r7, #12]
2717:Drivers/STM32L4xx_HAL_Driver/Src/stm32l4xx_hal_tim_ex.c **** 
2718:Drivers/STM32L4xx_HAL_Driver/Src/stm32l4xx_hal_tim_ex.c ****   if (hdma == htim->hdma[TIM_DMA_ID_CC1])
 6690              		.loc 1 2718 25
 6691 000e FB68     		ldr	r3, [r7, #12]
 6692 0010 5B6A     		ldr	r3, [r3, #36]
 6693              		.loc 1 2718 6
 6694 0012 7A68     		ldr	r2, [r7, #4]
 6695 0014 9A42     		cmp	r2, r3
ARM GAS  /tmp/ccR4xO3u.s 			page 165


 6696 0016 0BD1     		bne	.L412
2719:Drivers/STM32L4xx_HAL_Driver/Src/stm32l4xx_hal_tim_ex.c ****   {
2720:Drivers/STM32L4xx_HAL_Driver/Src/stm32l4xx_hal_tim_ex.c ****     htim->Channel = HAL_TIM_ACTIVE_CHANNEL_1;
 6697              		.loc 1 2720 19
 6698 0018 FB68     		ldr	r3, [r7, #12]
 6699 001a 0122     		movs	r2, #1
 6700 001c 1A77     		strb	r2, [r3, #28]
2721:Drivers/STM32L4xx_HAL_Driver/Src/stm32l4xx_hal_tim_ex.c **** 
2722:Drivers/STM32L4xx_HAL_Driver/Src/stm32l4xx_hal_tim_ex.c ****     if (hdma->Init.Mode == DMA_NORMAL)
 6701              		.loc 1 2722 19
 6702 001e 7B68     		ldr	r3, [r7, #4]
 6703 0020 DB69     		ldr	r3, [r3, #28]
 6704              		.loc 1 2722 8
 6705 0022 002B     		cmp	r3, #0
 6706 0024 36D1     		bne	.L413
2723:Drivers/STM32L4xx_HAL_Driver/Src/stm32l4xx_hal_tim_ex.c ****     {
2724:Drivers/STM32L4xx_HAL_Driver/Src/stm32l4xx_hal_tim_ex.c ****       TIM_CHANNEL_N_STATE_SET(htim, TIM_CHANNEL_1, HAL_TIM_CHANNEL_STATE_READY);
 6707              		.loc 1 2724 7
 6708 0026 FB68     		ldr	r3, [r7, #12]
 6709 0028 0122     		movs	r2, #1
 6710 002a 83F84420 		strb	r2, [r3, #68]
 6711 002e 31E0     		b	.L413
 6712              	.L412:
2725:Drivers/STM32L4xx_HAL_Driver/Src/stm32l4xx_hal_tim_ex.c ****     }
2726:Drivers/STM32L4xx_HAL_Driver/Src/stm32l4xx_hal_tim_ex.c ****   }
2727:Drivers/STM32L4xx_HAL_Driver/Src/stm32l4xx_hal_tim_ex.c ****   else if (hdma == htim->hdma[TIM_DMA_ID_CC2])
 6713              		.loc 1 2727 30
 6714 0030 FB68     		ldr	r3, [r7, #12]
 6715 0032 9B6A     		ldr	r3, [r3, #40]
 6716              		.loc 1 2727 11
 6717 0034 7A68     		ldr	r2, [r7, #4]
 6718 0036 9A42     		cmp	r2, r3
 6719 0038 0BD1     		bne	.L414
2728:Drivers/STM32L4xx_HAL_Driver/Src/stm32l4xx_hal_tim_ex.c ****   {
2729:Drivers/STM32L4xx_HAL_Driver/Src/stm32l4xx_hal_tim_ex.c ****     htim->Channel = HAL_TIM_ACTIVE_CHANNEL_2;
 6720              		.loc 1 2729 19
 6721 003a FB68     		ldr	r3, [r7, #12]
 6722 003c 0222     		movs	r2, #2
 6723 003e 1A77     		strb	r2, [r3, #28]
2730:Drivers/STM32L4xx_HAL_Driver/Src/stm32l4xx_hal_tim_ex.c **** 
2731:Drivers/STM32L4xx_HAL_Driver/Src/stm32l4xx_hal_tim_ex.c ****     if (hdma->Init.Mode == DMA_NORMAL)
 6724              		.loc 1 2731 19
 6725 0040 7B68     		ldr	r3, [r7, #4]
 6726 0042 DB69     		ldr	r3, [r3, #28]
 6727              		.loc 1 2731 8
 6728 0044 002B     		cmp	r3, #0
 6729 0046 25D1     		bne	.L413
2732:Drivers/STM32L4xx_HAL_Driver/Src/stm32l4xx_hal_tim_ex.c ****     {
2733:Drivers/STM32L4xx_HAL_Driver/Src/stm32l4xx_hal_tim_ex.c ****       TIM_CHANNEL_N_STATE_SET(htim, TIM_CHANNEL_2, HAL_TIM_CHANNEL_STATE_READY);
 6730              		.loc 1 2733 7
 6731 0048 FB68     		ldr	r3, [r7, #12]
 6732 004a 0122     		movs	r2, #1
 6733 004c 83F84520 		strb	r2, [r3, #69]
 6734 0050 20E0     		b	.L413
 6735              	.L414:
2734:Drivers/STM32L4xx_HAL_Driver/Src/stm32l4xx_hal_tim_ex.c ****     }
2735:Drivers/STM32L4xx_HAL_Driver/Src/stm32l4xx_hal_tim_ex.c ****   }
ARM GAS  /tmp/ccR4xO3u.s 			page 166


2736:Drivers/STM32L4xx_HAL_Driver/Src/stm32l4xx_hal_tim_ex.c ****   else if (hdma == htim->hdma[TIM_DMA_ID_CC3])
 6736              		.loc 1 2736 30
 6737 0052 FB68     		ldr	r3, [r7, #12]
 6738 0054 DB6A     		ldr	r3, [r3, #44]
 6739              		.loc 1 2736 11
 6740 0056 7A68     		ldr	r2, [r7, #4]
 6741 0058 9A42     		cmp	r2, r3
 6742 005a 0BD1     		bne	.L415
2737:Drivers/STM32L4xx_HAL_Driver/Src/stm32l4xx_hal_tim_ex.c ****   {
2738:Drivers/STM32L4xx_HAL_Driver/Src/stm32l4xx_hal_tim_ex.c ****     htim->Channel = HAL_TIM_ACTIVE_CHANNEL_3;
 6743              		.loc 1 2738 19
 6744 005c FB68     		ldr	r3, [r7, #12]
 6745 005e 0422     		movs	r2, #4
 6746 0060 1A77     		strb	r2, [r3, #28]
2739:Drivers/STM32L4xx_HAL_Driver/Src/stm32l4xx_hal_tim_ex.c **** 
2740:Drivers/STM32L4xx_HAL_Driver/Src/stm32l4xx_hal_tim_ex.c ****     if (hdma->Init.Mode == DMA_NORMAL)
 6747              		.loc 1 2740 19
 6748 0062 7B68     		ldr	r3, [r7, #4]
 6749 0064 DB69     		ldr	r3, [r3, #28]
 6750              		.loc 1 2740 8
 6751 0066 002B     		cmp	r3, #0
 6752 0068 14D1     		bne	.L413
2741:Drivers/STM32L4xx_HAL_Driver/Src/stm32l4xx_hal_tim_ex.c ****     {
2742:Drivers/STM32L4xx_HAL_Driver/Src/stm32l4xx_hal_tim_ex.c ****       TIM_CHANNEL_N_STATE_SET(htim, TIM_CHANNEL_3, HAL_TIM_CHANNEL_STATE_READY);
 6753              		.loc 1 2742 7
 6754 006a FB68     		ldr	r3, [r7, #12]
 6755 006c 0122     		movs	r2, #1
 6756 006e 83F84620 		strb	r2, [r3, #70]
 6757 0072 0FE0     		b	.L413
 6758              	.L415:
2743:Drivers/STM32L4xx_HAL_Driver/Src/stm32l4xx_hal_tim_ex.c ****     }
2744:Drivers/STM32L4xx_HAL_Driver/Src/stm32l4xx_hal_tim_ex.c ****   }
2745:Drivers/STM32L4xx_HAL_Driver/Src/stm32l4xx_hal_tim_ex.c ****   else if (hdma == htim->hdma[TIM_DMA_ID_CC4])
 6759              		.loc 1 2745 30
 6760 0074 FB68     		ldr	r3, [r7, #12]
 6761 0076 1B6B     		ldr	r3, [r3, #48]
 6762              		.loc 1 2745 11
 6763 0078 7A68     		ldr	r2, [r7, #4]
 6764 007a 9A42     		cmp	r2, r3
 6765 007c 0AD1     		bne	.L413
2746:Drivers/STM32L4xx_HAL_Driver/Src/stm32l4xx_hal_tim_ex.c ****   {
2747:Drivers/STM32L4xx_HAL_Driver/Src/stm32l4xx_hal_tim_ex.c ****     htim->Channel = HAL_TIM_ACTIVE_CHANNEL_4;
 6766              		.loc 1 2747 19
 6767 007e FB68     		ldr	r3, [r7, #12]
 6768 0080 0822     		movs	r2, #8
 6769 0082 1A77     		strb	r2, [r3, #28]
2748:Drivers/STM32L4xx_HAL_Driver/Src/stm32l4xx_hal_tim_ex.c **** 
2749:Drivers/STM32L4xx_HAL_Driver/Src/stm32l4xx_hal_tim_ex.c ****     if (hdma->Init.Mode == DMA_NORMAL)
 6770              		.loc 1 2749 19
 6771 0084 7B68     		ldr	r3, [r7, #4]
 6772 0086 DB69     		ldr	r3, [r3, #28]
 6773              		.loc 1 2749 8
 6774 0088 002B     		cmp	r3, #0
 6775 008a 03D1     		bne	.L413
2750:Drivers/STM32L4xx_HAL_Driver/Src/stm32l4xx_hal_tim_ex.c ****     {
2751:Drivers/STM32L4xx_HAL_Driver/Src/stm32l4xx_hal_tim_ex.c ****       TIM_CHANNEL_N_STATE_SET(htim, TIM_CHANNEL_4, HAL_TIM_CHANNEL_STATE_READY);
 6776              		.loc 1 2751 7
ARM GAS  /tmp/ccR4xO3u.s 			page 167


 6777 008c FB68     		ldr	r3, [r7, #12]
 6778 008e 0122     		movs	r2, #1
 6779 0090 83F84720 		strb	r2, [r3, #71]
 6780              	.L413:
2752:Drivers/STM32L4xx_HAL_Driver/Src/stm32l4xx_hal_tim_ex.c ****     }
2753:Drivers/STM32L4xx_HAL_Driver/Src/stm32l4xx_hal_tim_ex.c ****   }
2754:Drivers/STM32L4xx_HAL_Driver/Src/stm32l4xx_hal_tim_ex.c ****   else
2755:Drivers/STM32L4xx_HAL_Driver/Src/stm32l4xx_hal_tim_ex.c ****   {
2756:Drivers/STM32L4xx_HAL_Driver/Src/stm32l4xx_hal_tim_ex.c ****     /* nothing to do */
2757:Drivers/STM32L4xx_HAL_Driver/Src/stm32l4xx_hal_tim_ex.c ****   }
2758:Drivers/STM32L4xx_HAL_Driver/Src/stm32l4xx_hal_tim_ex.c **** 
2759:Drivers/STM32L4xx_HAL_Driver/Src/stm32l4xx_hal_tim_ex.c **** #if (USE_HAL_TIM_REGISTER_CALLBACKS == 1)
2760:Drivers/STM32L4xx_HAL_Driver/Src/stm32l4xx_hal_tim_ex.c ****   htim->PWM_PulseFinishedCallback(htim);
2761:Drivers/STM32L4xx_HAL_Driver/Src/stm32l4xx_hal_tim_ex.c **** #else
2762:Drivers/STM32L4xx_HAL_Driver/Src/stm32l4xx_hal_tim_ex.c ****   HAL_TIM_PWM_PulseFinishedCallback(htim);
 6781              		.loc 1 2762 3
 6782 0094 F868     		ldr	r0, [r7, #12]
 6783 0096 FFF7FEFF 		bl	HAL_TIM_PWM_PulseFinishedCallback
2763:Drivers/STM32L4xx_HAL_Driver/Src/stm32l4xx_hal_tim_ex.c **** #endif /* USE_HAL_TIM_REGISTER_CALLBACKS */
2764:Drivers/STM32L4xx_HAL_Driver/Src/stm32l4xx_hal_tim_ex.c **** 
2765:Drivers/STM32L4xx_HAL_Driver/Src/stm32l4xx_hal_tim_ex.c ****   htim->Channel = HAL_TIM_ACTIVE_CHANNEL_CLEARED;
 6784              		.loc 1 2765 17
 6785 009a FB68     		ldr	r3, [r7, #12]
 6786 009c 0022     		movs	r2, #0
 6787 009e 1A77     		strb	r2, [r3, #28]
2766:Drivers/STM32L4xx_HAL_Driver/Src/stm32l4xx_hal_tim_ex.c **** }
 6788              		.loc 1 2766 1
 6789 00a0 00BF     		nop
 6790 00a2 1037     		adds	r7, r7, #16
 6791              	.LCFI229:
 6792              		.cfi_def_cfa_offset 8
 6793 00a4 BD46     		mov	sp, r7
 6794              	.LCFI230:
 6795              		.cfi_def_cfa_register 13
 6796              		@ sp needed
 6797 00a6 80BD     		pop	{r7, pc}
 6798              		.cfi_endproc
 6799              	.LFE174:
 6801              		.section	.text.TIM_DMAErrorCCxN,"ax",%progbits
 6802              		.align	1
 6803              		.syntax unified
 6804              		.thumb
 6805              		.thumb_func
 6807              	TIM_DMAErrorCCxN:
 6808              	.LFB175:
2767:Drivers/STM32L4xx_HAL_Driver/Src/stm32l4xx_hal_tim_ex.c **** 
2768:Drivers/STM32L4xx_HAL_Driver/Src/stm32l4xx_hal_tim_ex.c **** /**
2769:Drivers/STM32L4xx_HAL_Driver/Src/stm32l4xx_hal_tim_ex.c ****   * @brief  TIM DMA error callback (complementary channel)
2770:Drivers/STM32L4xx_HAL_Driver/Src/stm32l4xx_hal_tim_ex.c ****   * @param  hdma pointer to DMA handle.
2771:Drivers/STM32L4xx_HAL_Driver/Src/stm32l4xx_hal_tim_ex.c ****   * @retval None
2772:Drivers/STM32L4xx_HAL_Driver/Src/stm32l4xx_hal_tim_ex.c ****   */
2773:Drivers/STM32L4xx_HAL_Driver/Src/stm32l4xx_hal_tim_ex.c **** static void TIM_DMAErrorCCxN(DMA_HandleTypeDef *hdma)
2774:Drivers/STM32L4xx_HAL_Driver/Src/stm32l4xx_hal_tim_ex.c **** {
 6809              		.loc 1 2774 1
 6810              		.cfi_startproc
 6811              		@ args = 0, pretend = 0, frame = 16
 6812              		@ frame_needed = 1, uses_anonymous_args = 0
ARM GAS  /tmp/ccR4xO3u.s 			page 168


 6813 0000 80B5     		push	{r7, lr}
 6814              	.LCFI231:
 6815              		.cfi_def_cfa_offset 8
 6816              		.cfi_offset 7, -8
 6817              		.cfi_offset 14, -4
 6818 0002 84B0     		sub	sp, sp, #16
 6819              	.LCFI232:
 6820              		.cfi_def_cfa_offset 24
 6821 0004 00AF     		add	r7, sp, #0
 6822              	.LCFI233:
 6823              		.cfi_def_cfa_register 7
 6824 0006 7860     		str	r0, [r7, #4]
2775:Drivers/STM32L4xx_HAL_Driver/Src/stm32l4xx_hal_tim_ex.c ****   TIM_HandleTypeDef *htim = (TIM_HandleTypeDef *)((DMA_HandleTypeDef *)hdma)->Parent;
 6825              		.loc 1 2775 22
 6826 0008 7B68     		ldr	r3, [r7, #4]
 6827 000a 9B6A     		ldr	r3, [r3, #40]
 6828 000c FB60     		str	r3, [r7, #12]
2776:Drivers/STM32L4xx_HAL_Driver/Src/stm32l4xx_hal_tim_ex.c **** 
2777:Drivers/STM32L4xx_HAL_Driver/Src/stm32l4xx_hal_tim_ex.c ****   if (hdma == htim->hdma[TIM_DMA_ID_CC1])
 6829              		.loc 1 2777 25
 6830 000e FB68     		ldr	r3, [r7, #12]
 6831 0010 5B6A     		ldr	r3, [r3, #36]
 6832              		.loc 1 2777 6
 6833 0012 7A68     		ldr	r2, [r7, #4]
 6834 0014 9A42     		cmp	r2, r3
 6835 0016 07D1     		bne	.L417
2778:Drivers/STM32L4xx_HAL_Driver/Src/stm32l4xx_hal_tim_ex.c ****   {
2779:Drivers/STM32L4xx_HAL_Driver/Src/stm32l4xx_hal_tim_ex.c ****     htim->Channel = HAL_TIM_ACTIVE_CHANNEL_1;
 6836              		.loc 1 2779 19
 6837 0018 FB68     		ldr	r3, [r7, #12]
 6838 001a 0122     		movs	r2, #1
 6839 001c 1A77     		strb	r2, [r3, #28]
2780:Drivers/STM32L4xx_HAL_Driver/Src/stm32l4xx_hal_tim_ex.c ****     TIM_CHANNEL_N_STATE_SET(htim, TIM_CHANNEL_1, HAL_TIM_CHANNEL_STATE_READY);
 6840              		.loc 1 2780 5
 6841 001e FB68     		ldr	r3, [r7, #12]
 6842 0020 0122     		movs	r2, #1
 6843 0022 83F84420 		strb	r2, [r3, #68]
 6844 0026 18E0     		b	.L418
 6845              	.L417:
2781:Drivers/STM32L4xx_HAL_Driver/Src/stm32l4xx_hal_tim_ex.c ****   }
2782:Drivers/STM32L4xx_HAL_Driver/Src/stm32l4xx_hal_tim_ex.c ****   else if (hdma == htim->hdma[TIM_DMA_ID_CC2])
 6846              		.loc 1 2782 30
 6847 0028 FB68     		ldr	r3, [r7, #12]
 6848 002a 9B6A     		ldr	r3, [r3, #40]
 6849              		.loc 1 2782 11
 6850 002c 7A68     		ldr	r2, [r7, #4]
 6851 002e 9A42     		cmp	r2, r3
 6852 0030 07D1     		bne	.L419
2783:Drivers/STM32L4xx_HAL_Driver/Src/stm32l4xx_hal_tim_ex.c ****   {
2784:Drivers/STM32L4xx_HAL_Driver/Src/stm32l4xx_hal_tim_ex.c ****     htim->Channel = HAL_TIM_ACTIVE_CHANNEL_2;
 6853              		.loc 1 2784 19
 6854 0032 FB68     		ldr	r3, [r7, #12]
 6855 0034 0222     		movs	r2, #2
 6856 0036 1A77     		strb	r2, [r3, #28]
2785:Drivers/STM32L4xx_HAL_Driver/Src/stm32l4xx_hal_tim_ex.c ****     TIM_CHANNEL_N_STATE_SET(htim, TIM_CHANNEL_2, HAL_TIM_CHANNEL_STATE_READY);
 6857              		.loc 1 2785 5
 6858 0038 FB68     		ldr	r3, [r7, #12]
ARM GAS  /tmp/ccR4xO3u.s 			page 169


 6859 003a 0122     		movs	r2, #1
 6860 003c 83F84520 		strb	r2, [r3, #69]
 6861 0040 0BE0     		b	.L418
 6862              	.L419:
2786:Drivers/STM32L4xx_HAL_Driver/Src/stm32l4xx_hal_tim_ex.c ****   }
2787:Drivers/STM32L4xx_HAL_Driver/Src/stm32l4xx_hal_tim_ex.c ****   else if (hdma == htim->hdma[TIM_DMA_ID_CC3])
 6863              		.loc 1 2787 30
 6864 0042 FB68     		ldr	r3, [r7, #12]
 6865 0044 DB6A     		ldr	r3, [r3, #44]
 6866              		.loc 1 2787 11
 6867 0046 7A68     		ldr	r2, [r7, #4]
 6868 0048 9A42     		cmp	r2, r3
 6869 004a 06D1     		bne	.L418
2788:Drivers/STM32L4xx_HAL_Driver/Src/stm32l4xx_hal_tim_ex.c ****   {
2789:Drivers/STM32L4xx_HAL_Driver/Src/stm32l4xx_hal_tim_ex.c ****     htim->Channel = HAL_TIM_ACTIVE_CHANNEL_3;
 6870              		.loc 1 2789 19
 6871 004c FB68     		ldr	r3, [r7, #12]
 6872 004e 0422     		movs	r2, #4
 6873 0050 1A77     		strb	r2, [r3, #28]
2790:Drivers/STM32L4xx_HAL_Driver/Src/stm32l4xx_hal_tim_ex.c ****     TIM_CHANNEL_N_STATE_SET(htim, TIM_CHANNEL_3, HAL_TIM_CHANNEL_STATE_READY);
 6874              		.loc 1 2790 5
 6875 0052 FB68     		ldr	r3, [r7, #12]
 6876 0054 0122     		movs	r2, #1
 6877 0056 83F84620 		strb	r2, [r3, #70]
 6878              	.L418:
2791:Drivers/STM32L4xx_HAL_Driver/Src/stm32l4xx_hal_tim_ex.c ****   }
2792:Drivers/STM32L4xx_HAL_Driver/Src/stm32l4xx_hal_tim_ex.c ****   else
2793:Drivers/STM32L4xx_HAL_Driver/Src/stm32l4xx_hal_tim_ex.c ****   {
2794:Drivers/STM32L4xx_HAL_Driver/Src/stm32l4xx_hal_tim_ex.c ****     /* nothing to do */
2795:Drivers/STM32L4xx_HAL_Driver/Src/stm32l4xx_hal_tim_ex.c ****   }
2796:Drivers/STM32L4xx_HAL_Driver/Src/stm32l4xx_hal_tim_ex.c **** 
2797:Drivers/STM32L4xx_HAL_Driver/Src/stm32l4xx_hal_tim_ex.c **** #if (USE_HAL_TIM_REGISTER_CALLBACKS == 1)
2798:Drivers/STM32L4xx_HAL_Driver/Src/stm32l4xx_hal_tim_ex.c ****   htim->ErrorCallback(htim);
2799:Drivers/STM32L4xx_HAL_Driver/Src/stm32l4xx_hal_tim_ex.c **** #else
2800:Drivers/STM32L4xx_HAL_Driver/Src/stm32l4xx_hal_tim_ex.c ****   HAL_TIM_ErrorCallback(htim);
 6879              		.loc 1 2800 3
 6880 005a F868     		ldr	r0, [r7, #12]
 6881 005c FFF7FEFF 		bl	HAL_TIM_ErrorCallback
2801:Drivers/STM32L4xx_HAL_Driver/Src/stm32l4xx_hal_tim_ex.c **** #endif /* USE_HAL_TIM_REGISTER_CALLBACKS */
2802:Drivers/STM32L4xx_HAL_Driver/Src/stm32l4xx_hal_tim_ex.c **** 
2803:Drivers/STM32L4xx_HAL_Driver/Src/stm32l4xx_hal_tim_ex.c ****   htim->Channel = HAL_TIM_ACTIVE_CHANNEL_CLEARED;
 6882              		.loc 1 2803 17
 6883 0060 FB68     		ldr	r3, [r7, #12]
 6884 0062 0022     		movs	r2, #0
 6885 0064 1A77     		strb	r2, [r3, #28]
2804:Drivers/STM32L4xx_HAL_Driver/Src/stm32l4xx_hal_tim_ex.c **** }
 6886              		.loc 1 2804 1
 6887 0066 00BF     		nop
 6888 0068 1037     		adds	r7, r7, #16
 6889              	.LCFI234:
 6890              		.cfi_def_cfa_offset 8
 6891 006a BD46     		mov	sp, r7
 6892              	.LCFI235:
 6893              		.cfi_def_cfa_register 13
 6894              		@ sp needed
 6895 006c 80BD     		pop	{r7, pc}
 6896              		.cfi_endproc
ARM GAS  /tmp/ccR4xO3u.s 			page 170


 6897              	.LFE175:
 6899              		.section	.text.TIM_CCxNChannelCmd,"ax",%progbits
 6900              		.align	1
 6901              		.syntax unified
 6902              		.thumb
 6903              		.thumb_func
 6905              	TIM_CCxNChannelCmd:
 6906              	.LFB176:
2805:Drivers/STM32L4xx_HAL_Driver/Src/stm32l4xx_hal_tim_ex.c **** 
2806:Drivers/STM32L4xx_HAL_Driver/Src/stm32l4xx_hal_tim_ex.c **** /**
2807:Drivers/STM32L4xx_HAL_Driver/Src/stm32l4xx_hal_tim_ex.c ****   * @brief  Enables or disables the TIM Capture Compare Channel xN.
2808:Drivers/STM32L4xx_HAL_Driver/Src/stm32l4xx_hal_tim_ex.c ****   * @param  TIMx to select the TIM peripheral
2809:Drivers/STM32L4xx_HAL_Driver/Src/stm32l4xx_hal_tim_ex.c ****   * @param  Channel specifies the TIM Channel
2810:Drivers/STM32L4xx_HAL_Driver/Src/stm32l4xx_hal_tim_ex.c ****   *          This parameter can be one of the following values:
2811:Drivers/STM32L4xx_HAL_Driver/Src/stm32l4xx_hal_tim_ex.c ****   *            @arg TIM_CHANNEL_1: TIM Channel 1
2812:Drivers/STM32L4xx_HAL_Driver/Src/stm32l4xx_hal_tim_ex.c ****   *            @arg TIM_CHANNEL_2: TIM Channel 2
2813:Drivers/STM32L4xx_HAL_Driver/Src/stm32l4xx_hal_tim_ex.c ****   *            @arg TIM_CHANNEL_3: TIM Channel 3
2814:Drivers/STM32L4xx_HAL_Driver/Src/stm32l4xx_hal_tim_ex.c ****   * @param  ChannelNState specifies the TIM Channel CCxNE bit new state.
2815:Drivers/STM32L4xx_HAL_Driver/Src/stm32l4xx_hal_tim_ex.c ****   *          This parameter can be: TIM_CCxN_ENABLE or TIM_CCxN_Disable.
2816:Drivers/STM32L4xx_HAL_Driver/Src/stm32l4xx_hal_tim_ex.c ****   * @retval None
2817:Drivers/STM32L4xx_HAL_Driver/Src/stm32l4xx_hal_tim_ex.c ****   */
2818:Drivers/STM32L4xx_HAL_Driver/Src/stm32l4xx_hal_tim_ex.c **** static void TIM_CCxNChannelCmd(TIM_TypeDef *TIMx, uint32_t Channel, uint32_t ChannelNState)
2819:Drivers/STM32L4xx_HAL_Driver/Src/stm32l4xx_hal_tim_ex.c **** {
 6907              		.loc 1 2819 1
 6908              		.cfi_startproc
 6909              		@ args = 0, pretend = 0, frame = 24
 6910              		@ frame_needed = 1, uses_anonymous_args = 0
 6911              		@ link register save eliminated.
 6912 0000 80B4     		push	{r7}
 6913              	.LCFI236:
 6914              		.cfi_def_cfa_offset 4
 6915              		.cfi_offset 7, -4
 6916 0002 87B0     		sub	sp, sp, #28
 6917              	.LCFI237:
 6918              		.cfi_def_cfa_offset 32
 6919 0004 00AF     		add	r7, sp, #0
 6920              	.LCFI238:
 6921              		.cfi_def_cfa_register 7
 6922 0006 F860     		str	r0, [r7, #12]
 6923 0008 B960     		str	r1, [r7, #8]
 6924 000a 7A60     		str	r2, [r7, #4]
2820:Drivers/STM32L4xx_HAL_Driver/Src/stm32l4xx_hal_tim_ex.c ****   uint32_t tmp;
2821:Drivers/STM32L4xx_HAL_Driver/Src/stm32l4xx_hal_tim_ex.c **** 
2822:Drivers/STM32L4xx_HAL_Driver/Src/stm32l4xx_hal_tim_ex.c ****   tmp = TIM_CCER_CC1NE << (Channel & 0x1FU); /* 0x1FU = 31 bits max shift */
 6925              		.loc 1 2822 36
 6926 000c BB68     		ldr	r3, [r7, #8]
 6927 000e 03F01F03 		and	r3, r3, #31
 6928              		.loc 1 2822 7
 6929 0012 0422     		movs	r2, #4
 6930 0014 02FA03F3 		lsl	r3, r2, r3
 6931 0018 7B61     		str	r3, [r7, #20]
2823:Drivers/STM32L4xx_HAL_Driver/Src/stm32l4xx_hal_tim_ex.c **** 
2824:Drivers/STM32L4xx_HAL_Driver/Src/stm32l4xx_hal_tim_ex.c ****   /* Reset the CCxNE Bit */
2825:Drivers/STM32L4xx_HAL_Driver/Src/stm32l4xx_hal_tim_ex.c ****   TIMx->CCER &=  ~tmp;
 6932              		.loc 1 2825 14
 6933 001a FB68     		ldr	r3, [r7, #12]
 6934 001c 1A6A     		ldr	r2, [r3, #32]
ARM GAS  /tmp/ccR4xO3u.s 			page 171


 6935              		.loc 1 2825 18
 6936 001e 7B69     		ldr	r3, [r7, #20]
 6937 0020 DB43     		mvns	r3, r3
 6938              		.loc 1 2825 14
 6939 0022 1A40     		ands	r2, r2, r3
 6940 0024 FB68     		ldr	r3, [r7, #12]
 6941 0026 1A62     		str	r2, [r3, #32]
2826:Drivers/STM32L4xx_HAL_Driver/Src/stm32l4xx_hal_tim_ex.c **** 
2827:Drivers/STM32L4xx_HAL_Driver/Src/stm32l4xx_hal_tim_ex.c ****   /* Set or reset the CCxNE Bit */
2828:Drivers/STM32L4xx_HAL_Driver/Src/stm32l4xx_hal_tim_ex.c ****   TIMx->CCER |= (uint32_t)(ChannelNState << (Channel & 0x1FU)); /* 0x1FU = 31 bits max shift */
 6942              		.loc 1 2828 14
 6943 0028 FB68     		ldr	r3, [r7, #12]
 6944 002a 1A6A     		ldr	r2, [r3, #32]
 6945              		.loc 1 2828 54
 6946 002c BB68     		ldr	r3, [r7, #8]
 6947 002e 03F01F03 		and	r3, r3, #31
 6948              		.loc 1 2828 42
 6949 0032 7968     		ldr	r1, [r7, #4]
 6950 0034 01FA03F3 		lsl	r3, r1, r3
 6951              		.loc 1 2828 14
 6952 0038 1A43     		orrs	r2, r2, r3
 6953 003a FB68     		ldr	r3, [r7, #12]
 6954 003c 1A62     		str	r2, [r3, #32]
2829:Drivers/STM32L4xx_HAL_Driver/Src/stm32l4xx_hal_tim_ex.c **** }
 6955              		.loc 1 2829 1
 6956 003e 00BF     		nop
 6957 0040 1C37     		adds	r7, r7, #28
 6958              	.LCFI239:
 6959              		.cfi_def_cfa_offset 4
 6960 0042 BD46     		mov	sp, r7
 6961              	.LCFI240:
 6962              		.cfi_def_cfa_register 13
 6963              		@ sp needed
 6964 0044 5DF8047B 		ldr	r7, [sp], #4
 6965              	.LCFI241:
 6966              		.cfi_restore 7
 6967              		.cfi_def_cfa_offset 0
 6968 0048 7047     		bx	lr
 6969              		.cfi_endproc
 6970              	.LFE176:
 6972              		.text
 6973              	.Letext0:
 6974              		.file 2 "/usr/share/gcc-arm-none-eabi-10.3-2021.10/arm-none-eabi/include/machine/_default_types.h"
 6975              		.file 3 "/usr/share/gcc-arm-none-eabi-10.3-2021.10/arm-none-eabi/include/sys/_stdint.h"
 6976              		.file 4 "Drivers/CMSIS/Device/ST/STM32L4xx/Include/stm32l432xx.h"
 6977              		.file 5 "Drivers/CMSIS/Device/ST/STM32L4xx/Include/stm32l4xx.h"
 6978              		.file 6 "Drivers/STM32L4xx_HAL_Driver/Inc/stm32l4xx_hal_def.h"
 6979              		.file 7 "Drivers/STM32L4xx_HAL_Driver/Inc/stm32l4xx_hal_dma.h"
 6980              		.file 8 "Drivers/STM32L4xx_HAL_Driver/Inc/stm32l4xx_hal_tim.h"
 6981              		.file 9 "Drivers/STM32L4xx_HAL_Driver/Inc/stm32l4xx_hal_tim_ex.h"
ARM GAS  /tmp/ccR4xO3u.s 			page 172


DEFINED SYMBOLS
                            *ABS*:0000000000000000 stm32l4xx_hal_tim_ex.c
     /tmp/ccR4xO3u.s:20     .text.HAL_TIMEx_HallSensor_Init:0000000000000000 $t
     /tmp/ccR4xO3u.s:26     .text.HAL_TIMEx_HallSensor_Init:0000000000000000 HAL_TIMEx_HallSensor_Init
     /tmp/ccR4xO3u.s:372    .text.HAL_TIMEx_HallSensor_MspInit:0000000000000000 HAL_TIMEx_HallSensor_MspInit
     /tmp/ccR4xO3u.s:266    .text.HAL_TIMEx_HallSensor_DeInit:0000000000000000 $t
     /tmp/ccR4xO3u.s:272    .text.HAL_TIMEx_HallSensor_DeInit:0000000000000000 HAL_TIMEx_HallSensor_DeInit
     /tmp/ccR4xO3u.s:414    .text.HAL_TIMEx_HallSensor_MspDeInit:0000000000000000 HAL_TIMEx_HallSensor_MspDeInit
     /tmp/ccR4xO3u.s:366    .text.HAL_TIMEx_HallSensor_MspInit:0000000000000000 $t
     /tmp/ccR4xO3u.s:408    .text.HAL_TIMEx_HallSensor_MspDeInit:0000000000000000 $t
     /tmp/ccR4xO3u.s:450    .text.HAL_TIMEx_HallSensor_Start:0000000000000000 $t
     /tmp/ccR4xO3u.s:456    .text.HAL_TIMEx_HallSensor_Start:0000000000000000 HAL_TIMEx_HallSensor_Start
     /tmp/ccR4xO3u.s:610    .text.HAL_TIMEx_HallSensor_Start:00000000000000dc $d
     /tmp/ccR4xO3u.s:617    .text.HAL_TIMEx_HallSensor_Stop:0000000000000000 $t
     /tmp/ccR4xO3u.s:623    .text.HAL_TIMEx_HallSensor_Stop:0000000000000000 HAL_TIMEx_HallSensor_Stop
     /tmp/ccR4xO3u.s:705    .text.HAL_TIMEx_HallSensor_Start_IT:0000000000000000 $t
     /tmp/ccR4xO3u.s:711    .text.HAL_TIMEx_HallSensor_Start_IT:0000000000000000 HAL_TIMEx_HallSensor_Start_IT
     /tmp/ccR4xO3u.s:873    .text.HAL_TIMEx_HallSensor_Start_IT:00000000000000ec $d
     /tmp/ccR4xO3u.s:880    .text.HAL_TIMEx_HallSensor_Stop_IT:0000000000000000 $t
     /tmp/ccR4xO3u.s:886    .text.HAL_TIMEx_HallSensor_Stop_IT:0000000000000000 HAL_TIMEx_HallSensor_Stop_IT
     /tmp/ccR4xO3u.s:976    .text.HAL_TIMEx_HallSensor_Start_DMA:0000000000000000 $t
     /tmp/ccR4xO3u.s:982    .text.HAL_TIMEx_HallSensor_Start_DMA:0000000000000000 HAL_TIMEx_HallSensor_Start_DMA
     /tmp/ccR4xO3u.s:1191   .text.HAL_TIMEx_HallSensor_Start_DMA:0000000000000120 $d
     /tmp/ccR4xO3u.s:1201   .text.HAL_TIMEx_HallSensor_Stop_DMA:0000000000000000 $t
     /tmp/ccR4xO3u.s:1207   .text.HAL_TIMEx_HallSensor_Stop_DMA:0000000000000000 HAL_TIMEx_HallSensor_Stop_DMA
     /tmp/ccR4xO3u.s:1294   .text.HAL_TIMEx_OCN_Start:0000000000000000 $t
     /tmp/ccR4xO3u.s:1300   .text.HAL_TIMEx_OCN_Start:0000000000000000 HAL_TIMEx_OCN_Start
     /tmp/ccR4xO3u.s:6905   .text.TIM_CCxNChannelCmd:0000000000000000 TIM_CCxNChannelCmd
     /tmp/ccR4xO3u.s:1511   .text.HAL_TIMEx_OCN_Start:0000000000000130 $d
     /tmp/ccR4xO3u.s:1518   .text.HAL_TIMEx_OCN_Stop:0000000000000000 $t
     /tmp/ccR4xO3u.s:1524   .text.HAL_TIMEx_OCN_Stop:0000000000000000 HAL_TIMEx_OCN_Stop
     /tmp/ccR4xO3u.s:1651   .text.HAL_TIMEx_OCN_Start_IT:0000000000000000 $t
     /tmp/ccR4xO3u.s:1657   .text.HAL_TIMEx_OCN_Start_IT:0000000000000000 HAL_TIMEx_OCN_Start_IT
     /tmp/ccR4xO3u.s:1937   .text.HAL_TIMEx_OCN_Start_IT:00000000000001a0 $d
     /tmp/ccR4xO3u.s:1944   .text.HAL_TIMEx_OCN_Stop_IT:0000000000000000 $t
     /tmp/ccR4xO3u.s:1950   .text.HAL_TIMEx_OCN_Stop_IT:0000000000000000 HAL_TIMEx_OCN_Stop_IT
     /tmp/ccR4xO3u.s:2160   .text.HAL_TIMEx_OCN_Start_DMA:0000000000000000 $t
     /tmp/ccR4xO3u.s:2166   .text.HAL_TIMEx_OCN_Start_DMA:0000000000000000 HAL_TIMEx_OCN_Start_DMA
     /tmp/ccR4xO3u.s:2637   .text.HAL_TIMEx_OCN_Start_DMA:00000000000002b0 $d
     /tmp/ccR4xO3u.s:6668   .text.TIM_DMADelayPulseNCplt:0000000000000000 TIM_DMADelayPulseNCplt
     /tmp/ccR4xO3u.s:6807   .text.TIM_DMAErrorCCxN:0000000000000000 TIM_DMAErrorCCxN
     /tmp/ccR4xO3u.s:2647   .text.HAL_TIMEx_OCN_Stop_DMA:0000000000000000 $t
     /tmp/ccR4xO3u.s:2653   .text.HAL_TIMEx_OCN_Stop_DMA:0000000000000000 HAL_TIMEx_OCN_Stop_DMA
     /tmp/ccR4xO3u.s:2856   .text.HAL_TIMEx_PWMN_Start:0000000000000000 $t
     /tmp/ccR4xO3u.s:2862   .text.HAL_TIMEx_PWMN_Start:0000000000000000 HAL_TIMEx_PWMN_Start
     /tmp/ccR4xO3u.s:3073   .text.HAL_TIMEx_PWMN_Start:0000000000000130 $d
     /tmp/ccR4xO3u.s:3080   .text.HAL_TIMEx_PWMN_Stop:0000000000000000 $t
     /tmp/ccR4xO3u.s:3086   .text.HAL_TIMEx_PWMN_Stop:0000000000000000 HAL_TIMEx_PWMN_Stop
     /tmp/ccR4xO3u.s:3213   .text.HAL_TIMEx_PWMN_Start_IT:0000000000000000 $t
     /tmp/ccR4xO3u.s:3219   .text.HAL_TIMEx_PWMN_Start_IT:0000000000000000 HAL_TIMEx_PWMN_Start_IT
     /tmp/ccR4xO3u.s:3499   .text.HAL_TIMEx_PWMN_Start_IT:00000000000001a0 $d
     /tmp/ccR4xO3u.s:3506   .text.HAL_TIMEx_PWMN_Stop_IT:0000000000000000 $t
     /tmp/ccR4xO3u.s:3512   .text.HAL_TIMEx_PWMN_Stop_IT:0000000000000000 HAL_TIMEx_PWMN_Stop_IT
     /tmp/ccR4xO3u.s:3722   .text.HAL_TIMEx_PWMN_Start_DMA:0000000000000000 $t
     /tmp/ccR4xO3u.s:3728   .text.HAL_TIMEx_PWMN_Start_DMA:0000000000000000 HAL_TIMEx_PWMN_Start_DMA
     /tmp/ccR4xO3u.s:4199   .text.HAL_TIMEx_PWMN_Start_DMA:00000000000002b0 $d
     /tmp/ccR4xO3u.s:4209   .text.HAL_TIMEx_PWMN_Stop_DMA:0000000000000000 $t
ARM GAS  /tmp/ccR4xO3u.s 			page 173


     /tmp/ccR4xO3u.s:4215   .text.HAL_TIMEx_PWMN_Stop_DMA:0000000000000000 HAL_TIMEx_PWMN_Stop_DMA
     /tmp/ccR4xO3u.s:4418   .text.HAL_TIMEx_OnePulseN_Start:0000000000000000 $t
     /tmp/ccR4xO3u.s:4424   .text.HAL_TIMEx_OnePulseN_Start:0000000000000000 HAL_TIMEx_OnePulseN_Start
     /tmp/ccR4xO3u.s:4548   .text.HAL_TIMEx_OnePulseN_Stop:0000000000000000 $t
     /tmp/ccR4xO3u.s:4554   .text.HAL_TIMEx_OnePulseN_Stop:0000000000000000 HAL_TIMEx_OnePulseN_Stop
     /tmp/ccR4xO3u.s:4682   .text.HAL_TIMEx_OnePulseN_Start_IT:0000000000000000 $t
     /tmp/ccR4xO3u.s:4688   .text.HAL_TIMEx_OnePulseN_Start_IT:0000000000000000 HAL_TIMEx_OnePulseN_Start_IT
     /tmp/ccR4xO3u.s:4828   .text.HAL_TIMEx_OnePulseN_Stop_IT:0000000000000000 $t
     /tmp/ccR4xO3u.s:4834   .text.HAL_TIMEx_OnePulseN_Stop_IT:0000000000000000 HAL_TIMEx_OnePulseN_Stop_IT
     /tmp/ccR4xO3u.s:4978   .text.HAL_TIMEx_ConfigCommutEvent:0000000000000000 $t
     /tmp/ccR4xO3u.s:4984   .text.HAL_TIMEx_ConfigCommutEvent:0000000000000000 HAL_TIMEx_ConfigCommutEvent
     /tmp/ccR4xO3u.s:5133   .text.HAL_TIMEx_ConfigCommutEvent_IT:0000000000000000 $t
     /tmp/ccR4xO3u.s:5139   .text.HAL_TIMEx_ConfigCommutEvent_IT:0000000000000000 HAL_TIMEx_ConfigCommutEvent_IT
     /tmp/ccR4xO3u.s:5288   .text.HAL_TIMEx_ConfigCommutEvent_DMA:0000000000000000 $t
     /tmp/ccR4xO3u.s:5294   .text.HAL_TIMEx_ConfigCommutEvent_DMA:0000000000000000 HAL_TIMEx_ConfigCommutEvent_DMA
     /tmp/ccR4xO3u.s:5460   .text.HAL_TIMEx_ConfigCommutEvent_DMA:00000000000000d8 $d
     /tmp/ccR4xO3u.s:6571   .text.TIMEx_DMACommutationCplt:0000000000000000 TIMEx_DMACommutationCplt
     /tmp/ccR4xO3u.s:6620   .text.TIMEx_DMACommutationHalfCplt:0000000000000000 TIMEx_DMACommutationHalfCplt
     /tmp/ccR4xO3u.s:5467   .text.HAL_TIMEx_MasterConfigSynchronization:0000000000000000 $t
     /tmp/ccR4xO3u.s:5473   .text.HAL_TIMEx_MasterConfigSynchronization:0000000000000000 HAL_TIMEx_MasterConfigSynchronization
     /tmp/ccR4xO3u.s:5622   .text.HAL_TIMEx_MasterConfigSynchronization:00000000000000c4 $d
     /tmp/ccR4xO3u.s:5628   .text.HAL_TIMEx_ConfigBreakDeadTime:0000000000000000 $t
     /tmp/ccR4xO3u.s:5634   .text.HAL_TIMEx_ConfigBreakDeadTime:0000000000000000 HAL_TIMEx_ConfigBreakDeadTime
     /tmp/ccR4xO3u.s:5786   .text.HAL_TIMEx_ConfigBreakDeadTime:00000000000000ec $d
     /tmp/ccR4xO3u.s:5791   .text.HAL_TIMEx_ConfigBreakInput:0000000000000000 $t
     /tmp/ccR4xO3u.s:5797   .text.HAL_TIMEx_ConfigBreakInput:0000000000000000 HAL_TIMEx_ConfigBreakInput
     /tmp/ccR4xO3u.s:6058   .text.HAL_TIMEx_RemapConfig:0000000000000000 $t
     /tmp/ccR4xO3u.s:6064   .text.HAL_TIMEx_RemapConfig:0000000000000000 HAL_TIMEx_RemapConfig
     /tmp/ccR4xO3u.s:6170   .text.HAL_TIMEx_RemapConfig:0000000000000084 $d
     /tmp/ccR4xO3u.s:6175   .text.HAL_TIMEx_GroupChannel5:0000000000000000 $t
     /tmp/ccR4xO3u.s:6181   .text.HAL_TIMEx_GroupChannel5:0000000000000000 HAL_TIMEx_GroupChannel5
     /tmp/ccR4xO3u.s:6269   .text.HAL_TIMEx_CommutCallback:0000000000000000 $t
     /tmp/ccR4xO3u.s:6275   .text.HAL_TIMEx_CommutCallback:0000000000000000 HAL_TIMEx_CommutCallback
     /tmp/ccR4xO3u.s:6311   .text.HAL_TIMEx_CommutHalfCpltCallback:0000000000000000 $t
     /tmp/ccR4xO3u.s:6317   .text.HAL_TIMEx_CommutHalfCpltCallback:0000000000000000 HAL_TIMEx_CommutHalfCpltCallback
     /tmp/ccR4xO3u.s:6353   .text.HAL_TIMEx_BreakCallback:0000000000000000 $t
     /tmp/ccR4xO3u.s:6359   .text.HAL_TIMEx_BreakCallback:0000000000000000 HAL_TIMEx_BreakCallback
     /tmp/ccR4xO3u.s:6395   .text.HAL_TIMEx_Break2Callback:0000000000000000 $t
     /tmp/ccR4xO3u.s:6401   .text.HAL_TIMEx_Break2Callback:0000000000000000 HAL_TIMEx_Break2Callback
     /tmp/ccR4xO3u.s:6437   .text.HAL_TIMEx_HallSensor_GetState:0000000000000000 $t
     /tmp/ccR4xO3u.s:6443   .text.HAL_TIMEx_HallSensor_GetState:0000000000000000 HAL_TIMEx_HallSensor_GetState
     /tmp/ccR4xO3u.s:6483   .text.HAL_TIMEx_GetChannelNState:0000000000000000 $t
     /tmp/ccR4xO3u.s:6489   .text.HAL_TIMEx_GetChannelNState:0000000000000000 HAL_TIMEx_GetChannelNState
     /tmp/ccR4xO3u.s:6565   .text.TIMEx_DMACommutationCplt:0000000000000000 $t
     /tmp/ccR4xO3u.s:6614   .text.TIMEx_DMACommutationHalfCplt:0000000000000000 $t
     /tmp/ccR4xO3u.s:6663   .text.TIM_DMADelayPulseNCplt:0000000000000000 $t
     /tmp/ccR4xO3u.s:6802   .text.TIM_DMAErrorCCxN:0000000000000000 $t
     /tmp/ccR4xO3u.s:6900   .text.TIM_CCxNChannelCmd:0000000000000000 $t
                           .group:0000000000000000 wm4.0.7c07f3f6b993d5df097fdb8d3ce9a6de
                           .group:0000000000000000 wm4.stm32l4xx_hal_conf.h.25.67df7bfb263225dfcb11ad6d535659e5
                           .group:0000000000000000 wm4.stm32l4xx.h.38.13610480d662c5d808817940a37afcf4
                           .group:0000000000000000 wm4.stm32l432xx.h.34.64bfd283c23d6d1aa5faea715519c36d
                           .group:0000000000000000 wm4._newlib_version.h.4.bfdf54b0af045d4a71376ae00f63a22c
                           .group:0000000000000000 wm4.features.h.33.318b64d71e0957639cfb30f1db1f7ec8
                           .group:0000000000000000 wm4._default_types.h.15.247e5cd201eca3442cbf5404108c4935
                           .group:0000000000000000 wm4._intsup.h.10.48bafbb683905c4daa4565a85aeeb264
                           .group:0000000000000000 wm4._stdint.h.10.c24fa3af3bc1706662bb5593a907e841
ARM GAS  /tmp/ccR4xO3u.s 			page 174


                           .group:0000000000000000 wm4.stdint.h.23.d53047a68f4a85177f80b422d52785ed
                           .group:0000000000000000 wm4.cmsis_version.h.32.46e8eccfa2cfeaae11d008bb2823a3ed
                           .group:0000000000000000 wm4.core_cm4.h.66.e4ff136c4a17abc46741866f64f8e729
                           .group:0000000000000000 wm4.cmsis_gcc.h.26.78077cef1206e937f7b56043ffca496a
                           .group:0000000000000000 wm4.core_cm4.h.174.fcddd62df80231752fa39eb9b61dadfe
                           .group:0000000000000000 wm4.mpu_armv7.h.32.4049752bb5792d4e15357775e9506cfc
                           .group:0000000000000000 wm4.stm32l432xx.h.380.93d43fb335c0ebed2f7b80a16f382831
                           .group:0000000000000000 wm4.stm32l4xx.h.196.f5ae8047c57b6175c94f246ef967a286
                           .group:0000000000000000 wm4.stm32_hal_legacy.h.22.60f4b739ef84b68a7e7ed16e5103575e
                           .group:0000000000000000 wm4.stddef.h.39.144cf5ddcd53cbfdac30259dc1a6c87f
                           .group:0000000000000000 wm4.stm32l4xx_hal_def.h.57.b521302d6c089e94008be04ada42518c
                           .group:0000000000000000 wm4.stm32l4xx_hal_rcc.h.156.c2cf90ca16490b11bfea6d5b9c02447d
                           .group:0000000000000000 wm4.stm32l4xx_hal_rcc_ex.h.20.9d2cd8406af411ccecbbc69175fe86df
                           .group:0000000000000000 wm4.stm32l4xx_hal_gpio.h.21.2d2b1fd6aa6afa7b6dcc89cf752a9a25
                           .group:0000000000000000 wm4.stm32l4xx_hal_gpio_ex.h.21.bbbc787a7485a4871211b5fa6c8b588b
                           .group:0000000000000000 wm4.stm32l4xx_hal_dma.h.21.85535a9033ff7e527296f1cd4943a831
                           .group:0000000000000000 wm4.stm32l4xx_hal_cortex.h.21.94fe10dd50baf2cef42a470b44b9074a
                           .group:0000000000000000 wm4.stm32l4xx_hal_can.h.21.b5d46d7f01b4bc61c276be2c4b59db6b
                           .group:0000000000000000 wm4.stm32l4xx_hal_exti.h.21.d3645023ea960a07b41f6c9b90a2ecc4
                           .group:0000000000000000 wm4.stm32l4xx_hal_flash.h.20.3f4ef626abeefd93430968dc6defca64
                           .group:0000000000000000 wm4.stm32l4xx_hal_flash.h.848.b5e1a92ab03fcd2ac5572c217f864bbd
                           .group:0000000000000000 wm4.stm32l4xx_hal_i2c.h.21.1c548a113da5711525bbba5ee1988cbd
                           .group:0000000000000000 wm4.stm32l4xx_hal_i2c_ex.h.21.a624122f67715a687a1d5f17f7841251
                           .group:0000000000000000 wm4.stm32l4xx_hal_i2c.h.738.08f9916803fd1d9db10b6451187300a7
                           .group:0000000000000000 wm4.stm32l4xx_hal_pwr.h.21.7ddab2caa97243c36e496eca17b27618
                           .group:0000000000000000 wm4.stm32l4xx_hal_pwr_ex.h.21.5c96c6ce2d8c449959a988a298b6fd6b
                           .group:0000000000000000 wm4.stm32l4xx_hal_tim.h.21.514f1bd267cd24adfb57081a913ef29f
                           .group:0000000000000000 wm4.stm32l4xx_hal_tim_ex.h.21.fc4cf6652f188acb945f023f83d5be40
                           .group:0000000000000000 wm4.stm32l4xx_hal_uart.h.21.fc846d838d179e557421cc5a6a90c71c
                           .group:0000000000000000 wm4.stm32l4xx_hal_uart_ex.h.21.a0d4c7c414dffdc178f0a3a708ac77ea
                           .group:0000000000000000 wm4.stm32l4xx_hal.h.75.771e267559f2fdcd4148207229da2f39

UNDEFINED SYMBOLS
TIM_Base_SetConfig
TIM_TI1_SetConfig
TIM_OC2_SetConfig
TIM_CCxChannelCmd
HAL_DMA_Start_IT
TIM_DMACaptureCplt
TIM_DMACaptureHalfCplt
TIM_DMAError
HAL_DMA_Abort_IT
TIM_DMADelayPulseHalfCplt
HAL_TIM_PWM_PulseFinishedCallback
HAL_TIM_ErrorCallback
