ARM GAS  /tmp/ccCHRL2h.s 			page 1


   1              		.cpu cortex-m4
   2              		.arch armv7e-m
   3              		.fpu fpv4-sp-d16
   4              		.eabi_attribute 27, 1
   5              		.eabi_attribute 28, 1
   6              		.eabi_attribute 20, 1
   7              		.eabi_attribute 21, 1
   8              		.eabi_attribute 23, 3
   9              		.eabi_attribute 24, 1
  10              		.eabi_attribute 25, 1
  11              		.eabi_attribute 26, 1
  12              		.eabi_attribute 30, 6
  13              		.eabi_attribute 34, 1
  14              		.eabi_attribute 18, 4
  15              		.file	"stm32l4xx_hal_pwr_ex.c"
  16              		.text
  17              	.Ltext0:
  18              		.cfi_sections	.debug_frame
  19              		.section	.text.HAL_PWREx_GetVoltageRange,"ax",%progbits
  20              		.align	1
  21              		.global	HAL_PWREx_GetVoltageRange
  22              		.syntax unified
  23              		.thumb
  24              		.thumb_func
  26              	HAL_PWREx_GetVoltageRange:
  27              	.LFB132:
  28              		.file 1 "Drivers/STM32L4xx_HAL_Driver/Src/stm32l4xx_hal_pwr_ex.c"
   1:Drivers/STM32L4xx_HAL_Driver/Src/stm32l4xx_hal_pwr_ex.c **** /**
   2:Drivers/STM32L4xx_HAL_Driver/Src/stm32l4xx_hal_pwr_ex.c ****   ******************************************************************************
   3:Drivers/STM32L4xx_HAL_Driver/Src/stm32l4xx_hal_pwr_ex.c ****   * @file    stm32l4xx_hal_pwr_ex.c
   4:Drivers/STM32L4xx_HAL_Driver/Src/stm32l4xx_hal_pwr_ex.c ****   * @author  MCD Application Team
   5:Drivers/STM32L4xx_HAL_Driver/Src/stm32l4xx_hal_pwr_ex.c ****   * @brief   Extended PWR HAL module driver.
   6:Drivers/STM32L4xx_HAL_Driver/Src/stm32l4xx_hal_pwr_ex.c ****   *          This file provides firmware functions to manage the following
   7:Drivers/STM32L4xx_HAL_Driver/Src/stm32l4xx_hal_pwr_ex.c ****   *          functionalities of the Power Controller (PWR) peripheral:
   8:Drivers/STM32L4xx_HAL_Driver/Src/stm32l4xx_hal_pwr_ex.c ****   *           + Extended Initialization and de-initialization functions
   9:Drivers/STM32L4xx_HAL_Driver/Src/stm32l4xx_hal_pwr_ex.c ****   *           + Extended Peripheral Control functions
  10:Drivers/STM32L4xx_HAL_Driver/Src/stm32l4xx_hal_pwr_ex.c ****   *
  11:Drivers/STM32L4xx_HAL_Driver/Src/stm32l4xx_hal_pwr_ex.c ****   ******************************************************************************
  12:Drivers/STM32L4xx_HAL_Driver/Src/stm32l4xx_hal_pwr_ex.c ****   * @attention
  13:Drivers/STM32L4xx_HAL_Driver/Src/stm32l4xx_hal_pwr_ex.c ****   *
  14:Drivers/STM32L4xx_HAL_Driver/Src/stm32l4xx_hal_pwr_ex.c ****   * Copyright (c) 2017 STMicroelectronics.
  15:Drivers/STM32L4xx_HAL_Driver/Src/stm32l4xx_hal_pwr_ex.c ****   * All rights reserved.
  16:Drivers/STM32L4xx_HAL_Driver/Src/stm32l4xx_hal_pwr_ex.c ****   *
  17:Drivers/STM32L4xx_HAL_Driver/Src/stm32l4xx_hal_pwr_ex.c ****   * This software is licensed under terms that can be found in the LICENSE file
  18:Drivers/STM32L4xx_HAL_Driver/Src/stm32l4xx_hal_pwr_ex.c ****   * in the root directory of this software component.
  19:Drivers/STM32L4xx_HAL_Driver/Src/stm32l4xx_hal_pwr_ex.c ****   * If no LICENSE file comes with this software, it is provided AS-IS.
  20:Drivers/STM32L4xx_HAL_Driver/Src/stm32l4xx_hal_pwr_ex.c ****   *
  21:Drivers/STM32L4xx_HAL_Driver/Src/stm32l4xx_hal_pwr_ex.c ****   ******************************************************************************
  22:Drivers/STM32L4xx_HAL_Driver/Src/stm32l4xx_hal_pwr_ex.c ****   */
  23:Drivers/STM32L4xx_HAL_Driver/Src/stm32l4xx_hal_pwr_ex.c **** 
  24:Drivers/STM32L4xx_HAL_Driver/Src/stm32l4xx_hal_pwr_ex.c **** /* Includes ------------------------------------------------------------------*/
  25:Drivers/STM32L4xx_HAL_Driver/Src/stm32l4xx_hal_pwr_ex.c **** #include "stm32l4xx_hal.h"
  26:Drivers/STM32L4xx_HAL_Driver/Src/stm32l4xx_hal_pwr_ex.c **** 
  27:Drivers/STM32L4xx_HAL_Driver/Src/stm32l4xx_hal_pwr_ex.c **** /** @addtogroup STM32L4xx_HAL_Driver
  28:Drivers/STM32L4xx_HAL_Driver/Src/stm32l4xx_hal_pwr_ex.c ****   * @{
  29:Drivers/STM32L4xx_HAL_Driver/Src/stm32l4xx_hal_pwr_ex.c ****   */
  30:Drivers/STM32L4xx_HAL_Driver/Src/stm32l4xx_hal_pwr_ex.c **** 
ARM GAS  /tmp/ccCHRL2h.s 			page 2


  31:Drivers/STM32L4xx_HAL_Driver/Src/stm32l4xx_hal_pwr_ex.c **** /** @defgroup PWREx PWREx
  32:Drivers/STM32L4xx_HAL_Driver/Src/stm32l4xx_hal_pwr_ex.c ****   * @brief PWR Extended HAL module driver
  33:Drivers/STM32L4xx_HAL_Driver/Src/stm32l4xx_hal_pwr_ex.c ****   * @{
  34:Drivers/STM32L4xx_HAL_Driver/Src/stm32l4xx_hal_pwr_ex.c ****   */
  35:Drivers/STM32L4xx_HAL_Driver/Src/stm32l4xx_hal_pwr_ex.c **** 
  36:Drivers/STM32L4xx_HAL_Driver/Src/stm32l4xx_hal_pwr_ex.c **** #ifdef HAL_PWR_MODULE_ENABLED
  37:Drivers/STM32L4xx_HAL_Driver/Src/stm32l4xx_hal_pwr_ex.c **** 
  38:Drivers/STM32L4xx_HAL_Driver/Src/stm32l4xx_hal_pwr_ex.c **** /* Private typedef -----------------------------------------------------------*/
  39:Drivers/STM32L4xx_HAL_Driver/Src/stm32l4xx_hal_pwr_ex.c **** /* Private define ------------------------------------------------------------*/
  40:Drivers/STM32L4xx_HAL_Driver/Src/stm32l4xx_hal_pwr_ex.c **** 
  41:Drivers/STM32L4xx_HAL_Driver/Src/stm32l4xx_hal_pwr_ex.c **** #if defined (STM32L412xx) || defined (STM32L422xx) || defined (STM32L431xx) || defined (STM32L432xx
  42:Drivers/STM32L4xx_HAL_Driver/Src/stm32l4xx_hal_pwr_ex.c **** #define PWR_PORTH_AVAILABLE_PINS   ((uint32_t)0x0000000B) /* PH0/PH1/PH3 */
  43:Drivers/STM32L4xx_HAL_Driver/Src/stm32l4xx_hal_pwr_ex.c **** #elif defined (STM32L451xx) || defined (STM32L452xx) || defined (STM32L462xx)
  44:Drivers/STM32L4xx_HAL_Driver/Src/stm32l4xx_hal_pwr_ex.c **** #define PWR_PORTH_AVAILABLE_PINS   ((uint32_t)0x0000000B) /* PH0/PH1/PH3 */
  45:Drivers/STM32L4xx_HAL_Driver/Src/stm32l4xx_hal_pwr_ex.c **** #elif defined (STM32L471xx) || defined (STM32L475xx) || defined (STM32L476xx) || defined (STM32L485
  46:Drivers/STM32L4xx_HAL_Driver/Src/stm32l4xx_hal_pwr_ex.c **** #define PWR_PORTH_AVAILABLE_PINS   ((uint32_t)0x00000003) /* PH0/PH1 */
  47:Drivers/STM32L4xx_HAL_Driver/Src/stm32l4xx_hal_pwr_ex.c **** #elif defined (STM32L496xx) || defined (STM32L4A6xx) || defined (STM32L4P5xx) || defined (STM32L4Q5
  48:Drivers/STM32L4xx_HAL_Driver/Src/stm32l4xx_hal_pwr_ex.c **** #define PWR_PORTH_AVAILABLE_PINS   ((uint32_t)0x0000FFFF) /* PH0..PH15 */
  49:Drivers/STM32L4xx_HAL_Driver/Src/stm32l4xx_hal_pwr_ex.c **** #endif
  50:Drivers/STM32L4xx_HAL_Driver/Src/stm32l4xx_hal_pwr_ex.c **** 
  51:Drivers/STM32L4xx_HAL_Driver/Src/stm32l4xx_hal_pwr_ex.c **** #if defined (STM32L496xx) || defined (STM32L4A6xx) || defined (STM32L4P5xx) || defined (STM32L4Q5xx
  52:Drivers/STM32L4xx_HAL_Driver/Src/stm32l4xx_hal_pwr_ex.c **** #define PWR_PORTI_AVAILABLE_PINS   ((uint32_t)0x00000FFF) /* PI0..PI11 */
  53:Drivers/STM32L4xx_HAL_Driver/Src/stm32l4xx_hal_pwr_ex.c **** #endif
  54:Drivers/STM32L4xx_HAL_Driver/Src/stm32l4xx_hal_pwr_ex.c **** 
  55:Drivers/STM32L4xx_HAL_Driver/Src/stm32l4xx_hal_pwr_ex.c **** /** @defgroup PWR_Extended_Private_Defines PWR Extended Private Defines
  56:Drivers/STM32L4xx_HAL_Driver/Src/stm32l4xx_hal_pwr_ex.c ****   * @{
  57:Drivers/STM32L4xx_HAL_Driver/Src/stm32l4xx_hal_pwr_ex.c ****   */
  58:Drivers/STM32L4xx_HAL_Driver/Src/stm32l4xx_hal_pwr_ex.c **** 
  59:Drivers/STM32L4xx_HAL_Driver/Src/stm32l4xx_hal_pwr_ex.c **** /** @defgroup PWREx_PVM_Mode_Mask PWR PVM Mode Mask
  60:Drivers/STM32L4xx_HAL_Driver/Src/stm32l4xx_hal_pwr_ex.c ****   * @{
  61:Drivers/STM32L4xx_HAL_Driver/Src/stm32l4xx_hal_pwr_ex.c ****   */
  62:Drivers/STM32L4xx_HAL_Driver/Src/stm32l4xx_hal_pwr_ex.c **** #define PVM_MODE_IT               ((uint32_t)0x00010000)  /*!< Mask for interruption yielded by PVM
  63:Drivers/STM32L4xx_HAL_Driver/Src/stm32l4xx_hal_pwr_ex.c **** #define PVM_MODE_EVT              ((uint32_t)0x00020000)  /*!< Mask for event yielded by PVM thresh
  64:Drivers/STM32L4xx_HAL_Driver/Src/stm32l4xx_hal_pwr_ex.c **** #define PVM_RISING_EDGE           ((uint32_t)0x00000001)  /*!< Mask for rising edge set as PVM trig
  65:Drivers/STM32L4xx_HAL_Driver/Src/stm32l4xx_hal_pwr_ex.c **** #define PVM_FALLING_EDGE          ((uint32_t)0x00000002)  /*!< Mask for falling edge set as PVM tri
  66:Drivers/STM32L4xx_HAL_Driver/Src/stm32l4xx_hal_pwr_ex.c **** /**
  67:Drivers/STM32L4xx_HAL_Driver/Src/stm32l4xx_hal_pwr_ex.c ****   * @}
  68:Drivers/STM32L4xx_HAL_Driver/Src/stm32l4xx_hal_pwr_ex.c ****   */
  69:Drivers/STM32L4xx_HAL_Driver/Src/stm32l4xx_hal_pwr_ex.c **** 
  70:Drivers/STM32L4xx_HAL_Driver/Src/stm32l4xx_hal_pwr_ex.c **** /** @defgroup PWREx_TimeOut_Value PWR Extended Flag Setting Time Out Value
  71:Drivers/STM32L4xx_HAL_Driver/Src/stm32l4xx_hal_pwr_ex.c ****   * @{
  72:Drivers/STM32L4xx_HAL_Driver/Src/stm32l4xx_hal_pwr_ex.c ****   */
  73:Drivers/STM32L4xx_HAL_Driver/Src/stm32l4xx_hal_pwr_ex.c **** #define PWR_FLAG_SETTING_DELAY_US                      50UL   /*!< Time out value for REGLPF and VO
  74:Drivers/STM32L4xx_HAL_Driver/Src/stm32l4xx_hal_pwr_ex.c **** /**
  75:Drivers/STM32L4xx_HAL_Driver/Src/stm32l4xx_hal_pwr_ex.c ****   * @}
  76:Drivers/STM32L4xx_HAL_Driver/Src/stm32l4xx_hal_pwr_ex.c ****   */
  77:Drivers/STM32L4xx_HAL_Driver/Src/stm32l4xx_hal_pwr_ex.c **** 
  78:Drivers/STM32L4xx_HAL_Driver/Src/stm32l4xx_hal_pwr_ex.c **** 
  79:Drivers/STM32L4xx_HAL_Driver/Src/stm32l4xx_hal_pwr_ex.c **** 
  80:Drivers/STM32L4xx_HAL_Driver/Src/stm32l4xx_hal_pwr_ex.c **** /**
  81:Drivers/STM32L4xx_HAL_Driver/Src/stm32l4xx_hal_pwr_ex.c ****   * @}
  82:Drivers/STM32L4xx_HAL_Driver/Src/stm32l4xx_hal_pwr_ex.c ****   */
  83:Drivers/STM32L4xx_HAL_Driver/Src/stm32l4xx_hal_pwr_ex.c **** 
  84:Drivers/STM32L4xx_HAL_Driver/Src/stm32l4xx_hal_pwr_ex.c **** 
  85:Drivers/STM32L4xx_HAL_Driver/Src/stm32l4xx_hal_pwr_ex.c **** 
  86:Drivers/STM32L4xx_HAL_Driver/Src/stm32l4xx_hal_pwr_ex.c **** /* Private macro -------------------------------------------------------------*/
  87:Drivers/STM32L4xx_HAL_Driver/Src/stm32l4xx_hal_pwr_ex.c **** /* Private variables ---------------------------------------------------------*/
ARM GAS  /tmp/ccCHRL2h.s 			page 3


  88:Drivers/STM32L4xx_HAL_Driver/Src/stm32l4xx_hal_pwr_ex.c **** /* Private function prototypes -----------------------------------------------*/
  89:Drivers/STM32L4xx_HAL_Driver/Src/stm32l4xx_hal_pwr_ex.c **** /* Exported functions --------------------------------------------------------*/
  90:Drivers/STM32L4xx_HAL_Driver/Src/stm32l4xx_hal_pwr_ex.c **** 
  91:Drivers/STM32L4xx_HAL_Driver/Src/stm32l4xx_hal_pwr_ex.c **** /** @defgroup PWREx_Exported_Functions PWR Extended Exported Functions
  92:Drivers/STM32L4xx_HAL_Driver/Src/stm32l4xx_hal_pwr_ex.c ****   * @{
  93:Drivers/STM32L4xx_HAL_Driver/Src/stm32l4xx_hal_pwr_ex.c ****   */
  94:Drivers/STM32L4xx_HAL_Driver/Src/stm32l4xx_hal_pwr_ex.c **** 
  95:Drivers/STM32L4xx_HAL_Driver/Src/stm32l4xx_hal_pwr_ex.c **** /** @defgroup PWREx_Exported_Functions_Group1 Extended Peripheral Control functions
  96:Drivers/STM32L4xx_HAL_Driver/Src/stm32l4xx_hal_pwr_ex.c ****   *  @brief   Extended Peripheral Control functions
  97:Drivers/STM32L4xx_HAL_Driver/Src/stm32l4xx_hal_pwr_ex.c ****   *
  98:Drivers/STM32L4xx_HAL_Driver/Src/stm32l4xx_hal_pwr_ex.c **** @verbatim
  99:Drivers/STM32L4xx_HAL_Driver/Src/stm32l4xx_hal_pwr_ex.c ****  ===============================================================================
 100:Drivers/STM32L4xx_HAL_Driver/Src/stm32l4xx_hal_pwr_ex.c ****               ##### Extended Peripheral Initialization and de-initialization functions #####
 101:Drivers/STM32L4xx_HAL_Driver/Src/stm32l4xx_hal_pwr_ex.c ****  ===============================================================================
 102:Drivers/STM32L4xx_HAL_Driver/Src/stm32l4xx_hal_pwr_ex.c ****     [..]
 103:Drivers/STM32L4xx_HAL_Driver/Src/stm32l4xx_hal_pwr_ex.c **** 
 104:Drivers/STM32L4xx_HAL_Driver/Src/stm32l4xx_hal_pwr_ex.c **** @endverbatim
 105:Drivers/STM32L4xx_HAL_Driver/Src/stm32l4xx_hal_pwr_ex.c ****   * @{
 106:Drivers/STM32L4xx_HAL_Driver/Src/stm32l4xx_hal_pwr_ex.c ****   */
 107:Drivers/STM32L4xx_HAL_Driver/Src/stm32l4xx_hal_pwr_ex.c **** 
 108:Drivers/STM32L4xx_HAL_Driver/Src/stm32l4xx_hal_pwr_ex.c **** 
 109:Drivers/STM32L4xx_HAL_Driver/Src/stm32l4xx_hal_pwr_ex.c **** /**
 110:Drivers/STM32L4xx_HAL_Driver/Src/stm32l4xx_hal_pwr_ex.c ****   * @brief Return Voltage Scaling Range.
 111:Drivers/STM32L4xx_HAL_Driver/Src/stm32l4xx_hal_pwr_ex.c ****   * @retval VOS bit field (PWR_REGULATOR_VOLTAGE_SCALE1 or PWR_REGULATOR_VOLTAGE_SCALE2
 112:Drivers/STM32L4xx_HAL_Driver/Src/stm32l4xx_hal_pwr_ex.c ****   *         or PWR_REGULATOR_VOLTAGE_SCALE1_BOOST when applicable)
 113:Drivers/STM32L4xx_HAL_Driver/Src/stm32l4xx_hal_pwr_ex.c ****   */
 114:Drivers/STM32L4xx_HAL_Driver/Src/stm32l4xx_hal_pwr_ex.c **** uint32_t HAL_PWREx_GetVoltageRange(void)
 115:Drivers/STM32L4xx_HAL_Driver/Src/stm32l4xx_hal_pwr_ex.c **** {
  29              		.loc 1 115 1
  30              		.cfi_startproc
  31              		@ args = 0, pretend = 0, frame = 0
  32              		@ frame_needed = 1, uses_anonymous_args = 0
  33              		@ link register save eliminated.
  34 0000 80B4     		push	{r7}
  35              	.LCFI0:
  36              		.cfi_def_cfa_offset 4
  37              		.cfi_offset 7, -4
  38 0002 00AF     		add	r7, sp, #0
  39              	.LCFI1:
  40              		.cfi_def_cfa_register 7
 116:Drivers/STM32L4xx_HAL_Driver/Src/stm32l4xx_hal_pwr_ex.c **** #if defined(PWR_CR5_R1MODE)
 117:Drivers/STM32L4xx_HAL_Driver/Src/stm32l4xx_hal_pwr_ex.c ****     if (READ_BIT(PWR->CR1, PWR_CR1_VOS) == PWR_REGULATOR_VOLTAGE_SCALE2)
 118:Drivers/STM32L4xx_HAL_Driver/Src/stm32l4xx_hal_pwr_ex.c ****     {
 119:Drivers/STM32L4xx_HAL_Driver/Src/stm32l4xx_hal_pwr_ex.c ****       return PWR_REGULATOR_VOLTAGE_SCALE2;
 120:Drivers/STM32L4xx_HAL_Driver/Src/stm32l4xx_hal_pwr_ex.c ****     }
 121:Drivers/STM32L4xx_HAL_Driver/Src/stm32l4xx_hal_pwr_ex.c ****     else if (READ_BIT(PWR->CR5, PWR_CR5_R1MODE) == PWR_CR5_R1MODE)
 122:Drivers/STM32L4xx_HAL_Driver/Src/stm32l4xx_hal_pwr_ex.c ****     {
 123:Drivers/STM32L4xx_HAL_Driver/Src/stm32l4xx_hal_pwr_ex.c ****       /* PWR_CR5_R1MODE bit set means that Range 1 Boost is disabled */
 124:Drivers/STM32L4xx_HAL_Driver/Src/stm32l4xx_hal_pwr_ex.c ****       return PWR_REGULATOR_VOLTAGE_SCALE1;
 125:Drivers/STM32L4xx_HAL_Driver/Src/stm32l4xx_hal_pwr_ex.c ****     }
 126:Drivers/STM32L4xx_HAL_Driver/Src/stm32l4xx_hal_pwr_ex.c ****     else
 127:Drivers/STM32L4xx_HAL_Driver/Src/stm32l4xx_hal_pwr_ex.c ****     {
 128:Drivers/STM32L4xx_HAL_Driver/Src/stm32l4xx_hal_pwr_ex.c ****       return PWR_REGULATOR_VOLTAGE_SCALE1_BOOST;
 129:Drivers/STM32L4xx_HAL_Driver/Src/stm32l4xx_hal_pwr_ex.c ****     }
 130:Drivers/STM32L4xx_HAL_Driver/Src/stm32l4xx_hal_pwr_ex.c **** #else
 131:Drivers/STM32L4xx_HAL_Driver/Src/stm32l4xx_hal_pwr_ex.c ****   return  (PWR->CR1 & PWR_CR1_VOS);
  41              		.loc 1 131 15
ARM GAS  /tmp/ccCHRL2h.s 			page 4


  42 0004 044B     		ldr	r3, .L3
  43 0006 1B68     		ldr	r3, [r3]
  44              		.loc 1 131 21
  45 0008 03F4C063 		and	r3, r3, #1536
 132:Drivers/STM32L4xx_HAL_Driver/Src/stm32l4xx_hal_pwr_ex.c **** #endif
 133:Drivers/STM32L4xx_HAL_Driver/Src/stm32l4xx_hal_pwr_ex.c **** }
  46              		.loc 1 133 1
  47 000c 1846     		mov	r0, r3
  48 000e BD46     		mov	sp, r7
  49              	.LCFI2:
  50              		.cfi_def_cfa_register 13
  51              		@ sp needed
  52 0010 5DF8047B 		ldr	r7, [sp], #4
  53              	.LCFI3:
  54              		.cfi_restore 7
  55              		.cfi_def_cfa_offset 0
  56 0014 7047     		bx	lr
  57              	.L4:
  58 0016 00BF     		.align	2
  59              	.L3:
  60 0018 00700040 		.word	1073770496
  61              		.cfi_endproc
  62              	.LFE132:
  64              		.section	.text.HAL_PWREx_ControlVoltageScaling,"ax",%progbits
  65              		.align	1
  66              		.global	HAL_PWREx_ControlVoltageScaling
  67              		.syntax unified
  68              		.thumb
  69              		.thumb_func
  71              	HAL_PWREx_ControlVoltageScaling:
  72              	.LFB133:
 134:Drivers/STM32L4xx_HAL_Driver/Src/stm32l4xx_hal_pwr_ex.c **** 
 135:Drivers/STM32L4xx_HAL_Driver/Src/stm32l4xx_hal_pwr_ex.c **** 
 136:Drivers/STM32L4xx_HAL_Driver/Src/stm32l4xx_hal_pwr_ex.c **** 
 137:Drivers/STM32L4xx_HAL_Driver/Src/stm32l4xx_hal_pwr_ex.c **** /**
 138:Drivers/STM32L4xx_HAL_Driver/Src/stm32l4xx_hal_pwr_ex.c ****   * @brief Configure the main internal regulator output voltage.
 139:Drivers/STM32L4xx_HAL_Driver/Src/stm32l4xx_hal_pwr_ex.c ****   * @param  VoltageScaling specifies the regulator output voltage to achieve
 140:Drivers/STM32L4xx_HAL_Driver/Src/stm32l4xx_hal_pwr_ex.c ****   *         a tradeoff between performance and power consumption.
 141:Drivers/STM32L4xx_HAL_Driver/Src/stm32l4xx_hal_pwr_ex.c ****   *          This parameter can be one of the following values:
 142:Drivers/STM32L4xx_HAL_Driver/Src/stm32l4xx_hal_pwr_ex.c ****   @if STM32L4S9xx
 143:Drivers/STM32L4xx_HAL_Driver/Src/stm32l4xx_hal_pwr_ex.c ****   *            @arg @ref PWR_REGULATOR_VOLTAGE_SCALE1_BOOST when available, Regulator voltage outpu
 144:Drivers/STM32L4xx_HAL_Driver/Src/stm32l4xx_hal_pwr_ex.c ****   *                                                typical output voltage at 1.2 V,
 145:Drivers/STM32L4xx_HAL_Driver/Src/stm32l4xx_hal_pwr_ex.c ****   *                                                system frequency up to 120 MHz.
 146:Drivers/STM32L4xx_HAL_Driver/Src/stm32l4xx_hal_pwr_ex.c ****   @endif
 147:Drivers/STM32L4xx_HAL_Driver/Src/stm32l4xx_hal_pwr_ex.c ****   *            @arg @ref PWR_REGULATOR_VOLTAGE_SCALE1 Regulator voltage output range 1 mode,
 148:Drivers/STM32L4xx_HAL_Driver/Src/stm32l4xx_hal_pwr_ex.c ****   *                                                typical output voltage at 1.2 V,
 149:Drivers/STM32L4xx_HAL_Driver/Src/stm32l4xx_hal_pwr_ex.c ****   *                                                system frequency up to 80 MHz.
 150:Drivers/STM32L4xx_HAL_Driver/Src/stm32l4xx_hal_pwr_ex.c ****   *            @arg @ref PWR_REGULATOR_VOLTAGE_SCALE2 Regulator voltage output range 2 mode,
 151:Drivers/STM32L4xx_HAL_Driver/Src/stm32l4xx_hal_pwr_ex.c ****   *                                                typical output voltage at 1.0 V,
 152:Drivers/STM32L4xx_HAL_Driver/Src/stm32l4xx_hal_pwr_ex.c ****   *                                                system frequency up to 26 MHz.
 153:Drivers/STM32L4xx_HAL_Driver/Src/stm32l4xx_hal_pwr_ex.c ****   * @note  When moving from Range 1 to Range 2, the system frequency must be decreased to
 154:Drivers/STM32L4xx_HAL_Driver/Src/stm32l4xx_hal_pwr_ex.c ****   *        a value below 26 MHz before calling HAL_PWREx_ControlVoltageScaling() API.
 155:Drivers/STM32L4xx_HAL_Driver/Src/stm32l4xx_hal_pwr_ex.c ****   *        When moving from Range 2 to Range 1, the system frequency can be increased to
 156:Drivers/STM32L4xx_HAL_Driver/Src/stm32l4xx_hal_pwr_ex.c ****   *        a value up to 80 MHz after calling HAL_PWREx_ControlVoltageScaling() API. For
 157:Drivers/STM32L4xx_HAL_Driver/Src/stm32l4xx_hal_pwr_ex.c ****   *        some devices, the system frequency can be increased up to 120 MHz.
 158:Drivers/STM32L4xx_HAL_Driver/Src/stm32l4xx_hal_pwr_ex.c ****   * @note  When moving from Range 2 to Range 1, the API waits for VOSF flag to be
 159:Drivers/STM32L4xx_HAL_Driver/Src/stm32l4xx_hal_pwr_ex.c ****   *        cleared before returning the status. If the flag is not cleared within
ARM GAS  /tmp/ccCHRL2h.s 			page 5


 160:Drivers/STM32L4xx_HAL_Driver/Src/stm32l4xx_hal_pwr_ex.c ****   *        50 microseconds, HAL_TIMEOUT status is reported.
 161:Drivers/STM32L4xx_HAL_Driver/Src/stm32l4xx_hal_pwr_ex.c ****   * @retval HAL Status
 162:Drivers/STM32L4xx_HAL_Driver/Src/stm32l4xx_hal_pwr_ex.c ****   */
 163:Drivers/STM32L4xx_HAL_Driver/Src/stm32l4xx_hal_pwr_ex.c **** HAL_StatusTypeDef HAL_PWREx_ControlVoltageScaling(uint32_t VoltageScaling)
 164:Drivers/STM32L4xx_HAL_Driver/Src/stm32l4xx_hal_pwr_ex.c **** {
  73              		.loc 1 164 1
  74              		.cfi_startproc
  75              		@ args = 0, pretend = 0, frame = 16
  76              		@ frame_needed = 1, uses_anonymous_args = 0
  77              		@ link register save eliminated.
  78 0000 80B4     		push	{r7}
  79              	.LCFI4:
  80              		.cfi_def_cfa_offset 4
  81              		.cfi_offset 7, -4
  82 0002 85B0     		sub	sp, sp, #20
  83              	.LCFI5:
  84              		.cfi_def_cfa_offset 24
  85 0004 00AF     		add	r7, sp, #0
  86              	.LCFI6:
  87              		.cfi_def_cfa_register 7
  88 0006 7860     		str	r0, [r7, #4]
 165:Drivers/STM32L4xx_HAL_Driver/Src/stm32l4xx_hal_pwr_ex.c ****   uint32_t wait_loop_index;
 166:Drivers/STM32L4xx_HAL_Driver/Src/stm32l4xx_hal_pwr_ex.c **** 
 167:Drivers/STM32L4xx_HAL_Driver/Src/stm32l4xx_hal_pwr_ex.c ****   assert_param(IS_PWR_VOLTAGE_SCALING_RANGE(VoltageScaling));
 168:Drivers/STM32L4xx_HAL_Driver/Src/stm32l4xx_hal_pwr_ex.c **** 
 169:Drivers/STM32L4xx_HAL_Driver/Src/stm32l4xx_hal_pwr_ex.c **** #if defined(PWR_CR5_R1MODE)
 170:Drivers/STM32L4xx_HAL_Driver/Src/stm32l4xx_hal_pwr_ex.c ****   if (VoltageScaling == PWR_REGULATOR_VOLTAGE_SCALE1_BOOST)
 171:Drivers/STM32L4xx_HAL_Driver/Src/stm32l4xx_hal_pwr_ex.c ****   {
 172:Drivers/STM32L4xx_HAL_Driver/Src/stm32l4xx_hal_pwr_ex.c ****     /* If current range is range 2 */
 173:Drivers/STM32L4xx_HAL_Driver/Src/stm32l4xx_hal_pwr_ex.c ****     if (READ_BIT(PWR->CR1, PWR_CR1_VOS) == PWR_REGULATOR_VOLTAGE_SCALE2)
 174:Drivers/STM32L4xx_HAL_Driver/Src/stm32l4xx_hal_pwr_ex.c ****     {
 175:Drivers/STM32L4xx_HAL_Driver/Src/stm32l4xx_hal_pwr_ex.c ****       /* Make sure Range 1 Boost is enabled */
 176:Drivers/STM32L4xx_HAL_Driver/Src/stm32l4xx_hal_pwr_ex.c ****       CLEAR_BIT(PWR->CR5, PWR_CR5_R1MODE);
 177:Drivers/STM32L4xx_HAL_Driver/Src/stm32l4xx_hal_pwr_ex.c **** 
 178:Drivers/STM32L4xx_HAL_Driver/Src/stm32l4xx_hal_pwr_ex.c ****       /* Set Range 1 */
 179:Drivers/STM32L4xx_HAL_Driver/Src/stm32l4xx_hal_pwr_ex.c ****       MODIFY_REG(PWR->CR1, PWR_CR1_VOS, PWR_REGULATOR_VOLTAGE_SCALE1);
 180:Drivers/STM32L4xx_HAL_Driver/Src/stm32l4xx_hal_pwr_ex.c **** 
 181:Drivers/STM32L4xx_HAL_Driver/Src/stm32l4xx_hal_pwr_ex.c ****       /* Wait until VOSF is cleared */
 182:Drivers/STM32L4xx_HAL_Driver/Src/stm32l4xx_hal_pwr_ex.c ****       wait_loop_index = ((PWR_FLAG_SETTING_DELAY_US * SystemCoreClock) / 1000000U) + 1;
 183:Drivers/STM32L4xx_HAL_Driver/Src/stm32l4xx_hal_pwr_ex.c ****       while ((HAL_IS_BIT_SET(PWR->SR2, PWR_SR2_VOSF)) && (wait_loop_index != 0U))
 184:Drivers/STM32L4xx_HAL_Driver/Src/stm32l4xx_hal_pwr_ex.c ****       {
 185:Drivers/STM32L4xx_HAL_Driver/Src/stm32l4xx_hal_pwr_ex.c ****         wait_loop_index--;
 186:Drivers/STM32L4xx_HAL_Driver/Src/stm32l4xx_hal_pwr_ex.c ****       }
 187:Drivers/STM32L4xx_HAL_Driver/Src/stm32l4xx_hal_pwr_ex.c ****       if (HAL_IS_BIT_SET(PWR->SR2, PWR_SR2_VOSF))
 188:Drivers/STM32L4xx_HAL_Driver/Src/stm32l4xx_hal_pwr_ex.c ****       {
 189:Drivers/STM32L4xx_HAL_Driver/Src/stm32l4xx_hal_pwr_ex.c ****         return HAL_TIMEOUT;
 190:Drivers/STM32L4xx_HAL_Driver/Src/stm32l4xx_hal_pwr_ex.c ****       }
 191:Drivers/STM32L4xx_HAL_Driver/Src/stm32l4xx_hal_pwr_ex.c ****     }
 192:Drivers/STM32L4xx_HAL_Driver/Src/stm32l4xx_hal_pwr_ex.c ****     /* If current range is range 1 normal or boost mode */
 193:Drivers/STM32L4xx_HAL_Driver/Src/stm32l4xx_hal_pwr_ex.c ****     else
 194:Drivers/STM32L4xx_HAL_Driver/Src/stm32l4xx_hal_pwr_ex.c ****     {
 195:Drivers/STM32L4xx_HAL_Driver/Src/stm32l4xx_hal_pwr_ex.c ****       /* Enable Range 1 Boost (no issue if bit already reset) */
 196:Drivers/STM32L4xx_HAL_Driver/Src/stm32l4xx_hal_pwr_ex.c ****       CLEAR_BIT(PWR->CR5, PWR_CR5_R1MODE);
 197:Drivers/STM32L4xx_HAL_Driver/Src/stm32l4xx_hal_pwr_ex.c ****     }
 198:Drivers/STM32L4xx_HAL_Driver/Src/stm32l4xx_hal_pwr_ex.c ****   }
 199:Drivers/STM32L4xx_HAL_Driver/Src/stm32l4xx_hal_pwr_ex.c ****   else if (VoltageScaling == PWR_REGULATOR_VOLTAGE_SCALE1)
 200:Drivers/STM32L4xx_HAL_Driver/Src/stm32l4xx_hal_pwr_ex.c ****   {
ARM GAS  /tmp/ccCHRL2h.s 			page 6


 201:Drivers/STM32L4xx_HAL_Driver/Src/stm32l4xx_hal_pwr_ex.c ****     /* If current range is range 2 */
 202:Drivers/STM32L4xx_HAL_Driver/Src/stm32l4xx_hal_pwr_ex.c ****     if (READ_BIT(PWR->CR1, PWR_CR1_VOS) == PWR_REGULATOR_VOLTAGE_SCALE2)
 203:Drivers/STM32L4xx_HAL_Driver/Src/stm32l4xx_hal_pwr_ex.c ****     {
 204:Drivers/STM32L4xx_HAL_Driver/Src/stm32l4xx_hal_pwr_ex.c ****       /* Make sure Range 1 Boost is disabled */
 205:Drivers/STM32L4xx_HAL_Driver/Src/stm32l4xx_hal_pwr_ex.c ****       SET_BIT(PWR->CR5, PWR_CR5_R1MODE);
 206:Drivers/STM32L4xx_HAL_Driver/Src/stm32l4xx_hal_pwr_ex.c **** 
 207:Drivers/STM32L4xx_HAL_Driver/Src/stm32l4xx_hal_pwr_ex.c ****       /* Set Range 1 */
 208:Drivers/STM32L4xx_HAL_Driver/Src/stm32l4xx_hal_pwr_ex.c ****       MODIFY_REG(PWR->CR1, PWR_CR1_VOS, PWR_REGULATOR_VOLTAGE_SCALE1);
 209:Drivers/STM32L4xx_HAL_Driver/Src/stm32l4xx_hal_pwr_ex.c **** 
 210:Drivers/STM32L4xx_HAL_Driver/Src/stm32l4xx_hal_pwr_ex.c ****       /* Wait until VOSF is cleared */
 211:Drivers/STM32L4xx_HAL_Driver/Src/stm32l4xx_hal_pwr_ex.c ****       wait_loop_index = ((PWR_FLAG_SETTING_DELAY_US * SystemCoreClock) / 1000000U) + 1;
 212:Drivers/STM32L4xx_HAL_Driver/Src/stm32l4xx_hal_pwr_ex.c ****       while ((HAL_IS_BIT_SET(PWR->SR2, PWR_SR2_VOSF)) && (wait_loop_index != 0U))
 213:Drivers/STM32L4xx_HAL_Driver/Src/stm32l4xx_hal_pwr_ex.c ****       {
 214:Drivers/STM32L4xx_HAL_Driver/Src/stm32l4xx_hal_pwr_ex.c ****         wait_loop_index--;
 215:Drivers/STM32L4xx_HAL_Driver/Src/stm32l4xx_hal_pwr_ex.c ****       }
 216:Drivers/STM32L4xx_HAL_Driver/Src/stm32l4xx_hal_pwr_ex.c ****       if (HAL_IS_BIT_SET(PWR->SR2, PWR_SR2_VOSF))
 217:Drivers/STM32L4xx_HAL_Driver/Src/stm32l4xx_hal_pwr_ex.c ****       {
 218:Drivers/STM32L4xx_HAL_Driver/Src/stm32l4xx_hal_pwr_ex.c ****         return HAL_TIMEOUT;
 219:Drivers/STM32L4xx_HAL_Driver/Src/stm32l4xx_hal_pwr_ex.c ****       }
 220:Drivers/STM32L4xx_HAL_Driver/Src/stm32l4xx_hal_pwr_ex.c ****     }
 221:Drivers/STM32L4xx_HAL_Driver/Src/stm32l4xx_hal_pwr_ex.c ****      /* If current range is range 1 normal or boost mode */
 222:Drivers/STM32L4xx_HAL_Driver/Src/stm32l4xx_hal_pwr_ex.c ****     else
 223:Drivers/STM32L4xx_HAL_Driver/Src/stm32l4xx_hal_pwr_ex.c ****     {
 224:Drivers/STM32L4xx_HAL_Driver/Src/stm32l4xx_hal_pwr_ex.c ****       /* Disable Range 1 Boost (no issue if bit already set) */
 225:Drivers/STM32L4xx_HAL_Driver/Src/stm32l4xx_hal_pwr_ex.c ****       SET_BIT(PWR->CR5, PWR_CR5_R1MODE);
 226:Drivers/STM32L4xx_HAL_Driver/Src/stm32l4xx_hal_pwr_ex.c ****     }
 227:Drivers/STM32L4xx_HAL_Driver/Src/stm32l4xx_hal_pwr_ex.c ****   }
 228:Drivers/STM32L4xx_HAL_Driver/Src/stm32l4xx_hal_pwr_ex.c ****   else
 229:Drivers/STM32L4xx_HAL_Driver/Src/stm32l4xx_hal_pwr_ex.c ****   {
 230:Drivers/STM32L4xx_HAL_Driver/Src/stm32l4xx_hal_pwr_ex.c ****     /* Set Range 2 */
 231:Drivers/STM32L4xx_HAL_Driver/Src/stm32l4xx_hal_pwr_ex.c ****     MODIFY_REG(PWR->CR1, PWR_CR1_VOS, PWR_REGULATOR_VOLTAGE_SCALE2);
 232:Drivers/STM32L4xx_HAL_Driver/Src/stm32l4xx_hal_pwr_ex.c ****     /* No need to wait for VOSF to be cleared for this transition */
 233:Drivers/STM32L4xx_HAL_Driver/Src/stm32l4xx_hal_pwr_ex.c ****     /* PWR_CR5_R1MODE bit setting has no effect in Range 2        */
 234:Drivers/STM32L4xx_HAL_Driver/Src/stm32l4xx_hal_pwr_ex.c ****   }
 235:Drivers/STM32L4xx_HAL_Driver/Src/stm32l4xx_hal_pwr_ex.c **** 
 236:Drivers/STM32L4xx_HAL_Driver/Src/stm32l4xx_hal_pwr_ex.c **** #else
 237:Drivers/STM32L4xx_HAL_Driver/Src/stm32l4xx_hal_pwr_ex.c **** 
 238:Drivers/STM32L4xx_HAL_Driver/Src/stm32l4xx_hal_pwr_ex.c ****   /* If Set Range 1 */
 239:Drivers/STM32L4xx_HAL_Driver/Src/stm32l4xx_hal_pwr_ex.c ****   if (VoltageScaling == PWR_REGULATOR_VOLTAGE_SCALE1)
  89              		.loc 1 239 6
  90 0008 7B68     		ldr	r3, [r7, #4]
  91 000a B3F5007F 		cmp	r3, #512
  92 000e 30D1     		bne	.L6
 240:Drivers/STM32L4xx_HAL_Driver/Src/stm32l4xx_hal_pwr_ex.c ****   {
 241:Drivers/STM32L4xx_HAL_Driver/Src/stm32l4xx_hal_pwr_ex.c ****     if (READ_BIT(PWR->CR1, PWR_CR1_VOS) != PWR_REGULATOR_VOLTAGE_SCALE1)
  93              		.loc 1 241 9
  94 0010 234B     		ldr	r3, .L12
  95 0012 1B68     		ldr	r3, [r3]
  96 0014 03F4C063 		and	r3, r3, #1536
  97              		.loc 1 241 8
  98 0018 B3F5007F 		cmp	r3, #512
  99 001c 38D0     		beq	.L7
 242:Drivers/STM32L4xx_HAL_Driver/Src/stm32l4xx_hal_pwr_ex.c ****     {
 243:Drivers/STM32L4xx_HAL_Driver/Src/stm32l4xx_hal_pwr_ex.c ****       /* Set Range 1 */
 244:Drivers/STM32L4xx_HAL_Driver/Src/stm32l4xx_hal_pwr_ex.c ****       MODIFY_REG(PWR->CR1, PWR_CR1_VOS, PWR_REGULATOR_VOLTAGE_SCALE1);
 100              		.loc 1 244 7
 101 001e 204B     		ldr	r3, .L12
ARM GAS  /tmp/ccCHRL2h.s 			page 7


 102 0020 1B68     		ldr	r3, [r3]
 103 0022 23F4C063 		bic	r3, r3, #1536
 104 0026 1E4A     		ldr	r2, .L12
 105 0028 43F40073 		orr	r3, r3, #512
 106 002c 1360     		str	r3, [r2]
 245:Drivers/STM32L4xx_HAL_Driver/Src/stm32l4xx_hal_pwr_ex.c **** 
 246:Drivers/STM32L4xx_HAL_Driver/Src/stm32l4xx_hal_pwr_ex.c ****       /* Wait until VOSF is cleared */
 247:Drivers/STM32L4xx_HAL_Driver/Src/stm32l4xx_hal_pwr_ex.c ****       wait_loop_index = ((PWR_FLAG_SETTING_DELAY_US * SystemCoreClock) / 1000000U) + 1U;
 107              		.loc 1 247 53
 108 002e 1D4B     		ldr	r3, .L12+4
 109 0030 1B68     		ldr	r3, [r3]
 110 0032 3222     		movs	r2, #50
 111 0034 02FB03F3 		mul	r3, r2, r3
 112              		.loc 1 247 72
 113 0038 1B4A     		ldr	r2, .L12+8
 114 003a A2FB0323 		umull	r2, r3, r2, r3
 115 003e 9B0C     		lsrs	r3, r3, #18
 116              		.loc 1 247 23
 117 0040 0133     		adds	r3, r3, #1
 118 0042 FB60     		str	r3, [r7, #12]
 248:Drivers/STM32L4xx_HAL_Driver/Src/stm32l4xx_hal_pwr_ex.c ****       while ((HAL_IS_BIT_SET(PWR->SR2, PWR_SR2_VOSF)) && (wait_loop_index != 0U))
 119              		.loc 1 248 13
 120 0044 02E0     		b	.L8
 121              	.L10:
 249:Drivers/STM32L4xx_HAL_Driver/Src/stm32l4xx_hal_pwr_ex.c ****       {
 250:Drivers/STM32L4xx_HAL_Driver/Src/stm32l4xx_hal_pwr_ex.c ****         wait_loop_index--;
 122              		.loc 1 250 24
 123 0046 FB68     		ldr	r3, [r7, #12]
 124 0048 013B     		subs	r3, r3, #1
 125 004a FB60     		str	r3, [r7, #12]
 126              	.L8:
 248:Drivers/STM32L4xx_HAL_Driver/Src/stm32l4xx_hal_pwr_ex.c ****       while ((HAL_IS_BIT_SET(PWR->SR2, PWR_SR2_VOSF)) && (wait_loop_index != 0U))
 127              		.loc 1 248 15
 128 004c 144B     		ldr	r3, .L12
 129 004e 5B69     		ldr	r3, [r3, #20]
 130 0050 03F48063 		and	r3, r3, #1024
 248:Drivers/STM32L4xx_HAL_Driver/Src/stm32l4xx_hal_pwr_ex.c ****       while ((HAL_IS_BIT_SET(PWR->SR2, PWR_SR2_VOSF)) && (wait_loop_index != 0U))
 131              		.loc 1 248 13
 132 0054 B3F5806F 		cmp	r3, #1024
 133 0058 02D1     		bne	.L9
 248:Drivers/STM32L4xx_HAL_Driver/Src/stm32l4xx_hal_pwr_ex.c ****       while ((HAL_IS_BIT_SET(PWR->SR2, PWR_SR2_VOSF)) && (wait_loop_index != 0U))
 134              		.loc 1 248 55 discriminator 1
 135 005a FB68     		ldr	r3, [r7, #12]
 136 005c 002B     		cmp	r3, #0
 137 005e F2D1     		bne	.L10
 138              	.L9:
 251:Drivers/STM32L4xx_HAL_Driver/Src/stm32l4xx_hal_pwr_ex.c ****       }
 252:Drivers/STM32L4xx_HAL_Driver/Src/stm32l4xx_hal_pwr_ex.c ****       if (HAL_IS_BIT_SET(PWR->SR2, PWR_SR2_VOSF))
 139              		.loc 1 252 11
 140 0060 0F4B     		ldr	r3, .L12
 141 0062 5B69     		ldr	r3, [r3, #20]
 142 0064 03F48063 		and	r3, r3, #1024
 143              		.loc 1 252 10
 144 0068 B3F5806F 		cmp	r3, #1024
 145 006c 10D1     		bne	.L7
 253:Drivers/STM32L4xx_HAL_Driver/Src/stm32l4xx_hal_pwr_ex.c ****       {
 254:Drivers/STM32L4xx_HAL_Driver/Src/stm32l4xx_hal_pwr_ex.c ****         return HAL_TIMEOUT;
ARM GAS  /tmp/ccCHRL2h.s 			page 8


 146              		.loc 1 254 16
 147 006e 0323     		movs	r3, #3
 148 0070 0FE0     		b	.L11
 149              	.L6:
 255:Drivers/STM32L4xx_HAL_Driver/Src/stm32l4xx_hal_pwr_ex.c ****       }
 256:Drivers/STM32L4xx_HAL_Driver/Src/stm32l4xx_hal_pwr_ex.c ****     }
 257:Drivers/STM32L4xx_HAL_Driver/Src/stm32l4xx_hal_pwr_ex.c ****   }
 258:Drivers/STM32L4xx_HAL_Driver/Src/stm32l4xx_hal_pwr_ex.c ****   else
 259:Drivers/STM32L4xx_HAL_Driver/Src/stm32l4xx_hal_pwr_ex.c ****   {
 260:Drivers/STM32L4xx_HAL_Driver/Src/stm32l4xx_hal_pwr_ex.c ****     if (READ_BIT(PWR->CR1, PWR_CR1_VOS) != PWR_REGULATOR_VOLTAGE_SCALE2)
 150              		.loc 1 260 9
 151 0072 0B4B     		ldr	r3, .L12
 152 0074 1B68     		ldr	r3, [r3]
 153 0076 03F4C063 		and	r3, r3, #1536
 154              		.loc 1 260 8
 155 007a B3F5806F 		cmp	r3, #1024
 156 007e 07D0     		beq	.L7
 261:Drivers/STM32L4xx_HAL_Driver/Src/stm32l4xx_hal_pwr_ex.c ****     {
 262:Drivers/STM32L4xx_HAL_Driver/Src/stm32l4xx_hal_pwr_ex.c ****       /* Set Range 2 */
 263:Drivers/STM32L4xx_HAL_Driver/Src/stm32l4xx_hal_pwr_ex.c ****       MODIFY_REG(PWR->CR1, PWR_CR1_VOS, PWR_REGULATOR_VOLTAGE_SCALE2);
 157              		.loc 1 263 7
 158 0080 074B     		ldr	r3, .L12
 159 0082 1B68     		ldr	r3, [r3]
 160 0084 23F4C063 		bic	r3, r3, #1536
 161 0088 054A     		ldr	r2, .L12
 162 008a 43F48063 		orr	r3, r3, #1024
 163 008e 1360     		str	r3, [r2]
 164              	.L7:
 264:Drivers/STM32L4xx_HAL_Driver/Src/stm32l4xx_hal_pwr_ex.c ****       /* No need to wait for VOSF to be cleared for this transition */
 265:Drivers/STM32L4xx_HAL_Driver/Src/stm32l4xx_hal_pwr_ex.c ****     }
 266:Drivers/STM32L4xx_HAL_Driver/Src/stm32l4xx_hal_pwr_ex.c ****   }
 267:Drivers/STM32L4xx_HAL_Driver/Src/stm32l4xx_hal_pwr_ex.c **** #endif
 268:Drivers/STM32L4xx_HAL_Driver/Src/stm32l4xx_hal_pwr_ex.c **** 
 269:Drivers/STM32L4xx_HAL_Driver/Src/stm32l4xx_hal_pwr_ex.c ****   return HAL_OK;
 165              		.loc 1 269 10
 166 0090 0023     		movs	r3, #0
 167              	.L11:
 270:Drivers/STM32L4xx_HAL_Driver/Src/stm32l4xx_hal_pwr_ex.c **** }
 168              		.loc 1 270 1
 169 0092 1846     		mov	r0, r3
 170 0094 1437     		adds	r7, r7, #20
 171              	.LCFI7:
 172              		.cfi_def_cfa_offset 4
 173 0096 BD46     		mov	sp, r7
 174              	.LCFI8:
 175              		.cfi_def_cfa_register 13
 176              		@ sp needed
 177 0098 5DF8047B 		ldr	r7, [sp], #4
 178              	.LCFI9:
 179              		.cfi_restore 7
 180              		.cfi_def_cfa_offset 0
 181 009c 7047     		bx	lr
 182              	.L13:
 183 009e 00BF     		.align	2
 184              	.L12:
 185 00a0 00700040 		.word	1073770496
 186 00a4 00000000 		.word	SystemCoreClock
ARM GAS  /tmp/ccCHRL2h.s 			page 9


 187 00a8 83DE1B43 		.word	1125899907
 188              		.cfi_endproc
 189              	.LFE133:
 191              		.section	.text.HAL_PWREx_EnableBatteryCharging,"ax",%progbits
 192              		.align	1
 193              		.global	HAL_PWREx_EnableBatteryCharging
 194              		.syntax unified
 195              		.thumb
 196              		.thumb_func
 198              	HAL_PWREx_EnableBatteryCharging:
 199              	.LFB134:
 271:Drivers/STM32L4xx_HAL_Driver/Src/stm32l4xx_hal_pwr_ex.c **** 
 272:Drivers/STM32L4xx_HAL_Driver/Src/stm32l4xx_hal_pwr_ex.c **** 
 273:Drivers/STM32L4xx_HAL_Driver/Src/stm32l4xx_hal_pwr_ex.c **** /**
 274:Drivers/STM32L4xx_HAL_Driver/Src/stm32l4xx_hal_pwr_ex.c ****   * @brief Enable battery charging.
 275:Drivers/STM32L4xx_HAL_Driver/Src/stm32l4xx_hal_pwr_ex.c ****   *        When VDD is present, charge the external battery on VBAT thru an internal resistor.
 276:Drivers/STM32L4xx_HAL_Driver/Src/stm32l4xx_hal_pwr_ex.c ****   * @param  ResistorSelection specifies the resistor impedance.
 277:Drivers/STM32L4xx_HAL_Driver/Src/stm32l4xx_hal_pwr_ex.c ****   *          This parameter can be one of the following values:
 278:Drivers/STM32L4xx_HAL_Driver/Src/stm32l4xx_hal_pwr_ex.c ****   *            @arg @ref PWR_BATTERY_CHARGING_RESISTOR_5     5 kOhms resistor
 279:Drivers/STM32L4xx_HAL_Driver/Src/stm32l4xx_hal_pwr_ex.c ****   *            @arg @ref PWR_BATTERY_CHARGING_RESISTOR_1_5 1.5 kOhms resistor
 280:Drivers/STM32L4xx_HAL_Driver/Src/stm32l4xx_hal_pwr_ex.c ****   * @retval None
 281:Drivers/STM32L4xx_HAL_Driver/Src/stm32l4xx_hal_pwr_ex.c ****   */
 282:Drivers/STM32L4xx_HAL_Driver/Src/stm32l4xx_hal_pwr_ex.c **** void HAL_PWREx_EnableBatteryCharging(uint32_t ResistorSelection)
 283:Drivers/STM32L4xx_HAL_Driver/Src/stm32l4xx_hal_pwr_ex.c **** {
 200              		.loc 1 283 1
 201              		.cfi_startproc
 202              		@ args = 0, pretend = 0, frame = 8
 203              		@ frame_needed = 1, uses_anonymous_args = 0
 204              		@ link register save eliminated.
 205 0000 80B4     		push	{r7}
 206              	.LCFI10:
 207              		.cfi_def_cfa_offset 4
 208              		.cfi_offset 7, -4
 209 0002 83B0     		sub	sp, sp, #12
 210              	.LCFI11:
 211              		.cfi_def_cfa_offset 16
 212 0004 00AF     		add	r7, sp, #0
 213              	.LCFI12:
 214              		.cfi_def_cfa_register 7
 215 0006 7860     		str	r0, [r7, #4]
 284:Drivers/STM32L4xx_HAL_Driver/Src/stm32l4xx_hal_pwr_ex.c ****   assert_param(IS_PWR_BATTERY_RESISTOR_SELECT(ResistorSelection));
 285:Drivers/STM32L4xx_HAL_Driver/Src/stm32l4xx_hal_pwr_ex.c **** 
 286:Drivers/STM32L4xx_HAL_Driver/Src/stm32l4xx_hal_pwr_ex.c ****   /* Specify resistor selection */
 287:Drivers/STM32L4xx_HAL_Driver/Src/stm32l4xx_hal_pwr_ex.c ****   MODIFY_REG(PWR->CR4, PWR_CR4_VBRS, ResistorSelection);
 216              		.loc 1 287 3
 217 0008 094B     		ldr	r3, .L15
 218 000a DB68     		ldr	r3, [r3, #12]
 219 000c 23F40072 		bic	r2, r3, #512
 220 0010 0749     		ldr	r1, .L15
 221 0012 7B68     		ldr	r3, [r7, #4]
 222 0014 1343     		orrs	r3, r3, r2
 223 0016 CB60     		str	r3, [r1, #12]
 288:Drivers/STM32L4xx_HAL_Driver/Src/stm32l4xx_hal_pwr_ex.c **** 
 289:Drivers/STM32L4xx_HAL_Driver/Src/stm32l4xx_hal_pwr_ex.c ****   /* Enable battery charging */
 290:Drivers/STM32L4xx_HAL_Driver/Src/stm32l4xx_hal_pwr_ex.c ****   SET_BIT(PWR->CR4, PWR_CR4_VBE);
 224              		.loc 1 290 3
 225 0018 054B     		ldr	r3, .L15
ARM GAS  /tmp/ccCHRL2h.s 			page 10


 226 001a DB68     		ldr	r3, [r3, #12]
 227 001c 044A     		ldr	r2, .L15
 228 001e 43F48073 		orr	r3, r3, #256
 229 0022 D360     		str	r3, [r2, #12]
 291:Drivers/STM32L4xx_HAL_Driver/Src/stm32l4xx_hal_pwr_ex.c **** }
 230              		.loc 1 291 1
 231 0024 00BF     		nop
 232 0026 0C37     		adds	r7, r7, #12
 233              	.LCFI13:
 234              		.cfi_def_cfa_offset 4
 235 0028 BD46     		mov	sp, r7
 236              	.LCFI14:
 237              		.cfi_def_cfa_register 13
 238              		@ sp needed
 239 002a 5DF8047B 		ldr	r7, [sp], #4
 240              	.LCFI15:
 241              		.cfi_restore 7
 242              		.cfi_def_cfa_offset 0
 243 002e 7047     		bx	lr
 244              	.L16:
 245              		.align	2
 246              	.L15:
 247 0030 00700040 		.word	1073770496
 248              		.cfi_endproc
 249              	.LFE134:
 251              		.section	.text.HAL_PWREx_DisableBatteryCharging,"ax",%progbits
 252              		.align	1
 253              		.global	HAL_PWREx_DisableBatteryCharging
 254              		.syntax unified
 255              		.thumb
 256              		.thumb_func
 258              	HAL_PWREx_DisableBatteryCharging:
 259              	.LFB135:
 292:Drivers/STM32L4xx_HAL_Driver/Src/stm32l4xx_hal_pwr_ex.c **** 
 293:Drivers/STM32L4xx_HAL_Driver/Src/stm32l4xx_hal_pwr_ex.c **** 
 294:Drivers/STM32L4xx_HAL_Driver/Src/stm32l4xx_hal_pwr_ex.c **** /**
 295:Drivers/STM32L4xx_HAL_Driver/Src/stm32l4xx_hal_pwr_ex.c ****   * @brief Disable battery charging.
 296:Drivers/STM32L4xx_HAL_Driver/Src/stm32l4xx_hal_pwr_ex.c ****   * @retval None
 297:Drivers/STM32L4xx_HAL_Driver/Src/stm32l4xx_hal_pwr_ex.c ****   */
 298:Drivers/STM32L4xx_HAL_Driver/Src/stm32l4xx_hal_pwr_ex.c **** void HAL_PWREx_DisableBatteryCharging(void)
 299:Drivers/STM32L4xx_HAL_Driver/Src/stm32l4xx_hal_pwr_ex.c **** {
 260              		.loc 1 299 1
 261              		.cfi_startproc
 262              		@ args = 0, pretend = 0, frame = 0
 263              		@ frame_needed = 1, uses_anonymous_args = 0
 264              		@ link register save eliminated.
 265 0000 80B4     		push	{r7}
 266              	.LCFI16:
 267              		.cfi_def_cfa_offset 4
 268              		.cfi_offset 7, -4
 269 0002 00AF     		add	r7, sp, #0
 270              	.LCFI17:
 271              		.cfi_def_cfa_register 7
 300:Drivers/STM32L4xx_HAL_Driver/Src/stm32l4xx_hal_pwr_ex.c ****   CLEAR_BIT(PWR->CR4, PWR_CR4_VBE);
 272              		.loc 1 300 3
 273 0004 054B     		ldr	r3, .L18
 274 0006 DB68     		ldr	r3, [r3, #12]
ARM GAS  /tmp/ccCHRL2h.s 			page 11


 275 0008 044A     		ldr	r2, .L18
 276 000a 23F48073 		bic	r3, r3, #256
 277 000e D360     		str	r3, [r2, #12]
 301:Drivers/STM32L4xx_HAL_Driver/Src/stm32l4xx_hal_pwr_ex.c **** }
 278              		.loc 1 301 1
 279 0010 00BF     		nop
 280 0012 BD46     		mov	sp, r7
 281              	.LCFI18:
 282              		.cfi_def_cfa_register 13
 283              		@ sp needed
 284 0014 5DF8047B 		ldr	r7, [sp], #4
 285              	.LCFI19:
 286              		.cfi_restore 7
 287              		.cfi_def_cfa_offset 0
 288 0018 7047     		bx	lr
 289              	.L19:
 290 001a 00BF     		.align	2
 291              	.L18:
 292 001c 00700040 		.word	1073770496
 293              		.cfi_endproc
 294              	.LFE135:
 296              		.section	.text.HAL_PWREx_EnableVddUSB,"ax",%progbits
 297              		.align	1
 298              		.global	HAL_PWREx_EnableVddUSB
 299              		.syntax unified
 300              		.thumb
 301              		.thumb_func
 303              	HAL_PWREx_EnableVddUSB:
 304              	.LFB136:
 302:Drivers/STM32L4xx_HAL_Driver/Src/stm32l4xx_hal_pwr_ex.c **** 
 303:Drivers/STM32L4xx_HAL_Driver/Src/stm32l4xx_hal_pwr_ex.c **** 
 304:Drivers/STM32L4xx_HAL_Driver/Src/stm32l4xx_hal_pwr_ex.c **** #if defined(PWR_CR2_USV)
 305:Drivers/STM32L4xx_HAL_Driver/Src/stm32l4xx_hal_pwr_ex.c **** /**
 306:Drivers/STM32L4xx_HAL_Driver/Src/stm32l4xx_hal_pwr_ex.c ****   * @brief Enable VDDUSB supply.
 307:Drivers/STM32L4xx_HAL_Driver/Src/stm32l4xx_hal_pwr_ex.c ****   * @note  Remove VDDUSB electrical and logical isolation, once VDDUSB supply is present.
 308:Drivers/STM32L4xx_HAL_Driver/Src/stm32l4xx_hal_pwr_ex.c ****   * @retval None
 309:Drivers/STM32L4xx_HAL_Driver/Src/stm32l4xx_hal_pwr_ex.c ****   */
 310:Drivers/STM32L4xx_HAL_Driver/Src/stm32l4xx_hal_pwr_ex.c **** void HAL_PWREx_EnableVddUSB(void)
 311:Drivers/STM32L4xx_HAL_Driver/Src/stm32l4xx_hal_pwr_ex.c **** {
 305              		.loc 1 311 1
 306              		.cfi_startproc
 307              		@ args = 0, pretend = 0, frame = 0
 308              		@ frame_needed = 1, uses_anonymous_args = 0
 309              		@ link register save eliminated.
 310 0000 80B4     		push	{r7}
 311              	.LCFI20:
 312              		.cfi_def_cfa_offset 4
 313              		.cfi_offset 7, -4
 314 0002 00AF     		add	r7, sp, #0
 315              	.LCFI21:
 316              		.cfi_def_cfa_register 7
 312:Drivers/STM32L4xx_HAL_Driver/Src/stm32l4xx_hal_pwr_ex.c ****   SET_BIT(PWR->CR2, PWR_CR2_USV);
 317              		.loc 1 312 3
 318 0004 054B     		ldr	r3, .L21
 319 0006 5B68     		ldr	r3, [r3, #4]
 320 0008 044A     		ldr	r2, .L21
 321 000a 43F48063 		orr	r3, r3, #1024
ARM GAS  /tmp/ccCHRL2h.s 			page 12


 322 000e 5360     		str	r3, [r2, #4]
 313:Drivers/STM32L4xx_HAL_Driver/Src/stm32l4xx_hal_pwr_ex.c **** }
 323              		.loc 1 313 1
 324 0010 00BF     		nop
 325 0012 BD46     		mov	sp, r7
 326              	.LCFI22:
 327              		.cfi_def_cfa_register 13
 328              		@ sp needed
 329 0014 5DF8047B 		ldr	r7, [sp], #4
 330              	.LCFI23:
 331              		.cfi_restore 7
 332              		.cfi_def_cfa_offset 0
 333 0018 7047     		bx	lr
 334              	.L22:
 335 001a 00BF     		.align	2
 336              	.L21:
 337 001c 00700040 		.word	1073770496
 338              		.cfi_endproc
 339              	.LFE136:
 341              		.section	.text.HAL_PWREx_DisableVddUSB,"ax",%progbits
 342              		.align	1
 343              		.global	HAL_PWREx_DisableVddUSB
 344              		.syntax unified
 345              		.thumb
 346              		.thumb_func
 348              	HAL_PWREx_DisableVddUSB:
 349              	.LFB137:
 314:Drivers/STM32L4xx_HAL_Driver/Src/stm32l4xx_hal_pwr_ex.c **** 
 315:Drivers/STM32L4xx_HAL_Driver/Src/stm32l4xx_hal_pwr_ex.c **** 
 316:Drivers/STM32L4xx_HAL_Driver/Src/stm32l4xx_hal_pwr_ex.c **** /**
 317:Drivers/STM32L4xx_HAL_Driver/Src/stm32l4xx_hal_pwr_ex.c ****   * @brief Disable VDDUSB supply.
 318:Drivers/STM32L4xx_HAL_Driver/Src/stm32l4xx_hal_pwr_ex.c ****   * @retval None
 319:Drivers/STM32L4xx_HAL_Driver/Src/stm32l4xx_hal_pwr_ex.c ****   */
 320:Drivers/STM32L4xx_HAL_Driver/Src/stm32l4xx_hal_pwr_ex.c **** void HAL_PWREx_DisableVddUSB(void)
 321:Drivers/STM32L4xx_HAL_Driver/Src/stm32l4xx_hal_pwr_ex.c **** {
 350              		.loc 1 321 1
 351              		.cfi_startproc
 352              		@ args = 0, pretend = 0, frame = 0
 353              		@ frame_needed = 1, uses_anonymous_args = 0
 354              		@ link register save eliminated.
 355 0000 80B4     		push	{r7}
 356              	.LCFI24:
 357              		.cfi_def_cfa_offset 4
 358              		.cfi_offset 7, -4
 359 0002 00AF     		add	r7, sp, #0
 360              	.LCFI25:
 361              		.cfi_def_cfa_register 7
 322:Drivers/STM32L4xx_HAL_Driver/Src/stm32l4xx_hal_pwr_ex.c ****   CLEAR_BIT(PWR->CR2, PWR_CR2_USV);
 362              		.loc 1 322 3
 363 0004 054B     		ldr	r3, .L24
 364 0006 5B68     		ldr	r3, [r3, #4]
 365 0008 044A     		ldr	r2, .L24
 366 000a 23F48063 		bic	r3, r3, #1024
 367 000e 5360     		str	r3, [r2, #4]
 323:Drivers/STM32L4xx_HAL_Driver/Src/stm32l4xx_hal_pwr_ex.c **** }
 368              		.loc 1 323 1
 369 0010 00BF     		nop
ARM GAS  /tmp/ccCHRL2h.s 			page 13


 370 0012 BD46     		mov	sp, r7
 371              	.LCFI26:
 372              		.cfi_def_cfa_register 13
 373              		@ sp needed
 374 0014 5DF8047B 		ldr	r7, [sp], #4
 375              	.LCFI27:
 376              		.cfi_restore 7
 377              		.cfi_def_cfa_offset 0
 378 0018 7047     		bx	lr
 379              	.L25:
 380 001a 00BF     		.align	2
 381              	.L24:
 382 001c 00700040 		.word	1073770496
 383              		.cfi_endproc
 384              	.LFE137:
 386              		.section	.text.HAL_PWREx_EnableInternalWakeUpLine,"ax",%progbits
 387              		.align	1
 388              		.global	HAL_PWREx_EnableInternalWakeUpLine
 389              		.syntax unified
 390              		.thumb
 391              		.thumb_func
 393              	HAL_PWREx_EnableInternalWakeUpLine:
 394              	.LFB138:
 324:Drivers/STM32L4xx_HAL_Driver/Src/stm32l4xx_hal_pwr_ex.c **** #endif /* PWR_CR2_USV */
 325:Drivers/STM32L4xx_HAL_Driver/Src/stm32l4xx_hal_pwr_ex.c **** 
 326:Drivers/STM32L4xx_HAL_Driver/Src/stm32l4xx_hal_pwr_ex.c **** #if defined(PWR_CR2_IOSV)
 327:Drivers/STM32L4xx_HAL_Driver/Src/stm32l4xx_hal_pwr_ex.c **** /**
 328:Drivers/STM32L4xx_HAL_Driver/Src/stm32l4xx_hal_pwr_ex.c ****   * @brief Enable VDDIO2 supply.
 329:Drivers/STM32L4xx_HAL_Driver/Src/stm32l4xx_hal_pwr_ex.c ****   * @note  Remove VDDIO2 electrical and logical isolation, once VDDIO2 supply is present.
 330:Drivers/STM32L4xx_HAL_Driver/Src/stm32l4xx_hal_pwr_ex.c ****   * @retval None
 331:Drivers/STM32L4xx_HAL_Driver/Src/stm32l4xx_hal_pwr_ex.c ****   */
 332:Drivers/STM32L4xx_HAL_Driver/Src/stm32l4xx_hal_pwr_ex.c **** void HAL_PWREx_EnableVddIO2(void)
 333:Drivers/STM32L4xx_HAL_Driver/Src/stm32l4xx_hal_pwr_ex.c **** {
 334:Drivers/STM32L4xx_HAL_Driver/Src/stm32l4xx_hal_pwr_ex.c ****   SET_BIT(PWR->CR2, PWR_CR2_IOSV);
 335:Drivers/STM32L4xx_HAL_Driver/Src/stm32l4xx_hal_pwr_ex.c **** }
 336:Drivers/STM32L4xx_HAL_Driver/Src/stm32l4xx_hal_pwr_ex.c **** 
 337:Drivers/STM32L4xx_HAL_Driver/Src/stm32l4xx_hal_pwr_ex.c **** 
 338:Drivers/STM32L4xx_HAL_Driver/Src/stm32l4xx_hal_pwr_ex.c **** /**
 339:Drivers/STM32L4xx_HAL_Driver/Src/stm32l4xx_hal_pwr_ex.c ****   * @brief Disable VDDIO2 supply.
 340:Drivers/STM32L4xx_HAL_Driver/Src/stm32l4xx_hal_pwr_ex.c ****   * @retval None
 341:Drivers/STM32L4xx_HAL_Driver/Src/stm32l4xx_hal_pwr_ex.c ****   */
 342:Drivers/STM32L4xx_HAL_Driver/Src/stm32l4xx_hal_pwr_ex.c **** void HAL_PWREx_DisableVddIO2(void)
 343:Drivers/STM32L4xx_HAL_Driver/Src/stm32l4xx_hal_pwr_ex.c **** {
 344:Drivers/STM32L4xx_HAL_Driver/Src/stm32l4xx_hal_pwr_ex.c ****   CLEAR_BIT(PWR->CR2, PWR_CR2_IOSV);
 345:Drivers/STM32L4xx_HAL_Driver/Src/stm32l4xx_hal_pwr_ex.c **** }
 346:Drivers/STM32L4xx_HAL_Driver/Src/stm32l4xx_hal_pwr_ex.c **** #endif /* PWR_CR2_IOSV */
 347:Drivers/STM32L4xx_HAL_Driver/Src/stm32l4xx_hal_pwr_ex.c **** 
 348:Drivers/STM32L4xx_HAL_Driver/Src/stm32l4xx_hal_pwr_ex.c **** 
 349:Drivers/STM32L4xx_HAL_Driver/Src/stm32l4xx_hal_pwr_ex.c **** /**
 350:Drivers/STM32L4xx_HAL_Driver/Src/stm32l4xx_hal_pwr_ex.c ****   * @brief Enable Internal Wake-up Line.
 351:Drivers/STM32L4xx_HAL_Driver/Src/stm32l4xx_hal_pwr_ex.c ****   * @retval None
 352:Drivers/STM32L4xx_HAL_Driver/Src/stm32l4xx_hal_pwr_ex.c ****   */
 353:Drivers/STM32L4xx_HAL_Driver/Src/stm32l4xx_hal_pwr_ex.c **** void HAL_PWREx_EnableInternalWakeUpLine(void)
 354:Drivers/STM32L4xx_HAL_Driver/Src/stm32l4xx_hal_pwr_ex.c **** {
 395              		.loc 1 354 1
 396              		.cfi_startproc
 397              		@ args = 0, pretend = 0, frame = 0
ARM GAS  /tmp/ccCHRL2h.s 			page 14


 398              		@ frame_needed = 1, uses_anonymous_args = 0
 399              		@ link register save eliminated.
 400 0000 80B4     		push	{r7}
 401              	.LCFI28:
 402              		.cfi_def_cfa_offset 4
 403              		.cfi_offset 7, -4
 404 0002 00AF     		add	r7, sp, #0
 405              	.LCFI29:
 406              		.cfi_def_cfa_register 7
 355:Drivers/STM32L4xx_HAL_Driver/Src/stm32l4xx_hal_pwr_ex.c ****   SET_BIT(PWR->CR3, PWR_CR3_EIWF);
 407              		.loc 1 355 3
 408 0004 054B     		ldr	r3, .L27
 409 0006 9B68     		ldr	r3, [r3, #8]
 410 0008 044A     		ldr	r2, .L27
 411 000a 43F40043 		orr	r3, r3, #32768
 412 000e 9360     		str	r3, [r2, #8]
 356:Drivers/STM32L4xx_HAL_Driver/Src/stm32l4xx_hal_pwr_ex.c **** }
 413              		.loc 1 356 1
 414 0010 00BF     		nop
 415 0012 BD46     		mov	sp, r7
 416              	.LCFI30:
 417              		.cfi_def_cfa_register 13
 418              		@ sp needed
 419 0014 5DF8047B 		ldr	r7, [sp], #4
 420              	.LCFI31:
 421              		.cfi_restore 7
 422              		.cfi_def_cfa_offset 0
 423 0018 7047     		bx	lr
 424              	.L28:
 425 001a 00BF     		.align	2
 426              	.L27:
 427 001c 00700040 		.word	1073770496
 428              		.cfi_endproc
 429              	.LFE138:
 431              		.section	.text.HAL_PWREx_DisableInternalWakeUpLine,"ax",%progbits
 432              		.align	1
 433              		.global	HAL_PWREx_DisableInternalWakeUpLine
 434              		.syntax unified
 435              		.thumb
 436              		.thumb_func
 438              	HAL_PWREx_DisableInternalWakeUpLine:
 439              	.LFB139:
 357:Drivers/STM32L4xx_HAL_Driver/Src/stm32l4xx_hal_pwr_ex.c **** 
 358:Drivers/STM32L4xx_HAL_Driver/Src/stm32l4xx_hal_pwr_ex.c **** 
 359:Drivers/STM32L4xx_HAL_Driver/Src/stm32l4xx_hal_pwr_ex.c **** /**
 360:Drivers/STM32L4xx_HAL_Driver/Src/stm32l4xx_hal_pwr_ex.c ****   * @brief Disable Internal Wake-up Line.
 361:Drivers/STM32L4xx_HAL_Driver/Src/stm32l4xx_hal_pwr_ex.c ****   * @retval None
 362:Drivers/STM32L4xx_HAL_Driver/Src/stm32l4xx_hal_pwr_ex.c ****   */
 363:Drivers/STM32L4xx_HAL_Driver/Src/stm32l4xx_hal_pwr_ex.c **** void HAL_PWREx_DisableInternalWakeUpLine(void)
 364:Drivers/STM32L4xx_HAL_Driver/Src/stm32l4xx_hal_pwr_ex.c **** {
 440              		.loc 1 364 1
 441              		.cfi_startproc
 442              		@ args = 0, pretend = 0, frame = 0
 443              		@ frame_needed = 1, uses_anonymous_args = 0
 444              		@ link register save eliminated.
 445 0000 80B4     		push	{r7}
 446              	.LCFI32:
ARM GAS  /tmp/ccCHRL2h.s 			page 15


 447              		.cfi_def_cfa_offset 4
 448              		.cfi_offset 7, -4
 449 0002 00AF     		add	r7, sp, #0
 450              	.LCFI33:
 451              		.cfi_def_cfa_register 7
 365:Drivers/STM32L4xx_HAL_Driver/Src/stm32l4xx_hal_pwr_ex.c ****   CLEAR_BIT(PWR->CR3, PWR_CR3_EIWF);
 452              		.loc 1 365 3
 453 0004 054B     		ldr	r3, .L30
 454 0006 9B68     		ldr	r3, [r3, #8]
 455 0008 044A     		ldr	r2, .L30
 456 000a 23F40043 		bic	r3, r3, #32768
 457 000e 9360     		str	r3, [r2, #8]
 366:Drivers/STM32L4xx_HAL_Driver/Src/stm32l4xx_hal_pwr_ex.c **** }
 458              		.loc 1 366 1
 459 0010 00BF     		nop
 460 0012 BD46     		mov	sp, r7
 461              	.LCFI34:
 462              		.cfi_def_cfa_register 13
 463              		@ sp needed
 464 0014 5DF8047B 		ldr	r7, [sp], #4
 465              	.LCFI35:
 466              		.cfi_restore 7
 467              		.cfi_def_cfa_offset 0
 468 0018 7047     		bx	lr
 469              	.L31:
 470 001a 00BF     		.align	2
 471              	.L30:
 472 001c 00700040 		.word	1073770496
 473              		.cfi_endproc
 474              	.LFE139:
 476              		.section	.text.HAL_PWREx_EnableGPIOPullUp,"ax",%progbits
 477              		.align	1
 478              		.global	HAL_PWREx_EnableGPIOPullUp
 479              		.syntax unified
 480              		.thumb
 481              		.thumb_func
 483              	HAL_PWREx_EnableGPIOPullUp:
 484              	.LFB140:
 367:Drivers/STM32L4xx_HAL_Driver/Src/stm32l4xx_hal_pwr_ex.c **** 
 368:Drivers/STM32L4xx_HAL_Driver/Src/stm32l4xx_hal_pwr_ex.c **** 
 369:Drivers/STM32L4xx_HAL_Driver/Src/stm32l4xx_hal_pwr_ex.c **** 
 370:Drivers/STM32L4xx_HAL_Driver/Src/stm32l4xx_hal_pwr_ex.c **** /**
 371:Drivers/STM32L4xx_HAL_Driver/Src/stm32l4xx_hal_pwr_ex.c ****   * @brief Enable GPIO pull-up state in Standby and Shutdown modes.
 372:Drivers/STM32L4xx_HAL_Driver/Src/stm32l4xx_hal_pwr_ex.c ****   * @note  Set the relevant PUy bits of PWR_PUCRx register to configure the I/O in
 373:Drivers/STM32L4xx_HAL_Driver/Src/stm32l4xx_hal_pwr_ex.c ****   *        pull-up state in Standby and Shutdown modes.
 374:Drivers/STM32L4xx_HAL_Driver/Src/stm32l4xx_hal_pwr_ex.c ****   * @note  This state is effective in Standby and Shutdown modes only if APC bit
 375:Drivers/STM32L4xx_HAL_Driver/Src/stm32l4xx_hal_pwr_ex.c ****   *        is set through HAL_PWREx_EnablePullUpPullDownConfig() API.
 376:Drivers/STM32L4xx_HAL_Driver/Src/stm32l4xx_hal_pwr_ex.c ****   * @note  The configuration is lost when exiting the Shutdown mode due to the
 377:Drivers/STM32L4xx_HAL_Driver/Src/stm32l4xx_hal_pwr_ex.c ****   *        power-on reset, maintained when exiting the Standby mode.
 378:Drivers/STM32L4xx_HAL_Driver/Src/stm32l4xx_hal_pwr_ex.c ****   * @note  To avoid any conflict at Standby and Shutdown modes exits, the corresponding
 379:Drivers/STM32L4xx_HAL_Driver/Src/stm32l4xx_hal_pwr_ex.c ****   *        PDy bit of PWR_PDCRx register is cleared unless it is reserved.
 380:Drivers/STM32L4xx_HAL_Driver/Src/stm32l4xx_hal_pwr_ex.c ****   * @note  Even if a PUy bit to set is reserved, the other PUy bits entered as input
 381:Drivers/STM32L4xx_HAL_Driver/Src/stm32l4xx_hal_pwr_ex.c ****   *        parameter at the same time are set.
 382:Drivers/STM32L4xx_HAL_Driver/Src/stm32l4xx_hal_pwr_ex.c ****   * @param  GPIO Specify the IO port. This parameter can be PWR_GPIO_A, ..., PWR_GPIO_H
 383:Drivers/STM32L4xx_HAL_Driver/Src/stm32l4xx_hal_pwr_ex.c ****   *         (or PWR_GPIO_I depending on the devices) to select the GPIO peripheral.
 384:Drivers/STM32L4xx_HAL_Driver/Src/stm32l4xx_hal_pwr_ex.c ****   * @param  GPIONumber Specify the I/O pins numbers.
 385:Drivers/STM32L4xx_HAL_Driver/Src/stm32l4xx_hal_pwr_ex.c ****   *         This parameter can be one of the following values:
ARM GAS  /tmp/ccCHRL2h.s 			page 16


 386:Drivers/STM32L4xx_HAL_Driver/Src/stm32l4xx_hal_pwr_ex.c ****   *         PWR_GPIO_BIT_0, ..., PWR_GPIO_BIT_15 (except for the port where less
 387:Drivers/STM32L4xx_HAL_Driver/Src/stm32l4xx_hal_pwr_ex.c ****   *         I/O pins are available) or the logical OR of several of them to set
 388:Drivers/STM32L4xx_HAL_Driver/Src/stm32l4xx_hal_pwr_ex.c ****   *         several bits for a given port in a single API call.
 389:Drivers/STM32L4xx_HAL_Driver/Src/stm32l4xx_hal_pwr_ex.c ****   * @retval HAL Status
 390:Drivers/STM32L4xx_HAL_Driver/Src/stm32l4xx_hal_pwr_ex.c ****   */
 391:Drivers/STM32L4xx_HAL_Driver/Src/stm32l4xx_hal_pwr_ex.c **** HAL_StatusTypeDef HAL_PWREx_EnableGPIOPullUp(uint32_t GPIO, uint32_t GPIONumber)
 392:Drivers/STM32L4xx_HAL_Driver/Src/stm32l4xx_hal_pwr_ex.c **** {
 485              		.loc 1 392 1
 486              		.cfi_startproc
 487              		@ args = 0, pretend = 0, frame = 16
 488              		@ frame_needed = 1, uses_anonymous_args = 0
 489              		@ link register save eliminated.
 490 0000 80B4     		push	{r7}
 491              	.LCFI36:
 492              		.cfi_def_cfa_offset 4
 493              		.cfi_offset 7, -4
 494 0002 85B0     		sub	sp, sp, #20
 495              	.LCFI37:
 496              		.cfi_def_cfa_offset 24
 497 0004 00AF     		add	r7, sp, #0
 498              	.LCFI38:
 499              		.cfi_def_cfa_register 7
 500 0006 7860     		str	r0, [r7, #4]
 501 0008 3960     		str	r1, [r7]
 393:Drivers/STM32L4xx_HAL_Driver/Src/stm32l4xx_hal_pwr_ex.c ****   HAL_StatusTypeDef status = HAL_OK;
 502              		.loc 1 393 21
 503 000a 0023     		movs	r3, #0
 504 000c FB73     		strb	r3, [r7, #15]
 394:Drivers/STM32L4xx_HAL_Driver/Src/stm32l4xx_hal_pwr_ex.c **** 
 395:Drivers/STM32L4xx_HAL_Driver/Src/stm32l4xx_hal_pwr_ex.c ****   assert_param(IS_PWR_GPIO(GPIO));
 396:Drivers/STM32L4xx_HAL_Driver/Src/stm32l4xx_hal_pwr_ex.c ****   assert_param(IS_PWR_GPIO_BIT_NUMBER(GPIONumber));
 397:Drivers/STM32L4xx_HAL_Driver/Src/stm32l4xx_hal_pwr_ex.c **** 
 398:Drivers/STM32L4xx_HAL_Driver/Src/stm32l4xx_hal_pwr_ex.c ****   switch (GPIO)
 505              		.loc 1 398 3
 506 000e 7B68     		ldr	r3, [r7, #4]
 507 0010 072B     		cmp	r3, #7
 508 0012 55D8     		bhi	.L33
 509 0014 01A2     		adr	r2, .L35
 510 0016 52F823F0 		ldr	pc, [r2, r3, lsl #2]
 511 001a 00BF     		.p2align 2
 512              	.L35:
 513 001c 3D000000 		.word	.L38+1
 514 0020 61000000 		.word	.L37+1
 515 0024 81000000 		.word	.L36+1
 516 0028 C1000000 		.word	.L33+1
 517 002c C1000000 		.word	.L33+1
 518 0030 C1000000 		.word	.L33+1
 519 0034 C1000000 		.word	.L33+1
 520 0038 9D000000 		.word	.L34+1
 521              		.p2align 1
 522              	.L38:
 399:Drivers/STM32L4xx_HAL_Driver/Src/stm32l4xx_hal_pwr_ex.c ****   {
 400:Drivers/STM32L4xx_HAL_Driver/Src/stm32l4xx_hal_pwr_ex.c ****     case PWR_GPIO_A:
 401:Drivers/STM32L4xx_HAL_Driver/Src/stm32l4xx_hal_pwr_ex.c ****        SET_BIT(PWR->PUCRA, (GPIONumber & (~(PWR_GPIO_BIT_14))));
 523              		.loc 1 401 8
 524 003c 254B     		ldr	r3, .L41
 525 003e 1A6A     		ldr	r2, [r3, #32]
ARM GAS  /tmp/ccCHRL2h.s 			page 17


 526 0040 3B68     		ldr	r3, [r7]
 527 0042 23F48043 		bic	r3, r3, #16384
 528 0046 2349     		ldr	r1, .L41
 529 0048 1343     		orrs	r3, r3, r2
 530 004a 0B62     		str	r3, [r1, #32]
 402:Drivers/STM32L4xx_HAL_Driver/Src/stm32l4xx_hal_pwr_ex.c ****        CLEAR_BIT(PWR->PDCRA, (GPIONumber & (~(PWR_GPIO_BIT_13|PWR_GPIO_BIT_15))));
 531              		.loc 1 402 8
 532 004c 214B     		ldr	r3, .L41
 533 004e 5A6A     		ldr	r2, [r3, #36]
 534 0050 3B68     		ldr	r3, [r7]
 535 0052 23F42043 		bic	r3, r3, #40960
 536 0056 DB43     		mvns	r3, r3
 537 0058 1E49     		ldr	r1, .L41
 538 005a 1340     		ands	r3, r3, r2
 539 005c 4B62     		str	r3, [r1, #36]
 403:Drivers/STM32L4xx_HAL_Driver/Src/stm32l4xx_hal_pwr_ex.c ****        break;
 540              		.loc 1 403 8
 541 005e 32E0     		b	.L39
 542              	.L37:
 404:Drivers/STM32L4xx_HAL_Driver/Src/stm32l4xx_hal_pwr_ex.c ****     case PWR_GPIO_B:
 405:Drivers/STM32L4xx_HAL_Driver/Src/stm32l4xx_hal_pwr_ex.c ****        SET_BIT(PWR->PUCRB, GPIONumber);
 543              		.loc 1 405 8
 544 0060 1C4B     		ldr	r3, .L41
 545 0062 9A6A     		ldr	r2, [r3, #40]
 546 0064 1B49     		ldr	r1, .L41
 547 0066 3B68     		ldr	r3, [r7]
 548 0068 1343     		orrs	r3, r3, r2
 549 006a 8B62     		str	r3, [r1, #40]
 406:Drivers/STM32L4xx_HAL_Driver/Src/stm32l4xx_hal_pwr_ex.c ****        CLEAR_BIT(PWR->PDCRB, (GPIONumber & (~(PWR_GPIO_BIT_4))));
 550              		.loc 1 406 8
 551 006c 194B     		ldr	r3, .L41
 552 006e DA6A     		ldr	r2, [r3, #44]
 553 0070 3B68     		ldr	r3, [r7]
 554 0072 23F01003 		bic	r3, r3, #16
 555 0076 DB43     		mvns	r3, r3
 556 0078 1649     		ldr	r1, .L41
 557 007a 1340     		ands	r3, r3, r2
 558 007c CB62     		str	r3, [r1, #44]
 407:Drivers/STM32L4xx_HAL_Driver/Src/stm32l4xx_hal_pwr_ex.c ****        break;
 559              		.loc 1 407 8
 560 007e 22E0     		b	.L39
 561              	.L36:
 408:Drivers/STM32L4xx_HAL_Driver/Src/stm32l4xx_hal_pwr_ex.c ****     case PWR_GPIO_C:
 409:Drivers/STM32L4xx_HAL_Driver/Src/stm32l4xx_hal_pwr_ex.c ****        SET_BIT(PWR->PUCRC, GPIONumber);
 562              		.loc 1 409 8
 563 0080 144B     		ldr	r3, .L41
 564 0082 1A6B     		ldr	r2, [r3, #48]
 565 0084 1349     		ldr	r1, .L41
 566 0086 3B68     		ldr	r3, [r7]
 567 0088 1343     		orrs	r3, r3, r2
 568 008a 0B63     		str	r3, [r1, #48]
 410:Drivers/STM32L4xx_HAL_Driver/Src/stm32l4xx_hal_pwr_ex.c ****        CLEAR_BIT(PWR->PDCRC, GPIONumber);
 569              		.loc 1 410 8
 570 008c 114B     		ldr	r3, .L41
 571 008e 5A6B     		ldr	r2, [r3, #52]
 572 0090 3B68     		ldr	r3, [r7]
 573 0092 DB43     		mvns	r3, r3
ARM GAS  /tmp/ccCHRL2h.s 			page 18


 574 0094 0F49     		ldr	r1, .L41
 575 0096 1340     		ands	r3, r3, r2
 576 0098 4B63     		str	r3, [r1, #52]
 411:Drivers/STM32L4xx_HAL_Driver/Src/stm32l4xx_hal_pwr_ex.c ****        break;
 577              		.loc 1 411 8
 578 009a 14E0     		b	.L39
 579              	.L34:
 412:Drivers/STM32L4xx_HAL_Driver/Src/stm32l4xx_hal_pwr_ex.c **** #if defined(GPIOD)
 413:Drivers/STM32L4xx_HAL_Driver/Src/stm32l4xx_hal_pwr_ex.c ****     case PWR_GPIO_D:
 414:Drivers/STM32L4xx_HAL_Driver/Src/stm32l4xx_hal_pwr_ex.c ****        SET_BIT(PWR->PUCRD, GPIONumber);
 415:Drivers/STM32L4xx_HAL_Driver/Src/stm32l4xx_hal_pwr_ex.c ****        CLEAR_BIT(PWR->PDCRD, GPIONumber);
 416:Drivers/STM32L4xx_HAL_Driver/Src/stm32l4xx_hal_pwr_ex.c ****        break;
 417:Drivers/STM32L4xx_HAL_Driver/Src/stm32l4xx_hal_pwr_ex.c **** #endif
 418:Drivers/STM32L4xx_HAL_Driver/Src/stm32l4xx_hal_pwr_ex.c **** #if defined(GPIOE)
 419:Drivers/STM32L4xx_HAL_Driver/Src/stm32l4xx_hal_pwr_ex.c ****     case PWR_GPIO_E:
 420:Drivers/STM32L4xx_HAL_Driver/Src/stm32l4xx_hal_pwr_ex.c ****        SET_BIT(PWR->PUCRE, GPIONumber);
 421:Drivers/STM32L4xx_HAL_Driver/Src/stm32l4xx_hal_pwr_ex.c ****        CLEAR_BIT(PWR->PDCRE, GPIONumber);
 422:Drivers/STM32L4xx_HAL_Driver/Src/stm32l4xx_hal_pwr_ex.c ****        break;
 423:Drivers/STM32L4xx_HAL_Driver/Src/stm32l4xx_hal_pwr_ex.c **** #endif
 424:Drivers/STM32L4xx_HAL_Driver/Src/stm32l4xx_hal_pwr_ex.c **** #if defined(GPIOF)
 425:Drivers/STM32L4xx_HAL_Driver/Src/stm32l4xx_hal_pwr_ex.c ****     case PWR_GPIO_F:
 426:Drivers/STM32L4xx_HAL_Driver/Src/stm32l4xx_hal_pwr_ex.c ****        SET_BIT(PWR->PUCRF, GPIONumber);
 427:Drivers/STM32L4xx_HAL_Driver/Src/stm32l4xx_hal_pwr_ex.c ****        CLEAR_BIT(PWR->PDCRF, GPIONumber);
 428:Drivers/STM32L4xx_HAL_Driver/Src/stm32l4xx_hal_pwr_ex.c ****        break;
 429:Drivers/STM32L4xx_HAL_Driver/Src/stm32l4xx_hal_pwr_ex.c **** #endif
 430:Drivers/STM32L4xx_HAL_Driver/Src/stm32l4xx_hal_pwr_ex.c **** #if defined(GPIOG)
 431:Drivers/STM32L4xx_HAL_Driver/Src/stm32l4xx_hal_pwr_ex.c ****     case PWR_GPIO_G:
 432:Drivers/STM32L4xx_HAL_Driver/Src/stm32l4xx_hal_pwr_ex.c ****        SET_BIT(PWR->PUCRG, GPIONumber);
 433:Drivers/STM32L4xx_HAL_Driver/Src/stm32l4xx_hal_pwr_ex.c ****        CLEAR_BIT(PWR->PDCRG, GPIONumber);
 434:Drivers/STM32L4xx_HAL_Driver/Src/stm32l4xx_hal_pwr_ex.c ****        break;
 435:Drivers/STM32L4xx_HAL_Driver/Src/stm32l4xx_hal_pwr_ex.c **** #endif
 436:Drivers/STM32L4xx_HAL_Driver/Src/stm32l4xx_hal_pwr_ex.c ****     case PWR_GPIO_H:
 437:Drivers/STM32L4xx_HAL_Driver/Src/stm32l4xx_hal_pwr_ex.c ****        SET_BIT(PWR->PUCRH, (GPIONumber & PWR_PORTH_AVAILABLE_PINS));
 580              		.loc 1 437 8
 581 009c 0D4B     		ldr	r3, .L41
 582 009e 9A6D     		ldr	r2, [r3, #88]
 583 00a0 3B68     		ldr	r3, [r7]
 584 00a2 03F00B03 		and	r3, r3, #11
 585 00a6 0B49     		ldr	r1, .L41
 586 00a8 1343     		orrs	r3, r3, r2
 587 00aa 8B65     		str	r3, [r1, #88]
 438:Drivers/STM32L4xx_HAL_Driver/Src/stm32l4xx_hal_pwr_ex.c **** #if defined (STM32L496xx) || defined (STM32L4A6xx)
 439:Drivers/STM32L4xx_HAL_Driver/Src/stm32l4xx_hal_pwr_ex.c ****        CLEAR_BIT(PWR->PDCRH, ((GPIONumber & PWR_PORTH_AVAILABLE_PINS) & (~(PWR_GPIO_BIT_3))));
 440:Drivers/STM32L4xx_HAL_Driver/Src/stm32l4xx_hal_pwr_ex.c **** #else
 441:Drivers/STM32L4xx_HAL_Driver/Src/stm32l4xx_hal_pwr_ex.c ****        CLEAR_BIT(PWR->PDCRH, (GPIONumber & PWR_PORTH_AVAILABLE_PINS));
 588              		.loc 1 441 8
 589 00ac 094B     		ldr	r3, .L41
 590 00ae DA6D     		ldr	r2, [r3, #92]
 591 00b0 3B68     		ldr	r3, [r7]
 592 00b2 03F00B03 		and	r3, r3, #11
 593 00b6 DB43     		mvns	r3, r3
 594 00b8 0649     		ldr	r1, .L41
 595 00ba 1340     		ands	r3, r3, r2
 596 00bc CB65     		str	r3, [r1, #92]
 442:Drivers/STM32L4xx_HAL_Driver/Src/stm32l4xx_hal_pwr_ex.c **** #endif
 443:Drivers/STM32L4xx_HAL_Driver/Src/stm32l4xx_hal_pwr_ex.c ****        break;
 597              		.loc 1 443 8
ARM GAS  /tmp/ccCHRL2h.s 			page 19


 598 00be 02E0     		b	.L39
 599              	.L33:
 444:Drivers/STM32L4xx_HAL_Driver/Src/stm32l4xx_hal_pwr_ex.c **** #if defined(GPIOI)
 445:Drivers/STM32L4xx_HAL_Driver/Src/stm32l4xx_hal_pwr_ex.c ****     case PWR_GPIO_I:
 446:Drivers/STM32L4xx_HAL_Driver/Src/stm32l4xx_hal_pwr_ex.c ****        SET_BIT(PWR->PUCRI, (GPIONumber & PWR_PORTI_AVAILABLE_PINS));
 447:Drivers/STM32L4xx_HAL_Driver/Src/stm32l4xx_hal_pwr_ex.c ****        CLEAR_BIT(PWR->PDCRI, (GPIONumber & PWR_PORTI_AVAILABLE_PINS));
 448:Drivers/STM32L4xx_HAL_Driver/Src/stm32l4xx_hal_pwr_ex.c ****        break;
 449:Drivers/STM32L4xx_HAL_Driver/Src/stm32l4xx_hal_pwr_ex.c **** #endif
 450:Drivers/STM32L4xx_HAL_Driver/Src/stm32l4xx_hal_pwr_ex.c ****     default:
 451:Drivers/STM32L4xx_HAL_Driver/Src/stm32l4xx_hal_pwr_ex.c ****       status = HAL_ERROR;
 600              		.loc 1 451 14
 601 00c0 0123     		movs	r3, #1
 602 00c2 FB73     		strb	r3, [r7, #15]
 452:Drivers/STM32L4xx_HAL_Driver/Src/stm32l4xx_hal_pwr_ex.c ****       break;
 603              		.loc 1 452 7
 604 00c4 00BF     		nop
 605              	.L39:
 453:Drivers/STM32L4xx_HAL_Driver/Src/stm32l4xx_hal_pwr_ex.c ****   }
 454:Drivers/STM32L4xx_HAL_Driver/Src/stm32l4xx_hal_pwr_ex.c **** 
 455:Drivers/STM32L4xx_HAL_Driver/Src/stm32l4xx_hal_pwr_ex.c ****   return status;
 606              		.loc 1 455 10
 607 00c6 FB7B     		ldrb	r3, [r7, #15]	@ zero_extendqisi2
 456:Drivers/STM32L4xx_HAL_Driver/Src/stm32l4xx_hal_pwr_ex.c **** }
 608              		.loc 1 456 1
 609 00c8 1846     		mov	r0, r3
 610 00ca 1437     		adds	r7, r7, #20
 611              	.LCFI39:
 612              		.cfi_def_cfa_offset 4
 613 00cc BD46     		mov	sp, r7
 614              	.LCFI40:
 615              		.cfi_def_cfa_register 13
 616              		@ sp needed
 617 00ce 5DF8047B 		ldr	r7, [sp], #4
 618              	.LCFI41:
 619              		.cfi_restore 7
 620              		.cfi_def_cfa_offset 0
 621 00d2 7047     		bx	lr
 622              	.L42:
 623              		.align	2
 624              	.L41:
 625 00d4 00700040 		.word	1073770496
 626              		.cfi_endproc
 627              	.LFE140:
 629              		.section	.text.HAL_PWREx_DisableGPIOPullUp,"ax",%progbits
 630              		.align	1
 631              		.global	HAL_PWREx_DisableGPIOPullUp
 632              		.syntax unified
 633              		.thumb
 634              		.thumb_func
 636              	HAL_PWREx_DisableGPIOPullUp:
 637              	.LFB141:
 457:Drivers/STM32L4xx_HAL_Driver/Src/stm32l4xx_hal_pwr_ex.c **** 
 458:Drivers/STM32L4xx_HAL_Driver/Src/stm32l4xx_hal_pwr_ex.c **** 
 459:Drivers/STM32L4xx_HAL_Driver/Src/stm32l4xx_hal_pwr_ex.c **** /**
 460:Drivers/STM32L4xx_HAL_Driver/Src/stm32l4xx_hal_pwr_ex.c ****   * @brief Disable GPIO pull-up state in Standby mode and Shutdown modes.
 461:Drivers/STM32L4xx_HAL_Driver/Src/stm32l4xx_hal_pwr_ex.c ****   * @note  Reset the relevant PUy bits of PWR_PUCRx register used to configure the I/O
 462:Drivers/STM32L4xx_HAL_Driver/Src/stm32l4xx_hal_pwr_ex.c ****   *        in pull-up state in Standby and Shutdown modes.
ARM GAS  /tmp/ccCHRL2h.s 			page 20


 463:Drivers/STM32L4xx_HAL_Driver/Src/stm32l4xx_hal_pwr_ex.c ****   * @note  Even if a PUy bit to reset is reserved, the other PUy bits entered as input
 464:Drivers/STM32L4xx_HAL_Driver/Src/stm32l4xx_hal_pwr_ex.c ****   *        parameter at the same time are reset.
 465:Drivers/STM32L4xx_HAL_Driver/Src/stm32l4xx_hal_pwr_ex.c ****   * @param  GPIO Specifies the IO port. This parameter can be PWR_GPIO_A, ..., PWR_GPIO_H
 466:Drivers/STM32L4xx_HAL_Driver/Src/stm32l4xx_hal_pwr_ex.c ****   *          (or PWR_GPIO_I depending on the devices) to select the GPIO peripheral.
 467:Drivers/STM32L4xx_HAL_Driver/Src/stm32l4xx_hal_pwr_ex.c ****   * @param  GPIONumber Specify the I/O pins numbers.
 468:Drivers/STM32L4xx_HAL_Driver/Src/stm32l4xx_hal_pwr_ex.c ****   *         This parameter can be one of the following values:
 469:Drivers/STM32L4xx_HAL_Driver/Src/stm32l4xx_hal_pwr_ex.c ****   *         PWR_GPIO_BIT_0, ..., PWR_GPIO_BIT_15 (except for the port where less
 470:Drivers/STM32L4xx_HAL_Driver/Src/stm32l4xx_hal_pwr_ex.c ****   *         I/O pins are available) or the logical OR of several of them to reset
 471:Drivers/STM32L4xx_HAL_Driver/Src/stm32l4xx_hal_pwr_ex.c ****   *         several bits for a given port in a single API call.
 472:Drivers/STM32L4xx_HAL_Driver/Src/stm32l4xx_hal_pwr_ex.c ****   * @retval HAL Status
 473:Drivers/STM32L4xx_HAL_Driver/Src/stm32l4xx_hal_pwr_ex.c ****   */
 474:Drivers/STM32L4xx_HAL_Driver/Src/stm32l4xx_hal_pwr_ex.c **** HAL_StatusTypeDef HAL_PWREx_DisableGPIOPullUp(uint32_t GPIO, uint32_t GPIONumber)
 475:Drivers/STM32L4xx_HAL_Driver/Src/stm32l4xx_hal_pwr_ex.c **** {
 638              		.loc 1 475 1
 639              		.cfi_startproc
 640              		@ args = 0, pretend = 0, frame = 16
 641              		@ frame_needed = 1, uses_anonymous_args = 0
 642              		@ link register save eliminated.
 643 0000 80B4     		push	{r7}
 644              	.LCFI42:
 645              		.cfi_def_cfa_offset 4
 646              		.cfi_offset 7, -4
 647 0002 85B0     		sub	sp, sp, #20
 648              	.LCFI43:
 649              		.cfi_def_cfa_offset 24
 650 0004 00AF     		add	r7, sp, #0
 651              	.LCFI44:
 652              		.cfi_def_cfa_register 7
 653 0006 7860     		str	r0, [r7, #4]
 654 0008 3960     		str	r1, [r7]
 476:Drivers/STM32L4xx_HAL_Driver/Src/stm32l4xx_hal_pwr_ex.c ****   HAL_StatusTypeDef status = HAL_OK;
 655              		.loc 1 476 21
 656 000a 0023     		movs	r3, #0
 657 000c FB73     		strb	r3, [r7, #15]
 477:Drivers/STM32L4xx_HAL_Driver/Src/stm32l4xx_hal_pwr_ex.c **** 
 478:Drivers/STM32L4xx_HAL_Driver/Src/stm32l4xx_hal_pwr_ex.c ****   assert_param(IS_PWR_GPIO(GPIO));
 479:Drivers/STM32L4xx_HAL_Driver/Src/stm32l4xx_hal_pwr_ex.c ****   assert_param(IS_PWR_GPIO_BIT_NUMBER(GPIONumber));
 480:Drivers/STM32L4xx_HAL_Driver/Src/stm32l4xx_hal_pwr_ex.c **** 
 481:Drivers/STM32L4xx_HAL_Driver/Src/stm32l4xx_hal_pwr_ex.c ****   switch (GPIO)
 658              		.loc 1 481 3
 659 000e 7B68     		ldr	r3, [r7, #4]
 660 0010 072B     		cmp	r3, #7
 661 0012 37D8     		bhi	.L44
 662 0014 01A2     		adr	r2, .L46
 663 0016 52F823F0 		ldr	pc, [r2, r3, lsl #2]
 664 001a 00BF     		.p2align 2
 665              	.L46:
 666 001c 3D000000 		.word	.L49+1
 667 0020 51000000 		.word	.L48+1
 668 0024 61000000 		.word	.L47+1
 669 0028 85000000 		.word	.L44+1
 670 002c 85000000 		.word	.L44+1
 671 0030 85000000 		.word	.L44+1
 672 0034 85000000 		.word	.L44+1
 673 0038 71000000 		.word	.L45+1
 674              		.p2align 1
 675              	.L49:
ARM GAS  /tmp/ccCHRL2h.s 			page 21


 482:Drivers/STM32L4xx_HAL_Driver/Src/stm32l4xx_hal_pwr_ex.c ****   {
 483:Drivers/STM32L4xx_HAL_Driver/Src/stm32l4xx_hal_pwr_ex.c ****     case PWR_GPIO_A:
 484:Drivers/STM32L4xx_HAL_Driver/Src/stm32l4xx_hal_pwr_ex.c ****        CLEAR_BIT(PWR->PUCRA, (GPIONumber & (~(PWR_GPIO_BIT_14))));
 676              		.loc 1 484 8
 677 003c 164B     		ldr	r3, .L52
 678 003e 1A6A     		ldr	r2, [r3, #32]
 679 0040 3B68     		ldr	r3, [r7]
 680 0042 23F48043 		bic	r3, r3, #16384
 681 0046 DB43     		mvns	r3, r3
 682 0048 1349     		ldr	r1, .L52
 683 004a 1340     		ands	r3, r3, r2
 684 004c 0B62     		str	r3, [r1, #32]
 485:Drivers/STM32L4xx_HAL_Driver/Src/stm32l4xx_hal_pwr_ex.c ****        break;
 685              		.loc 1 485 8
 686 004e 1CE0     		b	.L50
 687              	.L48:
 486:Drivers/STM32L4xx_HAL_Driver/Src/stm32l4xx_hal_pwr_ex.c ****     case PWR_GPIO_B:
 487:Drivers/STM32L4xx_HAL_Driver/Src/stm32l4xx_hal_pwr_ex.c ****        CLEAR_BIT(PWR->PUCRB, GPIONumber);
 688              		.loc 1 487 8
 689 0050 114B     		ldr	r3, .L52
 690 0052 9A6A     		ldr	r2, [r3, #40]
 691 0054 3B68     		ldr	r3, [r7]
 692 0056 DB43     		mvns	r3, r3
 693 0058 0F49     		ldr	r1, .L52
 694 005a 1340     		ands	r3, r3, r2
 695 005c 8B62     		str	r3, [r1, #40]
 488:Drivers/STM32L4xx_HAL_Driver/Src/stm32l4xx_hal_pwr_ex.c ****        break;
 696              		.loc 1 488 8
 697 005e 14E0     		b	.L50
 698              	.L47:
 489:Drivers/STM32L4xx_HAL_Driver/Src/stm32l4xx_hal_pwr_ex.c ****     case PWR_GPIO_C:
 490:Drivers/STM32L4xx_HAL_Driver/Src/stm32l4xx_hal_pwr_ex.c ****        CLEAR_BIT(PWR->PUCRC, GPIONumber);
 699              		.loc 1 490 8
 700 0060 0D4B     		ldr	r3, .L52
 701 0062 1A6B     		ldr	r2, [r3, #48]
 702 0064 3B68     		ldr	r3, [r7]
 703 0066 DB43     		mvns	r3, r3
 704 0068 0B49     		ldr	r1, .L52
 705 006a 1340     		ands	r3, r3, r2
 706 006c 0B63     		str	r3, [r1, #48]
 491:Drivers/STM32L4xx_HAL_Driver/Src/stm32l4xx_hal_pwr_ex.c ****        break;
 707              		.loc 1 491 8
 708 006e 0CE0     		b	.L50
 709              	.L45:
 492:Drivers/STM32L4xx_HAL_Driver/Src/stm32l4xx_hal_pwr_ex.c **** #if defined(GPIOD)
 493:Drivers/STM32L4xx_HAL_Driver/Src/stm32l4xx_hal_pwr_ex.c ****     case PWR_GPIO_D:
 494:Drivers/STM32L4xx_HAL_Driver/Src/stm32l4xx_hal_pwr_ex.c ****        CLEAR_BIT(PWR->PUCRD, GPIONumber);
 495:Drivers/STM32L4xx_HAL_Driver/Src/stm32l4xx_hal_pwr_ex.c ****        break;
 496:Drivers/STM32L4xx_HAL_Driver/Src/stm32l4xx_hal_pwr_ex.c **** #endif
 497:Drivers/STM32L4xx_HAL_Driver/Src/stm32l4xx_hal_pwr_ex.c **** #if defined(GPIOE)
 498:Drivers/STM32L4xx_HAL_Driver/Src/stm32l4xx_hal_pwr_ex.c ****     case PWR_GPIO_E:
 499:Drivers/STM32L4xx_HAL_Driver/Src/stm32l4xx_hal_pwr_ex.c ****        CLEAR_BIT(PWR->PUCRE, GPIONumber);
 500:Drivers/STM32L4xx_HAL_Driver/Src/stm32l4xx_hal_pwr_ex.c ****        break;
 501:Drivers/STM32L4xx_HAL_Driver/Src/stm32l4xx_hal_pwr_ex.c **** #endif
 502:Drivers/STM32L4xx_HAL_Driver/Src/stm32l4xx_hal_pwr_ex.c **** #if defined(GPIOF)
 503:Drivers/STM32L4xx_HAL_Driver/Src/stm32l4xx_hal_pwr_ex.c ****     case PWR_GPIO_F:
 504:Drivers/STM32L4xx_HAL_Driver/Src/stm32l4xx_hal_pwr_ex.c ****        CLEAR_BIT(PWR->PUCRF, GPIONumber);
ARM GAS  /tmp/ccCHRL2h.s 			page 22


 505:Drivers/STM32L4xx_HAL_Driver/Src/stm32l4xx_hal_pwr_ex.c ****        break;
 506:Drivers/STM32L4xx_HAL_Driver/Src/stm32l4xx_hal_pwr_ex.c **** #endif
 507:Drivers/STM32L4xx_HAL_Driver/Src/stm32l4xx_hal_pwr_ex.c **** #if defined(GPIOG)
 508:Drivers/STM32L4xx_HAL_Driver/Src/stm32l4xx_hal_pwr_ex.c ****     case PWR_GPIO_G:
 509:Drivers/STM32L4xx_HAL_Driver/Src/stm32l4xx_hal_pwr_ex.c ****        CLEAR_BIT(PWR->PUCRG, GPIONumber);
 510:Drivers/STM32L4xx_HAL_Driver/Src/stm32l4xx_hal_pwr_ex.c ****        break;
 511:Drivers/STM32L4xx_HAL_Driver/Src/stm32l4xx_hal_pwr_ex.c **** #endif
 512:Drivers/STM32L4xx_HAL_Driver/Src/stm32l4xx_hal_pwr_ex.c ****     case PWR_GPIO_H:
 513:Drivers/STM32L4xx_HAL_Driver/Src/stm32l4xx_hal_pwr_ex.c ****        CLEAR_BIT(PWR->PUCRH, (GPIONumber & PWR_PORTH_AVAILABLE_PINS));
 710              		.loc 1 513 8
 711 0070 094B     		ldr	r3, .L52
 712 0072 9A6D     		ldr	r2, [r3, #88]
 713 0074 3B68     		ldr	r3, [r7]
 714 0076 03F00B03 		and	r3, r3, #11
 715 007a DB43     		mvns	r3, r3
 716 007c 0649     		ldr	r1, .L52
 717 007e 1340     		ands	r3, r3, r2
 718 0080 8B65     		str	r3, [r1, #88]
 514:Drivers/STM32L4xx_HAL_Driver/Src/stm32l4xx_hal_pwr_ex.c ****        break;
 719              		.loc 1 514 8
 720 0082 02E0     		b	.L50
 721              	.L44:
 515:Drivers/STM32L4xx_HAL_Driver/Src/stm32l4xx_hal_pwr_ex.c **** #if defined(GPIOI)
 516:Drivers/STM32L4xx_HAL_Driver/Src/stm32l4xx_hal_pwr_ex.c ****     case PWR_GPIO_I:
 517:Drivers/STM32L4xx_HAL_Driver/Src/stm32l4xx_hal_pwr_ex.c ****        CLEAR_BIT(PWR->PUCRI, (GPIONumber & PWR_PORTI_AVAILABLE_PINS));
 518:Drivers/STM32L4xx_HAL_Driver/Src/stm32l4xx_hal_pwr_ex.c ****        break;
 519:Drivers/STM32L4xx_HAL_Driver/Src/stm32l4xx_hal_pwr_ex.c **** #endif
 520:Drivers/STM32L4xx_HAL_Driver/Src/stm32l4xx_hal_pwr_ex.c ****     default:
 521:Drivers/STM32L4xx_HAL_Driver/Src/stm32l4xx_hal_pwr_ex.c ****        status = HAL_ERROR;
 722              		.loc 1 521 15
 723 0084 0123     		movs	r3, #1
 724 0086 FB73     		strb	r3, [r7, #15]
 522:Drivers/STM32L4xx_HAL_Driver/Src/stm32l4xx_hal_pwr_ex.c ****        break;
 725              		.loc 1 522 8
 726 0088 00BF     		nop
 727              	.L50:
 523:Drivers/STM32L4xx_HAL_Driver/Src/stm32l4xx_hal_pwr_ex.c ****   }
 524:Drivers/STM32L4xx_HAL_Driver/Src/stm32l4xx_hal_pwr_ex.c **** 
 525:Drivers/STM32L4xx_HAL_Driver/Src/stm32l4xx_hal_pwr_ex.c ****   return status;
 728              		.loc 1 525 10
 729 008a FB7B     		ldrb	r3, [r7, #15]	@ zero_extendqisi2
 526:Drivers/STM32L4xx_HAL_Driver/Src/stm32l4xx_hal_pwr_ex.c **** }
 730              		.loc 1 526 1
 731 008c 1846     		mov	r0, r3
 732 008e 1437     		adds	r7, r7, #20
 733              	.LCFI45:
 734              		.cfi_def_cfa_offset 4
 735 0090 BD46     		mov	sp, r7
 736              	.LCFI46:
 737              		.cfi_def_cfa_register 13
 738              		@ sp needed
 739 0092 5DF8047B 		ldr	r7, [sp], #4
 740              	.LCFI47:
 741              		.cfi_restore 7
 742              		.cfi_def_cfa_offset 0
 743 0096 7047     		bx	lr
 744              	.L53:
ARM GAS  /tmp/ccCHRL2h.s 			page 23


 745              		.align	2
 746              	.L52:
 747 0098 00700040 		.word	1073770496
 748              		.cfi_endproc
 749              	.LFE141:
 751              		.section	.text.HAL_PWREx_EnableGPIOPullDown,"ax",%progbits
 752              		.align	1
 753              		.global	HAL_PWREx_EnableGPIOPullDown
 754              		.syntax unified
 755              		.thumb
 756              		.thumb_func
 758              	HAL_PWREx_EnableGPIOPullDown:
 759              	.LFB142:
 527:Drivers/STM32L4xx_HAL_Driver/Src/stm32l4xx_hal_pwr_ex.c **** 
 528:Drivers/STM32L4xx_HAL_Driver/Src/stm32l4xx_hal_pwr_ex.c **** 
 529:Drivers/STM32L4xx_HAL_Driver/Src/stm32l4xx_hal_pwr_ex.c **** 
 530:Drivers/STM32L4xx_HAL_Driver/Src/stm32l4xx_hal_pwr_ex.c **** /**
 531:Drivers/STM32L4xx_HAL_Driver/Src/stm32l4xx_hal_pwr_ex.c ****   * @brief Enable GPIO pull-down state in Standby and Shutdown modes.
 532:Drivers/STM32L4xx_HAL_Driver/Src/stm32l4xx_hal_pwr_ex.c ****   * @note  Set the relevant PDy bits of PWR_PDCRx register to configure the I/O in
 533:Drivers/STM32L4xx_HAL_Driver/Src/stm32l4xx_hal_pwr_ex.c ****   *        pull-down state in Standby and Shutdown modes.
 534:Drivers/STM32L4xx_HAL_Driver/Src/stm32l4xx_hal_pwr_ex.c ****   * @note  This state is effective in Standby and Shutdown modes only if APC bit
 535:Drivers/STM32L4xx_HAL_Driver/Src/stm32l4xx_hal_pwr_ex.c ****   *        is set through HAL_PWREx_EnablePullUpPullDownConfig() API.
 536:Drivers/STM32L4xx_HAL_Driver/Src/stm32l4xx_hal_pwr_ex.c ****   * @note  The configuration is lost when exiting the Shutdown mode due to the
 537:Drivers/STM32L4xx_HAL_Driver/Src/stm32l4xx_hal_pwr_ex.c ****   *        power-on reset, maintained when exiting the Standby mode.
 538:Drivers/STM32L4xx_HAL_Driver/Src/stm32l4xx_hal_pwr_ex.c ****   * @note  To avoid any conflict at Standby and Shutdown modes exits, the corresponding
 539:Drivers/STM32L4xx_HAL_Driver/Src/stm32l4xx_hal_pwr_ex.c ****   *        PUy bit of PWR_PUCRx register is cleared unless it is reserved.
 540:Drivers/STM32L4xx_HAL_Driver/Src/stm32l4xx_hal_pwr_ex.c ****   * @note  Even if a PDy bit to set is reserved, the other PDy bits entered as input
 541:Drivers/STM32L4xx_HAL_Driver/Src/stm32l4xx_hal_pwr_ex.c ****   *        parameter at the same time are set.
 542:Drivers/STM32L4xx_HAL_Driver/Src/stm32l4xx_hal_pwr_ex.c ****   * @param  GPIO Specify the IO port. This parameter can be PWR_GPIO_A..PWR_GPIO_H
 543:Drivers/STM32L4xx_HAL_Driver/Src/stm32l4xx_hal_pwr_ex.c ****   *         (or PWR_GPIO_I depending on the devices) to select the GPIO peripheral.
 544:Drivers/STM32L4xx_HAL_Driver/Src/stm32l4xx_hal_pwr_ex.c ****   * @param  GPIONumber Specify the I/O pins numbers.
 545:Drivers/STM32L4xx_HAL_Driver/Src/stm32l4xx_hal_pwr_ex.c ****   *         This parameter can be one of the following values:
 546:Drivers/STM32L4xx_HAL_Driver/Src/stm32l4xx_hal_pwr_ex.c ****   *         PWR_GPIO_BIT_0, ..., PWR_GPIO_BIT_15 (except for the port where less
 547:Drivers/STM32L4xx_HAL_Driver/Src/stm32l4xx_hal_pwr_ex.c ****   *         I/O pins are available) or the logical OR of several of them to set
 548:Drivers/STM32L4xx_HAL_Driver/Src/stm32l4xx_hal_pwr_ex.c ****   *         several bits for a given port in a single API call.
 549:Drivers/STM32L4xx_HAL_Driver/Src/stm32l4xx_hal_pwr_ex.c ****   * @retval HAL Status
 550:Drivers/STM32L4xx_HAL_Driver/Src/stm32l4xx_hal_pwr_ex.c ****   */
 551:Drivers/STM32L4xx_HAL_Driver/Src/stm32l4xx_hal_pwr_ex.c **** HAL_StatusTypeDef HAL_PWREx_EnableGPIOPullDown(uint32_t GPIO, uint32_t GPIONumber)
 552:Drivers/STM32L4xx_HAL_Driver/Src/stm32l4xx_hal_pwr_ex.c **** {
 760              		.loc 1 552 1
 761              		.cfi_startproc
 762              		@ args = 0, pretend = 0, frame = 16
 763              		@ frame_needed = 1, uses_anonymous_args = 0
 764              		@ link register save eliminated.
 765 0000 80B4     		push	{r7}
 766              	.LCFI48:
 767              		.cfi_def_cfa_offset 4
 768              		.cfi_offset 7, -4
 769 0002 85B0     		sub	sp, sp, #20
 770              	.LCFI49:
 771              		.cfi_def_cfa_offset 24
 772 0004 00AF     		add	r7, sp, #0
 773              	.LCFI50:
 774              		.cfi_def_cfa_register 7
 775 0006 7860     		str	r0, [r7, #4]
 776 0008 3960     		str	r1, [r7]
 553:Drivers/STM32L4xx_HAL_Driver/Src/stm32l4xx_hal_pwr_ex.c ****   HAL_StatusTypeDef status = HAL_OK;
ARM GAS  /tmp/ccCHRL2h.s 			page 24


 777              		.loc 1 553 21
 778 000a 0023     		movs	r3, #0
 779 000c FB73     		strb	r3, [r7, #15]
 554:Drivers/STM32L4xx_HAL_Driver/Src/stm32l4xx_hal_pwr_ex.c **** 
 555:Drivers/STM32L4xx_HAL_Driver/Src/stm32l4xx_hal_pwr_ex.c ****   assert_param(IS_PWR_GPIO(GPIO));
 556:Drivers/STM32L4xx_HAL_Driver/Src/stm32l4xx_hal_pwr_ex.c ****   assert_param(IS_PWR_GPIO_BIT_NUMBER(GPIONumber));
 557:Drivers/STM32L4xx_HAL_Driver/Src/stm32l4xx_hal_pwr_ex.c **** 
 558:Drivers/STM32L4xx_HAL_Driver/Src/stm32l4xx_hal_pwr_ex.c ****   switch (GPIO)
 780              		.loc 1 558 3
 781 000e 7B68     		ldr	r3, [r7, #4]
 782 0010 072B     		cmp	r3, #7
 783 0012 55D8     		bhi	.L55
 784 0014 01A2     		adr	r2, .L57
 785 0016 52F823F0 		ldr	pc, [r2, r3, lsl #2]
 786 001a 00BF     		.p2align 2
 787              	.L57:
 788 001c 3D000000 		.word	.L60+1
 789 0020 61000000 		.word	.L59+1
 790 0024 81000000 		.word	.L58+1
 791 0028 C1000000 		.word	.L55+1
 792 002c C1000000 		.word	.L55+1
 793 0030 C1000000 		.word	.L55+1
 794 0034 C1000000 		.word	.L55+1
 795 0038 9D000000 		.word	.L56+1
 796              		.p2align 1
 797              	.L60:
 559:Drivers/STM32L4xx_HAL_Driver/Src/stm32l4xx_hal_pwr_ex.c ****   {
 560:Drivers/STM32L4xx_HAL_Driver/Src/stm32l4xx_hal_pwr_ex.c ****     case PWR_GPIO_A:
 561:Drivers/STM32L4xx_HAL_Driver/Src/stm32l4xx_hal_pwr_ex.c ****        SET_BIT(PWR->PDCRA, (GPIONumber & (~(PWR_GPIO_BIT_13|PWR_GPIO_BIT_15))));
 798              		.loc 1 561 8
 799 003c 254B     		ldr	r3, .L63
 800 003e 5A6A     		ldr	r2, [r3, #36]
 801 0040 3B68     		ldr	r3, [r7]
 802 0042 23F42043 		bic	r3, r3, #40960
 803 0046 2349     		ldr	r1, .L63
 804 0048 1343     		orrs	r3, r3, r2
 805 004a 4B62     		str	r3, [r1, #36]
 562:Drivers/STM32L4xx_HAL_Driver/Src/stm32l4xx_hal_pwr_ex.c ****        CLEAR_BIT(PWR->PUCRA, (GPIONumber & (~(PWR_GPIO_BIT_14))));
 806              		.loc 1 562 8
 807 004c 214B     		ldr	r3, .L63
 808 004e 1A6A     		ldr	r2, [r3, #32]
 809 0050 3B68     		ldr	r3, [r7]
 810 0052 23F48043 		bic	r3, r3, #16384
 811 0056 DB43     		mvns	r3, r3
 812 0058 1E49     		ldr	r1, .L63
 813 005a 1340     		ands	r3, r3, r2
 814 005c 0B62     		str	r3, [r1, #32]
 563:Drivers/STM32L4xx_HAL_Driver/Src/stm32l4xx_hal_pwr_ex.c ****        break;
 815              		.loc 1 563 8
 816 005e 32E0     		b	.L61
 817              	.L59:
 564:Drivers/STM32L4xx_HAL_Driver/Src/stm32l4xx_hal_pwr_ex.c ****     case PWR_GPIO_B:
 565:Drivers/STM32L4xx_HAL_Driver/Src/stm32l4xx_hal_pwr_ex.c ****        SET_BIT(PWR->PDCRB, (GPIONumber & (~(PWR_GPIO_BIT_4))));
 818              		.loc 1 565 8
 819 0060 1C4B     		ldr	r3, .L63
 820 0062 DA6A     		ldr	r2, [r3, #44]
 821 0064 3B68     		ldr	r3, [r7]
ARM GAS  /tmp/ccCHRL2h.s 			page 25


 822 0066 23F01003 		bic	r3, r3, #16
 823 006a 1A49     		ldr	r1, .L63
 824 006c 1343     		orrs	r3, r3, r2
 825 006e CB62     		str	r3, [r1, #44]
 566:Drivers/STM32L4xx_HAL_Driver/Src/stm32l4xx_hal_pwr_ex.c ****        CLEAR_BIT(PWR->PUCRB, GPIONumber);
 826              		.loc 1 566 8
 827 0070 184B     		ldr	r3, .L63
 828 0072 9A6A     		ldr	r2, [r3, #40]
 829 0074 3B68     		ldr	r3, [r7]
 830 0076 DB43     		mvns	r3, r3
 831 0078 1649     		ldr	r1, .L63
 832 007a 1340     		ands	r3, r3, r2
 833 007c 8B62     		str	r3, [r1, #40]
 567:Drivers/STM32L4xx_HAL_Driver/Src/stm32l4xx_hal_pwr_ex.c ****        break;
 834              		.loc 1 567 8
 835 007e 22E0     		b	.L61
 836              	.L58:
 568:Drivers/STM32L4xx_HAL_Driver/Src/stm32l4xx_hal_pwr_ex.c ****     case PWR_GPIO_C:
 569:Drivers/STM32L4xx_HAL_Driver/Src/stm32l4xx_hal_pwr_ex.c ****        SET_BIT(PWR->PDCRC, GPIONumber);
 837              		.loc 1 569 8
 838 0080 144B     		ldr	r3, .L63
 839 0082 5A6B     		ldr	r2, [r3, #52]
 840 0084 1349     		ldr	r1, .L63
 841 0086 3B68     		ldr	r3, [r7]
 842 0088 1343     		orrs	r3, r3, r2
 843 008a 4B63     		str	r3, [r1, #52]
 570:Drivers/STM32L4xx_HAL_Driver/Src/stm32l4xx_hal_pwr_ex.c ****        CLEAR_BIT(PWR->PUCRC, GPIONumber);
 844              		.loc 1 570 8
 845 008c 114B     		ldr	r3, .L63
 846 008e 1A6B     		ldr	r2, [r3, #48]
 847 0090 3B68     		ldr	r3, [r7]
 848 0092 DB43     		mvns	r3, r3
 849 0094 0F49     		ldr	r1, .L63
 850 0096 1340     		ands	r3, r3, r2
 851 0098 0B63     		str	r3, [r1, #48]
 571:Drivers/STM32L4xx_HAL_Driver/Src/stm32l4xx_hal_pwr_ex.c ****        break;
 852              		.loc 1 571 8
 853 009a 14E0     		b	.L61
 854              	.L56:
 572:Drivers/STM32L4xx_HAL_Driver/Src/stm32l4xx_hal_pwr_ex.c **** #if defined(GPIOD)
 573:Drivers/STM32L4xx_HAL_Driver/Src/stm32l4xx_hal_pwr_ex.c ****     case PWR_GPIO_D:
 574:Drivers/STM32L4xx_HAL_Driver/Src/stm32l4xx_hal_pwr_ex.c ****        SET_BIT(PWR->PDCRD, GPIONumber);
 575:Drivers/STM32L4xx_HAL_Driver/Src/stm32l4xx_hal_pwr_ex.c ****        CLEAR_BIT(PWR->PUCRD, GPIONumber);
 576:Drivers/STM32L4xx_HAL_Driver/Src/stm32l4xx_hal_pwr_ex.c ****        break;
 577:Drivers/STM32L4xx_HAL_Driver/Src/stm32l4xx_hal_pwr_ex.c **** #endif
 578:Drivers/STM32L4xx_HAL_Driver/Src/stm32l4xx_hal_pwr_ex.c **** #if defined(GPIOE)
 579:Drivers/STM32L4xx_HAL_Driver/Src/stm32l4xx_hal_pwr_ex.c ****     case PWR_GPIO_E:
 580:Drivers/STM32L4xx_HAL_Driver/Src/stm32l4xx_hal_pwr_ex.c ****        SET_BIT(PWR->PDCRE, GPIONumber);
 581:Drivers/STM32L4xx_HAL_Driver/Src/stm32l4xx_hal_pwr_ex.c ****        CLEAR_BIT(PWR->PUCRE, GPIONumber);
 582:Drivers/STM32L4xx_HAL_Driver/Src/stm32l4xx_hal_pwr_ex.c ****        break;
 583:Drivers/STM32L4xx_HAL_Driver/Src/stm32l4xx_hal_pwr_ex.c **** #endif
 584:Drivers/STM32L4xx_HAL_Driver/Src/stm32l4xx_hal_pwr_ex.c **** #if defined(GPIOF)
 585:Drivers/STM32L4xx_HAL_Driver/Src/stm32l4xx_hal_pwr_ex.c ****     case PWR_GPIO_F:
 586:Drivers/STM32L4xx_HAL_Driver/Src/stm32l4xx_hal_pwr_ex.c ****        SET_BIT(PWR->PDCRF, GPIONumber);
 587:Drivers/STM32L4xx_HAL_Driver/Src/stm32l4xx_hal_pwr_ex.c ****        CLEAR_BIT(PWR->PUCRF, GPIONumber);
 588:Drivers/STM32L4xx_HAL_Driver/Src/stm32l4xx_hal_pwr_ex.c ****        break;
 589:Drivers/STM32L4xx_HAL_Driver/Src/stm32l4xx_hal_pwr_ex.c **** #endif
ARM GAS  /tmp/ccCHRL2h.s 			page 26


 590:Drivers/STM32L4xx_HAL_Driver/Src/stm32l4xx_hal_pwr_ex.c **** #if defined(GPIOG)
 591:Drivers/STM32L4xx_HAL_Driver/Src/stm32l4xx_hal_pwr_ex.c ****     case PWR_GPIO_G:
 592:Drivers/STM32L4xx_HAL_Driver/Src/stm32l4xx_hal_pwr_ex.c ****        SET_BIT(PWR->PDCRG, GPIONumber);
 593:Drivers/STM32L4xx_HAL_Driver/Src/stm32l4xx_hal_pwr_ex.c ****        CLEAR_BIT(PWR->PUCRG, GPIONumber);
 594:Drivers/STM32L4xx_HAL_Driver/Src/stm32l4xx_hal_pwr_ex.c ****        break;
 595:Drivers/STM32L4xx_HAL_Driver/Src/stm32l4xx_hal_pwr_ex.c **** #endif
 596:Drivers/STM32L4xx_HAL_Driver/Src/stm32l4xx_hal_pwr_ex.c ****     case PWR_GPIO_H:
 597:Drivers/STM32L4xx_HAL_Driver/Src/stm32l4xx_hal_pwr_ex.c **** #if defined (STM32L496xx) || defined (STM32L4A6xx)
 598:Drivers/STM32L4xx_HAL_Driver/Src/stm32l4xx_hal_pwr_ex.c ****        SET_BIT(PWR->PDCRH, ((GPIONumber & PWR_PORTH_AVAILABLE_PINS) & (~(PWR_GPIO_BIT_3))));
 599:Drivers/STM32L4xx_HAL_Driver/Src/stm32l4xx_hal_pwr_ex.c **** #else
 600:Drivers/STM32L4xx_HAL_Driver/Src/stm32l4xx_hal_pwr_ex.c ****        SET_BIT(PWR->PDCRH, (GPIONumber & PWR_PORTH_AVAILABLE_PINS));
 855              		.loc 1 600 8
 856 009c 0D4B     		ldr	r3, .L63
 857 009e DA6D     		ldr	r2, [r3, #92]
 858 00a0 3B68     		ldr	r3, [r7]
 859 00a2 03F00B03 		and	r3, r3, #11
 860 00a6 0B49     		ldr	r1, .L63
 861 00a8 1343     		orrs	r3, r3, r2
 862 00aa CB65     		str	r3, [r1, #92]
 601:Drivers/STM32L4xx_HAL_Driver/Src/stm32l4xx_hal_pwr_ex.c **** #endif
 602:Drivers/STM32L4xx_HAL_Driver/Src/stm32l4xx_hal_pwr_ex.c ****        CLEAR_BIT(PWR->PUCRH, (GPIONumber & PWR_PORTH_AVAILABLE_PINS));
 863              		.loc 1 602 8
 864 00ac 094B     		ldr	r3, .L63
 865 00ae 9A6D     		ldr	r2, [r3, #88]
 866 00b0 3B68     		ldr	r3, [r7]
 867 00b2 03F00B03 		and	r3, r3, #11
 868 00b6 DB43     		mvns	r3, r3
 869 00b8 0649     		ldr	r1, .L63
 870 00ba 1340     		ands	r3, r3, r2
 871 00bc 8B65     		str	r3, [r1, #88]
 603:Drivers/STM32L4xx_HAL_Driver/Src/stm32l4xx_hal_pwr_ex.c ****        break;
 872              		.loc 1 603 8
 873 00be 02E0     		b	.L61
 874              	.L55:
 604:Drivers/STM32L4xx_HAL_Driver/Src/stm32l4xx_hal_pwr_ex.c **** #if defined(GPIOI)
 605:Drivers/STM32L4xx_HAL_Driver/Src/stm32l4xx_hal_pwr_ex.c ****     case PWR_GPIO_I:
 606:Drivers/STM32L4xx_HAL_Driver/Src/stm32l4xx_hal_pwr_ex.c ****        SET_BIT(PWR->PDCRI, (GPIONumber & PWR_PORTI_AVAILABLE_PINS));
 607:Drivers/STM32L4xx_HAL_Driver/Src/stm32l4xx_hal_pwr_ex.c ****        CLEAR_BIT(PWR->PUCRI, (GPIONumber & PWR_PORTI_AVAILABLE_PINS));
 608:Drivers/STM32L4xx_HAL_Driver/Src/stm32l4xx_hal_pwr_ex.c ****        break;
 609:Drivers/STM32L4xx_HAL_Driver/Src/stm32l4xx_hal_pwr_ex.c **** #endif
 610:Drivers/STM32L4xx_HAL_Driver/Src/stm32l4xx_hal_pwr_ex.c ****     default:
 611:Drivers/STM32L4xx_HAL_Driver/Src/stm32l4xx_hal_pwr_ex.c ****       status = HAL_ERROR;
 875              		.loc 1 611 14
 876 00c0 0123     		movs	r3, #1
 877 00c2 FB73     		strb	r3, [r7, #15]
 612:Drivers/STM32L4xx_HAL_Driver/Src/stm32l4xx_hal_pwr_ex.c ****       break;
 878              		.loc 1 612 7
 879 00c4 00BF     		nop
 880              	.L61:
 613:Drivers/STM32L4xx_HAL_Driver/Src/stm32l4xx_hal_pwr_ex.c ****   }
 614:Drivers/STM32L4xx_HAL_Driver/Src/stm32l4xx_hal_pwr_ex.c **** 
 615:Drivers/STM32L4xx_HAL_Driver/Src/stm32l4xx_hal_pwr_ex.c ****   return status;
 881              		.loc 1 615 10
 882 00c6 FB7B     		ldrb	r3, [r7, #15]	@ zero_extendqisi2
 616:Drivers/STM32L4xx_HAL_Driver/Src/stm32l4xx_hal_pwr_ex.c **** }
 883              		.loc 1 616 1
 884 00c8 1846     		mov	r0, r3
ARM GAS  /tmp/ccCHRL2h.s 			page 27


 885 00ca 1437     		adds	r7, r7, #20
 886              	.LCFI51:
 887              		.cfi_def_cfa_offset 4
 888 00cc BD46     		mov	sp, r7
 889              	.LCFI52:
 890              		.cfi_def_cfa_register 13
 891              		@ sp needed
 892 00ce 5DF8047B 		ldr	r7, [sp], #4
 893              	.LCFI53:
 894              		.cfi_restore 7
 895              		.cfi_def_cfa_offset 0
 896 00d2 7047     		bx	lr
 897              	.L64:
 898              		.align	2
 899              	.L63:
 900 00d4 00700040 		.word	1073770496
 901              		.cfi_endproc
 902              	.LFE142:
 904              		.section	.text.HAL_PWREx_DisableGPIOPullDown,"ax",%progbits
 905              		.align	1
 906              		.global	HAL_PWREx_DisableGPIOPullDown
 907              		.syntax unified
 908              		.thumb
 909              		.thumb_func
 911              	HAL_PWREx_DisableGPIOPullDown:
 912              	.LFB143:
 617:Drivers/STM32L4xx_HAL_Driver/Src/stm32l4xx_hal_pwr_ex.c **** 
 618:Drivers/STM32L4xx_HAL_Driver/Src/stm32l4xx_hal_pwr_ex.c **** 
 619:Drivers/STM32L4xx_HAL_Driver/Src/stm32l4xx_hal_pwr_ex.c **** /**
 620:Drivers/STM32L4xx_HAL_Driver/Src/stm32l4xx_hal_pwr_ex.c ****   * @brief Disable GPIO pull-down state in Standby and Shutdown modes.
 621:Drivers/STM32L4xx_HAL_Driver/Src/stm32l4xx_hal_pwr_ex.c ****   * @note  Reset the relevant PDy bits of PWR_PDCRx register used to configure the I/O
 622:Drivers/STM32L4xx_HAL_Driver/Src/stm32l4xx_hal_pwr_ex.c ****   *        in pull-down state in Standby and Shutdown modes.
 623:Drivers/STM32L4xx_HAL_Driver/Src/stm32l4xx_hal_pwr_ex.c ****   * @note  Even if a PDy bit to reset is reserved, the other PDy bits entered as input
 624:Drivers/STM32L4xx_HAL_Driver/Src/stm32l4xx_hal_pwr_ex.c ****   *        parameter at the same time are reset.
 625:Drivers/STM32L4xx_HAL_Driver/Src/stm32l4xx_hal_pwr_ex.c ****   * @param  GPIO Specifies the IO port. This parameter can be PWR_GPIO_A..PWR_GPIO_H
 626:Drivers/STM32L4xx_HAL_Driver/Src/stm32l4xx_hal_pwr_ex.c ****   *         (or PWR_GPIO_I depending on the devices) to select the GPIO peripheral.
 627:Drivers/STM32L4xx_HAL_Driver/Src/stm32l4xx_hal_pwr_ex.c ****   * @param  GPIONumber Specify the I/O pins numbers.
 628:Drivers/STM32L4xx_HAL_Driver/Src/stm32l4xx_hal_pwr_ex.c ****   *         This parameter can be one of the following values:
 629:Drivers/STM32L4xx_HAL_Driver/Src/stm32l4xx_hal_pwr_ex.c ****   *         PWR_GPIO_BIT_0, ..., PWR_GPIO_BIT_15 (except for the port where less
 630:Drivers/STM32L4xx_HAL_Driver/Src/stm32l4xx_hal_pwr_ex.c ****   *         I/O pins are available) or the logical OR of several of them to reset
 631:Drivers/STM32L4xx_HAL_Driver/Src/stm32l4xx_hal_pwr_ex.c ****   *         several bits for a given port in a single API call.
 632:Drivers/STM32L4xx_HAL_Driver/Src/stm32l4xx_hal_pwr_ex.c ****   * @retval HAL Status
 633:Drivers/STM32L4xx_HAL_Driver/Src/stm32l4xx_hal_pwr_ex.c ****   */
 634:Drivers/STM32L4xx_HAL_Driver/Src/stm32l4xx_hal_pwr_ex.c **** HAL_StatusTypeDef HAL_PWREx_DisableGPIOPullDown(uint32_t GPIO, uint32_t GPIONumber)
 635:Drivers/STM32L4xx_HAL_Driver/Src/stm32l4xx_hal_pwr_ex.c **** {
 913              		.loc 1 635 1
 914              		.cfi_startproc
 915              		@ args = 0, pretend = 0, frame = 16
 916              		@ frame_needed = 1, uses_anonymous_args = 0
 917              		@ link register save eliminated.
 918 0000 80B4     		push	{r7}
 919              	.LCFI54:
 920              		.cfi_def_cfa_offset 4
 921              		.cfi_offset 7, -4
 922 0002 85B0     		sub	sp, sp, #20
 923              	.LCFI55:
 924              		.cfi_def_cfa_offset 24
ARM GAS  /tmp/ccCHRL2h.s 			page 28


 925 0004 00AF     		add	r7, sp, #0
 926              	.LCFI56:
 927              		.cfi_def_cfa_register 7
 928 0006 7860     		str	r0, [r7, #4]
 929 0008 3960     		str	r1, [r7]
 636:Drivers/STM32L4xx_HAL_Driver/Src/stm32l4xx_hal_pwr_ex.c ****   HAL_StatusTypeDef status = HAL_OK;
 930              		.loc 1 636 21
 931 000a 0023     		movs	r3, #0
 932 000c FB73     		strb	r3, [r7, #15]
 637:Drivers/STM32L4xx_HAL_Driver/Src/stm32l4xx_hal_pwr_ex.c **** 
 638:Drivers/STM32L4xx_HAL_Driver/Src/stm32l4xx_hal_pwr_ex.c ****   assert_param(IS_PWR_GPIO(GPIO));
 639:Drivers/STM32L4xx_HAL_Driver/Src/stm32l4xx_hal_pwr_ex.c ****   assert_param(IS_PWR_GPIO_BIT_NUMBER(GPIONumber));
 640:Drivers/STM32L4xx_HAL_Driver/Src/stm32l4xx_hal_pwr_ex.c **** 
 641:Drivers/STM32L4xx_HAL_Driver/Src/stm32l4xx_hal_pwr_ex.c ****   switch (GPIO)
 933              		.loc 1 641 3
 934 000e 7B68     		ldr	r3, [r7, #4]
 935 0010 072B     		cmp	r3, #7
 936 0012 39D8     		bhi	.L66
 937 0014 01A2     		adr	r2, .L68
 938 0016 52F823F0 		ldr	pc, [r2, r3, lsl #2]
 939 001a 00BF     		.p2align 2
 940              	.L68:
 941 001c 3D000000 		.word	.L71+1
 942 0020 51000000 		.word	.L70+1
 943 0024 65000000 		.word	.L69+1
 944 0028 89000000 		.word	.L66+1
 945 002c 89000000 		.word	.L66+1
 946 0030 89000000 		.word	.L66+1
 947 0034 89000000 		.word	.L66+1
 948 0038 75000000 		.word	.L67+1
 949              		.p2align 1
 950              	.L71:
 642:Drivers/STM32L4xx_HAL_Driver/Src/stm32l4xx_hal_pwr_ex.c ****   {
 643:Drivers/STM32L4xx_HAL_Driver/Src/stm32l4xx_hal_pwr_ex.c ****     case PWR_GPIO_A:
 644:Drivers/STM32L4xx_HAL_Driver/Src/stm32l4xx_hal_pwr_ex.c ****        CLEAR_BIT(PWR->PDCRA, (GPIONumber & (~(PWR_GPIO_BIT_13|PWR_GPIO_BIT_15))));
 951              		.loc 1 644 8
 952 003c 174B     		ldr	r3, .L74
 953 003e 5A6A     		ldr	r2, [r3, #36]
 954 0040 3B68     		ldr	r3, [r7]
 955 0042 23F42043 		bic	r3, r3, #40960
 956 0046 DB43     		mvns	r3, r3
 957 0048 1449     		ldr	r1, .L74
 958 004a 1340     		ands	r3, r3, r2
 959 004c 4B62     		str	r3, [r1, #36]
 645:Drivers/STM32L4xx_HAL_Driver/Src/stm32l4xx_hal_pwr_ex.c ****        break;
 960              		.loc 1 645 8
 961 004e 1EE0     		b	.L72
 962              	.L70:
 646:Drivers/STM32L4xx_HAL_Driver/Src/stm32l4xx_hal_pwr_ex.c ****     case PWR_GPIO_B:
 647:Drivers/STM32L4xx_HAL_Driver/Src/stm32l4xx_hal_pwr_ex.c ****        CLEAR_BIT(PWR->PDCRB, (GPIONumber & (~(PWR_GPIO_BIT_4))));
 963              		.loc 1 647 8
 964 0050 124B     		ldr	r3, .L74
 965 0052 DA6A     		ldr	r2, [r3, #44]
 966 0054 3B68     		ldr	r3, [r7]
 967 0056 23F01003 		bic	r3, r3, #16
 968 005a DB43     		mvns	r3, r3
 969 005c 0F49     		ldr	r1, .L74
ARM GAS  /tmp/ccCHRL2h.s 			page 29


 970 005e 1340     		ands	r3, r3, r2
 971 0060 CB62     		str	r3, [r1, #44]
 648:Drivers/STM32L4xx_HAL_Driver/Src/stm32l4xx_hal_pwr_ex.c ****        break;
 972              		.loc 1 648 8
 973 0062 14E0     		b	.L72
 974              	.L69:
 649:Drivers/STM32L4xx_HAL_Driver/Src/stm32l4xx_hal_pwr_ex.c ****     case PWR_GPIO_C:
 650:Drivers/STM32L4xx_HAL_Driver/Src/stm32l4xx_hal_pwr_ex.c ****        CLEAR_BIT(PWR->PDCRC, GPIONumber);
 975              		.loc 1 650 8
 976 0064 0D4B     		ldr	r3, .L74
 977 0066 5A6B     		ldr	r2, [r3, #52]
 978 0068 3B68     		ldr	r3, [r7]
 979 006a DB43     		mvns	r3, r3
 980 006c 0B49     		ldr	r1, .L74
 981 006e 1340     		ands	r3, r3, r2
 982 0070 4B63     		str	r3, [r1, #52]
 651:Drivers/STM32L4xx_HAL_Driver/Src/stm32l4xx_hal_pwr_ex.c ****        break;
 983              		.loc 1 651 8
 984 0072 0CE0     		b	.L72
 985              	.L67:
 652:Drivers/STM32L4xx_HAL_Driver/Src/stm32l4xx_hal_pwr_ex.c **** #if defined(GPIOD)
 653:Drivers/STM32L4xx_HAL_Driver/Src/stm32l4xx_hal_pwr_ex.c ****     case PWR_GPIO_D:
 654:Drivers/STM32L4xx_HAL_Driver/Src/stm32l4xx_hal_pwr_ex.c ****        CLEAR_BIT(PWR->PDCRD, GPIONumber);
 655:Drivers/STM32L4xx_HAL_Driver/Src/stm32l4xx_hal_pwr_ex.c ****        break;
 656:Drivers/STM32L4xx_HAL_Driver/Src/stm32l4xx_hal_pwr_ex.c **** #endif
 657:Drivers/STM32L4xx_HAL_Driver/Src/stm32l4xx_hal_pwr_ex.c **** #if defined(GPIOE)
 658:Drivers/STM32L4xx_HAL_Driver/Src/stm32l4xx_hal_pwr_ex.c ****     case PWR_GPIO_E:
 659:Drivers/STM32L4xx_HAL_Driver/Src/stm32l4xx_hal_pwr_ex.c ****        CLEAR_BIT(PWR->PDCRE, GPIONumber);
 660:Drivers/STM32L4xx_HAL_Driver/Src/stm32l4xx_hal_pwr_ex.c ****        break;
 661:Drivers/STM32L4xx_HAL_Driver/Src/stm32l4xx_hal_pwr_ex.c **** #endif
 662:Drivers/STM32L4xx_HAL_Driver/Src/stm32l4xx_hal_pwr_ex.c **** #if defined(GPIOF)
 663:Drivers/STM32L4xx_HAL_Driver/Src/stm32l4xx_hal_pwr_ex.c ****     case PWR_GPIO_F:
 664:Drivers/STM32L4xx_HAL_Driver/Src/stm32l4xx_hal_pwr_ex.c ****        CLEAR_BIT(PWR->PDCRF, GPIONumber);
 665:Drivers/STM32L4xx_HAL_Driver/Src/stm32l4xx_hal_pwr_ex.c ****        break;
 666:Drivers/STM32L4xx_HAL_Driver/Src/stm32l4xx_hal_pwr_ex.c **** #endif
 667:Drivers/STM32L4xx_HAL_Driver/Src/stm32l4xx_hal_pwr_ex.c **** #if defined(GPIOG)
 668:Drivers/STM32L4xx_HAL_Driver/Src/stm32l4xx_hal_pwr_ex.c ****     case PWR_GPIO_G:
 669:Drivers/STM32L4xx_HAL_Driver/Src/stm32l4xx_hal_pwr_ex.c ****        CLEAR_BIT(PWR->PDCRG, GPIONumber);
 670:Drivers/STM32L4xx_HAL_Driver/Src/stm32l4xx_hal_pwr_ex.c ****        break;
 671:Drivers/STM32L4xx_HAL_Driver/Src/stm32l4xx_hal_pwr_ex.c **** #endif
 672:Drivers/STM32L4xx_HAL_Driver/Src/stm32l4xx_hal_pwr_ex.c ****     case PWR_GPIO_H:
 673:Drivers/STM32L4xx_HAL_Driver/Src/stm32l4xx_hal_pwr_ex.c **** #if defined (STM32L496xx) || defined (STM32L4A6xx)
 674:Drivers/STM32L4xx_HAL_Driver/Src/stm32l4xx_hal_pwr_ex.c ****        CLEAR_BIT(PWR->PDCRH, ((GPIONumber & PWR_PORTH_AVAILABLE_PINS) & (~(PWR_GPIO_BIT_3))));
 675:Drivers/STM32L4xx_HAL_Driver/Src/stm32l4xx_hal_pwr_ex.c **** #else
 676:Drivers/STM32L4xx_HAL_Driver/Src/stm32l4xx_hal_pwr_ex.c ****        CLEAR_BIT(PWR->PDCRH, (GPIONumber & PWR_PORTH_AVAILABLE_PINS));
 986              		.loc 1 676 8
 987 0074 094B     		ldr	r3, .L74
 988 0076 DA6D     		ldr	r2, [r3, #92]
 989 0078 3B68     		ldr	r3, [r7]
 990 007a 03F00B03 		and	r3, r3, #11
 991 007e DB43     		mvns	r3, r3
 992 0080 0649     		ldr	r1, .L74
 993 0082 1340     		ands	r3, r3, r2
 994 0084 CB65     		str	r3, [r1, #92]
 677:Drivers/STM32L4xx_HAL_Driver/Src/stm32l4xx_hal_pwr_ex.c **** #endif
 678:Drivers/STM32L4xx_HAL_Driver/Src/stm32l4xx_hal_pwr_ex.c ****        break;
 995              		.loc 1 678 8
ARM GAS  /tmp/ccCHRL2h.s 			page 30


 996 0086 02E0     		b	.L72
 997              	.L66:
 679:Drivers/STM32L4xx_HAL_Driver/Src/stm32l4xx_hal_pwr_ex.c **** #if defined(GPIOI)
 680:Drivers/STM32L4xx_HAL_Driver/Src/stm32l4xx_hal_pwr_ex.c ****     case PWR_GPIO_I:
 681:Drivers/STM32L4xx_HAL_Driver/Src/stm32l4xx_hal_pwr_ex.c ****        CLEAR_BIT(PWR->PDCRI, (GPIONumber & PWR_PORTI_AVAILABLE_PINS));
 682:Drivers/STM32L4xx_HAL_Driver/Src/stm32l4xx_hal_pwr_ex.c ****        break;
 683:Drivers/STM32L4xx_HAL_Driver/Src/stm32l4xx_hal_pwr_ex.c **** #endif
 684:Drivers/STM32L4xx_HAL_Driver/Src/stm32l4xx_hal_pwr_ex.c ****     default:
 685:Drivers/STM32L4xx_HAL_Driver/Src/stm32l4xx_hal_pwr_ex.c ****       status = HAL_ERROR;
 998              		.loc 1 685 14
 999 0088 0123     		movs	r3, #1
 1000 008a FB73     		strb	r3, [r7, #15]
 686:Drivers/STM32L4xx_HAL_Driver/Src/stm32l4xx_hal_pwr_ex.c ****       break;
 1001              		.loc 1 686 7
 1002 008c 00BF     		nop
 1003              	.L72:
 687:Drivers/STM32L4xx_HAL_Driver/Src/stm32l4xx_hal_pwr_ex.c ****   }
 688:Drivers/STM32L4xx_HAL_Driver/Src/stm32l4xx_hal_pwr_ex.c **** 
 689:Drivers/STM32L4xx_HAL_Driver/Src/stm32l4xx_hal_pwr_ex.c ****   return status;
 1004              		.loc 1 689 10
 1005 008e FB7B     		ldrb	r3, [r7, #15]	@ zero_extendqisi2
 690:Drivers/STM32L4xx_HAL_Driver/Src/stm32l4xx_hal_pwr_ex.c **** }
 1006              		.loc 1 690 1
 1007 0090 1846     		mov	r0, r3
 1008 0092 1437     		adds	r7, r7, #20
 1009              	.LCFI57:
 1010              		.cfi_def_cfa_offset 4
 1011 0094 BD46     		mov	sp, r7
 1012              	.LCFI58:
 1013              		.cfi_def_cfa_register 13
 1014              		@ sp needed
 1015 0096 5DF8047B 		ldr	r7, [sp], #4
 1016              	.LCFI59:
 1017              		.cfi_restore 7
 1018              		.cfi_def_cfa_offset 0
 1019 009a 7047     		bx	lr
 1020              	.L75:
 1021              		.align	2
 1022              	.L74:
 1023 009c 00700040 		.word	1073770496
 1024              		.cfi_endproc
 1025              	.LFE143:
 1027              		.section	.text.HAL_PWREx_EnablePullUpPullDownConfig,"ax",%progbits
 1028              		.align	1
 1029              		.global	HAL_PWREx_EnablePullUpPullDownConfig
 1030              		.syntax unified
 1031              		.thumb
 1032              		.thumb_func
 1034              	HAL_PWREx_EnablePullUpPullDownConfig:
 1035              	.LFB144:
 691:Drivers/STM32L4xx_HAL_Driver/Src/stm32l4xx_hal_pwr_ex.c **** 
 692:Drivers/STM32L4xx_HAL_Driver/Src/stm32l4xx_hal_pwr_ex.c **** 
 693:Drivers/STM32L4xx_HAL_Driver/Src/stm32l4xx_hal_pwr_ex.c **** 
 694:Drivers/STM32L4xx_HAL_Driver/Src/stm32l4xx_hal_pwr_ex.c **** /**
 695:Drivers/STM32L4xx_HAL_Driver/Src/stm32l4xx_hal_pwr_ex.c ****   * @brief Enable pull-up and pull-down configuration.
 696:Drivers/STM32L4xx_HAL_Driver/Src/stm32l4xx_hal_pwr_ex.c ****   * @note  When APC bit is set, the I/O pull-up and pull-down configurations defined in
 697:Drivers/STM32L4xx_HAL_Driver/Src/stm32l4xx_hal_pwr_ex.c ****   *        PWR_PUCRx and PWR_PDCRx registers are applied in Standby and Shutdown modes.
ARM GAS  /tmp/ccCHRL2h.s 			page 31


 698:Drivers/STM32L4xx_HAL_Driver/Src/stm32l4xx_hal_pwr_ex.c ****   * @note  Pull-up set by PUy bit of PWR_PUCRx register is not activated if the corresponding
 699:Drivers/STM32L4xx_HAL_Driver/Src/stm32l4xx_hal_pwr_ex.c ****   *        PDy bit of PWR_PDCRx register is also set (pull-down configuration priority is higher).
 700:Drivers/STM32L4xx_HAL_Driver/Src/stm32l4xx_hal_pwr_ex.c ****   *        HAL_PWREx_EnableGPIOPullUp() and HAL_PWREx_EnableGPIOPullDown() API's ensure there
 701:Drivers/STM32L4xx_HAL_Driver/Src/stm32l4xx_hal_pwr_ex.c ****   *        is no conflict when setting PUy or PDy bit.
 702:Drivers/STM32L4xx_HAL_Driver/Src/stm32l4xx_hal_pwr_ex.c ****   * @retval None
 703:Drivers/STM32L4xx_HAL_Driver/Src/stm32l4xx_hal_pwr_ex.c ****   */
 704:Drivers/STM32L4xx_HAL_Driver/Src/stm32l4xx_hal_pwr_ex.c **** void HAL_PWREx_EnablePullUpPullDownConfig(void)
 705:Drivers/STM32L4xx_HAL_Driver/Src/stm32l4xx_hal_pwr_ex.c **** {
 1036              		.loc 1 705 1
 1037              		.cfi_startproc
 1038              		@ args = 0, pretend = 0, frame = 0
 1039              		@ frame_needed = 1, uses_anonymous_args = 0
 1040              		@ link register save eliminated.
 1041 0000 80B4     		push	{r7}
 1042              	.LCFI60:
 1043              		.cfi_def_cfa_offset 4
 1044              		.cfi_offset 7, -4
 1045 0002 00AF     		add	r7, sp, #0
 1046              	.LCFI61:
 1047              		.cfi_def_cfa_register 7
 706:Drivers/STM32L4xx_HAL_Driver/Src/stm32l4xx_hal_pwr_ex.c ****   SET_BIT(PWR->CR3, PWR_CR3_APC);
 1048              		.loc 1 706 3
 1049 0004 054B     		ldr	r3, .L77
 1050 0006 9B68     		ldr	r3, [r3, #8]
 1051 0008 044A     		ldr	r2, .L77
 1052 000a 43F48063 		orr	r3, r3, #1024
 1053 000e 9360     		str	r3, [r2, #8]
 707:Drivers/STM32L4xx_HAL_Driver/Src/stm32l4xx_hal_pwr_ex.c **** }
 1054              		.loc 1 707 1
 1055 0010 00BF     		nop
 1056 0012 BD46     		mov	sp, r7
 1057              	.LCFI62:
 1058              		.cfi_def_cfa_register 13
 1059              		@ sp needed
 1060 0014 5DF8047B 		ldr	r7, [sp], #4
 1061              	.LCFI63:
 1062              		.cfi_restore 7
 1063              		.cfi_def_cfa_offset 0
 1064 0018 7047     		bx	lr
 1065              	.L78:
 1066 001a 00BF     		.align	2
 1067              	.L77:
 1068 001c 00700040 		.word	1073770496
 1069              		.cfi_endproc
 1070              	.LFE144:
 1072              		.section	.text.HAL_PWREx_DisablePullUpPullDownConfig,"ax",%progbits
 1073              		.align	1
 1074              		.global	HAL_PWREx_DisablePullUpPullDownConfig
 1075              		.syntax unified
 1076              		.thumb
 1077              		.thumb_func
 1079              	HAL_PWREx_DisablePullUpPullDownConfig:
 1080              	.LFB145:
 708:Drivers/STM32L4xx_HAL_Driver/Src/stm32l4xx_hal_pwr_ex.c **** 
 709:Drivers/STM32L4xx_HAL_Driver/Src/stm32l4xx_hal_pwr_ex.c **** 
 710:Drivers/STM32L4xx_HAL_Driver/Src/stm32l4xx_hal_pwr_ex.c **** /**
 711:Drivers/STM32L4xx_HAL_Driver/Src/stm32l4xx_hal_pwr_ex.c ****   * @brief Disable pull-up and pull-down configuration.
ARM GAS  /tmp/ccCHRL2h.s 			page 32


 712:Drivers/STM32L4xx_HAL_Driver/Src/stm32l4xx_hal_pwr_ex.c ****   * @note  When APC bit is cleared, the I/O pull-up and pull-down configurations defined in
 713:Drivers/STM32L4xx_HAL_Driver/Src/stm32l4xx_hal_pwr_ex.c ****   *        PWR_PUCRx and PWR_PDCRx registers are not applied in Standby and Shutdown modes.
 714:Drivers/STM32L4xx_HAL_Driver/Src/stm32l4xx_hal_pwr_ex.c ****   * @retval None
 715:Drivers/STM32L4xx_HAL_Driver/Src/stm32l4xx_hal_pwr_ex.c ****   */
 716:Drivers/STM32L4xx_HAL_Driver/Src/stm32l4xx_hal_pwr_ex.c **** void HAL_PWREx_DisablePullUpPullDownConfig(void)
 717:Drivers/STM32L4xx_HAL_Driver/Src/stm32l4xx_hal_pwr_ex.c **** {
 1081              		.loc 1 717 1
 1082              		.cfi_startproc
 1083              		@ args = 0, pretend = 0, frame = 0
 1084              		@ frame_needed = 1, uses_anonymous_args = 0
 1085              		@ link register save eliminated.
 1086 0000 80B4     		push	{r7}
 1087              	.LCFI64:
 1088              		.cfi_def_cfa_offset 4
 1089              		.cfi_offset 7, -4
 1090 0002 00AF     		add	r7, sp, #0
 1091              	.LCFI65:
 1092              		.cfi_def_cfa_register 7
 718:Drivers/STM32L4xx_HAL_Driver/Src/stm32l4xx_hal_pwr_ex.c ****   CLEAR_BIT(PWR->CR3, PWR_CR3_APC);
 1093              		.loc 1 718 3
 1094 0004 054B     		ldr	r3, .L80
 1095 0006 9B68     		ldr	r3, [r3, #8]
 1096 0008 044A     		ldr	r2, .L80
 1097 000a 23F48063 		bic	r3, r3, #1024
 1098 000e 9360     		str	r3, [r2, #8]
 719:Drivers/STM32L4xx_HAL_Driver/Src/stm32l4xx_hal_pwr_ex.c **** }
 1099              		.loc 1 719 1
 1100 0010 00BF     		nop
 1101 0012 BD46     		mov	sp, r7
 1102              	.LCFI66:
 1103              		.cfi_def_cfa_register 13
 1104              		@ sp needed
 1105 0014 5DF8047B 		ldr	r7, [sp], #4
 1106              	.LCFI67:
 1107              		.cfi_restore 7
 1108              		.cfi_def_cfa_offset 0
 1109 0018 7047     		bx	lr
 1110              	.L81:
 1111 001a 00BF     		.align	2
 1112              	.L80:
 1113 001c 00700040 		.word	1073770496
 1114              		.cfi_endproc
 1115              	.LFE145:
 1117              		.section	.text.HAL_PWREx_EnableSRAM2ContentRetention,"ax",%progbits
 1118              		.align	1
 1119              		.global	HAL_PWREx_EnableSRAM2ContentRetention
 1120              		.syntax unified
 1121              		.thumb
 1122              		.thumb_func
 1124              	HAL_PWREx_EnableSRAM2ContentRetention:
 1125              	.LFB146:
 720:Drivers/STM32L4xx_HAL_Driver/Src/stm32l4xx_hal_pwr_ex.c **** 
 721:Drivers/STM32L4xx_HAL_Driver/Src/stm32l4xx_hal_pwr_ex.c **** 
 722:Drivers/STM32L4xx_HAL_Driver/Src/stm32l4xx_hal_pwr_ex.c **** 
 723:Drivers/STM32L4xx_HAL_Driver/Src/stm32l4xx_hal_pwr_ex.c **** /**
 724:Drivers/STM32L4xx_HAL_Driver/Src/stm32l4xx_hal_pwr_ex.c ****   * @brief Enable Full SRAM2 content retention in Standby mode.
 725:Drivers/STM32L4xx_HAL_Driver/Src/stm32l4xx_hal_pwr_ex.c ****   * @retval None
ARM GAS  /tmp/ccCHRL2h.s 			page 33


 726:Drivers/STM32L4xx_HAL_Driver/Src/stm32l4xx_hal_pwr_ex.c ****   */
 727:Drivers/STM32L4xx_HAL_Driver/Src/stm32l4xx_hal_pwr_ex.c **** void HAL_PWREx_EnableSRAM2ContentRetention(void)
 728:Drivers/STM32L4xx_HAL_Driver/Src/stm32l4xx_hal_pwr_ex.c **** {
 1126              		.loc 1 728 1
 1127              		.cfi_startproc
 1128              		@ args = 0, pretend = 0, frame = 0
 1129              		@ frame_needed = 1, uses_anonymous_args = 0
 1130 0000 80B5     		push	{r7, lr}
 1131              	.LCFI68:
 1132              		.cfi_def_cfa_offset 8
 1133              		.cfi_offset 7, -8
 1134              		.cfi_offset 14, -4
 1135 0002 00AF     		add	r7, sp, #0
 1136              	.LCFI69:
 1137              		.cfi_def_cfa_register 7
 729:Drivers/STM32L4xx_HAL_Driver/Src/stm32l4xx_hal_pwr_ex.c ****   (void) HAL_PWREx_SetSRAM2ContentRetention(PWR_FULL_SRAM2_RETENTION);
 1138              		.loc 1 729 10
 1139 0004 4FF48070 		mov	r0, #256
 1140 0008 FFF7FEFF 		bl	HAL_PWREx_SetSRAM2ContentRetention
 730:Drivers/STM32L4xx_HAL_Driver/Src/stm32l4xx_hal_pwr_ex.c **** }
 1141              		.loc 1 730 1
 1142 000c 00BF     		nop
 1143 000e 80BD     		pop	{r7, pc}
 1144              		.cfi_endproc
 1145              	.LFE146:
 1147              		.section	.text.HAL_PWREx_DisableSRAM2ContentRetention,"ax",%progbits
 1148              		.align	1
 1149              		.global	HAL_PWREx_DisableSRAM2ContentRetention
 1150              		.syntax unified
 1151              		.thumb
 1152              		.thumb_func
 1154              	HAL_PWREx_DisableSRAM2ContentRetention:
 1155              	.LFB147:
 731:Drivers/STM32L4xx_HAL_Driver/Src/stm32l4xx_hal_pwr_ex.c **** 
 732:Drivers/STM32L4xx_HAL_Driver/Src/stm32l4xx_hal_pwr_ex.c **** /**
 733:Drivers/STM32L4xx_HAL_Driver/Src/stm32l4xx_hal_pwr_ex.c ****   * @brief Disable SRAM2 content retention in Standby mode.
 734:Drivers/STM32L4xx_HAL_Driver/Src/stm32l4xx_hal_pwr_ex.c ****   * @retval None
 735:Drivers/STM32L4xx_HAL_Driver/Src/stm32l4xx_hal_pwr_ex.c ****   */
 736:Drivers/STM32L4xx_HAL_Driver/Src/stm32l4xx_hal_pwr_ex.c **** void HAL_PWREx_DisableSRAM2ContentRetention(void)
 737:Drivers/STM32L4xx_HAL_Driver/Src/stm32l4xx_hal_pwr_ex.c **** {
 1156              		.loc 1 737 1
 1157              		.cfi_startproc
 1158              		@ args = 0, pretend = 0, frame = 0
 1159              		@ frame_needed = 1, uses_anonymous_args = 0
 1160 0000 80B5     		push	{r7, lr}
 1161              	.LCFI70:
 1162              		.cfi_def_cfa_offset 8
 1163              		.cfi_offset 7, -8
 1164              		.cfi_offset 14, -4
 1165 0002 00AF     		add	r7, sp, #0
 1166              	.LCFI71:
 1167              		.cfi_def_cfa_register 7
 738:Drivers/STM32L4xx_HAL_Driver/Src/stm32l4xx_hal_pwr_ex.c ****   (void) HAL_PWREx_SetSRAM2ContentRetention(PWR_NO_SRAM2_RETENTION);
 1168              		.loc 1 738 10
 1169 0004 0020     		movs	r0, #0
 1170 0006 FFF7FEFF 		bl	HAL_PWREx_SetSRAM2ContentRetention
 739:Drivers/STM32L4xx_HAL_Driver/Src/stm32l4xx_hal_pwr_ex.c **** }
ARM GAS  /tmp/ccCHRL2h.s 			page 34


 1171              		.loc 1 739 1
 1172 000a 00BF     		nop
 1173 000c 80BD     		pop	{r7, pc}
 1174              		.cfi_endproc
 1175              	.LFE147:
 1177              		.section	.text.HAL_PWREx_SetSRAM2ContentRetention,"ax",%progbits
 1178              		.align	1
 1179              		.global	HAL_PWREx_SetSRAM2ContentRetention
 1180              		.syntax unified
 1181              		.thumb
 1182              		.thumb_func
 1184              	HAL_PWREx_SetSRAM2ContentRetention:
 1185              	.LFB148:
 740:Drivers/STM32L4xx_HAL_Driver/Src/stm32l4xx_hal_pwr_ex.c **** 
 741:Drivers/STM32L4xx_HAL_Driver/Src/stm32l4xx_hal_pwr_ex.c **** /**
 742:Drivers/STM32L4xx_HAL_Driver/Src/stm32l4xx_hal_pwr_ex.c ****   * @brief Enable SRAM2 content retention in Standby mode.
 743:Drivers/STM32L4xx_HAL_Driver/Src/stm32l4xx_hal_pwr_ex.c ****   * @param  SRAM2Size: specifies the SRAM2 size kept in Standby mode
 744:Drivers/STM32L4xx_HAL_Driver/Src/stm32l4xx_hal_pwr_ex.c ****   *          This parameter can be one of the following values:
 745:Drivers/STM32L4xx_HAL_Driver/Src/stm32l4xx_hal_pwr_ex.c ****   *            @arg @ref PWR_NO_SRAM2_RETENTION        SRAM2 is powered off in Standby mode (SRAM2 
 746:Drivers/STM32L4xx_HAL_Driver/Src/stm32l4xx_hal_pwr_ex.c ****   *            @arg @ref PWR_FULL_SRAM2_RETENTION      Full SRAM2 is powered by the low-power regul
 747:Drivers/STM32L4xx_HAL_Driver/Src/stm32l4xx_hal_pwr_ex.c ****   *            @arg @ref PWR_4KBYTES_SRAM2_RETENTION   Only 4 Kbytes of SRAM2 is powered by the low
 748:Drivers/STM32L4xx_HAL_Driver/Src/stm32l4xx_hal_pwr_ex.c ****   * @note  PWR_4KBYTES_SRAM2_RETENTION parameter is not available on all devices
 749:Drivers/STM32L4xx_HAL_Driver/Src/stm32l4xx_hal_pwr_ex.c ****   * @retval HAL Status
 750:Drivers/STM32L4xx_HAL_Driver/Src/stm32l4xx_hal_pwr_ex.c ****   */
 751:Drivers/STM32L4xx_HAL_Driver/Src/stm32l4xx_hal_pwr_ex.c **** HAL_StatusTypeDef HAL_PWREx_SetSRAM2ContentRetention(uint32_t SRAM2Size)
 752:Drivers/STM32L4xx_HAL_Driver/Src/stm32l4xx_hal_pwr_ex.c **** {
 1186              		.loc 1 752 1
 1187              		.cfi_startproc
 1188              		@ args = 0, pretend = 0, frame = 8
 1189              		@ frame_needed = 1, uses_anonymous_args = 0
 1190              		@ link register save eliminated.
 1191 0000 80B4     		push	{r7}
 1192              	.LCFI72:
 1193              		.cfi_def_cfa_offset 4
 1194              		.cfi_offset 7, -4
 1195 0002 83B0     		sub	sp, sp, #12
 1196              	.LCFI73:
 1197              		.cfi_def_cfa_offset 16
 1198 0004 00AF     		add	r7, sp, #0
 1199              	.LCFI74:
 1200              		.cfi_def_cfa_register 7
 1201 0006 7860     		str	r0, [r7, #4]
 753:Drivers/STM32L4xx_HAL_Driver/Src/stm32l4xx_hal_pwr_ex.c ****   assert_param(IS_PWR_SRAM2_RETENTION(SRAM2Size));
 754:Drivers/STM32L4xx_HAL_Driver/Src/stm32l4xx_hal_pwr_ex.c **** 
 755:Drivers/STM32L4xx_HAL_Driver/Src/stm32l4xx_hal_pwr_ex.c ****   if (SRAM2Size == PWR_NO_SRAM2_RETENTION)
 1202              		.loc 1 755 6
 1203 0008 7B68     		ldr	r3, [r7, #4]
 1204 000a 002B     		cmp	r3, #0
 1205 000c 06D1     		bne	.L85
 756:Drivers/STM32L4xx_HAL_Driver/Src/stm32l4xx_hal_pwr_ex.c ****   {
 757:Drivers/STM32L4xx_HAL_Driver/Src/stm32l4xx_hal_pwr_ex.c ****     CLEAR_BIT(PWR->CR3, PWR_CR3_RRS);
 1206              		.loc 1 757 5
 1207 000e 0D4B     		ldr	r3, .L89
 1208 0010 9B68     		ldr	r3, [r3, #8]
 1209 0012 0C4A     		ldr	r2, .L89
 1210 0014 23F48073 		bic	r3, r3, #256
 1211 0018 9360     		str	r3, [r2, #8]
ARM GAS  /tmp/ccCHRL2h.s 			page 35


 1212 001a 0CE0     		b	.L86
 1213              	.L85:
 758:Drivers/STM32L4xx_HAL_Driver/Src/stm32l4xx_hal_pwr_ex.c ****   }
 759:Drivers/STM32L4xx_HAL_Driver/Src/stm32l4xx_hal_pwr_ex.c ****   else if (SRAM2Size == PWR_FULL_SRAM2_RETENTION)
 1214              		.loc 1 759 11
 1215 001c 7B68     		ldr	r3, [r7, #4]
 1216 001e B3F5807F 		cmp	r3, #256
 1217 0022 06D1     		bne	.L87
 760:Drivers/STM32L4xx_HAL_Driver/Src/stm32l4xx_hal_pwr_ex.c ****   {
 761:Drivers/STM32L4xx_HAL_Driver/Src/stm32l4xx_hal_pwr_ex.c ****     MODIFY_REG(PWR->CR3, PWR_CR3_RRS, PWR_FULL_SRAM2_RETENTION);
 1218              		.loc 1 761 5
 1219 0024 074B     		ldr	r3, .L89
 1220 0026 9B68     		ldr	r3, [r3, #8]
 1221 0028 064A     		ldr	r2, .L89
 1222 002a 43F48073 		orr	r3, r3, #256
 1223 002e 9360     		str	r3, [r2, #8]
 1224 0030 01E0     		b	.L86
 1225              	.L87:
 762:Drivers/STM32L4xx_HAL_Driver/Src/stm32l4xx_hal_pwr_ex.c ****   }
 763:Drivers/STM32L4xx_HAL_Driver/Src/stm32l4xx_hal_pwr_ex.c **** #if defined(PWR_CR3_RRS_1)
 764:Drivers/STM32L4xx_HAL_Driver/Src/stm32l4xx_hal_pwr_ex.c ****   else if (SRAM2Size == PWR_4KBYTES_SRAM2_RETENTION)
 765:Drivers/STM32L4xx_HAL_Driver/Src/stm32l4xx_hal_pwr_ex.c ****   {
 766:Drivers/STM32L4xx_HAL_Driver/Src/stm32l4xx_hal_pwr_ex.c ****     MODIFY_REG(PWR->CR3, PWR_CR3_RRS, PWR_4KBYTES_SRAM2_RETENTION);
 767:Drivers/STM32L4xx_HAL_Driver/Src/stm32l4xx_hal_pwr_ex.c ****   }
 768:Drivers/STM32L4xx_HAL_Driver/Src/stm32l4xx_hal_pwr_ex.c **** #endif /* PWR_CR3_RRS_1 */
 769:Drivers/STM32L4xx_HAL_Driver/Src/stm32l4xx_hal_pwr_ex.c ****   else {
 770:Drivers/STM32L4xx_HAL_Driver/Src/stm32l4xx_hal_pwr_ex.c ****     return HAL_ERROR;
 1226              		.loc 1 770 12
 1227 0032 0123     		movs	r3, #1
 1228 0034 00E0     		b	.L88
 1229              	.L86:
 771:Drivers/STM32L4xx_HAL_Driver/Src/stm32l4xx_hal_pwr_ex.c ****   }
 772:Drivers/STM32L4xx_HAL_Driver/Src/stm32l4xx_hal_pwr_ex.c **** 
 773:Drivers/STM32L4xx_HAL_Driver/Src/stm32l4xx_hal_pwr_ex.c ****   return HAL_OK;
 1230              		.loc 1 773 10
 1231 0036 0023     		movs	r3, #0
 1232              	.L88:
 774:Drivers/STM32L4xx_HAL_Driver/Src/stm32l4xx_hal_pwr_ex.c **** }
 1233              		.loc 1 774 1
 1234 0038 1846     		mov	r0, r3
 1235 003a 0C37     		adds	r7, r7, #12
 1236              	.LCFI75:
 1237              		.cfi_def_cfa_offset 4
 1238 003c BD46     		mov	sp, r7
 1239              	.LCFI76:
 1240              		.cfi_def_cfa_register 13
 1241              		@ sp needed
 1242 003e 5DF8047B 		ldr	r7, [sp], #4
 1243              	.LCFI77:
 1244              		.cfi_restore 7
 1245              		.cfi_def_cfa_offset 0
 1246 0042 7047     		bx	lr
 1247              	.L90:
 1248              		.align	2
 1249              	.L89:
 1250 0044 00700040 		.word	1073770496
 1251              		.cfi_endproc
ARM GAS  /tmp/ccCHRL2h.s 			page 36


 1252              	.LFE148:
 1254              		.section	.text.HAL_PWREx_EnablePVM1,"ax",%progbits
 1255              		.align	1
 1256              		.global	HAL_PWREx_EnablePVM1
 1257              		.syntax unified
 1258              		.thumb
 1259              		.thumb_func
 1261              	HAL_PWREx_EnablePVM1:
 1262              	.LFB149:
 775:Drivers/STM32L4xx_HAL_Driver/Src/stm32l4xx_hal_pwr_ex.c **** 
 776:Drivers/STM32L4xx_HAL_Driver/Src/stm32l4xx_hal_pwr_ex.c **** 
 777:Drivers/STM32L4xx_HAL_Driver/Src/stm32l4xx_hal_pwr_ex.c **** #if defined(PWR_CR3_ENULP)
 778:Drivers/STM32L4xx_HAL_Driver/Src/stm32l4xx_hal_pwr_ex.c **** /**
 779:Drivers/STM32L4xx_HAL_Driver/Src/stm32l4xx_hal_pwr_ex.c ****   * @brief Enable Ultra Low Power BORL, BORH and PVD for STOP2 and Standby modes.
 780:Drivers/STM32L4xx_HAL_Driver/Src/stm32l4xx_hal_pwr_ex.c ****   * @note  All the other modes are not affected by this bit.
 781:Drivers/STM32L4xx_HAL_Driver/Src/stm32l4xx_hal_pwr_ex.c ****   * @retval None
 782:Drivers/STM32L4xx_HAL_Driver/Src/stm32l4xx_hal_pwr_ex.c ****   */
 783:Drivers/STM32L4xx_HAL_Driver/Src/stm32l4xx_hal_pwr_ex.c **** void HAL_PWREx_EnableBORPVD_ULP(void)
 784:Drivers/STM32L4xx_HAL_Driver/Src/stm32l4xx_hal_pwr_ex.c **** {
 785:Drivers/STM32L4xx_HAL_Driver/Src/stm32l4xx_hal_pwr_ex.c ****   SET_BIT(PWR->CR3, PWR_CR3_ENULP);
 786:Drivers/STM32L4xx_HAL_Driver/Src/stm32l4xx_hal_pwr_ex.c **** }
 787:Drivers/STM32L4xx_HAL_Driver/Src/stm32l4xx_hal_pwr_ex.c **** 
 788:Drivers/STM32L4xx_HAL_Driver/Src/stm32l4xx_hal_pwr_ex.c **** 
 789:Drivers/STM32L4xx_HAL_Driver/Src/stm32l4xx_hal_pwr_ex.c **** /**
 790:Drivers/STM32L4xx_HAL_Driver/Src/stm32l4xx_hal_pwr_ex.c ****   * @brief Disable Ultra Low Power BORL, BORH and PVD for STOP2 and Standby modes.
 791:Drivers/STM32L4xx_HAL_Driver/Src/stm32l4xx_hal_pwr_ex.c ****   * @note  All the other modes are not affected by this bit
 792:Drivers/STM32L4xx_HAL_Driver/Src/stm32l4xx_hal_pwr_ex.c ****   * @retval None
 793:Drivers/STM32L4xx_HAL_Driver/Src/stm32l4xx_hal_pwr_ex.c ****   */
 794:Drivers/STM32L4xx_HAL_Driver/Src/stm32l4xx_hal_pwr_ex.c **** void HAL_PWREx_DisableBORPVD_ULP(void)
 795:Drivers/STM32L4xx_HAL_Driver/Src/stm32l4xx_hal_pwr_ex.c **** {
 796:Drivers/STM32L4xx_HAL_Driver/Src/stm32l4xx_hal_pwr_ex.c ****   CLEAR_BIT(PWR->CR3, PWR_CR3_ENULP);
 797:Drivers/STM32L4xx_HAL_Driver/Src/stm32l4xx_hal_pwr_ex.c **** }
 798:Drivers/STM32L4xx_HAL_Driver/Src/stm32l4xx_hal_pwr_ex.c **** #endif /* PWR_CR3_ENULP */
 799:Drivers/STM32L4xx_HAL_Driver/Src/stm32l4xx_hal_pwr_ex.c **** 
 800:Drivers/STM32L4xx_HAL_Driver/Src/stm32l4xx_hal_pwr_ex.c **** 
 801:Drivers/STM32L4xx_HAL_Driver/Src/stm32l4xx_hal_pwr_ex.c **** #if defined(PWR_CR4_EXT_SMPS_ON)
 802:Drivers/STM32L4xx_HAL_Driver/Src/stm32l4xx_hal_pwr_ex.c **** /**
 803:Drivers/STM32L4xx_HAL_Driver/Src/stm32l4xx_hal_pwr_ex.c ****   * @brief Enable the CFLDO working @ 0.95V.
 804:Drivers/STM32L4xx_HAL_Driver/Src/stm32l4xx_hal_pwr_ex.c ****   * @note  When external SMPS is used & CFLDO operating in Range 2, the regulated voltage of the
 805:Drivers/STM32L4xx_HAL_Driver/Src/stm32l4xx_hal_pwr_ex.c ****   *        internal CFLDO can be reduced to 0.95V.
 806:Drivers/STM32L4xx_HAL_Driver/Src/stm32l4xx_hal_pwr_ex.c ****   * @retval None
 807:Drivers/STM32L4xx_HAL_Driver/Src/stm32l4xx_hal_pwr_ex.c ****   */
 808:Drivers/STM32L4xx_HAL_Driver/Src/stm32l4xx_hal_pwr_ex.c **** void HAL_PWREx_EnableExtSMPS_0V95(void)
 809:Drivers/STM32L4xx_HAL_Driver/Src/stm32l4xx_hal_pwr_ex.c **** {
 810:Drivers/STM32L4xx_HAL_Driver/Src/stm32l4xx_hal_pwr_ex.c ****   SET_BIT(PWR->CR4, PWR_CR4_EXT_SMPS_ON);
 811:Drivers/STM32L4xx_HAL_Driver/Src/stm32l4xx_hal_pwr_ex.c **** }
 812:Drivers/STM32L4xx_HAL_Driver/Src/stm32l4xx_hal_pwr_ex.c **** 
 813:Drivers/STM32L4xx_HAL_Driver/Src/stm32l4xx_hal_pwr_ex.c **** /**
 814:Drivers/STM32L4xx_HAL_Driver/Src/stm32l4xx_hal_pwr_ex.c ****   * @brief Disable the CFLDO working @ 0.95V
 815:Drivers/STM32L4xx_HAL_Driver/Src/stm32l4xx_hal_pwr_ex.c ****   * @note  Before SMPS is switched off, the regulated voltage of the
 816:Drivers/STM32L4xx_HAL_Driver/Src/stm32l4xx_hal_pwr_ex.c ****   *        internal CFLDO shall be set to 1.00V.
 817:Drivers/STM32L4xx_HAL_Driver/Src/stm32l4xx_hal_pwr_ex.c ****   *        1.00V. is also default operating Range 2 voltage.
 818:Drivers/STM32L4xx_HAL_Driver/Src/stm32l4xx_hal_pwr_ex.c ****   * @retval None
 819:Drivers/STM32L4xx_HAL_Driver/Src/stm32l4xx_hal_pwr_ex.c ****   */
 820:Drivers/STM32L4xx_HAL_Driver/Src/stm32l4xx_hal_pwr_ex.c **** void HAL_PWREx_DisableExtSMPS_0V95(void)
 821:Drivers/STM32L4xx_HAL_Driver/Src/stm32l4xx_hal_pwr_ex.c **** {
 822:Drivers/STM32L4xx_HAL_Driver/Src/stm32l4xx_hal_pwr_ex.c ****   CLEAR_BIT(PWR->CR4, PWR_CR4_EXT_SMPS_ON);
ARM GAS  /tmp/ccCHRL2h.s 			page 37


 823:Drivers/STM32L4xx_HAL_Driver/Src/stm32l4xx_hal_pwr_ex.c **** }
 824:Drivers/STM32L4xx_HAL_Driver/Src/stm32l4xx_hal_pwr_ex.c **** #endif /* PWR_CR4_EXT_SMPS_ON */
 825:Drivers/STM32L4xx_HAL_Driver/Src/stm32l4xx_hal_pwr_ex.c **** 
 826:Drivers/STM32L4xx_HAL_Driver/Src/stm32l4xx_hal_pwr_ex.c **** 
 827:Drivers/STM32L4xx_HAL_Driver/Src/stm32l4xx_hal_pwr_ex.c **** #if defined(PWR_CR1_RRSTP)
 828:Drivers/STM32L4xx_HAL_Driver/Src/stm32l4xx_hal_pwr_ex.c **** /**
 829:Drivers/STM32L4xx_HAL_Driver/Src/stm32l4xx_hal_pwr_ex.c ****   * @brief Enable SRAM3 content retention in Stop 2 mode.
 830:Drivers/STM32L4xx_HAL_Driver/Src/stm32l4xx_hal_pwr_ex.c ****   * @note  When RRSTP bit is set, SRAM3 is powered by the low-power regulator in
 831:Drivers/STM32L4xx_HAL_Driver/Src/stm32l4xx_hal_pwr_ex.c ****   *        Stop 2 mode and its content is kept.
 832:Drivers/STM32L4xx_HAL_Driver/Src/stm32l4xx_hal_pwr_ex.c ****   * @retval None
 833:Drivers/STM32L4xx_HAL_Driver/Src/stm32l4xx_hal_pwr_ex.c ****   */
 834:Drivers/STM32L4xx_HAL_Driver/Src/stm32l4xx_hal_pwr_ex.c **** void HAL_PWREx_EnableSRAM3ContentRetention(void)
 835:Drivers/STM32L4xx_HAL_Driver/Src/stm32l4xx_hal_pwr_ex.c **** {
 836:Drivers/STM32L4xx_HAL_Driver/Src/stm32l4xx_hal_pwr_ex.c ****   SET_BIT(PWR->CR1, PWR_CR1_RRSTP);
 837:Drivers/STM32L4xx_HAL_Driver/Src/stm32l4xx_hal_pwr_ex.c **** }
 838:Drivers/STM32L4xx_HAL_Driver/Src/stm32l4xx_hal_pwr_ex.c **** 
 839:Drivers/STM32L4xx_HAL_Driver/Src/stm32l4xx_hal_pwr_ex.c **** 
 840:Drivers/STM32L4xx_HAL_Driver/Src/stm32l4xx_hal_pwr_ex.c **** /**
 841:Drivers/STM32L4xx_HAL_Driver/Src/stm32l4xx_hal_pwr_ex.c ****   * @brief Disable SRAM3 content retention in Stop 2 mode.
 842:Drivers/STM32L4xx_HAL_Driver/Src/stm32l4xx_hal_pwr_ex.c ****   * @note  When RRSTP bit is reset, SRAM3 is powered off in Stop 2 mode
 843:Drivers/STM32L4xx_HAL_Driver/Src/stm32l4xx_hal_pwr_ex.c ****   *        and its content is lost.
 844:Drivers/STM32L4xx_HAL_Driver/Src/stm32l4xx_hal_pwr_ex.c ****   * @retval None
 845:Drivers/STM32L4xx_HAL_Driver/Src/stm32l4xx_hal_pwr_ex.c ****   */
 846:Drivers/STM32L4xx_HAL_Driver/Src/stm32l4xx_hal_pwr_ex.c **** void HAL_PWREx_DisableSRAM3ContentRetention(void)
 847:Drivers/STM32L4xx_HAL_Driver/Src/stm32l4xx_hal_pwr_ex.c **** {
 848:Drivers/STM32L4xx_HAL_Driver/Src/stm32l4xx_hal_pwr_ex.c ****   CLEAR_BIT(PWR->CR1, PWR_CR1_RRSTP);
 849:Drivers/STM32L4xx_HAL_Driver/Src/stm32l4xx_hal_pwr_ex.c **** }
 850:Drivers/STM32L4xx_HAL_Driver/Src/stm32l4xx_hal_pwr_ex.c **** #endif /* PWR_CR1_RRSTP */
 851:Drivers/STM32L4xx_HAL_Driver/Src/stm32l4xx_hal_pwr_ex.c **** 
 852:Drivers/STM32L4xx_HAL_Driver/Src/stm32l4xx_hal_pwr_ex.c **** #if defined(PWR_CR3_DSIPDEN)
 853:Drivers/STM32L4xx_HAL_Driver/Src/stm32l4xx_hal_pwr_ex.c **** /**
 854:Drivers/STM32L4xx_HAL_Driver/Src/stm32l4xx_hal_pwr_ex.c ****   * @brief Enable pull-down activation on DSI pins.
 855:Drivers/STM32L4xx_HAL_Driver/Src/stm32l4xx_hal_pwr_ex.c ****   * @retval None
 856:Drivers/STM32L4xx_HAL_Driver/Src/stm32l4xx_hal_pwr_ex.c ****   */
 857:Drivers/STM32L4xx_HAL_Driver/Src/stm32l4xx_hal_pwr_ex.c **** void HAL_PWREx_EnableDSIPinsPDActivation(void)
 858:Drivers/STM32L4xx_HAL_Driver/Src/stm32l4xx_hal_pwr_ex.c **** {
 859:Drivers/STM32L4xx_HAL_Driver/Src/stm32l4xx_hal_pwr_ex.c ****   SET_BIT(PWR->CR3, PWR_CR3_DSIPDEN);
 860:Drivers/STM32L4xx_HAL_Driver/Src/stm32l4xx_hal_pwr_ex.c **** }
 861:Drivers/STM32L4xx_HAL_Driver/Src/stm32l4xx_hal_pwr_ex.c **** 
 862:Drivers/STM32L4xx_HAL_Driver/Src/stm32l4xx_hal_pwr_ex.c **** 
 863:Drivers/STM32L4xx_HAL_Driver/Src/stm32l4xx_hal_pwr_ex.c **** /**
 864:Drivers/STM32L4xx_HAL_Driver/Src/stm32l4xx_hal_pwr_ex.c ****   * @brief Disable pull-down activation on DSI pins.
 865:Drivers/STM32L4xx_HAL_Driver/Src/stm32l4xx_hal_pwr_ex.c ****   * @retval None
 866:Drivers/STM32L4xx_HAL_Driver/Src/stm32l4xx_hal_pwr_ex.c ****   */
 867:Drivers/STM32L4xx_HAL_Driver/Src/stm32l4xx_hal_pwr_ex.c **** void HAL_PWREx_DisableDSIPinsPDActivation(void)
 868:Drivers/STM32L4xx_HAL_Driver/Src/stm32l4xx_hal_pwr_ex.c **** {
 869:Drivers/STM32L4xx_HAL_Driver/Src/stm32l4xx_hal_pwr_ex.c ****   CLEAR_BIT(PWR->CR3, PWR_CR3_DSIPDEN);
 870:Drivers/STM32L4xx_HAL_Driver/Src/stm32l4xx_hal_pwr_ex.c **** }
 871:Drivers/STM32L4xx_HAL_Driver/Src/stm32l4xx_hal_pwr_ex.c **** #endif /* PWR_CR3_DSIPDEN */
 872:Drivers/STM32L4xx_HAL_Driver/Src/stm32l4xx_hal_pwr_ex.c **** 
 873:Drivers/STM32L4xx_HAL_Driver/Src/stm32l4xx_hal_pwr_ex.c **** #if defined(PWR_CR2_PVME1)
 874:Drivers/STM32L4xx_HAL_Driver/Src/stm32l4xx_hal_pwr_ex.c **** /**
 875:Drivers/STM32L4xx_HAL_Driver/Src/stm32l4xx_hal_pwr_ex.c ****   * @brief Enable the Power Voltage Monitoring 1: VDDUSB versus 1.2V.
 876:Drivers/STM32L4xx_HAL_Driver/Src/stm32l4xx_hal_pwr_ex.c ****   * @retval None
 877:Drivers/STM32L4xx_HAL_Driver/Src/stm32l4xx_hal_pwr_ex.c ****   */
 878:Drivers/STM32L4xx_HAL_Driver/Src/stm32l4xx_hal_pwr_ex.c **** void HAL_PWREx_EnablePVM1(void)
 879:Drivers/STM32L4xx_HAL_Driver/Src/stm32l4xx_hal_pwr_ex.c **** {
ARM GAS  /tmp/ccCHRL2h.s 			page 38


 1263              		.loc 1 879 1
 1264              		.cfi_startproc
 1265              		@ args = 0, pretend = 0, frame = 0
 1266              		@ frame_needed = 1, uses_anonymous_args = 0
 1267              		@ link register save eliminated.
 1268 0000 80B4     		push	{r7}
 1269              	.LCFI78:
 1270              		.cfi_def_cfa_offset 4
 1271              		.cfi_offset 7, -4
 1272 0002 00AF     		add	r7, sp, #0
 1273              	.LCFI79:
 1274              		.cfi_def_cfa_register 7
 880:Drivers/STM32L4xx_HAL_Driver/Src/stm32l4xx_hal_pwr_ex.c ****   SET_BIT(PWR->CR2, PWR_PVM_1);
 1275              		.loc 1 880 3
 1276 0004 054B     		ldr	r3, .L92
 1277 0006 5B68     		ldr	r3, [r3, #4]
 1278 0008 044A     		ldr	r2, .L92
 1279 000a 43F01003 		orr	r3, r3, #16
 1280 000e 5360     		str	r3, [r2, #4]
 881:Drivers/STM32L4xx_HAL_Driver/Src/stm32l4xx_hal_pwr_ex.c **** }
 1281              		.loc 1 881 1
 1282 0010 00BF     		nop
 1283 0012 BD46     		mov	sp, r7
 1284              	.LCFI80:
 1285              		.cfi_def_cfa_register 13
 1286              		@ sp needed
 1287 0014 5DF8047B 		ldr	r7, [sp], #4
 1288              	.LCFI81:
 1289              		.cfi_restore 7
 1290              		.cfi_def_cfa_offset 0
 1291 0018 7047     		bx	lr
 1292              	.L93:
 1293 001a 00BF     		.align	2
 1294              	.L92:
 1295 001c 00700040 		.word	1073770496
 1296              		.cfi_endproc
 1297              	.LFE149:
 1299              		.section	.text.HAL_PWREx_DisablePVM1,"ax",%progbits
 1300              		.align	1
 1301              		.global	HAL_PWREx_DisablePVM1
 1302              		.syntax unified
 1303              		.thumb
 1304              		.thumb_func
 1306              	HAL_PWREx_DisablePVM1:
 1307              	.LFB150:
 882:Drivers/STM32L4xx_HAL_Driver/Src/stm32l4xx_hal_pwr_ex.c **** 
 883:Drivers/STM32L4xx_HAL_Driver/Src/stm32l4xx_hal_pwr_ex.c **** /**
 884:Drivers/STM32L4xx_HAL_Driver/Src/stm32l4xx_hal_pwr_ex.c ****   * @brief Disable the Power Voltage Monitoring 1: VDDUSB versus 1.2V.
 885:Drivers/STM32L4xx_HAL_Driver/Src/stm32l4xx_hal_pwr_ex.c ****   * @retval None
 886:Drivers/STM32L4xx_HAL_Driver/Src/stm32l4xx_hal_pwr_ex.c ****   */
 887:Drivers/STM32L4xx_HAL_Driver/Src/stm32l4xx_hal_pwr_ex.c **** void HAL_PWREx_DisablePVM1(void)
 888:Drivers/STM32L4xx_HAL_Driver/Src/stm32l4xx_hal_pwr_ex.c **** {
 1308              		.loc 1 888 1
 1309              		.cfi_startproc
 1310              		@ args = 0, pretend = 0, frame = 0
 1311              		@ frame_needed = 1, uses_anonymous_args = 0
 1312              		@ link register save eliminated.
ARM GAS  /tmp/ccCHRL2h.s 			page 39


 1313 0000 80B4     		push	{r7}
 1314              	.LCFI82:
 1315              		.cfi_def_cfa_offset 4
 1316              		.cfi_offset 7, -4
 1317 0002 00AF     		add	r7, sp, #0
 1318              	.LCFI83:
 1319              		.cfi_def_cfa_register 7
 889:Drivers/STM32L4xx_HAL_Driver/Src/stm32l4xx_hal_pwr_ex.c ****   CLEAR_BIT(PWR->CR2, PWR_PVM_1);
 1320              		.loc 1 889 3
 1321 0004 054B     		ldr	r3, .L95
 1322 0006 5B68     		ldr	r3, [r3, #4]
 1323 0008 044A     		ldr	r2, .L95
 1324 000a 23F01003 		bic	r3, r3, #16
 1325 000e 5360     		str	r3, [r2, #4]
 890:Drivers/STM32L4xx_HAL_Driver/Src/stm32l4xx_hal_pwr_ex.c **** }
 1326              		.loc 1 890 1
 1327 0010 00BF     		nop
 1328 0012 BD46     		mov	sp, r7
 1329              	.LCFI84:
 1330              		.cfi_def_cfa_register 13
 1331              		@ sp needed
 1332 0014 5DF8047B 		ldr	r7, [sp], #4
 1333              	.LCFI85:
 1334              		.cfi_restore 7
 1335              		.cfi_def_cfa_offset 0
 1336 0018 7047     		bx	lr
 1337              	.L96:
 1338 001a 00BF     		.align	2
 1339              	.L95:
 1340 001c 00700040 		.word	1073770496
 1341              		.cfi_endproc
 1342              	.LFE150:
 1344              		.section	.text.HAL_PWREx_EnablePVM3,"ax",%progbits
 1345              		.align	1
 1346              		.global	HAL_PWREx_EnablePVM3
 1347              		.syntax unified
 1348              		.thumb
 1349              		.thumb_func
 1351              	HAL_PWREx_EnablePVM3:
 1352              	.LFB151:
 891:Drivers/STM32L4xx_HAL_Driver/Src/stm32l4xx_hal_pwr_ex.c **** #endif /* PWR_CR2_PVME1 */
 892:Drivers/STM32L4xx_HAL_Driver/Src/stm32l4xx_hal_pwr_ex.c **** 
 893:Drivers/STM32L4xx_HAL_Driver/Src/stm32l4xx_hal_pwr_ex.c **** 
 894:Drivers/STM32L4xx_HAL_Driver/Src/stm32l4xx_hal_pwr_ex.c **** #if defined(PWR_CR2_PVME2)
 895:Drivers/STM32L4xx_HAL_Driver/Src/stm32l4xx_hal_pwr_ex.c **** /**
 896:Drivers/STM32L4xx_HAL_Driver/Src/stm32l4xx_hal_pwr_ex.c ****   * @brief Enable the Power Voltage Monitoring 2: VDDIO2 versus 0.9V.
 897:Drivers/STM32L4xx_HAL_Driver/Src/stm32l4xx_hal_pwr_ex.c ****   * @retval None
 898:Drivers/STM32L4xx_HAL_Driver/Src/stm32l4xx_hal_pwr_ex.c ****   */
 899:Drivers/STM32L4xx_HAL_Driver/Src/stm32l4xx_hal_pwr_ex.c **** void HAL_PWREx_EnablePVM2(void)
 900:Drivers/STM32L4xx_HAL_Driver/Src/stm32l4xx_hal_pwr_ex.c **** {
 901:Drivers/STM32L4xx_HAL_Driver/Src/stm32l4xx_hal_pwr_ex.c ****   SET_BIT(PWR->CR2, PWR_PVM_2);
 902:Drivers/STM32L4xx_HAL_Driver/Src/stm32l4xx_hal_pwr_ex.c **** }
 903:Drivers/STM32L4xx_HAL_Driver/Src/stm32l4xx_hal_pwr_ex.c **** 
 904:Drivers/STM32L4xx_HAL_Driver/Src/stm32l4xx_hal_pwr_ex.c **** /**
 905:Drivers/STM32L4xx_HAL_Driver/Src/stm32l4xx_hal_pwr_ex.c ****   * @brief Disable the Power Voltage Monitoring 2: VDDIO2 versus 0.9V.
 906:Drivers/STM32L4xx_HAL_Driver/Src/stm32l4xx_hal_pwr_ex.c ****   * @retval None
 907:Drivers/STM32L4xx_HAL_Driver/Src/stm32l4xx_hal_pwr_ex.c ****   */
ARM GAS  /tmp/ccCHRL2h.s 			page 40


 908:Drivers/STM32L4xx_HAL_Driver/Src/stm32l4xx_hal_pwr_ex.c **** void HAL_PWREx_DisablePVM2(void)
 909:Drivers/STM32L4xx_HAL_Driver/Src/stm32l4xx_hal_pwr_ex.c **** {
 910:Drivers/STM32L4xx_HAL_Driver/Src/stm32l4xx_hal_pwr_ex.c ****   CLEAR_BIT(PWR->CR2, PWR_PVM_2);
 911:Drivers/STM32L4xx_HAL_Driver/Src/stm32l4xx_hal_pwr_ex.c **** }
 912:Drivers/STM32L4xx_HAL_Driver/Src/stm32l4xx_hal_pwr_ex.c **** #endif /* PWR_CR2_PVME2 */
 913:Drivers/STM32L4xx_HAL_Driver/Src/stm32l4xx_hal_pwr_ex.c **** 
 914:Drivers/STM32L4xx_HAL_Driver/Src/stm32l4xx_hal_pwr_ex.c **** 
 915:Drivers/STM32L4xx_HAL_Driver/Src/stm32l4xx_hal_pwr_ex.c **** /**
 916:Drivers/STM32L4xx_HAL_Driver/Src/stm32l4xx_hal_pwr_ex.c ****   * @brief Enable the Power Voltage Monitoring 3: VDDA versus 1.62V.
 917:Drivers/STM32L4xx_HAL_Driver/Src/stm32l4xx_hal_pwr_ex.c ****   * @retval None
 918:Drivers/STM32L4xx_HAL_Driver/Src/stm32l4xx_hal_pwr_ex.c ****   */
 919:Drivers/STM32L4xx_HAL_Driver/Src/stm32l4xx_hal_pwr_ex.c **** void HAL_PWREx_EnablePVM3(void)
 920:Drivers/STM32L4xx_HAL_Driver/Src/stm32l4xx_hal_pwr_ex.c **** {
 1353              		.loc 1 920 1
 1354              		.cfi_startproc
 1355              		@ args = 0, pretend = 0, frame = 0
 1356              		@ frame_needed = 1, uses_anonymous_args = 0
 1357              		@ link register save eliminated.
 1358 0000 80B4     		push	{r7}
 1359              	.LCFI86:
 1360              		.cfi_def_cfa_offset 4
 1361              		.cfi_offset 7, -4
 1362 0002 00AF     		add	r7, sp, #0
 1363              	.LCFI87:
 1364              		.cfi_def_cfa_register 7
 921:Drivers/STM32L4xx_HAL_Driver/Src/stm32l4xx_hal_pwr_ex.c ****   SET_BIT(PWR->CR2, PWR_PVM_3);
 1365              		.loc 1 921 3
 1366 0004 054B     		ldr	r3, .L98
 1367 0006 5B68     		ldr	r3, [r3, #4]
 1368 0008 044A     		ldr	r2, .L98
 1369 000a 43F04003 		orr	r3, r3, #64
 1370 000e 5360     		str	r3, [r2, #4]
 922:Drivers/STM32L4xx_HAL_Driver/Src/stm32l4xx_hal_pwr_ex.c **** }
 1371              		.loc 1 922 1
 1372 0010 00BF     		nop
 1373 0012 BD46     		mov	sp, r7
 1374              	.LCFI88:
 1375              		.cfi_def_cfa_register 13
 1376              		@ sp needed
 1377 0014 5DF8047B 		ldr	r7, [sp], #4
 1378              	.LCFI89:
 1379              		.cfi_restore 7
 1380              		.cfi_def_cfa_offset 0
 1381 0018 7047     		bx	lr
 1382              	.L99:
 1383 001a 00BF     		.align	2
 1384              	.L98:
 1385 001c 00700040 		.word	1073770496
 1386              		.cfi_endproc
 1387              	.LFE151:
 1389              		.section	.text.HAL_PWREx_DisablePVM3,"ax",%progbits
 1390              		.align	1
 1391              		.global	HAL_PWREx_DisablePVM3
 1392              		.syntax unified
 1393              		.thumb
 1394              		.thumb_func
 1396              	HAL_PWREx_DisablePVM3:
ARM GAS  /tmp/ccCHRL2h.s 			page 41


 1397              	.LFB152:
 923:Drivers/STM32L4xx_HAL_Driver/Src/stm32l4xx_hal_pwr_ex.c **** 
 924:Drivers/STM32L4xx_HAL_Driver/Src/stm32l4xx_hal_pwr_ex.c **** /**
 925:Drivers/STM32L4xx_HAL_Driver/Src/stm32l4xx_hal_pwr_ex.c ****   * @brief Disable the Power Voltage Monitoring 3: VDDA versus 1.62V.
 926:Drivers/STM32L4xx_HAL_Driver/Src/stm32l4xx_hal_pwr_ex.c ****   * @retval None
 927:Drivers/STM32L4xx_HAL_Driver/Src/stm32l4xx_hal_pwr_ex.c ****   */
 928:Drivers/STM32L4xx_HAL_Driver/Src/stm32l4xx_hal_pwr_ex.c **** void HAL_PWREx_DisablePVM3(void)
 929:Drivers/STM32L4xx_HAL_Driver/Src/stm32l4xx_hal_pwr_ex.c **** {
 1398              		.loc 1 929 1
 1399              		.cfi_startproc
 1400              		@ args = 0, pretend = 0, frame = 0
 1401              		@ frame_needed = 1, uses_anonymous_args = 0
 1402              		@ link register save eliminated.
 1403 0000 80B4     		push	{r7}
 1404              	.LCFI90:
 1405              		.cfi_def_cfa_offset 4
 1406              		.cfi_offset 7, -4
 1407 0002 00AF     		add	r7, sp, #0
 1408              	.LCFI91:
 1409              		.cfi_def_cfa_register 7
 930:Drivers/STM32L4xx_HAL_Driver/Src/stm32l4xx_hal_pwr_ex.c ****   CLEAR_BIT(PWR->CR2, PWR_PVM_3);
 1410              		.loc 1 930 3
 1411 0004 054B     		ldr	r3, .L101
 1412 0006 5B68     		ldr	r3, [r3, #4]
 1413 0008 044A     		ldr	r2, .L101
 1414 000a 23F04003 		bic	r3, r3, #64
 1415 000e 5360     		str	r3, [r2, #4]
 931:Drivers/STM32L4xx_HAL_Driver/Src/stm32l4xx_hal_pwr_ex.c **** }
 1416              		.loc 1 931 1
 1417 0010 00BF     		nop
 1418 0012 BD46     		mov	sp, r7
 1419              	.LCFI92:
 1420              		.cfi_def_cfa_register 13
 1421              		@ sp needed
 1422 0014 5DF8047B 		ldr	r7, [sp], #4
 1423              	.LCFI93:
 1424              		.cfi_restore 7
 1425              		.cfi_def_cfa_offset 0
 1426 0018 7047     		bx	lr
 1427              	.L102:
 1428 001a 00BF     		.align	2
 1429              	.L101:
 1430 001c 00700040 		.word	1073770496
 1431              		.cfi_endproc
 1432              	.LFE152:
 1434              		.section	.text.HAL_PWREx_EnablePVM4,"ax",%progbits
 1435              		.align	1
 1436              		.global	HAL_PWREx_EnablePVM4
 1437              		.syntax unified
 1438              		.thumb
 1439              		.thumb_func
 1441              	HAL_PWREx_EnablePVM4:
 1442              	.LFB153:
 932:Drivers/STM32L4xx_HAL_Driver/Src/stm32l4xx_hal_pwr_ex.c **** 
 933:Drivers/STM32L4xx_HAL_Driver/Src/stm32l4xx_hal_pwr_ex.c **** 
 934:Drivers/STM32L4xx_HAL_Driver/Src/stm32l4xx_hal_pwr_ex.c **** /**
 935:Drivers/STM32L4xx_HAL_Driver/Src/stm32l4xx_hal_pwr_ex.c ****   * @brief Enable the Power Voltage Monitoring 4:  VDDA versus 2.2V.
ARM GAS  /tmp/ccCHRL2h.s 			page 42


 936:Drivers/STM32L4xx_HAL_Driver/Src/stm32l4xx_hal_pwr_ex.c ****   * @retval None
 937:Drivers/STM32L4xx_HAL_Driver/Src/stm32l4xx_hal_pwr_ex.c ****   */
 938:Drivers/STM32L4xx_HAL_Driver/Src/stm32l4xx_hal_pwr_ex.c **** void HAL_PWREx_EnablePVM4(void)
 939:Drivers/STM32L4xx_HAL_Driver/Src/stm32l4xx_hal_pwr_ex.c **** {
 1443              		.loc 1 939 1
 1444              		.cfi_startproc
 1445              		@ args = 0, pretend = 0, frame = 0
 1446              		@ frame_needed = 1, uses_anonymous_args = 0
 1447              		@ link register save eliminated.
 1448 0000 80B4     		push	{r7}
 1449              	.LCFI94:
 1450              		.cfi_def_cfa_offset 4
 1451              		.cfi_offset 7, -4
 1452 0002 00AF     		add	r7, sp, #0
 1453              	.LCFI95:
 1454              		.cfi_def_cfa_register 7
 940:Drivers/STM32L4xx_HAL_Driver/Src/stm32l4xx_hal_pwr_ex.c ****   SET_BIT(PWR->CR2, PWR_PVM_4);
 1455              		.loc 1 940 3
 1456 0004 054B     		ldr	r3, .L104
 1457 0006 5B68     		ldr	r3, [r3, #4]
 1458 0008 044A     		ldr	r2, .L104
 1459 000a 43F08003 		orr	r3, r3, #128
 1460 000e 5360     		str	r3, [r2, #4]
 941:Drivers/STM32L4xx_HAL_Driver/Src/stm32l4xx_hal_pwr_ex.c **** }
 1461              		.loc 1 941 1
 1462 0010 00BF     		nop
 1463 0012 BD46     		mov	sp, r7
 1464              	.LCFI96:
 1465              		.cfi_def_cfa_register 13
 1466              		@ sp needed
 1467 0014 5DF8047B 		ldr	r7, [sp], #4
 1468              	.LCFI97:
 1469              		.cfi_restore 7
 1470              		.cfi_def_cfa_offset 0
 1471 0018 7047     		bx	lr
 1472              	.L105:
 1473 001a 00BF     		.align	2
 1474              	.L104:
 1475 001c 00700040 		.word	1073770496
 1476              		.cfi_endproc
 1477              	.LFE153:
 1479              		.section	.text.HAL_PWREx_DisablePVM4,"ax",%progbits
 1480              		.align	1
 1481              		.global	HAL_PWREx_DisablePVM4
 1482              		.syntax unified
 1483              		.thumb
 1484              		.thumb_func
 1486              	HAL_PWREx_DisablePVM4:
 1487              	.LFB154:
 942:Drivers/STM32L4xx_HAL_Driver/Src/stm32l4xx_hal_pwr_ex.c **** 
 943:Drivers/STM32L4xx_HAL_Driver/Src/stm32l4xx_hal_pwr_ex.c **** /**
 944:Drivers/STM32L4xx_HAL_Driver/Src/stm32l4xx_hal_pwr_ex.c ****   * @brief Disable the Power Voltage Monitoring 4:  VDDA versus 2.2V.
 945:Drivers/STM32L4xx_HAL_Driver/Src/stm32l4xx_hal_pwr_ex.c ****   * @retval None
 946:Drivers/STM32L4xx_HAL_Driver/Src/stm32l4xx_hal_pwr_ex.c ****   */
 947:Drivers/STM32L4xx_HAL_Driver/Src/stm32l4xx_hal_pwr_ex.c **** void HAL_PWREx_DisablePVM4(void)
 948:Drivers/STM32L4xx_HAL_Driver/Src/stm32l4xx_hal_pwr_ex.c **** {
 1488              		.loc 1 948 1
ARM GAS  /tmp/ccCHRL2h.s 			page 43


 1489              		.cfi_startproc
 1490              		@ args = 0, pretend = 0, frame = 0
 1491              		@ frame_needed = 1, uses_anonymous_args = 0
 1492              		@ link register save eliminated.
 1493 0000 80B4     		push	{r7}
 1494              	.LCFI98:
 1495              		.cfi_def_cfa_offset 4
 1496              		.cfi_offset 7, -4
 1497 0002 00AF     		add	r7, sp, #0
 1498              	.LCFI99:
 1499              		.cfi_def_cfa_register 7
 949:Drivers/STM32L4xx_HAL_Driver/Src/stm32l4xx_hal_pwr_ex.c ****   CLEAR_BIT(PWR->CR2, PWR_PVM_4);
 1500              		.loc 1 949 3
 1501 0004 054B     		ldr	r3, .L107
 1502 0006 5B68     		ldr	r3, [r3, #4]
 1503 0008 044A     		ldr	r2, .L107
 1504 000a 23F08003 		bic	r3, r3, #128
 1505 000e 5360     		str	r3, [r2, #4]
 950:Drivers/STM32L4xx_HAL_Driver/Src/stm32l4xx_hal_pwr_ex.c **** }
 1506              		.loc 1 950 1
 1507 0010 00BF     		nop
 1508 0012 BD46     		mov	sp, r7
 1509              	.LCFI100:
 1510              		.cfi_def_cfa_register 13
 1511              		@ sp needed
 1512 0014 5DF8047B 		ldr	r7, [sp], #4
 1513              	.LCFI101:
 1514              		.cfi_restore 7
 1515              		.cfi_def_cfa_offset 0
 1516 0018 7047     		bx	lr
 1517              	.L108:
 1518 001a 00BF     		.align	2
 1519              	.L107:
 1520 001c 00700040 		.word	1073770496
 1521              		.cfi_endproc
 1522              	.LFE154:
 1524              		.section	.text.HAL_PWREx_ConfigPVM,"ax",%progbits
 1525              		.align	1
 1526              		.global	HAL_PWREx_ConfigPVM
 1527              		.syntax unified
 1528              		.thumb
 1529              		.thumb_func
 1531              	HAL_PWREx_ConfigPVM:
 1532              	.LFB155:
 951:Drivers/STM32L4xx_HAL_Driver/Src/stm32l4xx_hal_pwr_ex.c **** 
 952:Drivers/STM32L4xx_HAL_Driver/Src/stm32l4xx_hal_pwr_ex.c **** 
 953:Drivers/STM32L4xx_HAL_Driver/Src/stm32l4xx_hal_pwr_ex.c **** 
 954:Drivers/STM32L4xx_HAL_Driver/Src/stm32l4xx_hal_pwr_ex.c **** 
 955:Drivers/STM32L4xx_HAL_Driver/Src/stm32l4xx_hal_pwr_ex.c **** /**
 956:Drivers/STM32L4xx_HAL_Driver/Src/stm32l4xx_hal_pwr_ex.c ****   * @brief Configure the Peripheral Voltage Monitoring (PVM).
 957:Drivers/STM32L4xx_HAL_Driver/Src/stm32l4xx_hal_pwr_ex.c ****   * @param sConfigPVM: pointer to a PWR_PVMTypeDef structure that contains the
 958:Drivers/STM32L4xx_HAL_Driver/Src/stm32l4xx_hal_pwr_ex.c ****   *        PVM configuration information.
 959:Drivers/STM32L4xx_HAL_Driver/Src/stm32l4xx_hal_pwr_ex.c ****   * @note The API configures a single PVM according to the information contained
 960:Drivers/STM32L4xx_HAL_Driver/Src/stm32l4xx_hal_pwr_ex.c ****   *       in the input structure. To configure several PVMs, the API must be singly
 961:Drivers/STM32L4xx_HAL_Driver/Src/stm32l4xx_hal_pwr_ex.c ****   *       called for each PVM used.
 962:Drivers/STM32L4xx_HAL_Driver/Src/stm32l4xx_hal_pwr_ex.c ****   * @note Refer to the electrical characteristics of your device datasheet for
 963:Drivers/STM32L4xx_HAL_Driver/Src/stm32l4xx_hal_pwr_ex.c ****   *         more details about the voltage thresholds corresponding to each
ARM GAS  /tmp/ccCHRL2h.s 			page 44


 964:Drivers/STM32L4xx_HAL_Driver/Src/stm32l4xx_hal_pwr_ex.c ****   *         detection level and to each monitored supply.
 965:Drivers/STM32L4xx_HAL_Driver/Src/stm32l4xx_hal_pwr_ex.c ****   * @retval HAL status
 966:Drivers/STM32L4xx_HAL_Driver/Src/stm32l4xx_hal_pwr_ex.c ****   */
 967:Drivers/STM32L4xx_HAL_Driver/Src/stm32l4xx_hal_pwr_ex.c **** HAL_StatusTypeDef HAL_PWREx_ConfigPVM(PWR_PVMTypeDef *sConfigPVM)
 968:Drivers/STM32L4xx_HAL_Driver/Src/stm32l4xx_hal_pwr_ex.c **** {
 1533              		.loc 1 968 1
 1534              		.cfi_startproc
 1535              		@ args = 0, pretend = 0, frame = 16
 1536              		@ frame_needed = 1, uses_anonymous_args = 0
 1537              		@ link register save eliminated.
 1538 0000 80B4     		push	{r7}
 1539              	.LCFI102:
 1540              		.cfi_def_cfa_offset 4
 1541              		.cfi_offset 7, -4
 1542 0002 85B0     		sub	sp, sp, #20
 1543              	.LCFI103:
 1544              		.cfi_def_cfa_offset 24
 1545 0004 00AF     		add	r7, sp, #0
 1546              	.LCFI104:
 1547              		.cfi_def_cfa_register 7
 1548 0006 7860     		str	r0, [r7, #4]
 969:Drivers/STM32L4xx_HAL_Driver/Src/stm32l4xx_hal_pwr_ex.c ****   HAL_StatusTypeDef status = HAL_OK;
 1549              		.loc 1 969 21
 1550 0008 0023     		movs	r3, #0
 1551 000a FB73     		strb	r3, [r7, #15]
 970:Drivers/STM32L4xx_HAL_Driver/Src/stm32l4xx_hal_pwr_ex.c **** 
 971:Drivers/STM32L4xx_HAL_Driver/Src/stm32l4xx_hal_pwr_ex.c ****   /* Check the parameters */
 972:Drivers/STM32L4xx_HAL_Driver/Src/stm32l4xx_hal_pwr_ex.c ****   assert_param(IS_PWR_PVM_TYPE(sConfigPVM->PVMType));
 973:Drivers/STM32L4xx_HAL_Driver/Src/stm32l4xx_hal_pwr_ex.c ****   assert_param(IS_PWR_PVM_MODE(sConfigPVM->Mode));
 974:Drivers/STM32L4xx_HAL_Driver/Src/stm32l4xx_hal_pwr_ex.c **** 
 975:Drivers/STM32L4xx_HAL_Driver/Src/stm32l4xx_hal_pwr_ex.c **** 
 976:Drivers/STM32L4xx_HAL_Driver/Src/stm32l4xx_hal_pwr_ex.c ****   /* Configure EXTI 35 to 38 interrupts if so required:
 977:Drivers/STM32L4xx_HAL_Driver/Src/stm32l4xx_hal_pwr_ex.c ****      scan thru PVMType to detect which PVMx is set and
 978:Drivers/STM32L4xx_HAL_Driver/Src/stm32l4xx_hal_pwr_ex.c ****      configure the corresponding EXTI line accordingly. */
 979:Drivers/STM32L4xx_HAL_Driver/Src/stm32l4xx_hal_pwr_ex.c ****   switch (sConfigPVM->PVMType)
 1552              		.loc 1 979 21
 1553 000c 7B68     		ldr	r3, [r7, #4]
 1554 000e 1B68     		ldr	r3, [r3]
 1555              		.loc 1 979 3
 1556 0010 802B     		cmp	r3, #128
 1557 0012 00F09B80 		beq	.L110
 1558 0016 802B     		cmp	r3, #128
 1559 0018 00F2E180 		bhi	.L111
 1560 001c 102B     		cmp	r3, #16
 1561 001e 02D0     		beq	.L112
 1562 0020 402B     		cmp	r3, #64
 1563 0022 4AD0     		beq	.L113
 1564 0024 DBE0     		b	.L111
 1565              	.L112:
 980:Drivers/STM32L4xx_HAL_Driver/Src/stm32l4xx_hal_pwr_ex.c ****   {
 981:Drivers/STM32L4xx_HAL_Driver/Src/stm32l4xx_hal_pwr_ex.c **** #if defined(PWR_CR2_PVME1)
 982:Drivers/STM32L4xx_HAL_Driver/Src/stm32l4xx_hal_pwr_ex.c ****     case PWR_PVM_1:
 983:Drivers/STM32L4xx_HAL_Driver/Src/stm32l4xx_hal_pwr_ex.c ****       /* Clear any previous config. Keep it clear if no event or IT mode is selected */
 984:Drivers/STM32L4xx_HAL_Driver/Src/stm32l4xx_hal_pwr_ex.c ****       __HAL_PWR_PVM1_EXTI_DISABLE_EVENT();
 1566              		.loc 1 984 7
 1567 0026 754B     		ldr	r3, .L131
 1568 0028 5B6A     		ldr	r3, [r3, #36]
ARM GAS  /tmp/ccCHRL2h.s 			page 45


 1569 002a 744A     		ldr	r2, .L131
 1570 002c 23F00803 		bic	r3, r3, #8
 1571 0030 5362     		str	r3, [r2, #36]
 985:Drivers/STM32L4xx_HAL_Driver/Src/stm32l4xx_hal_pwr_ex.c ****       __HAL_PWR_PVM1_EXTI_DISABLE_IT();
 1572              		.loc 1 985 7
 1573 0032 724B     		ldr	r3, .L131
 1574 0034 1B6A     		ldr	r3, [r3, #32]
 1575 0036 714A     		ldr	r2, .L131
 1576 0038 23F00803 		bic	r3, r3, #8
 1577 003c 1362     		str	r3, [r2, #32]
 986:Drivers/STM32L4xx_HAL_Driver/Src/stm32l4xx_hal_pwr_ex.c ****       __HAL_PWR_PVM1_EXTI_DISABLE_FALLING_EDGE();
 1578              		.loc 1 986 7
 1579 003e 6F4B     		ldr	r3, .L131
 1580 0040 DB6A     		ldr	r3, [r3, #44]
 1581 0042 6E4A     		ldr	r2, .L131
 1582 0044 23F00803 		bic	r3, r3, #8
 1583 0048 D362     		str	r3, [r2, #44]
 987:Drivers/STM32L4xx_HAL_Driver/Src/stm32l4xx_hal_pwr_ex.c ****       __HAL_PWR_PVM1_EXTI_DISABLE_RISING_EDGE();
 1584              		.loc 1 987 7
 1585 004a 6C4B     		ldr	r3, .L131
 1586 004c 9B6A     		ldr	r3, [r3, #40]
 1587 004e 6B4A     		ldr	r2, .L131
 1588 0050 23F00803 		bic	r3, r3, #8
 1589 0054 9362     		str	r3, [r2, #40]
 988:Drivers/STM32L4xx_HAL_Driver/Src/stm32l4xx_hal_pwr_ex.c **** 
 989:Drivers/STM32L4xx_HAL_Driver/Src/stm32l4xx_hal_pwr_ex.c ****       /* Configure interrupt mode */
 990:Drivers/STM32L4xx_HAL_Driver/Src/stm32l4xx_hal_pwr_ex.c ****       if((sConfigPVM->Mode & PVM_MODE_IT) == PVM_MODE_IT)
 1590              		.loc 1 990 21
 1591 0056 7B68     		ldr	r3, [r7, #4]
 1592 0058 5B68     		ldr	r3, [r3, #4]
 1593              		.loc 1 990 28
 1594 005a 03F48033 		and	r3, r3, #65536
 1595              		.loc 1 990 9
 1596 005e 002B     		cmp	r3, #0
 1597 0060 05D0     		beq	.L114
 991:Drivers/STM32L4xx_HAL_Driver/Src/stm32l4xx_hal_pwr_ex.c ****       {
 992:Drivers/STM32L4xx_HAL_Driver/Src/stm32l4xx_hal_pwr_ex.c ****         __HAL_PWR_PVM1_EXTI_ENABLE_IT();
 1598              		.loc 1 992 9
 1599 0062 664B     		ldr	r3, .L131
 1600 0064 1B6A     		ldr	r3, [r3, #32]
 1601 0066 654A     		ldr	r2, .L131
 1602 0068 43F00803 		orr	r3, r3, #8
 1603 006c 1362     		str	r3, [r2, #32]
 1604              	.L114:
 993:Drivers/STM32L4xx_HAL_Driver/Src/stm32l4xx_hal_pwr_ex.c ****       }
 994:Drivers/STM32L4xx_HAL_Driver/Src/stm32l4xx_hal_pwr_ex.c **** 
 995:Drivers/STM32L4xx_HAL_Driver/Src/stm32l4xx_hal_pwr_ex.c ****       /* Configure event mode */
 996:Drivers/STM32L4xx_HAL_Driver/Src/stm32l4xx_hal_pwr_ex.c ****       if((sConfigPVM->Mode & PVM_MODE_EVT) == PVM_MODE_EVT)
 1605              		.loc 1 996 21
 1606 006e 7B68     		ldr	r3, [r7, #4]
 1607 0070 5B68     		ldr	r3, [r3, #4]
 1608              		.loc 1 996 28
 1609 0072 03F40033 		and	r3, r3, #131072
 1610              		.loc 1 996 9
 1611 0076 002B     		cmp	r3, #0
 1612 0078 05D0     		beq	.L115
 997:Drivers/STM32L4xx_HAL_Driver/Src/stm32l4xx_hal_pwr_ex.c ****       {
ARM GAS  /tmp/ccCHRL2h.s 			page 46


 998:Drivers/STM32L4xx_HAL_Driver/Src/stm32l4xx_hal_pwr_ex.c ****         __HAL_PWR_PVM1_EXTI_ENABLE_EVENT();
 1613              		.loc 1 998 9
 1614 007a 604B     		ldr	r3, .L131
 1615 007c 5B6A     		ldr	r3, [r3, #36]
 1616 007e 5F4A     		ldr	r2, .L131
 1617 0080 43F00803 		orr	r3, r3, #8
 1618 0084 5362     		str	r3, [r2, #36]
 1619              	.L115:
 999:Drivers/STM32L4xx_HAL_Driver/Src/stm32l4xx_hal_pwr_ex.c ****       }
1000:Drivers/STM32L4xx_HAL_Driver/Src/stm32l4xx_hal_pwr_ex.c **** 
1001:Drivers/STM32L4xx_HAL_Driver/Src/stm32l4xx_hal_pwr_ex.c ****       /* Configure the edge */
1002:Drivers/STM32L4xx_HAL_Driver/Src/stm32l4xx_hal_pwr_ex.c ****       if((sConfigPVM->Mode & PVM_RISING_EDGE) == PVM_RISING_EDGE)
 1620              		.loc 1 1002 21
 1621 0086 7B68     		ldr	r3, [r7, #4]
 1622 0088 5B68     		ldr	r3, [r3, #4]
 1623              		.loc 1 1002 28
 1624 008a 03F00103 		and	r3, r3, #1
 1625              		.loc 1 1002 9
 1626 008e 002B     		cmp	r3, #0
 1627 0090 05D0     		beq	.L116
1003:Drivers/STM32L4xx_HAL_Driver/Src/stm32l4xx_hal_pwr_ex.c ****       {
1004:Drivers/STM32L4xx_HAL_Driver/Src/stm32l4xx_hal_pwr_ex.c ****         __HAL_PWR_PVM1_EXTI_ENABLE_RISING_EDGE();
 1628              		.loc 1 1004 9
 1629 0092 5A4B     		ldr	r3, .L131
 1630 0094 9B6A     		ldr	r3, [r3, #40]
 1631 0096 594A     		ldr	r2, .L131
 1632 0098 43F00803 		orr	r3, r3, #8
 1633 009c 9362     		str	r3, [r2, #40]
 1634              	.L116:
1005:Drivers/STM32L4xx_HAL_Driver/Src/stm32l4xx_hal_pwr_ex.c ****       }
1006:Drivers/STM32L4xx_HAL_Driver/Src/stm32l4xx_hal_pwr_ex.c **** 
1007:Drivers/STM32L4xx_HAL_Driver/Src/stm32l4xx_hal_pwr_ex.c ****       if((sConfigPVM->Mode & PVM_FALLING_EDGE) == PVM_FALLING_EDGE)
 1635              		.loc 1 1007 21
 1636 009e 7B68     		ldr	r3, [r7, #4]
 1637 00a0 5B68     		ldr	r3, [r3, #4]
 1638              		.loc 1 1007 28
 1639 00a2 03F00203 		and	r3, r3, #2
 1640              		.loc 1 1007 9
 1641 00a6 002B     		cmp	r3, #0
 1642 00a8 00F09C80 		beq	.L128
1008:Drivers/STM32L4xx_HAL_Driver/Src/stm32l4xx_hal_pwr_ex.c ****       {
1009:Drivers/STM32L4xx_HAL_Driver/Src/stm32l4xx_hal_pwr_ex.c ****         __HAL_PWR_PVM1_EXTI_ENABLE_FALLING_EDGE();
 1643              		.loc 1 1009 9
 1644 00ac 534B     		ldr	r3, .L131
 1645 00ae DB6A     		ldr	r3, [r3, #44]
 1646 00b0 524A     		ldr	r2, .L131
 1647 00b2 43F00803 		orr	r3, r3, #8
 1648 00b6 D362     		str	r3, [r2, #44]
1010:Drivers/STM32L4xx_HAL_Driver/Src/stm32l4xx_hal_pwr_ex.c ****       }
1011:Drivers/STM32L4xx_HAL_Driver/Src/stm32l4xx_hal_pwr_ex.c ****       break;
 1649              		.loc 1 1011 7
 1650 00b8 94E0     		b	.L128
 1651              	.L113:
1012:Drivers/STM32L4xx_HAL_Driver/Src/stm32l4xx_hal_pwr_ex.c **** #endif /* PWR_CR2_PVME1 */
1013:Drivers/STM32L4xx_HAL_Driver/Src/stm32l4xx_hal_pwr_ex.c **** 
1014:Drivers/STM32L4xx_HAL_Driver/Src/stm32l4xx_hal_pwr_ex.c **** #if defined(PWR_CR2_PVME2)
1015:Drivers/STM32L4xx_HAL_Driver/Src/stm32l4xx_hal_pwr_ex.c ****     case PWR_PVM_2:
ARM GAS  /tmp/ccCHRL2h.s 			page 47


1016:Drivers/STM32L4xx_HAL_Driver/Src/stm32l4xx_hal_pwr_ex.c ****       /* Clear any previous config. Keep it clear if no event or IT mode is selected */
1017:Drivers/STM32L4xx_HAL_Driver/Src/stm32l4xx_hal_pwr_ex.c ****       __HAL_PWR_PVM2_EXTI_DISABLE_EVENT();
1018:Drivers/STM32L4xx_HAL_Driver/Src/stm32l4xx_hal_pwr_ex.c ****       __HAL_PWR_PVM2_EXTI_DISABLE_IT();
1019:Drivers/STM32L4xx_HAL_Driver/Src/stm32l4xx_hal_pwr_ex.c ****       __HAL_PWR_PVM2_EXTI_DISABLE_FALLING_EDGE();
1020:Drivers/STM32L4xx_HAL_Driver/Src/stm32l4xx_hal_pwr_ex.c ****       __HAL_PWR_PVM2_EXTI_DISABLE_RISING_EDGE();
1021:Drivers/STM32L4xx_HAL_Driver/Src/stm32l4xx_hal_pwr_ex.c **** 
1022:Drivers/STM32L4xx_HAL_Driver/Src/stm32l4xx_hal_pwr_ex.c ****       /* Configure interrupt mode */
1023:Drivers/STM32L4xx_HAL_Driver/Src/stm32l4xx_hal_pwr_ex.c ****       if((sConfigPVM->Mode & PVM_MODE_IT) == PVM_MODE_IT)
1024:Drivers/STM32L4xx_HAL_Driver/Src/stm32l4xx_hal_pwr_ex.c ****       {
1025:Drivers/STM32L4xx_HAL_Driver/Src/stm32l4xx_hal_pwr_ex.c ****         __HAL_PWR_PVM2_EXTI_ENABLE_IT();
1026:Drivers/STM32L4xx_HAL_Driver/Src/stm32l4xx_hal_pwr_ex.c ****       }
1027:Drivers/STM32L4xx_HAL_Driver/Src/stm32l4xx_hal_pwr_ex.c **** 
1028:Drivers/STM32L4xx_HAL_Driver/Src/stm32l4xx_hal_pwr_ex.c ****       /* Configure event mode */
1029:Drivers/STM32L4xx_HAL_Driver/Src/stm32l4xx_hal_pwr_ex.c ****       if((sConfigPVM->Mode & PVM_MODE_EVT) == PVM_MODE_EVT)
1030:Drivers/STM32L4xx_HAL_Driver/Src/stm32l4xx_hal_pwr_ex.c ****       {
1031:Drivers/STM32L4xx_HAL_Driver/Src/stm32l4xx_hal_pwr_ex.c ****         __HAL_PWR_PVM2_EXTI_ENABLE_EVENT();
1032:Drivers/STM32L4xx_HAL_Driver/Src/stm32l4xx_hal_pwr_ex.c ****       }
1033:Drivers/STM32L4xx_HAL_Driver/Src/stm32l4xx_hal_pwr_ex.c **** 
1034:Drivers/STM32L4xx_HAL_Driver/Src/stm32l4xx_hal_pwr_ex.c ****       /* Configure the edge */
1035:Drivers/STM32L4xx_HAL_Driver/Src/stm32l4xx_hal_pwr_ex.c ****       if((sConfigPVM->Mode & PVM_RISING_EDGE) == PVM_RISING_EDGE)
1036:Drivers/STM32L4xx_HAL_Driver/Src/stm32l4xx_hal_pwr_ex.c ****       {
1037:Drivers/STM32L4xx_HAL_Driver/Src/stm32l4xx_hal_pwr_ex.c ****         __HAL_PWR_PVM2_EXTI_ENABLE_RISING_EDGE();
1038:Drivers/STM32L4xx_HAL_Driver/Src/stm32l4xx_hal_pwr_ex.c ****       }
1039:Drivers/STM32L4xx_HAL_Driver/Src/stm32l4xx_hal_pwr_ex.c **** 
1040:Drivers/STM32L4xx_HAL_Driver/Src/stm32l4xx_hal_pwr_ex.c ****       if((sConfigPVM->Mode & PVM_FALLING_EDGE) == PVM_FALLING_EDGE)
1041:Drivers/STM32L4xx_HAL_Driver/Src/stm32l4xx_hal_pwr_ex.c ****       {
1042:Drivers/STM32L4xx_HAL_Driver/Src/stm32l4xx_hal_pwr_ex.c ****         __HAL_PWR_PVM2_EXTI_ENABLE_FALLING_EDGE();
1043:Drivers/STM32L4xx_HAL_Driver/Src/stm32l4xx_hal_pwr_ex.c ****       }
1044:Drivers/STM32L4xx_HAL_Driver/Src/stm32l4xx_hal_pwr_ex.c ****       break;
1045:Drivers/STM32L4xx_HAL_Driver/Src/stm32l4xx_hal_pwr_ex.c **** #endif /* PWR_CR2_PVME2 */
1046:Drivers/STM32L4xx_HAL_Driver/Src/stm32l4xx_hal_pwr_ex.c **** 
1047:Drivers/STM32L4xx_HAL_Driver/Src/stm32l4xx_hal_pwr_ex.c ****     case PWR_PVM_3:
1048:Drivers/STM32L4xx_HAL_Driver/Src/stm32l4xx_hal_pwr_ex.c ****       /* Clear any previous config. Keep it clear if no event or IT mode is selected */
1049:Drivers/STM32L4xx_HAL_Driver/Src/stm32l4xx_hal_pwr_ex.c ****       __HAL_PWR_PVM3_EXTI_DISABLE_EVENT();
 1652              		.loc 1 1049 7
 1653 00ba 504B     		ldr	r3, .L131
 1654 00bc 5B6A     		ldr	r3, [r3, #36]
 1655 00be 4F4A     		ldr	r2, .L131
 1656 00c0 23F02003 		bic	r3, r3, #32
 1657 00c4 5362     		str	r3, [r2, #36]
1050:Drivers/STM32L4xx_HAL_Driver/Src/stm32l4xx_hal_pwr_ex.c ****       __HAL_PWR_PVM3_EXTI_DISABLE_IT();
 1658              		.loc 1 1050 7
 1659 00c6 4D4B     		ldr	r3, .L131
 1660 00c8 1B6A     		ldr	r3, [r3, #32]
 1661 00ca 4C4A     		ldr	r2, .L131
 1662 00cc 23F02003 		bic	r3, r3, #32
 1663 00d0 1362     		str	r3, [r2, #32]
1051:Drivers/STM32L4xx_HAL_Driver/Src/stm32l4xx_hal_pwr_ex.c ****       __HAL_PWR_PVM3_EXTI_DISABLE_FALLING_EDGE();
 1664              		.loc 1 1051 7
 1665 00d2 4A4B     		ldr	r3, .L131
 1666 00d4 DB6A     		ldr	r3, [r3, #44]
 1667 00d6 494A     		ldr	r2, .L131
 1668 00d8 23F02003 		bic	r3, r3, #32
 1669 00dc D362     		str	r3, [r2, #44]
1052:Drivers/STM32L4xx_HAL_Driver/Src/stm32l4xx_hal_pwr_ex.c ****       __HAL_PWR_PVM3_EXTI_DISABLE_RISING_EDGE();
 1670              		.loc 1 1052 7
 1671 00de 474B     		ldr	r3, .L131
ARM GAS  /tmp/ccCHRL2h.s 			page 48


 1672 00e0 9B6A     		ldr	r3, [r3, #40]
 1673 00e2 464A     		ldr	r2, .L131
 1674 00e4 23F02003 		bic	r3, r3, #32
 1675 00e8 9362     		str	r3, [r2, #40]
1053:Drivers/STM32L4xx_HAL_Driver/Src/stm32l4xx_hal_pwr_ex.c **** 
1054:Drivers/STM32L4xx_HAL_Driver/Src/stm32l4xx_hal_pwr_ex.c ****       /* Configure interrupt mode */
1055:Drivers/STM32L4xx_HAL_Driver/Src/stm32l4xx_hal_pwr_ex.c ****       if((sConfigPVM->Mode & PVM_MODE_IT) == PVM_MODE_IT)
 1676              		.loc 1 1055 21
 1677 00ea 7B68     		ldr	r3, [r7, #4]
 1678 00ec 5B68     		ldr	r3, [r3, #4]
 1679              		.loc 1 1055 28
 1680 00ee 03F48033 		and	r3, r3, #65536
 1681              		.loc 1 1055 9
 1682 00f2 002B     		cmp	r3, #0
 1683 00f4 05D0     		beq	.L119
1056:Drivers/STM32L4xx_HAL_Driver/Src/stm32l4xx_hal_pwr_ex.c ****       {
1057:Drivers/STM32L4xx_HAL_Driver/Src/stm32l4xx_hal_pwr_ex.c ****         __HAL_PWR_PVM3_EXTI_ENABLE_IT();
 1684              		.loc 1 1057 9
 1685 00f6 414B     		ldr	r3, .L131
 1686 00f8 1B6A     		ldr	r3, [r3, #32]
 1687 00fa 404A     		ldr	r2, .L131
 1688 00fc 43F02003 		orr	r3, r3, #32
 1689 0100 1362     		str	r3, [r2, #32]
 1690              	.L119:
1058:Drivers/STM32L4xx_HAL_Driver/Src/stm32l4xx_hal_pwr_ex.c ****       }
1059:Drivers/STM32L4xx_HAL_Driver/Src/stm32l4xx_hal_pwr_ex.c **** 
1060:Drivers/STM32L4xx_HAL_Driver/Src/stm32l4xx_hal_pwr_ex.c ****       /* Configure event mode */
1061:Drivers/STM32L4xx_HAL_Driver/Src/stm32l4xx_hal_pwr_ex.c ****       if((sConfigPVM->Mode & PVM_MODE_EVT) == PVM_MODE_EVT)
 1691              		.loc 1 1061 21
 1692 0102 7B68     		ldr	r3, [r7, #4]
 1693 0104 5B68     		ldr	r3, [r3, #4]
 1694              		.loc 1 1061 28
 1695 0106 03F40033 		and	r3, r3, #131072
 1696              		.loc 1 1061 9
 1697 010a 002B     		cmp	r3, #0
 1698 010c 05D0     		beq	.L120
1062:Drivers/STM32L4xx_HAL_Driver/Src/stm32l4xx_hal_pwr_ex.c ****       {
1063:Drivers/STM32L4xx_HAL_Driver/Src/stm32l4xx_hal_pwr_ex.c ****         __HAL_PWR_PVM3_EXTI_ENABLE_EVENT();
 1699              		.loc 1 1063 9
 1700 010e 3B4B     		ldr	r3, .L131
 1701 0110 5B6A     		ldr	r3, [r3, #36]
 1702 0112 3A4A     		ldr	r2, .L131
 1703 0114 43F02003 		orr	r3, r3, #32
 1704 0118 5362     		str	r3, [r2, #36]
 1705              	.L120:
1064:Drivers/STM32L4xx_HAL_Driver/Src/stm32l4xx_hal_pwr_ex.c ****       }
1065:Drivers/STM32L4xx_HAL_Driver/Src/stm32l4xx_hal_pwr_ex.c **** 
1066:Drivers/STM32L4xx_HAL_Driver/Src/stm32l4xx_hal_pwr_ex.c ****       /* Configure the edge */
1067:Drivers/STM32L4xx_HAL_Driver/Src/stm32l4xx_hal_pwr_ex.c ****       if((sConfigPVM->Mode & PVM_RISING_EDGE) == PVM_RISING_EDGE)
 1706              		.loc 1 1067 21
 1707 011a 7B68     		ldr	r3, [r7, #4]
 1708 011c 5B68     		ldr	r3, [r3, #4]
 1709              		.loc 1 1067 28
 1710 011e 03F00103 		and	r3, r3, #1
 1711              		.loc 1 1067 9
 1712 0122 002B     		cmp	r3, #0
 1713 0124 05D0     		beq	.L121
ARM GAS  /tmp/ccCHRL2h.s 			page 49


1068:Drivers/STM32L4xx_HAL_Driver/Src/stm32l4xx_hal_pwr_ex.c ****       {
1069:Drivers/STM32L4xx_HAL_Driver/Src/stm32l4xx_hal_pwr_ex.c ****         __HAL_PWR_PVM3_EXTI_ENABLE_RISING_EDGE();
 1714              		.loc 1 1069 9
 1715 0126 354B     		ldr	r3, .L131
 1716 0128 9B6A     		ldr	r3, [r3, #40]
 1717 012a 344A     		ldr	r2, .L131
 1718 012c 43F02003 		orr	r3, r3, #32
 1719 0130 9362     		str	r3, [r2, #40]
 1720              	.L121:
1070:Drivers/STM32L4xx_HAL_Driver/Src/stm32l4xx_hal_pwr_ex.c ****       }
1071:Drivers/STM32L4xx_HAL_Driver/Src/stm32l4xx_hal_pwr_ex.c **** 
1072:Drivers/STM32L4xx_HAL_Driver/Src/stm32l4xx_hal_pwr_ex.c ****       if((sConfigPVM->Mode & PVM_FALLING_EDGE) == PVM_FALLING_EDGE)
 1721              		.loc 1 1072 21
 1722 0132 7B68     		ldr	r3, [r7, #4]
 1723 0134 5B68     		ldr	r3, [r3, #4]
 1724              		.loc 1 1072 28
 1725 0136 03F00203 		and	r3, r3, #2
 1726              		.loc 1 1072 9
 1727 013a 002B     		cmp	r3, #0
 1728 013c 54D0     		beq	.L129
1073:Drivers/STM32L4xx_HAL_Driver/Src/stm32l4xx_hal_pwr_ex.c ****       {
1074:Drivers/STM32L4xx_HAL_Driver/Src/stm32l4xx_hal_pwr_ex.c ****         __HAL_PWR_PVM3_EXTI_ENABLE_FALLING_EDGE();
 1729              		.loc 1 1074 9
 1730 013e 2F4B     		ldr	r3, .L131
 1731 0140 DB6A     		ldr	r3, [r3, #44]
 1732 0142 2E4A     		ldr	r2, .L131
 1733 0144 43F02003 		orr	r3, r3, #32
 1734 0148 D362     		str	r3, [r2, #44]
1075:Drivers/STM32L4xx_HAL_Driver/Src/stm32l4xx_hal_pwr_ex.c ****       }
1076:Drivers/STM32L4xx_HAL_Driver/Src/stm32l4xx_hal_pwr_ex.c ****       break;
 1735              		.loc 1 1076 7
 1736 014a 4DE0     		b	.L129
 1737              	.L110:
1077:Drivers/STM32L4xx_HAL_Driver/Src/stm32l4xx_hal_pwr_ex.c **** 
1078:Drivers/STM32L4xx_HAL_Driver/Src/stm32l4xx_hal_pwr_ex.c ****     case PWR_PVM_4:
1079:Drivers/STM32L4xx_HAL_Driver/Src/stm32l4xx_hal_pwr_ex.c ****       /* Clear any previous config. Keep it clear if no event or IT mode is selected */
1080:Drivers/STM32L4xx_HAL_Driver/Src/stm32l4xx_hal_pwr_ex.c ****       __HAL_PWR_PVM4_EXTI_DISABLE_EVENT();
 1738              		.loc 1 1080 7
 1739 014c 2B4B     		ldr	r3, .L131
 1740 014e 5B6A     		ldr	r3, [r3, #36]
 1741 0150 2A4A     		ldr	r2, .L131
 1742 0152 23F04003 		bic	r3, r3, #64
 1743 0156 5362     		str	r3, [r2, #36]
1081:Drivers/STM32L4xx_HAL_Driver/Src/stm32l4xx_hal_pwr_ex.c ****       __HAL_PWR_PVM4_EXTI_DISABLE_IT();
 1744              		.loc 1 1081 7
 1745 0158 284B     		ldr	r3, .L131
 1746 015a 1B6A     		ldr	r3, [r3, #32]
 1747 015c 274A     		ldr	r2, .L131
 1748 015e 23F04003 		bic	r3, r3, #64
 1749 0162 1362     		str	r3, [r2, #32]
1082:Drivers/STM32L4xx_HAL_Driver/Src/stm32l4xx_hal_pwr_ex.c ****       __HAL_PWR_PVM4_EXTI_DISABLE_FALLING_EDGE();
 1750              		.loc 1 1082 7
 1751 0164 254B     		ldr	r3, .L131
 1752 0166 DB6A     		ldr	r3, [r3, #44]
 1753 0168 244A     		ldr	r2, .L131
 1754 016a 23F04003 		bic	r3, r3, #64
 1755 016e D362     		str	r3, [r2, #44]
ARM GAS  /tmp/ccCHRL2h.s 			page 50


1083:Drivers/STM32L4xx_HAL_Driver/Src/stm32l4xx_hal_pwr_ex.c ****       __HAL_PWR_PVM4_EXTI_DISABLE_RISING_EDGE();
 1756              		.loc 1 1083 7
 1757 0170 224B     		ldr	r3, .L131
 1758 0172 9B6A     		ldr	r3, [r3, #40]
 1759 0174 214A     		ldr	r2, .L131
 1760 0176 23F04003 		bic	r3, r3, #64
 1761 017a 9362     		str	r3, [r2, #40]
1084:Drivers/STM32L4xx_HAL_Driver/Src/stm32l4xx_hal_pwr_ex.c **** 
1085:Drivers/STM32L4xx_HAL_Driver/Src/stm32l4xx_hal_pwr_ex.c ****       /* Configure interrupt mode */
1086:Drivers/STM32L4xx_HAL_Driver/Src/stm32l4xx_hal_pwr_ex.c ****       if((sConfigPVM->Mode & PVM_MODE_IT) == PVM_MODE_IT)
 1762              		.loc 1 1086 21
 1763 017c 7B68     		ldr	r3, [r7, #4]
 1764 017e 5B68     		ldr	r3, [r3, #4]
 1765              		.loc 1 1086 28
 1766 0180 03F48033 		and	r3, r3, #65536
 1767              		.loc 1 1086 9
 1768 0184 002B     		cmp	r3, #0
 1769 0186 05D0     		beq	.L123
1087:Drivers/STM32L4xx_HAL_Driver/Src/stm32l4xx_hal_pwr_ex.c ****       {
1088:Drivers/STM32L4xx_HAL_Driver/Src/stm32l4xx_hal_pwr_ex.c ****         __HAL_PWR_PVM4_EXTI_ENABLE_IT();
 1770              		.loc 1 1088 9
 1771 0188 1C4B     		ldr	r3, .L131
 1772 018a 1B6A     		ldr	r3, [r3, #32]
 1773 018c 1B4A     		ldr	r2, .L131
 1774 018e 43F04003 		orr	r3, r3, #64
 1775 0192 1362     		str	r3, [r2, #32]
 1776              	.L123:
1089:Drivers/STM32L4xx_HAL_Driver/Src/stm32l4xx_hal_pwr_ex.c ****       }
1090:Drivers/STM32L4xx_HAL_Driver/Src/stm32l4xx_hal_pwr_ex.c **** 
1091:Drivers/STM32L4xx_HAL_Driver/Src/stm32l4xx_hal_pwr_ex.c ****       /* Configure event mode */
1092:Drivers/STM32L4xx_HAL_Driver/Src/stm32l4xx_hal_pwr_ex.c ****       if((sConfigPVM->Mode & PVM_MODE_EVT) == PVM_MODE_EVT)
 1777              		.loc 1 1092 21
 1778 0194 7B68     		ldr	r3, [r7, #4]
 1779 0196 5B68     		ldr	r3, [r3, #4]
 1780              		.loc 1 1092 28
 1781 0198 03F40033 		and	r3, r3, #131072
 1782              		.loc 1 1092 9
 1783 019c 002B     		cmp	r3, #0
 1784 019e 05D0     		beq	.L124
1093:Drivers/STM32L4xx_HAL_Driver/Src/stm32l4xx_hal_pwr_ex.c ****       {
1094:Drivers/STM32L4xx_HAL_Driver/Src/stm32l4xx_hal_pwr_ex.c ****         __HAL_PWR_PVM4_EXTI_ENABLE_EVENT();
 1785              		.loc 1 1094 9
 1786 01a0 164B     		ldr	r3, .L131
 1787 01a2 5B6A     		ldr	r3, [r3, #36]
 1788 01a4 154A     		ldr	r2, .L131
 1789 01a6 43F04003 		orr	r3, r3, #64
 1790 01aa 5362     		str	r3, [r2, #36]
 1791              	.L124:
1095:Drivers/STM32L4xx_HAL_Driver/Src/stm32l4xx_hal_pwr_ex.c ****       }
1096:Drivers/STM32L4xx_HAL_Driver/Src/stm32l4xx_hal_pwr_ex.c **** 
1097:Drivers/STM32L4xx_HAL_Driver/Src/stm32l4xx_hal_pwr_ex.c ****       /* Configure the edge */
1098:Drivers/STM32L4xx_HAL_Driver/Src/stm32l4xx_hal_pwr_ex.c ****       if((sConfigPVM->Mode & PVM_RISING_EDGE) == PVM_RISING_EDGE)
 1792              		.loc 1 1098 21
 1793 01ac 7B68     		ldr	r3, [r7, #4]
 1794 01ae 5B68     		ldr	r3, [r3, #4]
 1795              		.loc 1 1098 28
 1796 01b0 03F00103 		and	r3, r3, #1
ARM GAS  /tmp/ccCHRL2h.s 			page 51


 1797              		.loc 1 1098 9
 1798 01b4 002B     		cmp	r3, #0
 1799 01b6 05D0     		beq	.L125
1099:Drivers/STM32L4xx_HAL_Driver/Src/stm32l4xx_hal_pwr_ex.c ****       {
1100:Drivers/STM32L4xx_HAL_Driver/Src/stm32l4xx_hal_pwr_ex.c ****         __HAL_PWR_PVM4_EXTI_ENABLE_RISING_EDGE();
 1800              		.loc 1 1100 9
 1801 01b8 104B     		ldr	r3, .L131
 1802 01ba 9B6A     		ldr	r3, [r3, #40]
 1803 01bc 0F4A     		ldr	r2, .L131
 1804 01be 43F04003 		orr	r3, r3, #64
 1805 01c2 9362     		str	r3, [r2, #40]
 1806              	.L125:
1101:Drivers/STM32L4xx_HAL_Driver/Src/stm32l4xx_hal_pwr_ex.c ****       }
1102:Drivers/STM32L4xx_HAL_Driver/Src/stm32l4xx_hal_pwr_ex.c **** 
1103:Drivers/STM32L4xx_HAL_Driver/Src/stm32l4xx_hal_pwr_ex.c ****       if((sConfigPVM->Mode & PVM_FALLING_EDGE) == PVM_FALLING_EDGE)
 1807              		.loc 1 1103 21
 1808 01c4 7B68     		ldr	r3, [r7, #4]
 1809 01c6 5B68     		ldr	r3, [r3, #4]
 1810              		.loc 1 1103 28
 1811 01c8 03F00203 		and	r3, r3, #2
 1812              		.loc 1 1103 9
 1813 01cc 002B     		cmp	r3, #0
 1814 01ce 0DD0     		beq	.L130
1104:Drivers/STM32L4xx_HAL_Driver/Src/stm32l4xx_hal_pwr_ex.c ****       {
1105:Drivers/STM32L4xx_HAL_Driver/Src/stm32l4xx_hal_pwr_ex.c ****         __HAL_PWR_PVM4_EXTI_ENABLE_FALLING_EDGE();
 1815              		.loc 1 1105 9
 1816 01d0 0A4B     		ldr	r3, .L131
 1817 01d2 DB6A     		ldr	r3, [r3, #44]
 1818 01d4 094A     		ldr	r2, .L131
 1819 01d6 43F04003 		orr	r3, r3, #64
 1820 01da D362     		str	r3, [r2, #44]
1106:Drivers/STM32L4xx_HAL_Driver/Src/stm32l4xx_hal_pwr_ex.c ****       }
1107:Drivers/STM32L4xx_HAL_Driver/Src/stm32l4xx_hal_pwr_ex.c ****       break;
 1821              		.loc 1 1107 7
 1822 01dc 06E0     		b	.L130
 1823              	.L111:
1108:Drivers/STM32L4xx_HAL_Driver/Src/stm32l4xx_hal_pwr_ex.c **** 
1109:Drivers/STM32L4xx_HAL_Driver/Src/stm32l4xx_hal_pwr_ex.c ****     default:
1110:Drivers/STM32L4xx_HAL_Driver/Src/stm32l4xx_hal_pwr_ex.c ****       status = HAL_ERROR;
 1824              		.loc 1 1110 14
 1825 01de 0123     		movs	r3, #1
 1826 01e0 FB73     		strb	r3, [r7, #15]
1111:Drivers/STM32L4xx_HAL_Driver/Src/stm32l4xx_hal_pwr_ex.c ****       break;
 1827              		.loc 1 1111 7
 1828 01e2 04E0     		b	.L118
 1829              	.L128:
1011:Drivers/STM32L4xx_HAL_Driver/Src/stm32l4xx_hal_pwr_ex.c **** #endif /* PWR_CR2_PVME1 */
 1830              		.loc 1 1011 7
 1831 01e4 00BF     		nop
 1832 01e6 02E0     		b	.L118
 1833              	.L129:
1076:Drivers/STM32L4xx_HAL_Driver/Src/stm32l4xx_hal_pwr_ex.c **** 
 1834              		.loc 1 1076 7
 1835 01e8 00BF     		nop
 1836 01ea 00E0     		b	.L118
 1837              	.L130:
1107:Drivers/STM32L4xx_HAL_Driver/Src/stm32l4xx_hal_pwr_ex.c **** 
ARM GAS  /tmp/ccCHRL2h.s 			page 52


 1838              		.loc 1 1107 7
 1839 01ec 00BF     		nop
 1840              	.L118:
1112:Drivers/STM32L4xx_HAL_Driver/Src/stm32l4xx_hal_pwr_ex.c ****   }
1113:Drivers/STM32L4xx_HAL_Driver/Src/stm32l4xx_hal_pwr_ex.c **** 
1114:Drivers/STM32L4xx_HAL_Driver/Src/stm32l4xx_hal_pwr_ex.c ****   return status;
 1841              		.loc 1 1114 10
 1842 01ee FB7B     		ldrb	r3, [r7, #15]	@ zero_extendqisi2
1115:Drivers/STM32L4xx_HAL_Driver/Src/stm32l4xx_hal_pwr_ex.c **** }
 1843              		.loc 1 1115 1
 1844 01f0 1846     		mov	r0, r3
 1845 01f2 1437     		adds	r7, r7, #20
 1846              	.LCFI105:
 1847              		.cfi_def_cfa_offset 4
 1848 01f4 BD46     		mov	sp, r7
 1849              	.LCFI106:
 1850              		.cfi_def_cfa_register 13
 1851              		@ sp needed
 1852 01f6 5DF8047B 		ldr	r7, [sp], #4
 1853              	.LCFI107:
 1854              		.cfi_restore 7
 1855              		.cfi_def_cfa_offset 0
 1856 01fa 7047     		bx	lr
 1857              	.L132:
 1858              		.align	2
 1859              	.L131:
 1860 01fc 00040140 		.word	1073808384
 1861              		.cfi_endproc
 1862              	.LFE155:
 1864              		.section	.text.HAL_PWREx_EnableLowPowerRunMode,"ax",%progbits
 1865              		.align	1
 1866              		.global	HAL_PWREx_EnableLowPowerRunMode
 1867              		.syntax unified
 1868              		.thumb
 1869              		.thumb_func
 1871              	HAL_PWREx_EnableLowPowerRunMode:
 1872              	.LFB156:
1116:Drivers/STM32L4xx_HAL_Driver/Src/stm32l4xx_hal_pwr_ex.c **** 
1117:Drivers/STM32L4xx_HAL_Driver/Src/stm32l4xx_hal_pwr_ex.c **** 
1118:Drivers/STM32L4xx_HAL_Driver/Src/stm32l4xx_hal_pwr_ex.c **** 
1119:Drivers/STM32L4xx_HAL_Driver/Src/stm32l4xx_hal_pwr_ex.c **** /**
1120:Drivers/STM32L4xx_HAL_Driver/Src/stm32l4xx_hal_pwr_ex.c ****   * @brief Enter Low-power Run mode
1121:Drivers/STM32L4xx_HAL_Driver/Src/stm32l4xx_hal_pwr_ex.c ****   * @note  In Low-power Run mode, all I/O pins keep the same state as in Run mode.
1122:Drivers/STM32L4xx_HAL_Driver/Src/stm32l4xx_hal_pwr_ex.c ****   * @note  When Regulator is set to PWR_LOWPOWERREGULATOR_ON, the user can optionally configure the
1123:Drivers/STM32L4xx_HAL_Driver/Src/stm32l4xx_hal_pwr_ex.c ****   *        Flash in power-down monde in setting the RUN_PD bit in FLASH_ACR register.
1124:Drivers/STM32L4xx_HAL_Driver/Src/stm32l4xx_hal_pwr_ex.c ****   *        Additionally, the clock frequency must be reduced below 2 MHz.
1125:Drivers/STM32L4xx_HAL_Driver/Src/stm32l4xx_hal_pwr_ex.c ****   *        Setting RUN_PD in FLASH_ACR then appropriately reducing the clock frequency must
1126:Drivers/STM32L4xx_HAL_Driver/Src/stm32l4xx_hal_pwr_ex.c ****   *        be done before calling HAL_PWREx_EnableLowPowerRunMode() API.
1127:Drivers/STM32L4xx_HAL_Driver/Src/stm32l4xx_hal_pwr_ex.c ****   * @retval None
1128:Drivers/STM32L4xx_HAL_Driver/Src/stm32l4xx_hal_pwr_ex.c ****   */
1129:Drivers/STM32L4xx_HAL_Driver/Src/stm32l4xx_hal_pwr_ex.c **** void HAL_PWREx_EnableLowPowerRunMode(void)
1130:Drivers/STM32L4xx_HAL_Driver/Src/stm32l4xx_hal_pwr_ex.c **** {
 1873              		.loc 1 1130 1
 1874              		.cfi_startproc
 1875              		@ args = 0, pretend = 0, frame = 0
 1876              		@ frame_needed = 1, uses_anonymous_args = 0
 1877              		@ link register save eliminated.
ARM GAS  /tmp/ccCHRL2h.s 			page 53


 1878 0000 80B4     		push	{r7}
 1879              	.LCFI108:
 1880              		.cfi_def_cfa_offset 4
 1881              		.cfi_offset 7, -4
 1882 0002 00AF     		add	r7, sp, #0
 1883              	.LCFI109:
 1884              		.cfi_def_cfa_register 7
1131:Drivers/STM32L4xx_HAL_Driver/Src/stm32l4xx_hal_pwr_ex.c ****   /* Set Regulator parameter */
1132:Drivers/STM32L4xx_HAL_Driver/Src/stm32l4xx_hal_pwr_ex.c ****   SET_BIT(PWR->CR1, PWR_CR1_LPR);
 1885              		.loc 1 1132 3
 1886 0004 054B     		ldr	r3, .L134
 1887 0006 1B68     		ldr	r3, [r3]
 1888 0008 044A     		ldr	r2, .L134
 1889 000a 43F48043 		orr	r3, r3, #16384
 1890 000e 1360     		str	r3, [r2]
1133:Drivers/STM32L4xx_HAL_Driver/Src/stm32l4xx_hal_pwr_ex.c **** }
 1891              		.loc 1 1133 1
 1892 0010 00BF     		nop
 1893 0012 BD46     		mov	sp, r7
 1894              	.LCFI110:
 1895              		.cfi_def_cfa_register 13
 1896              		@ sp needed
 1897 0014 5DF8047B 		ldr	r7, [sp], #4
 1898              	.LCFI111:
 1899              		.cfi_restore 7
 1900              		.cfi_def_cfa_offset 0
 1901 0018 7047     		bx	lr
 1902              	.L135:
 1903 001a 00BF     		.align	2
 1904              	.L134:
 1905 001c 00700040 		.word	1073770496
 1906              		.cfi_endproc
 1907              	.LFE156:
 1909              		.section	.text.HAL_PWREx_DisableLowPowerRunMode,"ax",%progbits
 1910              		.align	1
 1911              		.global	HAL_PWREx_DisableLowPowerRunMode
 1912              		.syntax unified
 1913              		.thumb
 1914              		.thumb_func
 1916              	HAL_PWREx_DisableLowPowerRunMode:
 1917              	.LFB157:
1134:Drivers/STM32L4xx_HAL_Driver/Src/stm32l4xx_hal_pwr_ex.c **** 
1135:Drivers/STM32L4xx_HAL_Driver/Src/stm32l4xx_hal_pwr_ex.c **** 
1136:Drivers/STM32L4xx_HAL_Driver/Src/stm32l4xx_hal_pwr_ex.c **** /**
1137:Drivers/STM32L4xx_HAL_Driver/Src/stm32l4xx_hal_pwr_ex.c ****   * @brief Exit Low-power Run mode.
1138:Drivers/STM32L4xx_HAL_Driver/Src/stm32l4xx_hal_pwr_ex.c ****   * @note  Before HAL_PWREx_DisableLowPowerRunMode() completion, the function checks that
1139:Drivers/STM32L4xx_HAL_Driver/Src/stm32l4xx_hal_pwr_ex.c ****   *        REGLPF has been properly reset (otherwise, HAL_PWREx_DisableLowPowerRunMode
1140:Drivers/STM32L4xx_HAL_Driver/Src/stm32l4xx_hal_pwr_ex.c ****   *        returns HAL_TIMEOUT status). The system clock frequency can then be
1141:Drivers/STM32L4xx_HAL_Driver/Src/stm32l4xx_hal_pwr_ex.c ****   *        increased above 2 MHz.
1142:Drivers/STM32L4xx_HAL_Driver/Src/stm32l4xx_hal_pwr_ex.c ****   * @retval HAL Status
1143:Drivers/STM32L4xx_HAL_Driver/Src/stm32l4xx_hal_pwr_ex.c ****   */
1144:Drivers/STM32L4xx_HAL_Driver/Src/stm32l4xx_hal_pwr_ex.c **** HAL_StatusTypeDef HAL_PWREx_DisableLowPowerRunMode(void)
1145:Drivers/STM32L4xx_HAL_Driver/Src/stm32l4xx_hal_pwr_ex.c **** {
 1918              		.loc 1 1145 1
 1919              		.cfi_startproc
 1920              		@ args = 0, pretend = 0, frame = 8
 1921              		@ frame_needed = 1, uses_anonymous_args = 0
ARM GAS  /tmp/ccCHRL2h.s 			page 54


 1922              		@ link register save eliminated.
 1923 0000 80B4     		push	{r7}
 1924              	.LCFI112:
 1925              		.cfi_def_cfa_offset 4
 1926              		.cfi_offset 7, -4
 1927 0002 83B0     		sub	sp, sp, #12
 1928              	.LCFI113:
 1929              		.cfi_def_cfa_offset 16
 1930 0004 00AF     		add	r7, sp, #0
 1931              	.LCFI114:
 1932              		.cfi_def_cfa_register 7
1146:Drivers/STM32L4xx_HAL_Driver/Src/stm32l4xx_hal_pwr_ex.c ****   uint32_t wait_loop_index;
1147:Drivers/STM32L4xx_HAL_Driver/Src/stm32l4xx_hal_pwr_ex.c **** 
1148:Drivers/STM32L4xx_HAL_Driver/Src/stm32l4xx_hal_pwr_ex.c ****   /* Clear LPR bit */
1149:Drivers/STM32L4xx_HAL_Driver/Src/stm32l4xx_hal_pwr_ex.c ****   CLEAR_BIT(PWR->CR1, PWR_CR1_LPR);
 1933              		.loc 1 1149 3
 1934 0006 174B     		ldr	r3, .L142
 1935 0008 1B68     		ldr	r3, [r3]
 1936 000a 164A     		ldr	r2, .L142
 1937 000c 23F48043 		bic	r3, r3, #16384
 1938 0010 1360     		str	r3, [r2]
1150:Drivers/STM32L4xx_HAL_Driver/Src/stm32l4xx_hal_pwr_ex.c **** 
1151:Drivers/STM32L4xx_HAL_Driver/Src/stm32l4xx_hal_pwr_ex.c ****   /* Wait until REGLPF is reset */
1152:Drivers/STM32L4xx_HAL_Driver/Src/stm32l4xx_hal_pwr_ex.c ****   wait_loop_index = ((PWR_FLAG_SETTING_DELAY_US * SystemCoreClock) / 1000000U) + 1U;
 1939              		.loc 1 1152 49
 1940 0012 154B     		ldr	r3, .L142+4
 1941 0014 1B68     		ldr	r3, [r3]
 1942 0016 3222     		movs	r2, #50
 1943 0018 02FB03F3 		mul	r3, r2, r3
 1944              		.loc 1 1152 68
 1945 001c 134A     		ldr	r2, .L142+8
 1946 001e A2FB0323 		umull	r2, r3, r2, r3
 1947 0022 9B0C     		lsrs	r3, r3, #18
 1948              		.loc 1 1152 19
 1949 0024 0133     		adds	r3, r3, #1
 1950 0026 7B60     		str	r3, [r7, #4]
1153:Drivers/STM32L4xx_HAL_Driver/Src/stm32l4xx_hal_pwr_ex.c ****   while ((HAL_IS_BIT_SET(PWR->SR2, PWR_SR2_REGLPF)) && (wait_loop_index != 0U))
 1951              		.loc 1 1153 9
 1952 0028 02E0     		b	.L137
 1953              	.L139:
1154:Drivers/STM32L4xx_HAL_Driver/Src/stm32l4xx_hal_pwr_ex.c ****   {
1155:Drivers/STM32L4xx_HAL_Driver/Src/stm32l4xx_hal_pwr_ex.c ****     wait_loop_index--;
 1954              		.loc 1 1155 20
 1955 002a 7B68     		ldr	r3, [r7, #4]
 1956 002c 013B     		subs	r3, r3, #1
 1957 002e 7B60     		str	r3, [r7, #4]
 1958              	.L137:
1153:Drivers/STM32L4xx_HAL_Driver/Src/stm32l4xx_hal_pwr_ex.c ****   while ((HAL_IS_BIT_SET(PWR->SR2, PWR_SR2_REGLPF)) && (wait_loop_index != 0U))
 1959              		.loc 1 1153 11
 1960 0030 0C4B     		ldr	r3, .L142
 1961 0032 5B69     		ldr	r3, [r3, #20]
 1962 0034 03F40073 		and	r3, r3, #512
1153:Drivers/STM32L4xx_HAL_Driver/Src/stm32l4xx_hal_pwr_ex.c ****   while ((HAL_IS_BIT_SET(PWR->SR2, PWR_SR2_REGLPF)) && (wait_loop_index != 0U))
 1963              		.loc 1 1153 9
 1964 0038 B3F5007F 		cmp	r3, #512
 1965 003c 02D1     		bne	.L138
1153:Drivers/STM32L4xx_HAL_Driver/Src/stm32l4xx_hal_pwr_ex.c ****   while ((HAL_IS_BIT_SET(PWR->SR2, PWR_SR2_REGLPF)) && (wait_loop_index != 0U))
ARM GAS  /tmp/ccCHRL2h.s 			page 55


 1966              		.loc 1 1153 53 discriminator 1
 1967 003e 7B68     		ldr	r3, [r7, #4]
 1968 0040 002B     		cmp	r3, #0
 1969 0042 F2D1     		bne	.L139
 1970              	.L138:
1156:Drivers/STM32L4xx_HAL_Driver/Src/stm32l4xx_hal_pwr_ex.c ****   }
1157:Drivers/STM32L4xx_HAL_Driver/Src/stm32l4xx_hal_pwr_ex.c ****   if (HAL_IS_BIT_SET(PWR->SR2, PWR_SR2_REGLPF))
 1971              		.loc 1 1157 7
 1972 0044 074B     		ldr	r3, .L142
 1973 0046 5B69     		ldr	r3, [r3, #20]
 1974 0048 03F40073 		and	r3, r3, #512
 1975              		.loc 1 1157 6
 1976 004c B3F5007F 		cmp	r3, #512
 1977 0050 01D1     		bne	.L140
1158:Drivers/STM32L4xx_HAL_Driver/Src/stm32l4xx_hal_pwr_ex.c ****   {
1159:Drivers/STM32L4xx_HAL_Driver/Src/stm32l4xx_hal_pwr_ex.c ****     return HAL_TIMEOUT;
 1978              		.loc 1 1159 12
 1979 0052 0323     		movs	r3, #3
 1980 0054 00E0     		b	.L141
 1981              	.L140:
1160:Drivers/STM32L4xx_HAL_Driver/Src/stm32l4xx_hal_pwr_ex.c ****   }
1161:Drivers/STM32L4xx_HAL_Driver/Src/stm32l4xx_hal_pwr_ex.c **** 
1162:Drivers/STM32L4xx_HAL_Driver/Src/stm32l4xx_hal_pwr_ex.c ****   return HAL_OK;
 1982              		.loc 1 1162 10
 1983 0056 0023     		movs	r3, #0
 1984              	.L141:
1163:Drivers/STM32L4xx_HAL_Driver/Src/stm32l4xx_hal_pwr_ex.c **** }
 1985              		.loc 1 1163 1
 1986 0058 1846     		mov	r0, r3
 1987 005a 0C37     		adds	r7, r7, #12
 1988              	.LCFI115:
 1989              		.cfi_def_cfa_offset 4
 1990 005c BD46     		mov	sp, r7
 1991              	.LCFI116:
 1992              		.cfi_def_cfa_register 13
 1993              		@ sp needed
 1994 005e 5DF8047B 		ldr	r7, [sp], #4
 1995              	.LCFI117:
 1996              		.cfi_restore 7
 1997              		.cfi_def_cfa_offset 0
 1998 0062 7047     		bx	lr
 1999              	.L143:
 2000              		.align	2
 2001              	.L142:
 2002 0064 00700040 		.word	1073770496
 2003 0068 00000000 		.word	SystemCoreClock
 2004 006c 83DE1B43 		.word	1125899907
 2005              		.cfi_endproc
 2006              	.LFE157:
 2008              		.section	.text.HAL_PWREx_EnterSTOP0Mode,"ax",%progbits
 2009              		.align	1
 2010              		.global	HAL_PWREx_EnterSTOP0Mode
 2011              		.syntax unified
 2012              		.thumb
 2013              		.thumb_func
 2015              	HAL_PWREx_EnterSTOP0Mode:
 2016              	.LFB158:
ARM GAS  /tmp/ccCHRL2h.s 			page 56


1164:Drivers/STM32L4xx_HAL_Driver/Src/stm32l4xx_hal_pwr_ex.c **** 
1165:Drivers/STM32L4xx_HAL_Driver/Src/stm32l4xx_hal_pwr_ex.c **** 
1166:Drivers/STM32L4xx_HAL_Driver/Src/stm32l4xx_hal_pwr_ex.c **** /**
1167:Drivers/STM32L4xx_HAL_Driver/Src/stm32l4xx_hal_pwr_ex.c ****   * @brief Enter Stop 0 mode.
1168:Drivers/STM32L4xx_HAL_Driver/Src/stm32l4xx_hal_pwr_ex.c ****   * @note  In Stop 0 mode, main and low voltage regulators are ON.
1169:Drivers/STM32L4xx_HAL_Driver/Src/stm32l4xx_hal_pwr_ex.c ****   * @note  In Stop 0 mode, all I/O pins keep the same state as in Run mode.
1170:Drivers/STM32L4xx_HAL_Driver/Src/stm32l4xx_hal_pwr_ex.c ****   * @note  All clocks in the VCORE domain are stopped; the PLL, the MSI,
1171:Drivers/STM32L4xx_HAL_Driver/Src/stm32l4xx_hal_pwr_ex.c ****   *        the HSI and the HSE oscillators are disabled. Some peripherals with the wakeup capabilit
1172:Drivers/STM32L4xx_HAL_Driver/Src/stm32l4xx_hal_pwr_ex.c ****   *        (I2Cx, USARTx and LPUART) can switch on the HSI to receive a frame, and switch off the H
1173:Drivers/STM32L4xx_HAL_Driver/Src/stm32l4xx_hal_pwr_ex.c ****   *        after receiving the frame if it is not a wakeup frame. In this case, the HSI clock is pr
1174:Drivers/STM32L4xx_HAL_Driver/Src/stm32l4xx_hal_pwr_ex.c ****   *        only to the peripheral requesting it.
1175:Drivers/STM32L4xx_HAL_Driver/Src/stm32l4xx_hal_pwr_ex.c ****   *        SRAM1, SRAM2 and register contents are preserved.
1176:Drivers/STM32L4xx_HAL_Driver/Src/stm32l4xx_hal_pwr_ex.c ****   *        The BOR is available.
1177:Drivers/STM32L4xx_HAL_Driver/Src/stm32l4xx_hal_pwr_ex.c ****   * @note  When exiting Stop 0 mode by issuing an interrupt or a wakeup event,
1178:Drivers/STM32L4xx_HAL_Driver/Src/stm32l4xx_hal_pwr_ex.c ****   *         the HSI RC oscillator is selected as system clock if STOPWUCK bit in RCC_CFGR register
1179:Drivers/STM32L4xx_HAL_Driver/Src/stm32l4xx_hal_pwr_ex.c ****   *         is set; the MSI oscillator is selected if STOPWUCK is cleared.
1180:Drivers/STM32L4xx_HAL_Driver/Src/stm32l4xx_hal_pwr_ex.c ****   * @note  By keeping the internal regulator ON during Stop 0 mode, the consumption
1181:Drivers/STM32L4xx_HAL_Driver/Src/stm32l4xx_hal_pwr_ex.c ****   *         is higher although the startup time is reduced.
1182:Drivers/STM32L4xx_HAL_Driver/Src/stm32l4xx_hal_pwr_ex.c ****   * @param STOPEntry  specifies if Stop mode in entered with WFI or WFE instruction.
1183:Drivers/STM32L4xx_HAL_Driver/Src/stm32l4xx_hal_pwr_ex.c ****   *          This parameter can be one of the following values:
1184:Drivers/STM32L4xx_HAL_Driver/Src/stm32l4xx_hal_pwr_ex.c ****   *            @arg @ref PWR_STOPENTRY_WFI  Enter Stop mode with WFI instruction
1185:Drivers/STM32L4xx_HAL_Driver/Src/stm32l4xx_hal_pwr_ex.c ****   *            @arg @ref PWR_STOPENTRY_WFE  Enter Stop mode with WFE instruction
1186:Drivers/STM32L4xx_HAL_Driver/Src/stm32l4xx_hal_pwr_ex.c ****   * @retval None
1187:Drivers/STM32L4xx_HAL_Driver/Src/stm32l4xx_hal_pwr_ex.c ****   */
1188:Drivers/STM32L4xx_HAL_Driver/Src/stm32l4xx_hal_pwr_ex.c **** void HAL_PWREx_EnterSTOP0Mode(uint8_t STOPEntry)
1189:Drivers/STM32L4xx_HAL_Driver/Src/stm32l4xx_hal_pwr_ex.c **** {
 2017              		.loc 1 1189 1
 2018              		.cfi_startproc
 2019              		@ args = 0, pretend = 0, frame = 8
 2020              		@ frame_needed = 1, uses_anonymous_args = 0
 2021              		@ link register save eliminated.
 2022 0000 80B4     		push	{r7}
 2023              	.LCFI118:
 2024              		.cfi_def_cfa_offset 4
 2025              		.cfi_offset 7, -4
 2026 0002 83B0     		sub	sp, sp, #12
 2027              	.LCFI119:
 2028              		.cfi_def_cfa_offset 16
 2029 0004 00AF     		add	r7, sp, #0
 2030              	.LCFI120:
 2031              		.cfi_def_cfa_register 7
 2032 0006 0346     		mov	r3, r0
 2033 0008 FB71     		strb	r3, [r7, #7]
1190:Drivers/STM32L4xx_HAL_Driver/Src/stm32l4xx_hal_pwr_ex.c ****   /* Check the parameters */
1191:Drivers/STM32L4xx_HAL_Driver/Src/stm32l4xx_hal_pwr_ex.c ****   assert_param(IS_PWR_STOP_ENTRY(STOPEntry));
1192:Drivers/STM32L4xx_HAL_Driver/Src/stm32l4xx_hal_pwr_ex.c **** 
1193:Drivers/STM32L4xx_HAL_Driver/Src/stm32l4xx_hal_pwr_ex.c ****   /* Stop 0 mode with Main Regulator */
1194:Drivers/STM32L4xx_HAL_Driver/Src/stm32l4xx_hal_pwr_ex.c ****   MODIFY_REG(PWR->CR1, PWR_CR1_LPMS, PWR_CR1_LPMS_STOP0);
 2034              		.loc 1 1194 3
 2035 000a 104B     		ldr	r3, .L147
 2036 000c 1B68     		ldr	r3, [r3]
 2037 000e 0F4A     		ldr	r2, .L147
 2038 0010 23F00703 		bic	r3, r3, #7
 2039 0014 1360     		str	r3, [r2]
1195:Drivers/STM32L4xx_HAL_Driver/Src/stm32l4xx_hal_pwr_ex.c **** 
1196:Drivers/STM32L4xx_HAL_Driver/Src/stm32l4xx_hal_pwr_ex.c ****   /* Set SLEEPDEEP bit of Cortex System Control Register */
1197:Drivers/STM32L4xx_HAL_Driver/Src/stm32l4xx_hal_pwr_ex.c ****   SET_BIT(SCB->SCR, ((uint32_t)SCB_SCR_SLEEPDEEP_Msk));
ARM GAS  /tmp/ccCHRL2h.s 			page 57


 2040              		.loc 1 1197 3
 2041 0016 0E4B     		ldr	r3, .L147+4
 2042 0018 1B69     		ldr	r3, [r3, #16]
 2043 001a 0D4A     		ldr	r2, .L147+4
 2044 001c 43F00403 		orr	r3, r3, #4
 2045 0020 1361     		str	r3, [r2, #16]
1198:Drivers/STM32L4xx_HAL_Driver/Src/stm32l4xx_hal_pwr_ex.c **** 
1199:Drivers/STM32L4xx_HAL_Driver/Src/stm32l4xx_hal_pwr_ex.c ****   /* Select Stop mode entry --------------------------------------------------*/
1200:Drivers/STM32L4xx_HAL_Driver/Src/stm32l4xx_hal_pwr_ex.c ****   if(STOPEntry == PWR_STOPENTRY_WFI)
 2046              		.loc 1 1200 5
 2047 0022 FB79     		ldrb	r3, [r7, #7]	@ zero_extendqisi2
 2048 0024 012B     		cmp	r3, #1
 2049 0026 01D1     		bne	.L145
1201:Drivers/STM32L4xx_HAL_Driver/Src/stm32l4xx_hal_pwr_ex.c ****   {
1202:Drivers/STM32L4xx_HAL_Driver/Src/stm32l4xx_hal_pwr_ex.c ****     /* Request Wait For Interrupt */
1203:Drivers/STM32L4xx_HAL_Driver/Src/stm32l4xx_hal_pwr_ex.c ****     __WFI();
 2050              		.loc 1 1203 5
 2051              		.syntax unified
 2052              	@ 1203 "Drivers/STM32L4xx_HAL_Driver/Src/stm32l4xx_hal_pwr_ex.c" 1
 2053 0028 30BF     		wfi
 2054              	@ 0 "" 2
 2055              		.thumb
 2056              		.syntax unified
 2057 002a 02E0     		b	.L146
 2058              	.L145:
1204:Drivers/STM32L4xx_HAL_Driver/Src/stm32l4xx_hal_pwr_ex.c ****   }
1205:Drivers/STM32L4xx_HAL_Driver/Src/stm32l4xx_hal_pwr_ex.c ****   else
1206:Drivers/STM32L4xx_HAL_Driver/Src/stm32l4xx_hal_pwr_ex.c ****   {
1207:Drivers/STM32L4xx_HAL_Driver/Src/stm32l4xx_hal_pwr_ex.c ****     /* Request Wait For Event */
1208:Drivers/STM32L4xx_HAL_Driver/Src/stm32l4xx_hal_pwr_ex.c ****     __SEV();
 2059              		.loc 1 1208 5
 2060              		.syntax unified
 2061              	@ 1208 "Drivers/STM32L4xx_HAL_Driver/Src/stm32l4xx_hal_pwr_ex.c" 1
 2062 002c 40BF     		sev
 2063              	@ 0 "" 2
1209:Drivers/STM32L4xx_HAL_Driver/Src/stm32l4xx_hal_pwr_ex.c ****     __WFE();
 2064              		.loc 1 1209 5
 2065              	@ 1209 "Drivers/STM32L4xx_HAL_Driver/Src/stm32l4xx_hal_pwr_ex.c" 1
 2066 002e 20BF     		wfe
 2067              	@ 0 "" 2
1210:Drivers/STM32L4xx_HAL_Driver/Src/stm32l4xx_hal_pwr_ex.c ****     __WFE();
 2068              		.loc 1 1210 5
 2069              	@ 1210 "Drivers/STM32L4xx_HAL_Driver/Src/stm32l4xx_hal_pwr_ex.c" 1
 2070 0030 20BF     		wfe
 2071              	@ 0 "" 2
 2072              		.thumb
 2073              		.syntax unified
 2074              	.L146:
1211:Drivers/STM32L4xx_HAL_Driver/Src/stm32l4xx_hal_pwr_ex.c ****   }
1212:Drivers/STM32L4xx_HAL_Driver/Src/stm32l4xx_hal_pwr_ex.c **** 
1213:Drivers/STM32L4xx_HAL_Driver/Src/stm32l4xx_hal_pwr_ex.c ****   /* Reset SLEEPDEEP bit of Cortex System Control Register */
1214:Drivers/STM32L4xx_HAL_Driver/Src/stm32l4xx_hal_pwr_ex.c ****   CLEAR_BIT(SCB->SCR, ((uint32_t)SCB_SCR_SLEEPDEEP_Msk));
 2075              		.loc 1 1214 3
 2076 0032 074B     		ldr	r3, .L147+4
 2077 0034 1B69     		ldr	r3, [r3, #16]
 2078 0036 064A     		ldr	r2, .L147+4
 2079 0038 23F00403 		bic	r3, r3, #4
ARM GAS  /tmp/ccCHRL2h.s 			page 58


 2080 003c 1361     		str	r3, [r2, #16]
1215:Drivers/STM32L4xx_HAL_Driver/Src/stm32l4xx_hal_pwr_ex.c **** }
 2081              		.loc 1 1215 1
 2082 003e 00BF     		nop
 2083 0040 0C37     		adds	r7, r7, #12
 2084              	.LCFI121:
 2085              		.cfi_def_cfa_offset 4
 2086 0042 BD46     		mov	sp, r7
 2087              	.LCFI122:
 2088              		.cfi_def_cfa_register 13
 2089              		@ sp needed
 2090 0044 5DF8047B 		ldr	r7, [sp], #4
 2091              	.LCFI123:
 2092              		.cfi_restore 7
 2093              		.cfi_def_cfa_offset 0
 2094 0048 7047     		bx	lr
 2095              	.L148:
 2096 004a 00BF     		.align	2
 2097              	.L147:
 2098 004c 00700040 		.word	1073770496
 2099 0050 00ED00E0 		.word	-536810240
 2100              		.cfi_endproc
 2101              	.LFE158:
 2103              		.section	.text.HAL_PWREx_EnterSTOP1Mode,"ax",%progbits
 2104              		.align	1
 2105              		.global	HAL_PWREx_EnterSTOP1Mode
 2106              		.syntax unified
 2107              		.thumb
 2108              		.thumb_func
 2110              	HAL_PWREx_EnterSTOP1Mode:
 2111              	.LFB159:
1216:Drivers/STM32L4xx_HAL_Driver/Src/stm32l4xx_hal_pwr_ex.c **** 
1217:Drivers/STM32L4xx_HAL_Driver/Src/stm32l4xx_hal_pwr_ex.c **** 
1218:Drivers/STM32L4xx_HAL_Driver/Src/stm32l4xx_hal_pwr_ex.c **** /**
1219:Drivers/STM32L4xx_HAL_Driver/Src/stm32l4xx_hal_pwr_ex.c ****   * @brief Enter Stop 1 mode.
1220:Drivers/STM32L4xx_HAL_Driver/Src/stm32l4xx_hal_pwr_ex.c ****   * @note  In Stop 1 mode, only low power voltage regulator is ON.
1221:Drivers/STM32L4xx_HAL_Driver/Src/stm32l4xx_hal_pwr_ex.c ****   * @note  In Stop 1 mode, all I/O pins keep the same state as in Run mode.
1222:Drivers/STM32L4xx_HAL_Driver/Src/stm32l4xx_hal_pwr_ex.c ****   * @note  All clocks in the VCORE domain are stopped; the PLL, the MSI,
1223:Drivers/STM32L4xx_HAL_Driver/Src/stm32l4xx_hal_pwr_ex.c ****   *        the HSI and the HSE oscillators are disabled. Some peripherals with the wakeup capabilit
1224:Drivers/STM32L4xx_HAL_Driver/Src/stm32l4xx_hal_pwr_ex.c ****   *        (I2Cx, USARTx and LPUART) can switch on the HSI to receive a frame, and switch off the H
1225:Drivers/STM32L4xx_HAL_Driver/Src/stm32l4xx_hal_pwr_ex.c ****   *        after receiving the frame if it is not a wakeup frame. In this case, the HSI clock is pr
1226:Drivers/STM32L4xx_HAL_Driver/Src/stm32l4xx_hal_pwr_ex.c ****   *        only to the peripheral requesting it.
1227:Drivers/STM32L4xx_HAL_Driver/Src/stm32l4xx_hal_pwr_ex.c ****   *        SRAM1, SRAM2 and register contents are preserved.
1228:Drivers/STM32L4xx_HAL_Driver/Src/stm32l4xx_hal_pwr_ex.c ****   *        The BOR is available.
1229:Drivers/STM32L4xx_HAL_Driver/Src/stm32l4xx_hal_pwr_ex.c ****   * @note  When exiting Stop 1 mode by issuing an interrupt or a wakeup event,
1230:Drivers/STM32L4xx_HAL_Driver/Src/stm32l4xx_hal_pwr_ex.c ****   *         the HSI RC oscillator is selected as system clock if STOPWUCK bit in RCC_CFGR register
1231:Drivers/STM32L4xx_HAL_Driver/Src/stm32l4xx_hal_pwr_ex.c ****   *         is set; the MSI oscillator is selected if STOPWUCK is cleared.
1232:Drivers/STM32L4xx_HAL_Driver/Src/stm32l4xx_hal_pwr_ex.c ****   * @note  Due to low power mode, an additional startup delay is incurred when waking up from Stop 
1233:Drivers/STM32L4xx_HAL_Driver/Src/stm32l4xx_hal_pwr_ex.c ****   * @param STOPEntry  specifies if Stop mode in entered with WFI or WFE instruction.
1234:Drivers/STM32L4xx_HAL_Driver/Src/stm32l4xx_hal_pwr_ex.c ****   *          This parameter can be one of the following values:
1235:Drivers/STM32L4xx_HAL_Driver/Src/stm32l4xx_hal_pwr_ex.c ****   *            @arg @ref PWR_STOPENTRY_WFI  Enter Stop mode with WFI instruction
1236:Drivers/STM32L4xx_HAL_Driver/Src/stm32l4xx_hal_pwr_ex.c ****   *            @arg @ref PWR_STOPENTRY_WFE  Enter Stop mode with WFE instruction
1237:Drivers/STM32L4xx_HAL_Driver/Src/stm32l4xx_hal_pwr_ex.c ****   * @retval None
1238:Drivers/STM32L4xx_HAL_Driver/Src/stm32l4xx_hal_pwr_ex.c ****   */
1239:Drivers/STM32L4xx_HAL_Driver/Src/stm32l4xx_hal_pwr_ex.c **** void HAL_PWREx_EnterSTOP1Mode(uint8_t STOPEntry)
1240:Drivers/STM32L4xx_HAL_Driver/Src/stm32l4xx_hal_pwr_ex.c **** {
 2112              		.loc 1 1240 1
ARM GAS  /tmp/ccCHRL2h.s 			page 59


 2113              		.cfi_startproc
 2114              		@ args = 0, pretend = 0, frame = 8
 2115              		@ frame_needed = 1, uses_anonymous_args = 0
 2116              		@ link register save eliminated.
 2117 0000 80B4     		push	{r7}
 2118              	.LCFI124:
 2119              		.cfi_def_cfa_offset 4
 2120              		.cfi_offset 7, -4
 2121 0002 83B0     		sub	sp, sp, #12
 2122              	.LCFI125:
 2123              		.cfi_def_cfa_offset 16
 2124 0004 00AF     		add	r7, sp, #0
 2125              	.LCFI126:
 2126              		.cfi_def_cfa_register 7
 2127 0006 0346     		mov	r3, r0
 2128 0008 FB71     		strb	r3, [r7, #7]
1241:Drivers/STM32L4xx_HAL_Driver/Src/stm32l4xx_hal_pwr_ex.c ****   /* Check the parameters */
1242:Drivers/STM32L4xx_HAL_Driver/Src/stm32l4xx_hal_pwr_ex.c ****   assert_param(IS_PWR_STOP_ENTRY(STOPEntry));
1243:Drivers/STM32L4xx_HAL_Driver/Src/stm32l4xx_hal_pwr_ex.c **** 
1244:Drivers/STM32L4xx_HAL_Driver/Src/stm32l4xx_hal_pwr_ex.c ****   /* Stop 1 mode with Low-Power Regulator */
1245:Drivers/STM32L4xx_HAL_Driver/Src/stm32l4xx_hal_pwr_ex.c ****   MODIFY_REG(PWR->CR1, PWR_CR1_LPMS, PWR_CR1_LPMS_STOP1);
 2129              		.loc 1 1245 3
 2130 000a 114B     		ldr	r3, .L152
 2131 000c 1B68     		ldr	r3, [r3]
 2132 000e 23F00703 		bic	r3, r3, #7
 2133 0012 0F4A     		ldr	r2, .L152
 2134 0014 43F00103 		orr	r3, r3, #1
 2135 0018 1360     		str	r3, [r2]
1246:Drivers/STM32L4xx_HAL_Driver/Src/stm32l4xx_hal_pwr_ex.c **** 
1247:Drivers/STM32L4xx_HAL_Driver/Src/stm32l4xx_hal_pwr_ex.c ****   /* Set SLEEPDEEP bit of Cortex System Control Register */
1248:Drivers/STM32L4xx_HAL_Driver/Src/stm32l4xx_hal_pwr_ex.c ****   SET_BIT(SCB->SCR, ((uint32_t)SCB_SCR_SLEEPDEEP_Msk));
 2136              		.loc 1 1248 3
 2137 001a 0E4B     		ldr	r3, .L152+4
 2138 001c 1B69     		ldr	r3, [r3, #16]
 2139 001e 0D4A     		ldr	r2, .L152+4
 2140 0020 43F00403 		orr	r3, r3, #4
 2141 0024 1361     		str	r3, [r2, #16]
1249:Drivers/STM32L4xx_HAL_Driver/Src/stm32l4xx_hal_pwr_ex.c **** 
1250:Drivers/STM32L4xx_HAL_Driver/Src/stm32l4xx_hal_pwr_ex.c ****   /* Select Stop mode entry --------------------------------------------------*/
1251:Drivers/STM32L4xx_HAL_Driver/Src/stm32l4xx_hal_pwr_ex.c ****   if(STOPEntry == PWR_STOPENTRY_WFI)
 2142              		.loc 1 1251 5
 2143 0026 FB79     		ldrb	r3, [r7, #7]	@ zero_extendqisi2
 2144 0028 012B     		cmp	r3, #1
 2145 002a 01D1     		bne	.L150
1252:Drivers/STM32L4xx_HAL_Driver/Src/stm32l4xx_hal_pwr_ex.c ****   {
1253:Drivers/STM32L4xx_HAL_Driver/Src/stm32l4xx_hal_pwr_ex.c ****     /* Request Wait For Interrupt */
1254:Drivers/STM32L4xx_HAL_Driver/Src/stm32l4xx_hal_pwr_ex.c ****     __WFI();
 2146              		.loc 1 1254 5
 2147              		.syntax unified
 2148              	@ 1254 "Drivers/STM32L4xx_HAL_Driver/Src/stm32l4xx_hal_pwr_ex.c" 1
 2149 002c 30BF     		wfi
 2150              	@ 0 "" 2
 2151              		.thumb
 2152              		.syntax unified
 2153 002e 02E0     		b	.L151
 2154              	.L150:
1255:Drivers/STM32L4xx_HAL_Driver/Src/stm32l4xx_hal_pwr_ex.c ****   }
ARM GAS  /tmp/ccCHRL2h.s 			page 60


1256:Drivers/STM32L4xx_HAL_Driver/Src/stm32l4xx_hal_pwr_ex.c ****   else
1257:Drivers/STM32L4xx_HAL_Driver/Src/stm32l4xx_hal_pwr_ex.c ****   {
1258:Drivers/STM32L4xx_HAL_Driver/Src/stm32l4xx_hal_pwr_ex.c ****     /* Request Wait For Event */
1259:Drivers/STM32L4xx_HAL_Driver/Src/stm32l4xx_hal_pwr_ex.c ****     __SEV();
 2155              		.loc 1 1259 5
 2156              		.syntax unified
 2157              	@ 1259 "Drivers/STM32L4xx_HAL_Driver/Src/stm32l4xx_hal_pwr_ex.c" 1
 2158 0030 40BF     		sev
 2159              	@ 0 "" 2
1260:Drivers/STM32L4xx_HAL_Driver/Src/stm32l4xx_hal_pwr_ex.c ****     __WFE();
 2160              		.loc 1 1260 5
 2161              	@ 1260 "Drivers/STM32L4xx_HAL_Driver/Src/stm32l4xx_hal_pwr_ex.c" 1
 2162 0032 20BF     		wfe
 2163              	@ 0 "" 2
1261:Drivers/STM32L4xx_HAL_Driver/Src/stm32l4xx_hal_pwr_ex.c ****     __WFE();
 2164              		.loc 1 1261 5
 2165              	@ 1261 "Drivers/STM32L4xx_HAL_Driver/Src/stm32l4xx_hal_pwr_ex.c" 1
 2166 0034 20BF     		wfe
 2167              	@ 0 "" 2
 2168              		.thumb
 2169              		.syntax unified
 2170              	.L151:
1262:Drivers/STM32L4xx_HAL_Driver/Src/stm32l4xx_hal_pwr_ex.c ****   }
1263:Drivers/STM32L4xx_HAL_Driver/Src/stm32l4xx_hal_pwr_ex.c **** 
1264:Drivers/STM32L4xx_HAL_Driver/Src/stm32l4xx_hal_pwr_ex.c ****   /* Reset SLEEPDEEP bit of Cortex System Control Register */
1265:Drivers/STM32L4xx_HAL_Driver/Src/stm32l4xx_hal_pwr_ex.c ****   CLEAR_BIT(SCB->SCR, ((uint32_t)SCB_SCR_SLEEPDEEP_Msk));
 2171              		.loc 1 1265 3
 2172 0036 074B     		ldr	r3, .L152+4
 2173 0038 1B69     		ldr	r3, [r3, #16]
 2174 003a 064A     		ldr	r2, .L152+4
 2175 003c 23F00403 		bic	r3, r3, #4
 2176 0040 1361     		str	r3, [r2, #16]
1266:Drivers/STM32L4xx_HAL_Driver/Src/stm32l4xx_hal_pwr_ex.c **** }
 2177              		.loc 1 1266 1
 2178 0042 00BF     		nop
 2179 0044 0C37     		adds	r7, r7, #12
 2180              	.LCFI127:
 2181              		.cfi_def_cfa_offset 4
 2182 0046 BD46     		mov	sp, r7
 2183              	.LCFI128:
 2184              		.cfi_def_cfa_register 13
 2185              		@ sp needed
 2186 0048 5DF8047B 		ldr	r7, [sp], #4
 2187              	.LCFI129:
 2188              		.cfi_restore 7
 2189              		.cfi_def_cfa_offset 0
 2190 004c 7047     		bx	lr
 2191              	.L153:
 2192 004e 00BF     		.align	2
 2193              	.L152:
 2194 0050 00700040 		.word	1073770496
 2195 0054 00ED00E0 		.word	-536810240
 2196              		.cfi_endproc
 2197              	.LFE159:
 2199              		.section	.text.HAL_PWREx_EnterSTOP2Mode,"ax",%progbits
 2200              		.align	1
 2201              		.global	HAL_PWREx_EnterSTOP2Mode
ARM GAS  /tmp/ccCHRL2h.s 			page 61


 2202              		.syntax unified
 2203              		.thumb
 2204              		.thumb_func
 2206              	HAL_PWREx_EnterSTOP2Mode:
 2207              	.LFB160:
1267:Drivers/STM32L4xx_HAL_Driver/Src/stm32l4xx_hal_pwr_ex.c **** 
1268:Drivers/STM32L4xx_HAL_Driver/Src/stm32l4xx_hal_pwr_ex.c **** 
1269:Drivers/STM32L4xx_HAL_Driver/Src/stm32l4xx_hal_pwr_ex.c **** /**
1270:Drivers/STM32L4xx_HAL_Driver/Src/stm32l4xx_hal_pwr_ex.c ****   * @brief Enter Stop 2 mode.
1271:Drivers/STM32L4xx_HAL_Driver/Src/stm32l4xx_hal_pwr_ex.c ****   * @note  In Stop 2 mode, only low power voltage regulator is ON.
1272:Drivers/STM32L4xx_HAL_Driver/Src/stm32l4xx_hal_pwr_ex.c ****   * @note  In Stop 2 mode, all I/O pins keep the same state as in Run mode.
1273:Drivers/STM32L4xx_HAL_Driver/Src/stm32l4xx_hal_pwr_ex.c ****   * @note  All clocks in the VCORE domain are stopped, the PLL, the MSI,
1274:Drivers/STM32L4xx_HAL_Driver/Src/stm32l4xx_hal_pwr_ex.c ****   *        the HSI and the HSE oscillators are disabled. Some peripherals with wakeup capability
1275:Drivers/STM32L4xx_HAL_Driver/Src/stm32l4xx_hal_pwr_ex.c ****   *        (LCD, LPTIM1, I2C3 and LPUART) can switch on the HSI to receive a frame, and switch off 
1276:Drivers/STM32L4xx_HAL_Driver/Src/stm32l4xx_hal_pwr_ex.c ****   *        receiving the frame if it is not a wakeup frame. In this case the HSI clock is propagate
1277:Drivers/STM32L4xx_HAL_Driver/Src/stm32l4xx_hal_pwr_ex.c ****   *        to the peripheral requesting it.
1278:Drivers/STM32L4xx_HAL_Driver/Src/stm32l4xx_hal_pwr_ex.c ****   *        SRAM1, SRAM2 and register contents are preserved.
1279:Drivers/STM32L4xx_HAL_Driver/Src/stm32l4xx_hal_pwr_ex.c ****   *        SRAM3 content is preserved depending on RRSTP bit setting (not available on all devices)
1280:Drivers/STM32L4xx_HAL_Driver/Src/stm32l4xx_hal_pwr_ex.c ****   *        The BOR is available.
1281:Drivers/STM32L4xx_HAL_Driver/Src/stm32l4xx_hal_pwr_ex.c ****   *        The voltage regulator is set in low-power mode but LPR bit must be cleared to enter stop
1282:Drivers/STM32L4xx_HAL_Driver/Src/stm32l4xx_hal_pwr_ex.c ****   *        Otherwise, Stop 1 mode is entered.
1283:Drivers/STM32L4xx_HAL_Driver/Src/stm32l4xx_hal_pwr_ex.c ****   * @note  When exiting Stop 2 mode by issuing an interrupt or a wakeup event,
1284:Drivers/STM32L4xx_HAL_Driver/Src/stm32l4xx_hal_pwr_ex.c ****   *         the HSI RC oscillator is selected as system clock if STOPWUCK bit in RCC_CFGR register
1285:Drivers/STM32L4xx_HAL_Driver/Src/stm32l4xx_hal_pwr_ex.c ****   *         is set; the MSI oscillator is selected if STOPWUCK is cleared.
1286:Drivers/STM32L4xx_HAL_Driver/Src/stm32l4xx_hal_pwr_ex.c ****   * @param STOPEntry  specifies if Stop mode in entered with WFI or WFE instruction.
1287:Drivers/STM32L4xx_HAL_Driver/Src/stm32l4xx_hal_pwr_ex.c ****   *          This parameter can be one of the following values:
1288:Drivers/STM32L4xx_HAL_Driver/Src/stm32l4xx_hal_pwr_ex.c ****   *            @arg @ref PWR_STOPENTRY_WFI  Enter Stop mode with WFI instruction
1289:Drivers/STM32L4xx_HAL_Driver/Src/stm32l4xx_hal_pwr_ex.c ****   *            @arg @ref PWR_STOPENTRY_WFE  Enter Stop mode with WFE instruction
1290:Drivers/STM32L4xx_HAL_Driver/Src/stm32l4xx_hal_pwr_ex.c ****   * @retval None
1291:Drivers/STM32L4xx_HAL_Driver/Src/stm32l4xx_hal_pwr_ex.c ****   */
1292:Drivers/STM32L4xx_HAL_Driver/Src/stm32l4xx_hal_pwr_ex.c **** void HAL_PWREx_EnterSTOP2Mode(uint8_t STOPEntry)
1293:Drivers/STM32L4xx_HAL_Driver/Src/stm32l4xx_hal_pwr_ex.c **** {
 2208              		.loc 1 1293 1
 2209              		.cfi_startproc
 2210              		@ args = 0, pretend = 0, frame = 8
 2211              		@ frame_needed = 1, uses_anonymous_args = 0
 2212              		@ link register save eliminated.
 2213 0000 80B4     		push	{r7}
 2214              	.LCFI130:
 2215              		.cfi_def_cfa_offset 4
 2216              		.cfi_offset 7, -4
 2217 0002 83B0     		sub	sp, sp, #12
 2218              	.LCFI131:
 2219              		.cfi_def_cfa_offset 16
 2220 0004 00AF     		add	r7, sp, #0
 2221              	.LCFI132:
 2222              		.cfi_def_cfa_register 7
 2223 0006 0346     		mov	r3, r0
 2224 0008 FB71     		strb	r3, [r7, #7]
1294:Drivers/STM32L4xx_HAL_Driver/Src/stm32l4xx_hal_pwr_ex.c ****   /* Check the parameter */
1295:Drivers/STM32L4xx_HAL_Driver/Src/stm32l4xx_hal_pwr_ex.c ****   assert_param(IS_PWR_STOP_ENTRY(STOPEntry));
1296:Drivers/STM32L4xx_HAL_Driver/Src/stm32l4xx_hal_pwr_ex.c **** 
1297:Drivers/STM32L4xx_HAL_Driver/Src/stm32l4xx_hal_pwr_ex.c ****   /* Set Stop mode 2 */
1298:Drivers/STM32L4xx_HAL_Driver/Src/stm32l4xx_hal_pwr_ex.c ****   MODIFY_REG(PWR->CR1, PWR_CR1_LPMS, PWR_CR1_LPMS_STOP2);
 2225              		.loc 1 1298 3
 2226 000a 114B     		ldr	r3, .L157
 2227 000c 1B68     		ldr	r3, [r3]
ARM GAS  /tmp/ccCHRL2h.s 			page 62


 2228 000e 23F00703 		bic	r3, r3, #7
 2229 0012 0F4A     		ldr	r2, .L157
 2230 0014 43F00203 		orr	r3, r3, #2
 2231 0018 1360     		str	r3, [r2]
1299:Drivers/STM32L4xx_HAL_Driver/Src/stm32l4xx_hal_pwr_ex.c **** 
1300:Drivers/STM32L4xx_HAL_Driver/Src/stm32l4xx_hal_pwr_ex.c ****   /* Set SLEEPDEEP bit of Cortex System Control Register */
1301:Drivers/STM32L4xx_HAL_Driver/Src/stm32l4xx_hal_pwr_ex.c ****   SET_BIT(SCB->SCR, ((uint32_t)SCB_SCR_SLEEPDEEP_Msk));
 2232              		.loc 1 1301 3
 2233 001a 0E4B     		ldr	r3, .L157+4
 2234 001c 1B69     		ldr	r3, [r3, #16]
 2235 001e 0D4A     		ldr	r2, .L157+4
 2236 0020 43F00403 		orr	r3, r3, #4
 2237 0024 1361     		str	r3, [r2, #16]
1302:Drivers/STM32L4xx_HAL_Driver/Src/stm32l4xx_hal_pwr_ex.c **** 
1303:Drivers/STM32L4xx_HAL_Driver/Src/stm32l4xx_hal_pwr_ex.c ****   /* Select Stop mode entry --------------------------------------------------*/
1304:Drivers/STM32L4xx_HAL_Driver/Src/stm32l4xx_hal_pwr_ex.c ****   if(STOPEntry == PWR_STOPENTRY_WFI)
 2238              		.loc 1 1304 5
 2239 0026 FB79     		ldrb	r3, [r7, #7]	@ zero_extendqisi2
 2240 0028 012B     		cmp	r3, #1
 2241 002a 01D1     		bne	.L155
1305:Drivers/STM32L4xx_HAL_Driver/Src/stm32l4xx_hal_pwr_ex.c ****   {
1306:Drivers/STM32L4xx_HAL_Driver/Src/stm32l4xx_hal_pwr_ex.c ****     /* Request Wait For Interrupt */
1307:Drivers/STM32L4xx_HAL_Driver/Src/stm32l4xx_hal_pwr_ex.c ****     __WFI();
 2242              		.loc 1 1307 5
 2243              		.syntax unified
 2244              	@ 1307 "Drivers/STM32L4xx_HAL_Driver/Src/stm32l4xx_hal_pwr_ex.c" 1
 2245 002c 30BF     		wfi
 2246              	@ 0 "" 2
 2247              		.thumb
 2248              		.syntax unified
 2249 002e 02E0     		b	.L156
 2250              	.L155:
1308:Drivers/STM32L4xx_HAL_Driver/Src/stm32l4xx_hal_pwr_ex.c ****   }
1309:Drivers/STM32L4xx_HAL_Driver/Src/stm32l4xx_hal_pwr_ex.c ****   else
1310:Drivers/STM32L4xx_HAL_Driver/Src/stm32l4xx_hal_pwr_ex.c ****   {
1311:Drivers/STM32L4xx_HAL_Driver/Src/stm32l4xx_hal_pwr_ex.c ****     /* Request Wait For Event */
1312:Drivers/STM32L4xx_HAL_Driver/Src/stm32l4xx_hal_pwr_ex.c ****     __SEV();
 2251              		.loc 1 1312 5
 2252              		.syntax unified
 2253              	@ 1312 "Drivers/STM32L4xx_HAL_Driver/Src/stm32l4xx_hal_pwr_ex.c" 1
 2254 0030 40BF     		sev
 2255              	@ 0 "" 2
1313:Drivers/STM32L4xx_HAL_Driver/Src/stm32l4xx_hal_pwr_ex.c ****     __WFE();
 2256              		.loc 1 1313 5
 2257              	@ 1313 "Drivers/STM32L4xx_HAL_Driver/Src/stm32l4xx_hal_pwr_ex.c" 1
 2258 0032 20BF     		wfe
 2259              	@ 0 "" 2
1314:Drivers/STM32L4xx_HAL_Driver/Src/stm32l4xx_hal_pwr_ex.c ****     __WFE();
 2260              		.loc 1 1314 5
 2261              	@ 1314 "Drivers/STM32L4xx_HAL_Driver/Src/stm32l4xx_hal_pwr_ex.c" 1
 2262 0034 20BF     		wfe
 2263              	@ 0 "" 2
 2264              		.thumb
 2265              		.syntax unified
 2266              	.L156:
1315:Drivers/STM32L4xx_HAL_Driver/Src/stm32l4xx_hal_pwr_ex.c ****   }
1316:Drivers/STM32L4xx_HAL_Driver/Src/stm32l4xx_hal_pwr_ex.c **** 
ARM GAS  /tmp/ccCHRL2h.s 			page 63


1317:Drivers/STM32L4xx_HAL_Driver/Src/stm32l4xx_hal_pwr_ex.c ****   /* Reset SLEEPDEEP bit of Cortex System Control Register */
1318:Drivers/STM32L4xx_HAL_Driver/Src/stm32l4xx_hal_pwr_ex.c ****   CLEAR_BIT(SCB->SCR, ((uint32_t)SCB_SCR_SLEEPDEEP_Msk));
 2267              		.loc 1 1318 3
 2268 0036 074B     		ldr	r3, .L157+4
 2269 0038 1B69     		ldr	r3, [r3, #16]
 2270 003a 064A     		ldr	r2, .L157+4
 2271 003c 23F00403 		bic	r3, r3, #4
 2272 0040 1361     		str	r3, [r2, #16]
1319:Drivers/STM32L4xx_HAL_Driver/Src/stm32l4xx_hal_pwr_ex.c **** }
 2273              		.loc 1 1319 1
 2274 0042 00BF     		nop
 2275 0044 0C37     		adds	r7, r7, #12
 2276              	.LCFI133:
 2277              		.cfi_def_cfa_offset 4
 2278 0046 BD46     		mov	sp, r7
 2279              	.LCFI134:
 2280              		.cfi_def_cfa_register 13
 2281              		@ sp needed
 2282 0048 5DF8047B 		ldr	r7, [sp], #4
 2283              	.LCFI135:
 2284              		.cfi_restore 7
 2285              		.cfi_def_cfa_offset 0
 2286 004c 7047     		bx	lr
 2287              	.L158:
 2288 004e 00BF     		.align	2
 2289              	.L157:
 2290 0050 00700040 		.word	1073770496
 2291 0054 00ED00E0 		.word	-536810240
 2292              		.cfi_endproc
 2293              	.LFE160:
 2295              		.section	.text.HAL_PWREx_EnterSHUTDOWNMode,"ax",%progbits
 2296              		.align	1
 2297              		.global	HAL_PWREx_EnterSHUTDOWNMode
 2298              		.syntax unified
 2299              		.thumb
 2300              		.thumb_func
 2302              	HAL_PWREx_EnterSHUTDOWNMode:
 2303              	.LFB161:
1320:Drivers/STM32L4xx_HAL_Driver/Src/stm32l4xx_hal_pwr_ex.c **** 
1321:Drivers/STM32L4xx_HAL_Driver/Src/stm32l4xx_hal_pwr_ex.c **** 
1322:Drivers/STM32L4xx_HAL_Driver/Src/stm32l4xx_hal_pwr_ex.c **** 
1323:Drivers/STM32L4xx_HAL_Driver/Src/stm32l4xx_hal_pwr_ex.c **** 
1324:Drivers/STM32L4xx_HAL_Driver/Src/stm32l4xx_hal_pwr_ex.c **** 
1325:Drivers/STM32L4xx_HAL_Driver/Src/stm32l4xx_hal_pwr_ex.c **** /**
1326:Drivers/STM32L4xx_HAL_Driver/Src/stm32l4xx_hal_pwr_ex.c ****   * @brief Enter Shutdown mode.
1327:Drivers/STM32L4xx_HAL_Driver/Src/stm32l4xx_hal_pwr_ex.c ****   * @note  In Shutdown mode, the PLL, the HSI, the MSI, the LSI and the HSE oscillators are switche
1328:Drivers/STM32L4xx_HAL_Driver/Src/stm32l4xx_hal_pwr_ex.c ****   *        off. The voltage regulator is disabled and Vcore domain is powered off.
1329:Drivers/STM32L4xx_HAL_Driver/Src/stm32l4xx_hal_pwr_ex.c ****   *        SRAM1, SRAM2 and registers contents are lost except for registers in the Backup domain.
1330:Drivers/STM32L4xx_HAL_Driver/Src/stm32l4xx_hal_pwr_ex.c ****   *        The BOR is not available.
1331:Drivers/STM32L4xx_HAL_Driver/Src/stm32l4xx_hal_pwr_ex.c ****   * @note  The I/Os can be configured either with a pull-up or pull-down or can be kept in analog s
1332:Drivers/STM32L4xx_HAL_Driver/Src/stm32l4xx_hal_pwr_ex.c ****   * @retval None
1333:Drivers/STM32L4xx_HAL_Driver/Src/stm32l4xx_hal_pwr_ex.c ****   */
1334:Drivers/STM32L4xx_HAL_Driver/Src/stm32l4xx_hal_pwr_ex.c **** void HAL_PWREx_EnterSHUTDOWNMode(void)
1335:Drivers/STM32L4xx_HAL_Driver/Src/stm32l4xx_hal_pwr_ex.c **** {
 2304              		.loc 1 1335 1
 2305              		.cfi_startproc
 2306              		@ args = 0, pretend = 0, frame = 0
ARM GAS  /tmp/ccCHRL2h.s 			page 64


 2307              		@ frame_needed = 1, uses_anonymous_args = 0
 2308              		@ link register save eliminated.
 2309 0000 80B4     		push	{r7}
 2310              	.LCFI136:
 2311              		.cfi_def_cfa_offset 4
 2312              		.cfi_offset 7, -4
 2313 0002 00AF     		add	r7, sp, #0
 2314              	.LCFI137:
 2315              		.cfi_def_cfa_register 7
1336:Drivers/STM32L4xx_HAL_Driver/Src/stm32l4xx_hal_pwr_ex.c **** 
1337:Drivers/STM32L4xx_HAL_Driver/Src/stm32l4xx_hal_pwr_ex.c ****   /* Set Shutdown mode */
1338:Drivers/STM32L4xx_HAL_Driver/Src/stm32l4xx_hal_pwr_ex.c ****   MODIFY_REG(PWR->CR1, PWR_CR1_LPMS, PWR_CR1_LPMS_SHUTDOWN);
 2316              		.loc 1 1338 3
 2317 0004 094B     		ldr	r3, .L160
 2318 0006 1B68     		ldr	r3, [r3]
 2319 0008 23F00703 		bic	r3, r3, #7
 2320 000c 074A     		ldr	r2, .L160
 2321 000e 43F00403 		orr	r3, r3, #4
 2322 0012 1360     		str	r3, [r2]
1339:Drivers/STM32L4xx_HAL_Driver/Src/stm32l4xx_hal_pwr_ex.c **** 
1340:Drivers/STM32L4xx_HAL_Driver/Src/stm32l4xx_hal_pwr_ex.c ****   /* Set SLEEPDEEP bit of Cortex System Control Register */
1341:Drivers/STM32L4xx_HAL_Driver/Src/stm32l4xx_hal_pwr_ex.c ****   SET_BIT(SCB->SCR, ((uint32_t)SCB_SCR_SLEEPDEEP_Msk));
 2323              		.loc 1 1341 3
 2324 0014 064B     		ldr	r3, .L160+4
 2325 0016 1B69     		ldr	r3, [r3, #16]
 2326 0018 054A     		ldr	r2, .L160+4
 2327 001a 43F00403 		orr	r3, r3, #4
 2328 001e 1361     		str	r3, [r2, #16]
1342:Drivers/STM32L4xx_HAL_Driver/Src/stm32l4xx_hal_pwr_ex.c **** 
1343:Drivers/STM32L4xx_HAL_Driver/Src/stm32l4xx_hal_pwr_ex.c **** /* This option is used to ensure that store operations are completed */
1344:Drivers/STM32L4xx_HAL_Driver/Src/stm32l4xx_hal_pwr_ex.c **** #if defined ( __CC_ARM)
1345:Drivers/STM32L4xx_HAL_Driver/Src/stm32l4xx_hal_pwr_ex.c ****   __force_stores();
1346:Drivers/STM32L4xx_HAL_Driver/Src/stm32l4xx_hal_pwr_ex.c **** #endif
1347:Drivers/STM32L4xx_HAL_Driver/Src/stm32l4xx_hal_pwr_ex.c ****   /* Request Wait For Interrupt */
1348:Drivers/STM32L4xx_HAL_Driver/Src/stm32l4xx_hal_pwr_ex.c ****   __WFI();
 2329              		.loc 1 1348 3
 2330              		.syntax unified
 2331              	@ 1348 "Drivers/STM32L4xx_HAL_Driver/Src/stm32l4xx_hal_pwr_ex.c" 1
 2332 0020 30BF     		wfi
 2333              	@ 0 "" 2
1349:Drivers/STM32L4xx_HAL_Driver/Src/stm32l4xx_hal_pwr_ex.c **** }
 2334              		.loc 1 1349 1
 2335              		.thumb
 2336              		.syntax unified
 2337 0022 00BF     		nop
 2338 0024 BD46     		mov	sp, r7
 2339              	.LCFI138:
 2340              		.cfi_def_cfa_register 13
 2341              		@ sp needed
 2342 0026 5DF8047B 		ldr	r7, [sp], #4
 2343              	.LCFI139:
 2344              		.cfi_restore 7
 2345              		.cfi_def_cfa_offset 0
 2346 002a 7047     		bx	lr
 2347              	.L161:
 2348              		.align	2
 2349              	.L160:
ARM GAS  /tmp/ccCHRL2h.s 			page 65


 2350 002c 00700040 		.word	1073770496
 2351 0030 00ED00E0 		.word	-536810240
 2352              		.cfi_endproc
 2353              	.LFE161:
 2355              		.section	.text.HAL_PWREx_PVD_PVM_IRQHandler,"ax",%progbits
 2356              		.align	1
 2357              		.global	HAL_PWREx_PVD_PVM_IRQHandler
 2358              		.syntax unified
 2359              		.thumb
 2360              		.thumb_func
 2362              	HAL_PWREx_PVD_PVM_IRQHandler:
 2363              	.LFB162:
1350:Drivers/STM32L4xx_HAL_Driver/Src/stm32l4xx_hal_pwr_ex.c **** 
1351:Drivers/STM32L4xx_HAL_Driver/Src/stm32l4xx_hal_pwr_ex.c **** 
1352:Drivers/STM32L4xx_HAL_Driver/Src/stm32l4xx_hal_pwr_ex.c **** 
1353:Drivers/STM32L4xx_HAL_Driver/Src/stm32l4xx_hal_pwr_ex.c **** 
1354:Drivers/STM32L4xx_HAL_Driver/Src/stm32l4xx_hal_pwr_ex.c **** /**
1355:Drivers/STM32L4xx_HAL_Driver/Src/stm32l4xx_hal_pwr_ex.c ****   * @brief This function handles the PWR PVD/PVMx interrupt request.
1356:Drivers/STM32L4xx_HAL_Driver/Src/stm32l4xx_hal_pwr_ex.c ****   * @note This API should be called under the PVD_PVM_IRQHandler().
1357:Drivers/STM32L4xx_HAL_Driver/Src/stm32l4xx_hal_pwr_ex.c ****   * @retval None
1358:Drivers/STM32L4xx_HAL_Driver/Src/stm32l4xx_hal_pwr_ex.c ****   */
1359:Drivers/STM32L4xx_HAL_Driver/Src/stm32l4xx_hal_pwr_ex.c **** void HAL_PWREx_PVD_PVM_IRQHandler(void)
1360:Drivers/STM32L4xx_HAL_Driver/Src/stm32l4xx_hal_pwr_ex.c **** {
 2364              		.loc 1 1360 1
 2365              		.cfi_startproc
 2366              		@ args = 0, pretend = 0, frame = 0
 2367              		@ frame_needed = 1, uses_anonymous_args = 0
 2368 0000 80B5     		push	{r7, lr}
 2369              	.LCFI140:
 2370              		.cfi_def_cfa_offset 8
 2371              		.cfi_offset 7, -8
 2372              		.cfi_offset 14, -4
 2373 0002 00AF     		add	r7, sp, #0
 2374              	.LCFI141:
 2375              		.cfi_def_cfa_register 7
1361:Drivers/STM32L4xx_HAL_Driver/Src/stm32l4xx_hal_pwr_ex.c ****   /* Check PWR exti flag */
1362:Drivers/STM32L4xx_HAL_Driver/Src/stm32l4xx_hal_pwr_ex.c ****   if(__HAL_PWR_PVD_EXTI_GET_FLAG() != 0x0U)
 2376              		.loc 1 1362 6
 2377 0004 174B     		ldr	r3, .L168
 2378 0006 5B69     		ldr	r3, [r3, #20]
 2379 0008 03F48033 		and	r3, r3, #65536
 2380              		.loc 1 1362 5
 2381 000c 002B     		cmp	r3, #0
 2382 000e 05D0     		beq	.L163
1363:Drivers/STM32L4xx_HAL_Driver/Src/stm32l4xx_hal_pwr_ex.c ****   {
1364:Drivers/STM32L4xx_HAL_Driver/Src/stm32l4xx_hal_pwr_ex.c ****     /* PWR PVD interrupt user callback */
1365:Drivers/STM32L4xx_HAL_Driver/Src/stm32l4xx_hal_pwr_ex.c ****     HAL_PWR_PVDCallback();
 2383              		.loc 1 1365 5
 2384 0010 FFF7FEFF 		bl	HAL_PWR_PVDCallback
1366:Drivers/STM32L4xx_HAL_Driver/Src/stm32l4xx_hal_pwr_ex.c **** 
1367:Drivers/STM32L4xx_HAL_Driver/Src/stm32l4xx_hal_pwr_ex.c ****     /* Clear PVD exti pending bit */
1368:Drivers/STM32L4xx_HAL_Driver/Src/stm32l4xx_hal_pwr_ex.c ****     __HAL_PWR_PVD_EXTI_CLEAR_FLAG();
 2385              		.loc 1 1368 5
 2386 0014 134B     		ldr	r3, .L168
 2387 0016 4FF48032 		mov	r2, #65536
 2388 001a 5A61     		str	r2, [r3, #20]
 2389              	.L163:
ARM GAS  /tmp/ccCHRL2h.s 			page 66


1369:Drivers/STM32L4xx_HAL_Driver/Src/stm32l4xx_hal_pwr_ex.c ****   }
1370:Drivers/STM32L4xx_HAL_Driver/Src/stm32l4xx_hal_pwr_ex.c ****   /* Next, successively check PVMx exti flags */
1371:Drivers/STM32L4xx_HAL_Driver/Src/stm32l4xx_hal_pwr_ex.c **** #if defined(PWR_CR2_PVME1)
1372:Drivers/STM32L4xx_HAL_Driver/Src/stm32l4xx_hal_pwr_ex.c ****   if(__HAL_PWR_PVM1_EXTI_GET_FLAG() != 0x0U)
 2390              		.loc 1 1372 6
 2391 001c 114B     		ldr	r3, .L168
 2392 001e 5B6B     		ldr	r3, [r3, #52]
 2393 0020 03F00803 		and	r3, r3, #8
 2394              		.loc 1 1372 5
 2395 0024 002B     		cmp	r3, #0
 2396 0026 04D0     		beq	.L164
1373:Drivers/STM32L4xx_HAL_Driver/Src/stm32l4xx_hal_pwr_ex.c ****   {
1374:Drivers/STM32L4xx_HAL_Driver/Src/stm32l4xx_hal_pwr_ex.c ****     /* PWR PVM1 interrupt user callback */
1375:Drivers/STM32L4xx_HAL_Driver/Src/stm32l4xx_hal_pwr_ex.c ****     HAL_PWREx_PVM1Callback();
 2397              		.loc 1 1375 5
 2398 0028 FFF7FEFF 		bl	HAL_PWREx_PVM1Callback
1376:Drivers/STM32L4xx_HAL_Driver/Src/stm32l4xx_hal_pwr_ex.c **** 
1377:Drivers/STM32L4xx_HAL_Driver/Src/stm32l4xx_hal_pwr_ex.c ****     /* Clear PVM1 exti pending bit */
1378:Drivers/STM32L4xx_HAL_Driver/Src/stm32l4xx_hal_pwr_ex.c ****     __HAL_PWR_PVM1_EXTI_CLEAR_FLAG();
 2399              		.loc 1 1378 5
 2400 002c 0D4B     		ldr	r3, .L168
 2401 002e 0822     		movs	r2, #8
 2402 0030 5A63     		str	r2, [r3, #52]
 2403              	.L164:
1379:Drivers/STM32L4xx_HAL_Driver/Src/stm32l4xx_hal_pwr_ex.c ****   }
1380:Drivers/STM32L4xx_HAL_Driver/Src/stm32l4xx_hal_pwr_ex.c **** #endif /* PWR_CR2_PVME1 */
1381:Drivers/STM32L4xx_HAL_Driver/Src/stm32l4xx_hal_pwr_ex.c **** #if defined(PWR_CR2_PVME2)
1382:Drivers/STM32L4xx_HAL_Driver/Src/stm32l4xx_hal_pwr_ex.c ****   if(__HAL_PWR_PVM2_EXTI_GET_FLAG() != 0x0U)
1383:Drivers/STM32L4xx_HAL_Driver/Src/stm32l4xx_hal_pwr_ex.c ****   {
1384:Drivers/STM32L4xx_HAL_Driver/Src/stm32l4xx_hal_pwr_ex.c ****     /* PWR PVM2 interrupt user callback */
1385:Drivers/STM32L4xx_HAL_Driver/Src/stm32l4xx_hal_pwr_ex.c ****     HAL_PWREx_PVM2Callback();
1386:Drivers/STM32L4xx_HAL_Driver/Src/stm32l4xx_hal_pwr_ex.c **** 
1387:Drivers/STM32L4xx_HAL_Driver/Src/stm32l4xx_hal_pwr_ex.c ****     /* Clear PVM2 exti pending bit */
1388:Drivers/STM32L4xx_HAL_Driver/Src/stm32l4xx_hal_pwr_ex.c ****     __HAL_PWR_PVM2_EXTI_CLEAR_FLAG();
1389:Drivers/STM32L4xx_HAL_Driver/Src/stm32l4xx_hal_pwr_ex.c ****   }
1390:Drivers/STM32L4xx_HAL_Driver/Src/stm32l4xx_hal_pwr_ex.c **** #endif /* PWR_CR2_PVME2 */
1391:Drivers/STM32L4xx_HAL_Driver/Src/stm32l4xx_hal_pwr_ex.c ****   if(__HAL_PWR_PVM3_EXTI_GET_FLAG() != 0x0U)
 2404              		.loc 1 1391 6
 2405 0032 0C4B     		ldr	r3, .L168
 2406 0034 5B6B     		ldr	r3, [r3, #52]
 2407 0036 03F02003 		and	r3, r3, #32
 2408              		.loc 1 1391 5
 2409 003a 002B     		cmp	r3, #0
 2410 003c 04D0     		beq	.L165
1392:Drivers/STM32L4xx_HAL_Driver/Src/stm32l4xx_hal_pwr_ex.c ****   {
1393:Drivers/STM32L4xx_HAL_Driver/Src/stm32l4xx_hal_pwr_ex.c ****     /* PWR PVM3 interrupt user callback */
1394:Drivers/STM32L4xx_HAL_Driver/Src/stm32l4xx_hal_pwr_ex.c ****     HAL_PWREx_PVM3Callback();
 2411              		.loc 1 1394 5
 2412 003e FFF7FEFF 		bl	HAL_PWREx_PVM3Callback
1395:Drivers/STM32L4xx_HAL_Driver/Src/stm32l4xx_hal_pwr_ex.c **** 
1396:Drivers/STM32L4xx_HAL_Driver/Src/stm32l4xx_hal_pwr_ex.c ****     /* Clear PVM3 exti pending bit */
1397:Drivers/STM32L4xx_HAL_Driver/Src/stm32l4xx_hal_pwr_ex.c ****     __HAL_PWR_PVM3_EXTI_CLEAR_FLAG();
 2413              		.loc 1 1397 5
 2414 0042 084B     		ldr	r3, .L168
 2415 0044 2022     		movs	r2, #32
 2416 0046 5A63     		str	r2, [r3, #52]
 2417              	.L165:
ARM GAS  /tmp/ccCHRL2h.s 			page 67


1398:Drivers/STM32L4xx_HAL_Driver/Src/stm32l4xx_hal_pwr_ex.c ****   }
1399:Drivers/STM32L4xx_HAL_Driver/Src/stm32l4xx_hal_pwr_ex.c ****   if(__HAL_PWR_PVM4_EXTI_GET_FLAG() != 0x0U)
 2418              		.loc 1 1399 6
 2419 0048 064B     		ldr	r3, .L168
 2420 004a 5B6B     		ldr	r3, [r3, #52]
 2421 004c 03F04003 		and	r3, r3, #64
 2422              		.loc 1 1399 5
 2423 0050 002B     		cmp	r3, #0
 2424 0052 04D0     		beq	.L167
1400:Drivers/STM32L4xx_HAL_Driver/Src/stm32l4xx_hal_pwr_ex.c ****   {
1401:Drivers/STM32L4xx_HAL_Driver/Src/stm32l4xx_hal_pwr_ex.c ****     /* PWR PVM4 interrupt user callback */
1402:Drivers/STM32L4xx_HAL_Driver/Src/stm32l4xx_hal_pwr_ex.c ****     HAL_PWREx_PVM4Callback();
 2425              		.loc 1 1402 5
 2426 0054 FFF7FEFF 		bl	HAL_PWREx_PVM4Callback
1403:Drivers/STM32L4xx_HAL_Driver/Src/stm32l4xx_hal_pwr_ex.c **** 
1404:Drivers/STM32L4xx_HAL_Driver/Src/stm32l4xx_hal_pwr_ex.c ****     /* Clear PVM4 exti pending bit */
1405:Drivers/STM32L4xx_HAL_Driver/Src/stm32l4xx_hal_pwr_ex.c ****     __HAL_PWR_PVM4_EXTI_CLEAR_FLAG();
 2427              		.loc 1 1405 5
 2428 0058 024B     		ldr	r3, .L168
 2429 005a 4022     		movs	r2, #64
 2430 005c 5A63     		str	r2, [r3, #52]
 2431              	.L167:
1406:Drivers/STM32L4xx_HAL_Driver/Src/stm32l4xx_hal_pwr_ex.c ****   }
1407:Drivers/STM32L4xx_HAL_Driver/Src/stm32l4xx_hal_pwr_ex.c **** }
 2432              		.loc 1 1407 1
 2433 005e 00BF     		nop
 2434 0060 80BD     		pop	{r7, pc}
 2435              	.L169:
 2436 0062 00BF     		.align	2
 2437              	.L168:
 2438 0064 00040140 		.word	1073808384
 2439              		.cfi_endproc
 2440              	.LFE162:
 2442              		.section	.text.HAL_PWREx_PVM1Callback,"ax",%progbits
 2443              		.align	1
 2444              		.weak	HAL_PWREx_PVM1Callback
 2445              		.syntax unified
 2446              		.thumb
 2447              		.thumb_func
 2449              	HAL_PWREx_PVM1Callback:
 2450              	.LFB163:
1408:Drivers/STM32L4xx_HAL_Driver/Src/stm32l4xx_hal_pwr_ex.c **** 
1409:Drivers/STM32L4xx_HAL_Driver/Src/stm32l4xx_hal_pwr_ex.c **** 
1410:Drivers/STM32L4xx_HAL_Driver/Src/stm32l4xx_hal_pwr_ex.c **** #if defined(PWR_CR2_PVME1)
1411:Drivers/STM32L4xx_HAL_Driver/Src/stm32l4xx_hal_pwr_ex.c **** /**
1412:Drivers/STM32L4xx_HAL_Driver/Src/stm32l4xx_hal_pwr_ex.c ****   * @brief PWR PVM1 interrupt callback
1413:Drivers/STM32L4xx_HAL_Driver/Src/stm32l4xx_hal_pwr_ex.c ****   * @retval None
1414:Drivers/STM32L4xx_HAL_Driver/Src/stm32l4xx_hal_pwr_ex.c ****   */
1415:Drivers/STM32L4xx_HAL_Driver/Src/stm32l4xx_hal_pwr_ex.c **** __weak void HAL_PWREx_PVM1Callback(void)
1416:Drivers/STM32L4xx_HAL_Driver/Src/stm32l4xx_hal_pwr_ex.c **** {
 2451              		.loc 1 1416 1
 2452              		.cfi_startproc
 2453              		@ args = 0, pretend = 0, frame = 0
 2454              		@ frame_needed = 1, uses_anonymous_args = 0
 2455              		@ link register save eliminated.
 2456 0000 80B4     		push	{r7}
 2457              	.LCFI142:
ARM GAS  /tmp/ccCHRL2h.s 			page 68


 2458              		.cfi_def_cfa_offset 4
 2459              		.cfi_offset 7, -4
 2460 0002 00AF     		add	r7, sp, #0
 2461              	.LCFI143:
 2462              		.cfi_def_cfa_register 7
1417:Drivers/STM32L4xx_HAL_Driver/Src/stm32l4xx_hal_pwr_ex.c ****   /* NOTE : This function should not be modified; when the callback is needed,
1418:Drivers/STM32L4xx_HAL_Driver/Src/stm32l4xx_hal_pwr_ex.c ****             HAL_PWREx_PVM1Callback() API can be implemented in the user file
1419:Drivers/STM32L4xx_HAL_Driver/Src/stm32l4xx_hal_pwr_ex.c ****    */
1420:Drivers/STM32L4xx_HAL_Driver/Src/stm32l4xx_hal_pwr_ex.c **** }
 2463              		.loc 1 1420 1
 2464 0004 00BF     		nop
 2465 0006 BD46     		mov	sp, r7
 2466              	.LCFI144:
 2467              		.cfi_def_cfa_register 13
 2468              		@ sp needed
 2469 0008 5DF8047B 		ldr	r7, [sp], #4
 2470              	.LCFI145:
 2471              		.cfi_restore 7
 2472              		.cfi_def_cfa_offset 0
 2473 000c 7047     		bx	lr
 2474              		.cfi_endproc
 2475              	.LFE163:
 2477              		.section	.text.HAL_PWREx_PVM3Callback,"ax",%progbits
 2478              		.align	1
 2479              		.weak	HAL_PWREx_PVM3Callback
 2480              		.syntax unified
 2481              		.thumb
 2482              		.thumb_func
 2484              	HAL_PWREx_PVM3Callback:
 2485              	.LFB164:
1421:Drivers/STM32L4xx_HAL_Driver/Src/stm32l4xx_hal_pwr_ex.c **** #endif /* PWR_CR2_PVME1 */
1422:Drivers/STM32L4xx_HAL_Driver/Src/stm32l4xx_hal_pwr_ex.c **** 
1423:Drivers/STM32L4xx_HAL_Driver/Src/stm32l4xx_hal_pwr_ex.c **** #if defined(PWR_CR2_PVME2)
1424:Drivers/STM32L4xx_HAL_Driver/Src/stm32l4xx_hal_pwr_ex.c **** /**
1425:Drivers/STM32L4xx_HAL_Driver/Src/stm32l4xx_hal_pwr_ex.c ****   * @brief PWR PVM2 interrupt callback
1426:Drivers/STM32L4xx_HAL_Driver/Src/stm32l4xx_hal_pwr_ex.c ****   * @retval None
1427:Drivers/STM32L4xx_HAL_Driver/Src/stm32l4xx_hal_pwr_ex.c ****   */
1428:Drivers/STM32L4xx_HAL_Driver/Src/stm32l4xx_hal_pwr_ex.c **** __weak void HAL_PWREx_PVM2Callback(void)
1429:Drivers/STM32L4xx_HAL_Driver/Src/stm32l4xx_hal_pwr_ex.c **** {
1430:Drivers/STM32L4xx_HAL_Driver/Src/stm32l4xx_hal_pwr_ex.c ****   /* NOTE : This function should not be modified; when the callback is needed,
1431:Drivers/STM32L4xx_HAL_Driver/Src/stm32l4xx_hal_pwr_ex.c ****             HAL_PWREx_PVM2Callback() API can be implemented in the user file
1432:Drivers/STM32L4xx_HAL_Driver/Src/stm32l4xx_hal_pwr_ex.c ****    */
1433:Drivers/STM32L4xx_HAL_Driver/Src/stm32l4xx_hal_pwr_ex.c **** }
1434:Drivers/STM32L4xx_HAL_Driver/Src/stm32l4xx_hal_pwr_ex.c **** #endif /* PWR_CR2_PVME2 */
1435:Drivers/STM32L4xx_HAL_Driver/Src/stm32l4xx_hal_pwr_ex.c **** 
1436:Drivers/STM32L4xx_HAL_Driver/Src/stm32l4xx_hal_pwr_ex.c **** /**
1437:Drivers/STM32L4xx_HAL_Driver/Src/stm32l4xx_hal_pwr_ex.c ****   * @brief PWR PVM3 interrupt callback
1438:Drivers/STM32L4xx_HAL_Driver/Src/stm32l4xx_hal_pwr_ex.c ****   * @retval None
1439:Drivers/STM32L4xx_HAL_Driver/Src/stm32l4xx_hal_pwr_ex.c ****   */
1440:Drivers/STM32L4xx_HAL_Driver/Src/stm32l4xx_hal_pwr_ex.c **** __weak void HAL_PWREx_PVM3Callback(void)
1441:Drivers/STM32L4xx_HAL_Driver/Src/stm32l4xx_hal_pwr_ex.c **** {
 2486              		.loc 1 1441 1
 2487              		.cfi_startproc
 2488              		@ args = 0, pretend = 0, frame = 0
 2489              		@ frame_needed = 1, uses_anonymous_args = 0
 2490              		@ link register save eliminated.
 2491 0000 80B4     		push	{r7}
ARM GAS  /tmp/ccCHRL2h.s 			page 69


 2492              	.LCFI146:
 2493              		.cfi_def_cfa_offset 4
 2494              		.cfi_offset 7, -4
 2495 0002 00AF     		add	r7, sp, #0
 2496              	.LCFI147:
 2497              		.cfi_def_cfa_register 7
1442:Drivers/STM32L4xx_HAL_Driver/Src/stm32l4xx_hal_pwr_ex.c ****   /* NOTE : This function should not be modified; when the callback is needed,
1443:Drivers/STM32L4xx_HAL_Driver/Src/stm32l4xx_hal_pwr_ex.c ****             HAL_PWREx_PVM3Callback() API can be implemented in the user file
1444:Drivers/STM32L4xx_HAL_Driver/Src/stm32l4xx_hal_pwr_ex.c ****    */
1445:Drivers/STM32L4xx_HAL_Driver/Src/stm32l4xx_hal_pwr_ex.c **** }
 2498              		.loc 1 1445 1
 2499 0004 00BF     		nop
 2500 0006 BD46     		mov	sp, r7
 2501              	.LCFI148:
 2502              		.cfi_def_cfa_register 13
 2503              		@ sp needed
 2504 0008 5DF8047B 		ldr	r7, [sp], #4
 2505              	.LCFI149:
 2506              		.cfi_restore 7
 2507              		.cfi_def_cfa_offset 0
 2508 000c 7047     		bx	lr
 2509              		.cfi_endproc
 2510              	.LFE164:
 2512              		.section	.text.HAL_PWREx_PVM4Callback,"ax",%progbits
 2513              		.align	1
 2514              		.weak	HAL_PWREx_PVM4Callback
 2515              		.syntax unified
 2516              		.thumb
 2517              		.thumb_func
 2519              	HAL_PWREx_PVM4Callback:
 2520              	.LFB165:
1446:Drivers/STM32L4xx_HAL_Driver/Src/stm32l4xx_hal_pwr_ex.c **** 
1447:Drivers/STM32L4xx_HAL_Driver/Src/stm32l4xx_hal_pwr_ex.c **** /**
1448:Drivers/STM32L4xx_HAL_Driver/Src/stm32l4xx_hal_pwr_ex.c ****   * @brief PWR PVM4 interrupt callback
1449:Drivers/STM32L4xx_HAL_Driver/Src/stm32l4xx_hal_pwr_ex.c ****   * @retval None
1450:Drivers/STM32L4xx_HAL_Driver/Src/stm32l4xx_hal_pwr_ex.c ****   */
1451:Drivers/STM32L4xx_HAL_Driver/Src/stm32l4xx_hal_pwr_ex.c **** __weak void HAL_PWREx_PVM4Callback(void)
1452:Drivers/STM32L4xx_HAL_Driver/Src/stm32l4xx_hal_pwr_ex.c **** {
 2521              		.loc 1 1452 1
 2522              		.cfi_startproc
 2523              		@ args = 0, pretend = 0, frame = 0
 2524              		@ frame_needed = 1, uses_anonymous_args = 0
 2525              		@ link register save eliminated.
 2526 0000 80B4     		push	{r7}
 2527              	.LCFI150:
 2528              		.cfi_def_cfa_offset 4
 2529              		.cfi_offset 7, -4
 2530 0002 00AF     		add	r7, sp, #0
 2531              	.LCFI151:
 2532              		.cfi_def_cfa_register 7
1453:Drivers/STM32L4xx_HAL_Driver/Src/stm32l4xx_hal_pwr_ex.c ****   /* NOTE : This function should not be modified; when the callback is needed,
1454:Drivers/STM32L4xx_HAL_Driver/Src/stm32l4xx_hal_pwr_ex.c ****             HAL_PWREx_PVM4Callback() API can be implemented in the user file
1455:Drivers/STM32L4xx_HAL_Driver/Src/stm32l4xx_hal_pwr_ex.c ****    */
1456:Drivers/STM32L4xx_HAL_Driver/Src/stm32l4xx_hal_pwr_ex.c **** }
 2533              		.loc 1 1456 1
 2534 0004 00BF     		nop
 2535 0006 BD46     		mov	sp, r7
ARM GAS  /tmp/ccCHRL2h.s 			page 70


 2536              	.LCFI152:
 2537              		.cfi_def_cfa_register 13
 2538              		@ sp needed
 2539 0008 5DF8047B 		ldr	r7, [sp], #4
 2540              	.LCFI153:
 2541              		.cfi_restore 7
 2542              		.cfi_def_cfa_offset 0
 2543 000c 7047     		bx	lr
 2544              		.cfi_endproc
 2545              	.LFE165:
 2547              		.text
 2548              	.Letext0:
 2549              		.file 2 "/usr/share/gcc-arm-none-eabi-10.3-2021.10/arm-none-eabi/include/machine/_default_types.h"
 2550              		.file 3 "/usr/share/gcc-arm-none-eabi-10.3-2021.10/arm-none-eabi/include/sys/_stdint.h"
 2551              		.file 4 "Drivers/CMSIS/Include/core_cm4.h"
 2552              		.file 5 "Drivers/CMSIS/Device/ST/STM32L4xx/Include/stm32l432xx.h"
 2553              		.file 6 "Drivers/STM32L4xx_HAL_Driver/Inc/stm32l4xx_hal_def.h"
 2554              		.file 7 "Drivers/STM32L4xx_HAL_Driver/Inc/stm32l4xx_hal_pwr_ex.h"
 2555              		.file 8 "Drivers/CMSIS/Device/ST/STM32L4xx/Include/system_stm32l4xx.h"
ARM GAS  /tmp/ccCHRL2h.s 			page 71

