ARM GAS  /tmp/ccR4xO3u.s 			page 1


   1              		.cpu cortex-m4
   2              		.arch armv7e-m
   3              		.fpu fpv4-sp-d16
   4              		.eabi_attribute 27, 1
   5              		.eabi_attribute 28, 1
   6              		.eabi_attribute 20, 1
   7              		.eabi_attribute 21, 1
   8              		.eabi_attribute 23, 3
   9              		.eabi_attribute 24, 1
  10              		.eabi_attribute 25, 1
  11              		.eabi_attribute 26, 1
  12              		.eabi_attribute 30, 6
  13              		.eabi_attribute 34, 1
  14              		.eabi_attribute 18, 4
  15              		.file	"stm32l4xx_hal_tim_ex.c"
  16              		.text
  17              	.Ltext0:
  18              		.cfi_sections	.debug_frame
  19              		.section	.text.HAL_TIMEx_HallSensor_Init,"ax",%progbits
  20              		.align	1
  21              		.global	HAL_TIMEx_HallSensor_Init
  22              		.syntax unified
  23              		.thumb
  24              		.thumb_func
  26              	HAL_TIMEx_HallSensor_Init:
  27              	.LFB132:
  28              		.file 1 "Drivers/STM32L4xx_HAL_Driver/Src/stm32l4xx_hal_tim_ex.c"
   1:Drivers/STM32L4xx_HAL_Driver/Src/stm32l4xx_hal_tim_ex.c **** /**
   2:Drivers/STM32L4xx_HAL_Driver/Src/stm32l4xx_hal_tim_ex.c ****   ******************************************************************************
   3:Drivers/STM32L4xx_HAL_Driver/Src/stm32l4xx_hal_tim_ex.c ****   * @file    stm32l4xx_hal_tim_ex.c
   4:Drivers/STM32L4xx_HAL_Driver/Src/stm32l4xx_hal_tim_ex.c ****   * @author  MCD Application Team
   5:Drivers/STM32L4xx_HAL_Driver/Src/stm32l4xx_hal_tim_ex.c ****   * @brief   TIM HAL module driver.
   6:Drivers/STM32L4xx_HAL_Driver/Src/stm32l4xx_hal_tim_ex.c ****   *          This file provides firmware functions to manage the following
   7:Drivers/STM32L4xx_HAL_Driver/Src/stm32l4xx_hal_tim_ex.c ****   *          functionalities of the Timer Extended peripheral:
   8:Drivers/STM32L4xx_HAL_Driver/Src/stm32l4xx_hal_tim_ex.c ****   *           + Time Hall Sensor Interface Initialization
   9:Drivers/STM32L4xx_HAL_Driver/Src/stm32l4xx_hal_tim_ex.c ****   *           + Time Hall Sensor Interface Start
  10:Drivers/STM32L4xx_HAL_Driver/Src/stm32l4xx_hal_tim_ex.c ****   *           + Time Complementary signal break and dead time configuration
  11:Drivers/STM32L4xx_HAL_Driver/Src/stm32l4xx_hal_tim_ex.c ****   *           + Time Master and Slave synchronization configuration
  12:Drivers/STM32L4xx_HAL_Driver/Src/stm32l4xx_hal_tim_ex.c ****   *           + Time Output Compare/PWM Channel Configuration (for channels 5 and 6)
  13:Drivers/STM32L4xx_HAL_Driver/Src/stm32l4xx_hal_tim_ex.c ****   *           + Time OCRef clear configuration
  14:Drivers/STM32L4xx_HAL_Driver/Src/stm32l4xx_hal_tim_ex.c ****   *           + Timer remapping capabilities configuration
  15:Drivers/STM32L4xx_HAL_Driver/Src/stm32l4xx_hal_tim_ex.c ****   ******************************************************************************
  16:Drivers/STM32L4xx_HAL_Driver/Src/stm32l4xx_hal_tim_ex.c ****   * @attention
  17:Drivers/STM32L4xx_HAL_Driver/Src/stm32l4xx_hal_tim_ex.c ****   *
  18:Drivers/STM32L4xx_HAL_Driver/Src/stm32l4xx_hal_tim_ex.c ****   * Copyright (c) 2017 STMicroelectronics.
  19:Drivers/STM32L4xx_HAL_Driver/Src/stm32l4xx_hal_tim_ex.c ****   * All rights reserved.
  20:Drivers/STM32L4xx_HAL_Driver/Src/stm32l4xx_hal_tim_ex.c ****   *
  21:Drivers/STM32L4xx_HAL_Driver/Src/stm32l4xx_hal_tim_ex.c ****   * This software is licensed under terms that can be found in the LICENSE file
  22:Drivers/STM32L4xx_HAL_Driver/Src/stm32l4xx_hal_tim_ex.c ****   * in the root directory of this software component.
  23:Drivers/STM32L4xx_HAL_Driver/Src/stm32l4xx_hal_tim_ex.c ****   * If no LICENSE file comes with this software, it is provided AS-IS.
  24:Drivers/STM32L4xx_HAL_Driver/Src/stm32l4xx_hal_tim_ex.c ****   *
  25:Drivers/STM32L4xx_HAL_Driver/Src/stm32l4xx_hal_tim_ex.c ****   ******************************************************************************
  26:Drivers/STM32L4xx_HAL_Driver/Src/stm32l4xx_hal_tim_ex.c ****   @verbatim
  27:Drivers/STM32L4xx_HAL_Driver/Src/stm32l4xx_hal_tim_ex.c ****   ==============================================================================
  28:Drivers/STM32L4xx_HAL_Driver/Src/stm32l4xx_hal_tim_ex.c ****                       ##### TIMER Extended features #####
  29:Drivers/STM32L4xx_HAL_Driver/Src/stm32l4xx_hal_tim_ex.c ****   ==============================================================================
  30:Drivers/STM32L4xx_HAL_Driver/Src/stm32l4xx_hal_tim_ex.c ****   [..]
ARM GAS  /tmp/ccR4xO3u.s 			page 2


  31:Drivers/STM32L4xx_HAL_Driver/Src/stm32l4xx_hal_tim_ex.c ****     The Timer Extended features include:
  32:Drivers/STM32L4xx_HAL_Driver/Src/stm32l4xx_hal_tim_ex.c ****     (#) Complementary outputs with programmable dead-time for :
  33:Drivers/STM32L4xx_HAL_Driver/Src/stm32l4xx_hal_tim_ex.c ****         (++) Output Compare
  34:Drivers/STM32L4xx_HAL_Driver/Src/stm32l4xx_hal_tim_ex.c ****         (++) PWM generation (Edge and Center-aligned Mode)
  35:Drivers/STM32L4xx_HAL_Driver/Src/stm32l4xx_hal_tim_ex.c ****         (++) One-pulse mode output
  36:Drivers/STM32L4xx_HAL_Driver/Src/stm32l4xx_hal_tim_ex.c ****     (#) Synchronization circuit to control the timer with external signals and to
  37:Drivers/STM32L4xx_HAL_Driver/Src/stm32l4xx_hal_tim_ex.c ****         interconnect several timers together.
  38:Drivers/STM32L4xx_HAL_Driver/Src/stm32l4xx_hal_tim_ex.c ****     (#) Break input to put the timer output signals in reset state or in a known state.
  39:Drivers/STM32L4xx_HAL_Driver/Src/stm32l4xx_hal_tim_ex.c ****     (#) Supports incremental (quadrature) encoder and hall-sensor circuitry for
  40:Drivers/STM32L4xx_HAL_Driver/Src/stm32l4xx_hal_tim_ex.c ****         positioning purposes
  41:Drivers/STM32L4xx_HAL_Driver/Src/stm32l4xx_hal_tim_ex.c **** 
  42:Drivers/STM32L4xx_HAL_Driver/Src/stm32l4xx_hal_tim_ex.c ****             ##### How to use this driver #####
  43:Drivers/STM32L4xx_HAL_Driver/Src/stm32l4xx_hal_tim_ex.c ****   ==============================================================================
  44:Drivers/STM32L4xx_HAL_Driver/Src/stm32l4xx_hal_tim_ex.c ****     [..]
  45:Drivers/STM32L4xx_HAL_Driver/Src/stm32l4xx_hal_tim_ex.c ****      (#) Initialize the TIM low level resources by implementing the following functions
  46:Drivers/STM32L4xx_HAL_Driver/Src/stm32l4xx_hal_tim_ex.c ****          depending on the selected feature:
  47:Drivers/STM32L4xx_HAL_Driver/Src/stm32l4xx_hal_tim_ex.c ****            (++) Hall Sensor output : HAL_TIMEx_HallSensor_MspInit()
  48:Drivers/STM32L4xx_HAL_Driver/Src/stm32l4xx_hal_tim_ex.c **** 
  49:Drivers/STM32L4xx_HAL_Driver/Src/stm32l4xx_hal_tim_ex.c ****      (#) Initialize the TIM low level resources :
  50:Drivers/STM32L4xx_HAL_Driver/Src/stm32l4xx_hal_tim_ex.c ****         (##) Enable the TIM interface clock using __HAL_RCC_TIMx_CLK_ENABLE();
  51:Drivers/STM32L4xx_HAL_Driver/Src/stm32l4xx_hal_tim_ex.c ****         (##) TIM pins configuration
  52:Drivers/STM32L4xx_HAL_Driver/Src/stm32l4xx_hal_tim_ex.c ****             (+++) Enable the clock for the TIM GPIOs using the following function:
  53:Drivers/STM32L4xx_HAL_Driver/Src/stm32l4xx_hal_tim_ex.c ****               __HAL_RCC_GPIOx_CLK_ENABLE();
  54:Drivers/STM32L4xx_HAL_Driver/Src/stm32l4xx_hal_tim_ex.c ****             (+++) Configure these TIM pins in Alternate function mode using HAL_GPIO_Init();
  55:Drivers/STM32L4xx_HAL_Driver/Src/stm32l4xx_hal_tim_ex.c **** 
  56:Drivers/STM32L4xx_HAL_Driver/Src/stm32l4xx_hal_tim_ex.c ****      (#) The external Clock can be configured, if needed (the default clock is the
  57:Drivers/STM32L4xx_HAL_Driver/Src/stm32l4xx_hal_tim_ex.c ****          internal clock from the APBx), using the following function:
  58:Drivers/STM32L4xx_HAL_Driver/Src/stm32l4xx_hal_tim_ex.c ****          HAL_TIM_ConfigClockSource, the clock configuration should be done before
  59:Drivers/STM32L4xx_HAL_Driver/Src/stm32l4xx_hal_tim_ex.c ****          any start function.
  60:Drivers/STM32L4xx_HAL_Driver/Src/stm32l4xx_hal_tim_ex.c **** 
  61:Drivers/STM32L4xx_HAL_Driver/Src/stm32l4xx_hal_tim_ex.c ****      (#) Configure the TIM in the desired functioning mode using one of the
  62:Drivers/STM32L4xx_HAL_Driver/Src/stm32l4xx_hal_tim_ex.c ****          initialization function of this driver:
  63:Drivers/STM32L4xx_HAL_Driver/Src/stm32l4xx_hal_tim_ex.c ****           (++) HAL_TIMEx_HallSensor_Init() and HAL_TIMEx_ConfigCommutEvent(): to use the
  64:Drivers/STM32L4xx_HAL_Driver/Src/stm32l4xx_hal_tim_ex.c ****                Timer Hall Sensor Interface and the commutation event with the corresponding
  65:Drivers/STM32L4xx_HAL_Driver/Src/stm32l4xx_hal_tim_ex.c ****                Interrupt and DMA request if needed (Note that One Timer is used to interface
  66:Drivers/STM32L4xx_HAL_Driver/Src/stm32l4xx_hal_tim_ex.c ****                with the Hall sensor Interface and another Timer should be used to use
  67:Drivers/STM32L4xx_HAL_Driver/Src/stm32l4xx_hal_tim_ex.c ****                the commutation event).
  68:Drivers/STM32L4xx_HAL_Driver/Src/stm32l4xx_hal_tim_ex.c **** 
  69:Drivers/STM32L4xx_HAL_Driver/Src/stm32l4xx_hal_tim_ex.c ****      (#) Activate the TIM peripheral using one of the start functions:
  70:Drivers/STM32L4xx_HAL_Driver/Src/stm32l4xx_hal_tim_ex.c ****            (++) Complementary Output Compare : HAL_TIMEx_OCN_Start(), HAL_TIMEx_OCN_Start_DMA(),
  71:Drivers/STM32L4xx_HAL_Driver/Src/stm32l4xx_hal_tim_ex.c ****                 HAL_TIMEx_OCN_Start_IT()
  72:Drivers/STM32L4xx_HAL_Driver/Src/stm32l4xx_hal_tim_ex.c ****            (++) Complementary PWM generation : HAL_TIMEx_PWMN_Start(), HAL_TIMEx_PWMN_Start_DMA(),
  73:Drivers/STM32L4xx_HAL_Driver/Src/stm32l4xx_hal_tim_ex.c ****                 HAL_TIMEx_PWMN_Start_IT()
  74:Drivers/STM32L4xx_HAL_Driver/Src/stm32l4xx_hal_tim_ex.c ****            (++) Complementary One-pulse mode output : HAL_TIMEx_OnePulseN_Start(), HAL_TIMEx_OnePul
  75:Drivers/STM32L4xx_HAL_Driver/Src/stm32l4xx_hal_tim_ex.c ****            (++) Hall Sensor output : HAL_TIMEx_HallSensor_Start(), HAL_TIMEx_HallSensor_Start_DMA()
  76:Drivers/STM32L4xx_HAL_Driver/Src/stm32l4xx_hal_tim_ex.c ****                 HAL_TIMEx_HallSensor_Start_IT().
  77:Drivers/STM32L4xx_HAL_Driver/Src/stm32l4xx_hal_tim_ex.c **** 
  78:Drivers/STM32L4xx_HAL_Driver/Src/stm32l4xx_hal_tim_ex.c ****   @endverbatim
  79:Drivers/STM32L4xx_HAL_Driver/Src/stm32l4xx_hal_tim_ex.c ****   ******************************************************************************
  80:Drivers/STM32L4xx_HAL_Driver/Src/stm32l4xx_hal_tim_ex.c ****   */
  81:Drivers/STM32L4xx_HAL_Driver/Src/stm32l4xx_hal_tim_ex.c **** 
  82:Drivers/STM32L4xx_HAL_Driver/Src/stm32l4xx_hal_tim_ex.c **** /* Includes ------------------------------------------------------------------*/
  83:Drivers/STM32L4xx_HAL_Driver/Src/stm32l4xx_hal_tim_ex.c **** #include "stm32l4xx_hal.h"
  84:Drivers/STM32L4xx_HAL_Driver/Src/stm32l4xx_hal_tim_ex.c **** 
  85:Drivers/STM32L4xx_HAL_Driver/Src/stm32l4xx_hal_tim_ex.c **** /** @addtogroup STM32L4xx_HAL_Driver
  86:Drivers/STM32L4xx_HAL_Driver/Src/stm32l4xx_hal_tim_ex.c ****   * @{
  87:Drivers/STM32L4xx_HAL_Driver/Src/stm32l4xx_hal_tim_ex.c ****   */
ARM GAS  /tmp/ccR4xO3u.s 			page 3


  88:Drivers/STM32L4xx_HAL_Driver/Src/stm32l4xx_hal_tim_ex.c **** 
  89:Drivers/STM32L4xx_HAL_Driver/Src/stm32l4xx_hal_tim_ex.c **** /** @defgroup TIMEx TIMEx
  90:Drivers/STM32L4xx_HAL_Driver/Src/stm32l4xx_hal_tim_ex.c ****   * @brief TIM Extended HAL module driver
  91:Drivers/STM32L4xx_HAL_Driver/Src/stm32l4xx_hal_tim_ex.c ****   * @{
  92:Drivers/STM32L4xx_HAL_Driver/Src/stm32l4xx_hal_tim_ex.c ****   */
  93:Drivers/STM32L4xx_HAL_Driver/Src/stm32l4xx_hal_tim_ex.c **** 
  94:Drivers/STM32L4xx_HAL_Driver/Src/stm32l4xx_hal_tim_ex.c **** #ifdef HAL_TIM_MODULE_ENABLED
  95:Drivers/STM32L4xx_HAL_Driver/Src/stm32l4xx_hal_tim_ex.c **** 
  96:Drivers/STM32L4xx_HAL_Driver/Src/stm32l4xx_hal_tim_ex.c **** /* Private typedef -----------------------------------------------------------*/
  97:Drivers/STM32L4xx_HAL_Driver/Src/stm32l4xx_hal_tim_ex.c **** /* Private define ------------------------------------------------------------*/
  98:Drivers/STM32L4xx_HAL_Driver/Src/stm32l4xx_hal_tim_ex.c **** /* Private macros ------------------------------------------------------------*/
  99:Drivers/STM32L4xx_HAL_Driver/Src/stm32l4xx_hal_tim_ex.c **** /* Private variables ---------------------------------------------------------*/
 100:Drivers/STM32L4xx_HAL_Driver/Src/stm32l4xx_hal_tim_ex.c **** /* Private function prototypes -----------------------------------------------*/
 101:Drivers/STM32L4xx_HAL_Driver/Src/stm32l4xx_hal_tim_ex.c **** static void TIM_DMADelayPulseNCplt(DMA_HandleTypeDef *hdma);
 102:Drivers/STM32L4xx_HAL_Driver/Src/stm32l4xx_hal_tim_ex.c **** static void TIM_DMAErrorCCxN(DMA_HandleTypeDef *hdma);
 103:Drivers/STM32L4xx_HAL_Driver/Src/stm32l4xx_hal_tim_ex.c **** static void TIM_CCxNChannelCmd(TIM_TypeDef *TIMx, uint32_t Channel, uint32_t ChannelNState);
 104:Drivers/STM32L4xx_HAL_Driver/Src/stm32l4xx_hal_tim_ex.c **** 
 105:Drivers/STM32L4xx_HAL_Driver/Src/stm32l4xx_hal_tim_ex.c **** /* Exported functions --------------------------------------------------------*/
 106:Drivers/STM32L4xx_HAL_Driver/Src/stm32l4xx_hal_tim_ex.c **** /** @defgroup TIMEx_Exported_Functions TIM Extended Exported Functions
 107:Drivers/STM32L4xx_HAL_Driver/Src/stm32l4xx_hal_tim_ex.c ****   * @{
 108:Drivers/STM32L4xx_HAL_Driver/Src/stm32l4xx_hal_tim_ex.c ****   */
 109:Drivers/STM32L4xx_HAL_Driver/Src/stm32l4xx_hal_tim_ex.c **** 
 110:Drivers/STM32L4xx_HAL_Driver/Src/stm32l4xx_hal_tim_ex.c **** /** @defgroup TIMEx_Exported_Functions_Group1 Extended Timer Hall Sensor functions
 111:Drivers/STM32L4xx_HAL_Driver/Src/stm32l4xx_hal_tim_ex.c ****   * @brief    Timer Hall Sensor functions
 112:Drivers/STM32L4xx_HAL_Driver/Src/stm32l4xx_hal_tim_ex.c ****   *
 113:Drivers/STM32L4xx_HAL_Driver/Src/stm32l4xx_hal_tim_ex.c **** @verbatim
 114:Drivers/STM32L4xx_HAL_Driver/Src/stm32l4xx_hal_tim_ex.c ****   ==============================================================================
 115:Drivers/STM32L4xx_HAL_Driver/Src/stm32l4xx_hal_tim_ex.c ****                       ##### Timer Hall Sensor functions #####
 116:Drivers/STM32L4xx_HAL_Driver/Src/stm32l4xx_hal_tim_ex.c ****   ==============================================================================
 117:Drivers/STM32L4xx_HAL_Driver/Src/stm32l4xx_hal_tim_ex.c ****   [..]
 118:Drivers/STM32L4xx_HAL_Driver/Src/stm32l4xx_hal_tim_ex.c ****     This section provides functions allowing to:
 119:Drivers/STM32L4xx_HAL_Driver/Src/stm32l4xx_hal_tim_ex.c ****     (+) Initialize and configure TIM HAL Sensor.
 120:Drivers/STM32L4xx_HAL_Driver/Src/stm32l4xx_hal_tim_ex.c ****     (+) De-initialize TIM HAL Sensor.
 121:Drivers/STM32L4xx_HAL_Driver/Src/stm32l4xx_hal_tim_ex.c ****     (+) Start the Hall Sensor Interface.
 122:Drivers/STM32L4xx_HAL_Driver/Src/stm32l4xx_hal_tim_ex.c ****     (+) Stop the Hall Sensor Interface.
 123:Drivers/STM32L4xx_HAL_Driver/Src/stm32l4xx_hal_tim_ex.c ****     (+) Start the Hall Sensor Interface and enable interrupts.
 124:Drivers/STM32L4xx_HAL_Driver/Src/stm32l4xx_hal_tim_ex.c ****     (+) Stop the Hall Sensor Interface and disable interrupts.
 125:Drivers/STM32L4xx_HAL_Driver/Src/stm32l4xx_hal_tim_ex.c ****     (+) Start the Hall Sensor Interface and enable DMA transfers.
 126:Drivers/STM32L4xx_HAL_Driver/Src/stm32l4xx_hal_tim_ex.c ****     (+) Stop the Hall Sensor Interface and disable DMA transfers.
 127:Drivers/STM32L4xx_HAL_Driver/Src/stm32l4xx_hal_tim_ex.c **** 
 128:Drivers/STM32L4xx_HAL_Driver/Src/stm32l4xx_hal_tim_ex.c **** @endverbatim
 129:Drivers/STM32L4xx_HAL_Driver/Src/stm32l4xx_hal_tim_ex.c ****   * @{
 130:Drivers/STM32L4xx_HAL_Driver/Src/stm32l4xx_hal_tim_ex.c ****   */
 131:Drivers/STM32L4xx_HAL_Driver/Src/stm32l4xx_hal_tim_ex.c **** /**
 132:Drivers/STM32L4xx_HAL_Driver/Src/stm32l4xx_hal_tim_ex.c ****   * @brief  Initializes the TIM Hall Sensor Interface and initialize the associated handle.
 133:Drivers/STM32L4xx_HAL_Driver/Src/stm32l4xx_hal_tim_ex.c ****   * @note   When the timer instance is initialized in Hall Sensor Interface mode,
 134:Drivers/STM32L4xx_HAL_Driver/Src/stm32l4xx_hal_tim_ex.c ****   *         timer channels 1 and channel 2 are reserved and cannot be used for
 135:Drivers/STM32L4xx_HAL_Driver/Src/stm32l4xx_hal_tim_ex.c ****   *         other purpose.
 136:Drivers/STM32L4xx_HAL_Driver/Src/stm32l4xx_hal_tim_ex.c ****   * @param  htim TIM Hall Sensor Interface handle
 137:Drivers/STM32L4xx_HAL_Driver/Src/stm32l4xx_hal_tim_ex.c ****   * @param  sConfig TIM Hall Sensor configuration structure
 138:Drivers/STM32L4xx_HAL_Driver/Src/stm32l4xx_hal_tim_ex.c ****   * @retval HAL status
 139:Drivers/STM32L4xx_HAL_Driver/Src/stm32l4xx_hal_tim_ex.c ****   */
 140:Drivers/STM32L4xx_HAL_Driver/Src/stm32l4xx_hal_tim_ex.c **** HAL_StatusTypeDef HAL_TIMEx_HallSensor_Init(TIM_HandleTypeDef *htim, const TIM_HallSensor_InitTypeD
 141:Drivers/STM32L4xx_HAL_Driver/Src/stm32l4xx_hal_tim_ex.c **** {
  29              		.loc 1 141 1
  30              		.cfi_startproc
  31              		@ args = 0, pretend = 0, frame = 40
ARM GAS  /tmp/ccR4xO3u.s 			page 4


  32              		@ frame_needed = 1, uses_anonymous_args = 0
  33 0000 80B5     		push	{r7, lr}
  34              	.LCFI0:
  35              		.cfi_def_cfa_offset 8
  36              		.cfi_offset 7, -8
  37              		.cfi_offset 14, -4
  38 0002 8AB0     		sub	sp, sp, #40
  39              	.LCFI1:
  40              		.cfi_def_cfa_offset 48
  41 0004 00AF     		add	r7, sp, #0
  42              	.LCFI2:
  43              		.cfi_def_cfa_register 7
  44 0006 7860     		str	r0, [r7, #4]
  45 0008 3960     		str	r1, [r7]
 142:Drivers/STM32L4xx_HAL_Driver/Src/stm32l4xx_hal_tim_ex.c ****   TIM_OC_InitTypeDef OC_Config;
 143:Drivers/STM32L4xx_HAL_Driver/Src/stm32l4xx_hal_tim_ex.c **** 
 144:Drivers/STM32L4xx_HAL_Driver/Src/stm32l4xx_hal_tim_ex.c ****   /* Check the TIM handle allocation */
 145:Drivers/STM32L4xx_HAL_Driver/Src/stm32l4xx_hal_tim_ex.c ****   if (htim == NULL)
  46              		.loc 1 145 6
  47 000a 7B68     		ldr	r3, [r7, #4]
  48 000c 002B     		cmp	r3, #0
  49 000e 01D1     		bne	.L2
 146:Drivers/STM32L4xx_HAL_Driver/Src/stm32l4xx_hal_tim_ex.c ****   {
 147:Drivers/STM32L4xx_HAL_Driver/Src/stm32l4xx_hal_tim_ex.c ****     return HAL_ERROR;
  50              		.loc 1 147 12
  51 0010 0123     		movs	r3, #1
  52 0012 9CE0     		b	.L5
  53              	.L2:
 148:Drivers/STM32L4xx_HAL_Driver/Src/stm32l4xx_hal_tim_ex.c ****   }
 149:Drivers/STM32L4xx_HAL_Driver/Src/stm32l4xx_hal_tim_ex.c **** 
 150:Drivers/STM32L4xx_HAL_Driver/Src/stm32l4xx_hal_tim_ex.c ****   /* Check the parameters */
 151:Drivers/STM32L4xx_HAL_Driver/Src/stm32l4xx_hal_tim_ex.c ****   assert_param(IS_TIM_HALL_SENSOR_INTERFACE_INSTANCE(htim->Instance));
 152:Drivers/STM32L4xx_HAL_Driver/Src/stm32l4xx_hal_tim_ex.c ****   assert_param(IS_TIM_COUNTER_MODE(htim->Init.CounterMode));
 153:Drivers/STM32L4xx_HAL_Driver/Src/stm32l4xx_hal_tim_ex.c ****   assert_param(IS_TIM_CLOCKDIVISION_DIV(htim->Init.ClockDivision));
 154:Drivers/STM32L4xx_HAL_Driver/Src/stm32l4xx_hal_tim_ex.c ****   assert_param(IS_TIM_AUTORELOAD_PRELOAD(htim->Init.AutoReloadPreload));
 155:Drivers/STM32L4xx_HAL_Driver/Src/stm32l4xx_hal_tim_ex.c ****   assert_param(IS_TIM_IC_POLARITY(sConfig->IC1Polarity));
 156:Drivers/STM32L4xx_HAL_Driver/Src/stm32l4xx_hal_tim_ex.c ****   assert_param(IS_TIM_PERIOD(htim, htim->Init.Period));
 157:Drivers/STM32L4xx_HAL_Driver/Src/stm32l4xx_hal_tim_ex.c ****   assert_param(IS_TIM_IC_PRESCALER(sConfig->IC1Prescaler));
 158:Drivers/STM32L4xx_HAL_Driver/Src/stm32l4xx_hal_tim_ex.c ****   assert_param(IS_TIM_IC_FILTER(sConfig->IC1Filter));
 159:Drivers/STM32L4xx_HAL_Driver/Src/stm32l4xx_hal_tim_ex.c **** 
 160:Drivers/STM32L4xx_HAL_Driver/Src/stm32l4xx_hal_tim_ex.c ****   if (htim->State == HAL_TIM_STATE_RESET)
  54              		.loc 1 160 11
  55 0014 7B68     		ldr	r3, [r7, #4]
  56 0016 93F83D30 		ldrb	r3, [r3, #61]
  57 001a DBB2     		uxtb	r3, r3
  58              		.loc 1 160 6
  59 001c 002B     		cmp	r3, #0
  60 001e 06D1     		bne	.L4
 161:Drivers/STM32L4xx_HAL_Driver/Src/stm32l4xx_hal_tim_ex.c ****   {
 162:Drivers/STM32L4xx_HAL_Driver/Src/stm32l4xx_hal_tim_ex.c ****     /* Allocate lock resource and initialize it */
 163:Drivers/STM32L4xx_HAL_Driver/Src/stm32l4xx_hal_tim_ex.c ****     htim->Lock = HAL_UNLOCKED;
  61              		.loc 1 163 16
  62 0020 7B68     		ldr	r3, [r7, #4]
  63 0022 0022     		movs	r2, #0
  64 0024 83F83C20 		strb	r2, [r3, #60]
 164:Drivers/STM32L4xx_HAL_Driver/Src/stm32l4xx_hal_tim_ex.c **** 
 165:Drivers/STM32L4xx_HAL_Driver/Src/stm32l4xx_hal_tim_ex.c **** #if (USE_HAL_TIM_REGISTER_CALLBACKS == 1)
ARM GAS  /tmp/ccR4xO3u.s 			page 5


 166:Drivers/STM32L4xx_HAL_Driver/Src/stm32l4xx_hal_tim_ex.c ****     /* Reset interrupt callbacks to legacy week callbacks */
 167:Drivers/STM32L4xx_HAL_Driver/Src/stm32l4xx_hal_tim_ex.c ****     TIM_ResetCallback(htim);
 168:Drivers/STM32L4xx_HAL_Driver/Src/stm32l4xx_hal_tim_ex.c **** 
 169:Drivers/STM32L4xx_HAL_Driver/Src/stm32l4xx_hal_tim_ex.c ****     if (htim->HallSensor_MspInitCallback == NULL)
 170:Drivers/STM32L4xx_HAL_Driver/Src/stm32l4xx_hal_tim_ex.c ****     {
 171:Drivers/STM32L4xx_HAL_Driver/Src/stm32l4xx_hal_tim_ex.c ****       htim->HallSensor_MspInitCallback = HAL_TIMEx_HallSensor_MspInit;
 172:Drivers/STM32L4xx_HAL_Driver/Src/stm32l4xx_hal_tim_ex.c ****     }
 173:Drivers/STM32L4xx_HAL_Driver/Src/stm32l4xx_hal_tim_ex.c ****     /* Init the low level hardware : GPIO, CLOCK, NVIC */
 174:Drivers/STM32L4xx_HAL_Driver/Src/stm32l4xx_hal_tim_ex.c ****     htim->HallSensor_MspInitCallback(htim);
 175:Drivers/STM32L4xx_HAL_Driver/Src/stm32l4xx_hal_tim_ex.c **** #else
 176:Drivers/STM32L4xx_HAL_Driver/Src/stm32l4xx_hal_tim_ex.c ****     /* Init the low level hardware : GPIO, CLOCK, NVIC and DMA */
 177:Drivers/STM32L4xx_HAL_Driver/Src/stm32l4xx_hal_tim_ex.c ****     HAL_TIMEx_HallSensor_MspInit(htim);
  65              		.loc 1 177 5
  66 0028 7868     		ldr	r0, [r7, #4]
  67 002a FFF7FEFF 		bl	HAL_TIMEx_HallSensor_MspInit
  68              	.L4:
 178:Drivers/STM32L4xx_HAL_Driver/Src/stm32l4xx_hal_tim_ex.c **** #endif /* USE_HAL_TIM_REGISTER_CALLBACKS */
 179:Drivers/STM32L4xx_HAL_Driver/Src/stm32l4xx_hal_tim_ex.c ****   }
 180:Drivers/STM32L4xx_HAL_Driver/Src/stm32l4xx_hal_tim_ex.c **** 
 181:Drivers/STM32L4xx_HAL_Driver/Src/stm32l4xx_hal_tim_ex.c ****   /* Set the TIM state */
 182:Drivers/STM32L4xx_HAL_Driver/Src/stm32l4xx_hal_tim_ex.c ****   htim->State = HAL_TIM_STATE_BUSY;
  69              		.loc 1 182 15
  70 002e 7B68     		ldr	r3, [r7, #4]
  71 0030 0222     		movs	r2, #2
  72 0032 83F83D20 		strb	r2, [r3, #61]
 183:Drivers/STM32L4xx_HAL_Driver/Src/stm32l4xx_hal_tim_ex.c **** 
 184:Drivers/STM32L4xx_HAL_Driver/Src/stm32l4xx_hal_tim_ex.c ****   /* Configure the Time base in the Encoder Mode */
 185:Drivers/STM32L4xx_HAL_Driver/Src/stm32l4xx_hal_tim_ex.c ****   TIM_Base_SetConfig(htim->Instance, &htim->Init);
  73              		.loc 1 185 3
  74 0036 7B68     		ldr	r3, [r7, #4]
  75 0038 1A68     		ldr	r2, [r3]
  76              		.loc 1 185 38
  77 003a 7B68     		ldr	r3, [r7, #4]
  78 003c 0433     		adds	r3, r3, #4
  79              		.loc 1 185 3
  80 003e 1946     		mov	r1, r3
  81 0040 1046     		mov	r0, r2
  82 0042 FFF7FEFF 		bl	TIM_Base_SetConfig
 186:Drivers/STM32L4xx_HAL_Driver/Src/stm32l4xx_hal_tim_ex.c **** 
 187:Drivers/STM32L4xx_HAL_Driver/Src/stm32l4xx_hal_tim_ex.c ****   /* Configure the Channel 1 as Input Channel to interface with the three Outputs of the  Hall sens
 188:Drivers/STM32L4xx_HAL_Driver/Src/stm32l4xx_hal_tim_ex.c ****   TIM_TI1_SetConfig(htim->Instance, sConfig->IC1Polarity, TIM_ICSELECTION_TRC, sConfig->IC1Filter);
  83              		.loc 1 188 3
  84 0046 7B68     		ldr	r3, [r7, #4]
  85 0048 1868     		ldr	r0, [r3]
  86 004a 3B68     		ldr	r3, [r7]
  87 004c 1968     		ldr	r1, [r3]
  88 004e 3B68     		ldr	r3, [r7]
  89 0050 9B68     		ldr	r3, [r3, #8]
  90 0052 0322     		movs	r2, #3
  91 0054 FFF7FEFF 		bl	TIM_TI1_SetConfig
 189:Drivers/STM32L4xx_HAL_Driver/Src/stm32l4xx_hal_tim_ex.c **** 
 190:Drivers/STM32L4xx_HAL_Driver/Src/stm32l4xx_hal_tim_ex.c ****   /* Reset the IC1PSC Bits */
 191:Drivers/STM32L4xx_HAL_Driver/Src/stm32l4xx_hal_tim_ex.c ****   htim->Instance->CCMR1 &= ~TIM_CCMR1_IC1PSC;
  92              		.loc 1 191 7
  93 0058 7B68     		ldr	r3, [r7, #4]
  94 005a 1B68     		ldr	r3, [r3]
  95              		.loc 1 191 25
ARM GAS  /tmp/ccR4xO3u.s 			page 6


  96 005c 9A69     		ldr	r2, [r3, #24]
  97              		.loc 1 191 7
  98 005e 7B68     		ldr	r3, [r7, #4]
  99 0060 1B68     		ldr	r3, [r3]
 100              		.loc 1 191 25
 101 0062 22F00C02 		bic	r2, r2, #12
 102 0066 9A61     		str	r2, [r3, #24]
 192:Drivers/STM32L4xx_HAL_Driver/Src/stm32l4xx_hal_tim_ex.c ****   /* Set the IC1PSC value */
 193:Drivers/STM32L4xx_HAL_Driver/Src/stm32l4xx_hal_tim_ex.c ****   htim->Instance->CCMR1 |= sConfig->IC1Prescaler;
 103              		.loc 1 193 7
 104 0068 7B68     		ldr	r3, [r7, #4]
 105 006a 1B68     		ldr	r3, [r3]
 106              		.loc 1 193 25
 107 006c 9969     		ldr	r1, [r3, #24]
 108              		.loc 1 193 35
 109 006e 3B68     		ldr	r3, [r7]
 110 0070 5A68     		ldr	r2, [r3, #4]
 111              		.loc 1 193 7
 112 0072 7B68     		ldr	r3, [r7, #4]
 113 0074 1B68     		ldr	r3, [r3]
 114              		.loc 1 193 25
 115 0076 0A43     		orrs	r2, r2, r1
 116 0078 9A61     		str	r2, [r3, #24]
 194:Drivers/STM32L4xx_HAL_Driver/Src/stm32l4xx_hal_tim_ex.c **** 
 195:Drivers/STM32L4xx_HAL_Driver/Src/stm32l4xx_hal_tim_ex.c ****   /* Enable the Hall sensor interface (XOR function of the three inputs) */
 196:Drivers/STM32L4xx_HAL_Driver/Src/stm32l4xx_hal_tim_ex.c ****   htim->Instance->CR2 |= TIM_CR2_TI1S;
 117              		.loc 1 196 7
 118 007a 7B68     		ldr	r3, [r7, #4]
 119 007c 1B68     		ldr	r3, [r3]
 120              		.loc 1 196 23
 121 007e 5A68     		ldr	r2, [r3, #4]
 122              		.loc 1 196 7
 123 0080 7B68     		ldr	r3, [r7, #4]
 124 0082 1B68     		ldr	r3, [r3]
 125              		.loc 1 196 23
 126 0084 42F08002 		orr	r2, r2, #128
 127 0088 5A60     		str	r2, [r3, #4]
 197:Drivers/STM32L4xx_HAL_Driver/Src/stm32l4xx_hal_tim_ex.c **** 
 198:Drivers/STM32L4xx_HAL_Driver/Src/stm32l4xx_hal_tim_ex.c ****   /* Select the TIM_TS_TI1F_ED signal as Input trigger for the TIM */
 199:Drivers/STM32L4xx_HAL_Driver/Src/stm32l4xx_hal_tim_ex.c ****   htim->Instance->SMCR &= ~TIM_SMCR_TS;
 128              		.loc 1 199 7
 129 008a 7B68     		ldr	r3, [r7, #4]
 130 008c 1B68     		ldr	r3, [r3]
 131              		.loc 1 199 24
 132 008e 9A68     		ldr	r2, [r3, #8]
 133              		.loc 1 199 7
 134 0090 7B68     		ldr	r3, [r7, #4]
 135 0092 1B68     		ldr	r3, [r3]
 136              		.loc 1 199 24
 137 0094 22F07002 		bic	r2, r2, #112
 138 0098 9A60     		str	r2, [r3, #8]
 200:Drivers/STM32L4xx_HAL_Driver/Src/stm32l4xx_hal_tim_ex.c ****   htim->Instance->SMCR |= TIM_TS_TI1F_ED;
 139              		.loc 1 200 7
 140 009a 7B68     		ldr	r3, [r7, #4]
 141 009c 1B68     		ldr	r3, [r3]
 142              		.loc 1 200 24
 143 009e 9A68     		ldr	r2, [r3, #8]
ARM GAS  /tmp/ccR4xO3u.s 			page 7


 144              		.loc 1 200 7
 145 00a0 7B68     		ldr	r3, [r7, #4]
 146 00a2 1B68     		ldr	r3, [r3]
 147              		.loc 1 200 24
 148 00a4 42F04002 		orr	r2, r2, #64
 149 00a8 9A60     		str	r2, [r3, #8]
 201:Drivers/STM32L4xx_HAL_Driver/Src/stm32l4xx_hal_tim_ex.c **** 
 202:Drivers/STM32L4xx_HAL_Driver/Src/stm32l4xx_hal_tim_ex.c ****   /* Use the TIM_TS_TI1F_ED signal to reset the TIM counter each edge detection */
 203:Drivers/STM32L4xx_HAL_Driver/Src/stm32l4xx_hal_tim_ex.c ****   htim->Instance->SMCR &= ~TIM_SMCR_SMS;
 150              		.loc 1 203 7
 151 00aa 7B68     		ldr	r3, [r7, #4]
 152 00ac 1B68     		ldr	r3, [r3]
 153              		.loc 1 203 24
 154 00ae 9B68     		ldr	r3, [r3, #8]
 155              		.loc 1 203 7
 156 00b0 7A68     		ldr	r2, [r7, #4]
 157 00b2 1268     		ldr	r2, [r2]
 158              		.loc 1 203 24
 159 00b4 23F48033 		bic	r3, r3, #65536
 160 00b8 23F00703 		bic	r3, r3, #7
 161 00bc 9360     		str	r3, [r2, #8]
 204:Drivers/STM32L4xx_HAL_Driver/Src/stm32l4xx_hal_tim_ex.c ****   htim->Instance->SMCR |= TIM_SLAVEMODE_RESET;
 162              		.loc 1 204 7
 163 00be 7B68     		ldr	r3, [r7, #4]
 164 00c0 1B68     		ldr	r3, [r3]
 165              		.loc 1 204 24
 166 00c2 9A68     		ldr	r2, [r3, #8]
 167              		.loc 1 204 7
 168 00c4 7B68     		ldr	r3, [r7, #4]
 169 00c6 1B68     		ldr	r3, [r3]
 170              		.loc 1 204 24
 171 00c8 42F00402 		orr	r2, r2, #4
 172 00cc 9A60     		str	r2, [r3, #8]
 205:Drivers/STM32L4xx_HAL_Driver/Src/stm32l4xx_hal_tim_ex.c **** 
 206:Drivers/STM32L4xx_HAL_Driver/Src/stm32l4xx_hal_tim_ex.c ****   /* Program channel 2 in PWM 2 mode with the desired Commutation_Delay*/
 207:Drivers/STM32L4xx_HAL_Driver/Src/stm32l4xx_hal_tim_ex.c ****   OC_Config.OCFastMode = TIM_OCFAST_DISABLE;
 173              		.loc 1 207 24
 174 00ce 0023     		movs	r3, #0
 175 00d0 FB61     		str	r3, [r7, #28]
 208:Drivers/STM32L4xx_HAL_Driver/Src/stm32l4xx_hal_tim_ex.c ****   OC_Config.OCIdleState = TIM_OCIDLESTATE_RESET;
 176              		.loc 1 208 25
 177 00d2 0023     		movs	r3, #0
 178 00d4 3B62     		str	r3, [r7, #32]
 209:Drivers/STM32L4xx_HAL_Driver/Src/stm32l4xx_hal_tim_ex.c ****   OC_Config.OCMode = TIM_OCMODE_PWM2;
 179              		.loc 1 209 20
 180 00d6 7023     		movs	r3, #112
 181 00d8 FB60     		str	r3, [r7, #12]
 210:Drivers/STM32L4xx_HAL_Driver/Src/stm32l4xx_hal_tim_ex.c ****   OC_Config.OCNIdleState = TIM_OCNIDLESTATE_RESET;
 182              		.loc 1 210 26
 183 00da 0023     		movs	r3, #0
 184 00dc 7B62     		str	r3, [r7, #36]
 211:Drivers/STM32L4xx_HAL_Driver/Src/stm32l4xx_hal_tim_ex.c ****   OC_Config.OCNPolarity = TIM_OCNPOLARITY_HIGH;
 185              		.loc 1 211 25
 186 00de 0023     		movs	r3, #0
 187 00e0 BB61     		str	r3, [r7, #24]
 212:Drivers/STM32L4xx_HAL_Driver/Src/stm32l4xx_hal_tim_ex.c ****   OC_Config.OCPolarity = TIM_OCPOLARITY_HIGH;
 188              		.loc 1 212 24
ARM GAS  /tmp/ccR4xO3u.s 			page 8


 189 00e2 0023     		movs	r3, #0
 190 00e4 7B61     		str	r3, [r7, #20]
 213:Drivers/STM32L4xx_HAL_Driver/Src/stm32l4xx_hal_tim_ex.c ****   OC_Config.Pulse = sConfig->Commutation_Delay;
 191              		.loc 1 213 28
 192 00e6 3B68     		ldr	r3, [r7]
 193 00e8 DB68     		ldr	r3, [r3, #12]
 194              		.loc 1 213 19
 195 00ea 3B61     		str	r3, [r7, #16]
 214:Drivers/STM32L4xx_HAL_Driver/Src/stm32l4xx_hal_tim_ex.c **** 
 215:Drivers/STM32L4xx_HAL_Driver/Src/stm32l4xx_hal_tim_ex.c ****   TIM_OC2_SetConfig(htim->Instance, &OC_Config);
 196              		.loc 1 215 3
 197 00ec 7B68     		ldr	r3, [r7, #4]
 198 00ee 1B68     		ldr	r3, [r3]
 199 00f0 07F10C02 		add	r2, r7, #12
 200 00f4 1146     		mov	r1, r2
 201 00f6 1846     		mov	r0, r3
 202 00f8 FFF7FEFF 		bl	TIM_OC2_SetConfig
 216:Drivers/STM32L4xx_HAL_Driver/Src/stm32l4xx_hal_tim_ex.c **** 
 217:Drivers/STM32L4xx_HAL_Driver/Src/stm32l4xx_hal_tim_ex.c ****   /* Select OC2REF as trigger output on TRGO: write the MMS bits in the TIMx_CR2
 218:Drivers/STM32L4xx_HAL_Driver/Src/stm32l4xx_hal_tim_ex.c ****     register to 101 */
 219:Drivers/STM32L4xx_HAL_Driver/Src/stm32l4xx_hal_tim_ex.c ****   htim->Instance->CR2 &= ~TIM_CR2_MMS;
 203              		.loc 1 219 7
 204 00fc 7B68     		ldr	r3, [r7, #4]
 205 00fe 1B68     		ldr	r3, [r3]
 206              		.loc 1 219 23
 207 0100 5A68     		ldr	r2, [r3, #4]
 208              		.loc 1 219 7
 209 0102 7B68     		ldr	r3, [r7, #4]
 210 0104 1B68     		ldr	r3, [r3]
 211              		.loc 1 219 23
 212 0106 22F07002 		bic	r2, r2, #112
 213 010a 5A60     		str	r2, [r3, #4]
 220:Drivers/STM32L4xx_HAL_Driver/Src/stm32l4xx_hal_tim_ex.c ****   htim->Instance->CR2 |= TIM_TRGO_OC2REF;
 214              		.loc 1 220 7
 215 010c 7B68     		ldr	r3, [r7, #4]
 216 010e 1B68     		ldr	r3, [r3]
 217              		.loc 1 220 23
 218 0110 5A68     		ldr	r2, [r3, #4]
 219              		.loc 1 220 7
 220 0112 7B68     		ldr	r3, [r7, #4]
 221 0114 1B68     		ldr	r3, [r3]
 222              		.loc 1 220 23
 223 0116 42F05002 		orr	r2, r2, #80
 224 011a 5A60     		str	r2, [r3, #4]
 221:Drivers/STM32L4xx_HAL_Driver/Src/stm32l4xx_hal_tim_ex.c **** 
 222:Drivers/STM32L4xx_HAL_Driver/Src/stm32l4xx_hal_tim_ex.c ****   /* Initialize the DMA burst operation state */
 223:Drivers/STM32L4xx_HAL_Driver/Src/stm32l4xx_hal_tim_ex.c ****   htim->DMABurstState = HAL_DMA_BURST_STATE_READY;
 225              		.loc 1 223 23
 226 011c 7B68     		ldr	r3, [r7, #4]
 227 011e 0122     		movs	r2, #1
 228 0120 83F84820 		strb	r2, [r3, #72]
 224:Drivers/STM32L4xx_HAL_Driver/Src/stm32l4xx_hal_tim_ex.c **** 
 225:Drivers/STM32L4xx_HAL_Driver/Src/stm32l4xx_hal_tim_ex.c ****   /* Initialize the TIM channels state */
 226:Drivers/STM32L4xx_HAL_Driver/Src/stm32l4xx_hal_tim_ex.c ****   TIM_CHANNEL_STATE_SET(htim, TIM_CHANNEL_1, HAL_TIM_CHANNEL_STATE_READY);
 229              		.loc 1 226 3
 230 0124 7B68     		ldr	r3, [r7, #4]
 231 0126 0122     		movs	r2, #1
ARM GAS  /tmp/ccR4xO3u.s 			page 9


 232 0128 83F83E20 		strb	r2, [r3, #62]
 227:Drivers/STM32L4xx_HAL_Driver/Src/stm32l4xx_hal_tim_ex.c ****   TIM_CHANNEL_STATE_SET(htim, TIM_CHANNEL_2, HAL_TIM_CHANNEL_STATE_READY);
 233              		.loc 1 227 3
 234 012c 7B68     		ldr	r3, [r7, #4]
 235 012e 0122     		movs	r2, #1
 236 0130 83F83F20 		strb	r2, [r3, #63]
 228:Drivers/STM32L4xx_HAL_Driver/Src/stm32l4xx_hal_tim_ex.c ****   TIM_CHANNEL_N_STATE_SET(htim, TIM_CHANNEL_1, HAL_TIM_CHANNEL_STATE_READY);
 237              		.loc 1 228 3
 238 0134 7B68     		ldr	r3, [r7, #4]
 239 0136 0122     		movs	r2, #1
 240 0138 83F84420 		strb	r2, [r3, #68]
 229:Drivers/STM32L4xx_HAL_Driver/Src/stm32l4xx_hal_tim_ex.c ****   TIM_CHANNEL_N_STATE_SET(htim, TIM_CHANNEL_2, HAL_TIM_CHANNEL_STATE_READY);
 241              		.loc 1 229 3
 242 013c 7B68     		ldr	r3, [r7, #4]
 243 013e 0122     		movs	r2, #1
 244 0140 83F84520 		strb	r2, [r3, #69]
 230:Drivers/STM32L4xx_HAL_Driver/Src/stm32l4xx_hal_tim_ex.c **** 
 231:Drivers/STM32L4xx_HAL_Driver/Src/stm32l4xx_hal_tim_ex.c ****   /* Initialize the TIM state*/
 232:Drivers/STM32L4xx_HAL_Driver/Src/stm32l4xx_hal_tim_ex.c ****   htim->State = HAL_TIM_STATE_READY;
 245              		.loc 1 232 15
 246 0144 7B68     		ldr	r3, [r7, #4]
 247 0146 0122     		movs	r2, #1
 248 0148 83F83D20 		strb	r2, [r3, #61]
 233:Drivers/STM32L4xx_HAL_Driver/Src/stm32l4xx_hal_tim_ex.c **** 
 234:Drivers/STM32L4xx_HAL_Driver/Src/stm32l4xx_hal_tim_ex.c ****   return HAL_OK;
 249              		.loc 1 234 10
 250 014c 0023     		movs	r3, #0
 251              	.L5:
 235:Drivers/STM32L4xx_HAL_Driver/Src/stm32l4xx_hal_tim_ex.c **** }
 252              		.loc 1 235 1 discriminator 1
 253 014e 1846     		mov	r0, r3
 254 0150 2837     		adds	r7, r7, #40
 255              	.LCFI3:
 256              		.cfi_def_cfa_offset 8
 257 0152 BD46     		mov	sp, r7
 258              	.LCFI4:
 259              		.cfi_def_cfa_register 13
 260              		@ sp needed
 261 0154 80BD     		pop	{r7, pc}
 262              		.cfi_endproc
 263              	.LFE132:
 265              		.section	.text.HAL_TIMEx_HallSensor_DeInit,"ax",%progbits
 266              		.align	1
 267              		.global	HAL_TIMEx_HallSensor_DeInit
 268              		.syntax unified
 269              		.thumb
 270              		.thumb_func
 272              	HAL_TIMEx_HallSensor_DeInit:
 273              	.LFB133:
 236:Drivers/STM32L4xx_HAL_Driver/Src/stm32l4xx_hal_tim_ex.c **** 
 237:Drivers/STM32L4xx_HAL_Driver/Src/stm32l4xx_hal_tim_ex.c **** /**
 238:Drivers/STM32L4xx_HAL_Driver/Src/stm32l4xx_hal_tim_ex.c ****   * @brief  DeInitializes the TIM Hall Sensor interface
 239:Drivers/STM32L4xx_HAL_Driver/Src/stm32l4xx_hal_tim_ex.c ****   * @param  htim TIM Hall Sensor Interface handle
 240:Drivers/STM32L4xx_HAL_Driver/Src/stm32l4xx_hal_tim_ex.c ****   * @retval HAL status
 241:Drivers/STM32L4xx_HAL_Driver/Src/stm32l4xx_hal_tim_ex.c ****   */
 242:Drivers/STM32L4xx_HAL_Driver/Src/stm32l4xx_hal_tim_ex.c **** HAL_StatusTypeDef HAL_TIMEx_HallSensor_DeInit(TIM_HandleTypeDef *htim)
 243:Drivers/STM32L4xx_HAL_Driver/Src/stm32l4xx_hal_tim_ex.c **** {
ARM GAS  /tmp/ccR4xO3u.s 			page 10


 274              		.loc 1 243 1
 275              		.cfi_startproc
 276              		@ args = 0, pretend = 0, frame = 8
 277              		@ frame_needed = 1, uses_anonymous_args = 0
 278 0000 80B5     		push	{r7, lr}
 279              	.LCFI5:
 280              		.cfi_def_cfa_offset 8
 281              		.cfi_offset 7, -8
 282              		.cfi_offset 14, -4
 283 0002 82B0     		sub	sp, sp, #8
 284              	.LCFI6:
 285              		.cfi_def_cfa_offset 16
 286 0004 00AF     		add	r7, sp, #0
 287              	.LCFI7:
 288              		.cfi_def_cfa_register 7
 289 0006 7860     		str	r0, [r7, #4]
 244:Drivers/STM32L4xx_HAL_Driver/Src/stm32l4xx_hal_tim_ex.c ****   /* Check the parameters */
 245:Drivers/STM32L4xx_HAL_Driver/Src/stm32l4xx_hal_tim_ex.c ****   assert_param(IS_TIM_INSTANCE(htim->Instance));
 246:Drivers/STM32L4xx_HAL_Driver/Src/stm32l4xx_hal_tim_ex.c **** 
 247:Drivers/STM32L4xx_HAL_Driver/Src/stm32l4xx_hal_tim_ex.c ****   htim->State = HAL_TIM_STATE_BUSY;
 290              		.loc 1 247 15
 291 0008 7B68     		ldr	r3, [r7, #4]
 292 000a 0222     		movs	r2, #2
 293 000c 83F83D20 		strb	r2, [r3, #61]
 248:Drivers/STM32L4xx_HAL_Driver/Src/stm32l4xx_hal_tim_ex.c **** 
 249:Drivers/STM32L4xx_HAL_Driver/Src/stm32l4xx_hal_tim_ex.c ****   /* Disable the TIM Peripheral Clock */
 250:Drivers/STM32L4xx_HAL_Driver/Src/stm32l4xx_hal_tim_ex.c ****   __HAL_TIM_DISABLE(htim);
 294              		.loc 1 250 3
 295 0010 7B68     		ldr	r3, [r7, #4]
 296 0012 1B68     		ldr	r3, [r3]
 297 0014 1A6A     		ldr	r2, [r3, #32]
 298 0016 41F21113 		movw	r3, #4369
 299 001a 1340     		ands	r3, r3, r2
 300 001c 002B     		cmp	r3, #0
 301 001e 0FD1     		bne	.L7
 302              		.loc 1 250 3 is_stmt 0 discriminator 1
 303 0020 7B68     		ldr	r3, [r7, #4]
 304 0022 1B68     		ldr	r3, [r3]
 305 0024 1A6A     		ldr	r2, [r3, #32]
 306 0026 40F24443 		movw	r3, #1092
 307 002a 1340     		ands	r3, r3, r2
 308 002c 002B     		cmp	r3, #0
 309 002e 07D1     		bne	.L7
 310              		.loc 1 250 3 discriminator 2
 311 0030 7B68     		ldr	r3, [r7, #4]
 312 0032 1B68     		ldr	r3, [r3]
 313 0034 1A68     		ldr	r2, [r3]
 314 0036 7B68     		ldr	r3, [r7, #4]
 315 0038 1B68     		ldr	r3, [r3]
 316 003a 22F00102 		bic	r2, r2, #1
 317 003e 1A60     		str	r2, [r3]
 318              	.L7:
 251:Drivers/STM32L4xx_HAL_Driver/Src/stm32l4xx_hal_tim_ex.c **** 
 252:Drivers/STM32L4xx_HAL_Driver/Src/stm32l4xx_hal_tim_ex.c **** #if (USE_HAL_TIM_REGISTER_CALLBACKS == 1)
 253:Drivers/STM32L4xx_HAL_Driver/Src/stm32l4xx_hal_tim_ex.c ****   if (htim->HallSensor_MspDeInitCallback == NULL)
 254:Drivers/STM32L4xx_HAL_Driver/Src/stm32l4xx_hal_tim_ex.c ****   {
 255:Drivers/STM32L4xx_HAL_Driver/Src/stm32l4xx_hal_tim_ex.c ****     htim->HallSensor_MspDeInitCallback = HAL_TIMEx_HallSensor_MspDeInit;
ARM GAS  /tmp/ccR4xO3u.s 			page 11


 256:Drivers/STM32L4xx_HAL_Driver/Src/stm32l4xx_hal_tim_ex.c ****   }
 257:Drivers/STM32L4xx_HAL_Driver/Src/stm32l4xx_hal_tim_ex.c ****   /* DeInit the low level hardware */
 258:Drivers/STM32L4xx_HAL_Driver/Src/stm32l4xx_hal_tim_ex.c ****   htim->HallSensor_MspDeInitCallback(htim);
 259:Drivers/STM32L4xx_HAL_Driver/Src/stm32l4xx_hal_tim_ex.c **** #else
 260:Drivers/STM32L4xx_HAL_Driver/Src/stm32l4xx_hal_tim_ex.c ****   /* DeInit the low level hardware: GPIO, CLOCK, NVIC */
 261:Drivers/STM32L4xx_HAL_Driver/Src/stm32l4xx_hal_tim_ex.c ****   HAL_TIMEx_HallSensor_MspDeInit(htim);
 319              		.loc 1 261 3 is_stmt 1
 320 0040 7868     		ldr	r0, [r7, #4]
 321 0042 FFF7FEFF 		bl	HAL_TIMEx_HallSensor_MspDeInit
 262:Drivers/STM32L4xx_HAL_Driver/Src/stm32l4xx_hal_tim_ex.c **** #endif /* USE_HAL_TIM_REGISTER_CALLBACKS */
 263:Drivers/STM32L4xx_HAL_Driver/Src/stm32l4xx_hal_tim_ex.c **** 
 264:Drivers/STM32L4xx_HAL_Driver/Src/stm32l4xx_hal_tim_ex.c ****   /* Change the DMA burst operation state */
 265:Drivers/STM32L4xx_HAL_Driver/Src/stm32l4xx_hal_tim_ex.c ****   htim->DMABurstState = HAL_DMA_BURST_STATE_RESET;
 322              		.loc 1 265 23
 323 0046 7B68     		ldr	r3, [r7, #4]
 324 0048 0022     		movs	r2, #0
 325 004a 83F84820 		strb	r2, [r3, #72]
 266:Drivers/STM32L4xx_HAL_Driver/Src/stm32l4xx_hal_tim_ex.c **** 
 267:Drivers/STM32L4xx_HAL_Driver/Src/stm32l4xx_hal_tim_ex.c ****   /* Change the TIM channels state */
 268:Drivers/STM32L4xx_HAL_Driver/Src/stm32l4xx_hal_tim_ex.c ****   TIM_CHANNEL_STATE_SET(htim, TIM_CHANNEL_1, HAL_TIM_CHANNEL_STATE_RESET);
 326              		.loc 1 268 3
 327 004e 7B68     		ldr	r3, [r7, #4]
 328 0050 0022     		movs	r2, #0
 329 0052 83F83E20 		strb	r2, [r3, #62]
 269:Drivers/STM32L4xx_HAL_Driver/Src/stm32l4xx_hal_tim_ex.c ****   TIM_CHANNEL_STATE_SET(htim, TIM_CHANNEL_2, HAL_TIM_CHANNEL_STATE_RESET);
 330              		.loc 1 269 3
 331 0056 7B68     		ldr	r3, [r7, #4]
 332 0058 0022     		movs	r2, #0
 333 005a 83F83F20 		strb	r2, [r3, #63]
 270:Drivers/STM32L4xx_HAL_Driver/Src/stm32l4xx_hal_tim_ex.c ****   TIM_CHANNEL_N_STATE_SET(htim, TIM_CHANNEL_1, HAL_TIM_CHANNEL_STATE_RESET);
 334              		.loc 1 270 3
 335 005e 7B68     		ldr	r3, [r7, #4]
 336 0060 0022     		movs	r2, #0
 337 0062 83F84420 		strb	r2, [r3, #68]
 271:Drivers/STM32L4xx_HAL_Driver/Src/stm32l4xx_hal_tim_ex.c ****   TIM_CHANNEL_N_STATE_SET(htim, TIM_CHANNEL_2, HAL_TIM_CHANNEL_STATE_RESET);
 338              		.loc 1 271 3
 339 0066 7B68     		ldr	r3, [r7, #4]
 340 0068 0022     		movs	r2, #0
 341 006a 83F84520 		strb	r2, [r3, #69]
 272:Drivers/STM32L4xx_HAL_Driver/Src/stm32l4xx_hal_tim_ex.c **** 
 273:Drivers/STM32L4xx_HAL_Driver/Src/stm32l4xx_hal_tim_ex.c ****   /* Change TIM state */
 274:Drivers/STM32L4xx_HAL_Driver/Src/stm32l4xx_hal_tim_ex.c ****   htim->State = HAL_TIM_STATE_RESET;
 342              		.loc 1 274 15
 343 006e 7B68     		ldr	r3, [r7, #4]
 344 0070 0022     		movs	r2, #0
 345 0072 83F83D20 		strb	r2, [r3, #61]
 275:Drivers/STM32L4xx_HAL_Driver/Src/stm32l4xx_hal_tim_ex.c **** 
 276:Drivers/STM32L4xx_HAL_Driver/Src/stm32l4xx_hal_tim_ex.c ****   /* Release Lock */
 277:Drivers/STM32L4xx_HAL_Driver/Src/stm32l4xx_hal_tim_ex.c ****   __HAL_UNLOCK(htim);
 346              		.loc 1 277 3
 347 0076 7B68     		ldr	r3, [r7, #4]
 348 0078 0022     		movs	r2, #0
 349 007a 83F83C20 		strb	r2, [r3, #60]
 278:Drivers/STM32L4xx_HAL_Driver/Src/stm32l4xx_hal_tim_ex.c **** 
 279:Drivers/STM32L4xx_HAL_Driver/Src/stm32l4xx_hal_tim_ex.c ****   return HAL_OK;
 350              		.loc 1 279 10
 351 007e 0023     		movs	r3, #0
ARM GAS  /tmp/ccR4xO3u.s 			page 12


 280:Drivers/STM32L4xx_HAL_Driver/Src/stm32l4xx_hal_tim_ex.c **** }
 352              		.loc 1 280 1
 353 0080 1846     		mov	r0, r3
 354 0082 0837     		adds	r7, r7, #8
 355              	.LCFI8:
 356              		.cfi_def_cfa_offset 8
 357 0084 BD46     		mov	sp, r7
 358              	.LCFI9:
 359              		.cfi_def_cfa_register 13
 360              		@ sp needed
 361 0086 80BD     		pop	{r7, pc}
 362              		.cfi_endproc
 363              	.LFE133:
 365              		.section	.text.HAL_TIMEx_HallSensor_MspInit,"ax",%progbits
 366              		.align	1
 367              		.weak	HAL_TIMEx_HallSensor_MspInit
 368              		.syntax unified
 369              		.thumb
 370              		.thumb_func
 372              	HAL_TIMEx_HallSensor_MspInit:
 373              	.LFB134:
 281:Drivers/STM32L4xx_HAL_Driver/Src/stm32l4xx_hal_tim_ex.c **** 
 282:Drivers/STM32L4xx_HAL_Driver/Src/stm32l4xx_hal_tim_ex.c **** /**
 283:Drivers/STM32L4xx_HAL_Driver/Src/stm32l4xx_hal_tim_ex.c ****   * @brief  Initializes the TIM Hall Sensor MSP.
 284:Drivers/STM32L4xx_HAL_Driver/Src/stm32l4xx_hal_tim_ex.c ****   * @param  htim TIM Hall Sensor Interface handle
 285:Drivers/STM32L4xx_HAL_Driver/Src/stm32l4xx_hal_tim_ex.c ****   * @retval None
 286:Drivers/STM32L4xx_HAL_Driver/Src/stm32l4xx_hal_tim_ex.c ****   */
 287:Drivers/STM32L4xx_HAL_Driver/Src/stm32l4xx_hal_tim_ex.c **** __weak void HAL_TIMEx_HallSensor_MspInit(TIM_HandleTypeDef *htim)
 288:Drivers/STM32L4xx_HAL_Driver/Src/stm32l4xx_hal_tim_ex.c **** {
 374              		.loc 1 288 1
 375              		.cfi_startproc
 376              		@ args = 0, pretend = 0, frame = 8
 377              		@ frame_needed = 1, uses_anonymous_args = 0
 378              		@ link register save eliminated.
 379 0000 80B4     		push	{r7}
 380              	.LCFI10:
 381              		.cfi_def_cfa_offset 4
 382              		.cfi_offset 7, -4
 383 0002 83B0     		sub	sp, sp, #12
 384              	.LCFI11:
 385              		.cfi_def_cfa_offset 16
 386 0004 00AF     		add	r7, sp, #0
 387              	.LCFI12:
 388              		.cfi_def_cfa_register 7
 389 0006 7860     		str	r0, [r7, #4]
 289:Drivers/STM32L4xx_HAL_Driver/Src/stm32l4xx_hal_tim_ex.c ****   /* Prevent unused argument(s) compilation warning */
 290:Drivers/STM32L4xx_HAL_Driver/Src/stm32l4xx_hal_tim_ex.c ****   UNUSED(htim);
 291:Drivers/STM32L4xx_HAL_Driver/Src/stm32l4xx_hal_tim_ex.c **** 
 292:Drivers/STM32L4xx_HAL_Driver/Src/stm32l4xx_hal_tim_ex.c ****   /* NOTE : This function should not be modified, when the callback is needed,
 293:Drivers/STM32L4xx_HAL_Driver/Src/stm32l4xx_hal_tim_ex.c ****             the HAL_TIMEx_HallSensor_MspInit could be implemented in the user file
 294:Drivers/STM32L4xx_HAL_Driver/Src/stm32l4xx_hal_tim_ex.c ****    */
 295:Drivers/STM32L4xx_HAL_Driver/Src/stm32l4xx_hal_tim_ex.c **** }
 390              		.loc 1 295 1
 391 0008 00BF     		nop
 392 000a 0C37     		adds	r7, r7, #12
 393              	.LCFI13:
 394              		.cfi_def_cfa_offset 4
ARM GAS  /tmp/ccR4xO3u.s 			page 13


 395 000c BD46     		mov	sp, r7
 396              	.LCFI14:
 397              		.cfi_def_cfa_register 13
 398              		@ sp needed
 399 000e 5DF8047B 		ldr	r7, [sp], #4
 400              	.LCFI15:
 401              		.cfi_restore 7
 402              		.cfi_def_cfa_offset 0
 403 0012 7047     		bx	lr
 404              		.cfi_endproc
 405              	.LFE134:
 407              		.section	.text.HAL_TIMEx_HallSensor_MspDeInit,"ax",%progbits
 408              		.align	1
 409              		.weak	HAL_TIMEx_HallSensor_MspDeInit
 410              		.syntax unified
 411              		.thumb
 412              		.thumb_func
 414              	HAL_TIMEx_HallSensor_MspDeInit:
 415              	.LFB135:
 296:Drivers/STM32L4xx_HAL_Driver/Src/stm32l4xx_hal_tim_ex.c **** 
 297:Drivers/STM32L4xx_HAL_Driver/Src/stm32l4xx_hal_tim_ex.c **** /**
 298:Drivers/STM32L4xx_HAL_Driver/Src/stm32l4xx_hal_tim_ex.c ****   * @brief  DeInitializes TIM Hall Sensor MSP.
 299:Drivers/STM32L4xx_HAL_Driver/Src/stm32l4xx_hal_tim_ex.c ****   * @param  htim TIM Hall Sensor Interface handle
 300:Drivers/STM32L4xx_HAL_Driver/Src/stm32l4xx_hal_tim_ex.c ****   * @retval None
 301:Drivers/STM32L4xx_HAL_Driver/Src/stm32l4xx_hal_tim_ex.c ****   */
 302:Drivers/STM32L4xx_HAL_Driver/Src/stm32l4xx_hal_tim_ex.c **** __weak void HAL_TIMEx_HallSensor_MspDeInit(TIM_HandleTypeDef *htim)
 303:Drivers/STM32L4xx_HAL_Driver/Src/stm32l4xx_hal_tim_ex.c **** {
 416              		.loc 1 303 1
 417              		.cfi_startproc
 418              		@ args = 0, pretend = 0, frame = 8
 419              		@ frame_needed = 1, uses_anonymous_args = 0
 420              		@ link register save eliminated.
 421 0000 80B4     		push	{r7}
 422              	.LCFI16:
 423              		.cfi_def_cfa_offset 4
 424              		.cfi_offset 7, -4
 425 0002 83B0     		sub	sp, sp, #12
 426              	.LCFI17:
 427              		.cfi_def_cfa_offset 16
 428 0004 00AF     		add	r7, sp, #0
 429              	.LCFI18:
 430              		.cfi_def_cfa_register 7
 431 0006 7860     		str	r0, [r7, #4]
 304:Drivers/STM32L4xx_HAL_Driver/Src/stm32l4xx_hal_tim_ex.c ****   /* Prevent unused argument(s) compilation warning */
 305:Drivers/STM32L4xx_HAL_Driver/Src/stm32l4xx_hal_tim_ex.c ****   UNUSED(htim);
 306:Drivers/STM32L4xx_HAL_Driver/Src/stm32l4xx_hal_tim_ex.c **** 
 307:Drivers/STM32L4xx_HAL_Driver/Src/stm32l4xx_hal_tim_ex.c ****   /* NOTE : This function should not be modified, when the callback is needed,
 308:Drivers/STM32L4xx_HAL_Driver/Src/stm32l4xx_hal_tim_ex.c ****             the HAL_TIMEx_HallSensor_MspDeInit could be implemented in the user file
 309:Drivers/STM32L4xx_HAL_Driver/Src/stm32l4xx_hal_tim_ex.c ****    */
 310:Drivers/STM32L4xx_HAL_Driver/Src/stm32l4xx_hal_tim_ex.c **** }
 432              		.loc 1 310 1
 433 0008 00BF     		nop
 434 000a 0C37     		adds	r7, r7, #12
 435              	.LCFI19:
 436              		.cfi_def_cfa_offset 4
 437 000c BD46     		mov	sp, r7
 438              	.LCFI20:
ARM GAS  /tmp/ccR4xO3u.s 			page 14


 439              		.cfi_def_cfa_register 13
 440              		@ sp needed
 441 000e 5DF8047B 		ldr	r7, [sp], #4
 442              	.LCFI21:
 443              		.cfi_restore 7
 444              		.cfi_def_cfa_offset 0
 445 0012 7047     		bx	lr
 446              		.cfi_endproc
 447              	.LFE135:
 449              		.section	.text.HAL_TIMEx_HallSensor_Start,"ax",%progbits
 450              		.align	1
 451              		.global	HAL_TIMEx_HallSensor_Start
 452              		.syntax unified
 453              		.thumb
 454              		.thumb_func
 456              	HAL_TIMEx_HallSensor_Start:
 457              	.LFB136:
 311:Drivers/STM32L4xx_HAL_Driver/Src/stm32l4xx_hal_tim_ex.c **** 
 312:Drivers/STM32L4xx_HAL_Driver/Src/stm32l4xx_hal_tim_ex.c **** /**
 313:Drivers/STM32L4xx_HAL_Driver/Src/stm32l4xx_hal_tim_ex.c ****   * @brief  Starts the TIM Hall Sensor Interface.
 314:Drivers/STM32L4xx_HAL_Driver/Src/stm32l4xx_hal_tim_ex.c ****   * @param  htim TIM Hall Sensor Interface handle
 315:Drivers/STM32L4xx_HAL_Driver/Src/stm32l4xx_hal_tim_ex.c ****   * @retval HAL status
 316:Drivers/STM32L4xx_HAL_Driver/Src/stm32l4xx_hal_tim_ex.c ****   */
 317:Drivers/STM32L4xx_HAL_Driver/Src/stm32l4xx_hal_tim_ex.c **** HAL_StatusTypeDef HAL_TIMEx_HallSensor_Start(TIM_HandleTypeDef *htim)
 318:Drivers/STM32L4xx_HAL_Driver/Src/stm32l4xx_hal_tim_ex.c **** {
 458              		.loc 1 318 1
 459              		.cfi_startproc
 460              		@ args = 0, pretend = 0, frame = 16
 461              		@ frame_needed = 1, uses_anonymous_args = 0
 462 0000 80B5     		push	{r7, lr}
 463              	.LCFI22:
 464              		.cfi_def_cfa_offset 8
 465              		.cfi_offset 7, -8
 466              		.cfi_offset 14, -4
 467 0002 84B0     		sub	sp, sp, #16
 468              	.LCFI23:
 469              		.cfi_def_cfa_offset 24
 470 0004 00AF     		add	r7, sp, #0
 471              	.LCFI24:
 472              		.cfi_def_cfa_register 7
 473 0006 7860     		str	r0, [r7, #4]
 319:Drivers/STM32L4xx_HAL_Driver/Src/stm32l4xx_hal_tim_ex.c ****   uint32_t tmpsmcr;
 320:Drivers/STM32L4xx_HAL_Driver/Src/stm32l4xx_hal_tim_ex.c ****   HAL_TIM_ChannelStateTypeDef channel_1_state = TIM_CHANNEL_STATE_GET(htim, TIM_CHANNEL_1);
 474              		.loc 1 320 31
 475 0008 7B68     		ldr	r3, [r7, #4]
 476 000a 93F83E30 		ldrb	r3, [r3, #62]
 477 000e FB73     		strb	r3, [r7, #15]
 321:Drivers/STM32L4xx_HAL_Driver/Src/stm32l4xx_hal_tim_ex.c ****   HAL_TIM_ChannelStateTypeDef channel_2_state = TIM_CHANNEL_STATE_GET(htim, TIM_CHANNEL_2);
 478              		.loc 1 321 31
 479 0010 7B68     		ldr	r3, [r7, #4]
 480 0012 93F83F30 		ldrb	r3, [r3, #63]
 481 0016 BB73     		strb	r3, [r7, #14]
 322:Drivers/STM32L4xx_HAL_Driver/Src/stm32l4xx_hal_tim_ex.c ****   HAL_TIM_ChannelStateTypeDef complementary_channel_1_state = TIM_CHANNEL_N_STATE_GET(htim, TIM_CHA
 482              		.loc 1 322 31
 483 0018 7B68     		ldr	r3, [r7, #4]
 484 001a 93F84430 		ldrb	r3, [r3, #68]
 485 001e 7B73     		strb	r3, [r7, #13]
ARM GAS  /tmp/ccR4xO3u.s 			page 15


 323:Drivers/STM32L4xx_HAL_Driver/Src/stm32l4xx_hal_tim_ex.c ****   HAL_TIM_ChannelStateTypeDef complementary_channel_2_state = TIM_CHANNEL_N_STATE_GET(htim, TIM_CHA
 486              		.loc 1 323 31
 487 0020 7B68     		ldr	r3, [r7, #4]
 488 0022 93F84530 		ldrb	r3, [r3, #69]
 489 0026 3B73     		strb	r3, [r7, #12]
 324:Drivers/STM32L4xx_HAL_Driver/Src/stm32l4xx_hal_tim_ex.c **** 
 325:Drivers/STM32L4xx_HAL_Driver/Src/stm32l4xx_hal_tim_ex.c ****   /* Check the parameters */
 326:Drivers/STM32L4xx_HAL_Driver/Src/stm32l4xx_hal_tim_ex.c ****   assert_param(IS_TIM_HALL_SENSOR_INTERFACE_INSTANCE(htim->Instance));
 327:Drivers/STM32L4xx_HAL_Driver/Src/stm32l4xx_hal_tim_ex.c **** 
 328:Drivers/STM32L4xx_HAL_Driver/Src/stm32l4xx_hal_tim_ex.c ****   /* Check the TIM channels state */
 329:Drivers/STM32L4xx_HAL_Driver/Src/stm32l4xx_hal_tim_ex.c ****   if ((channel_1_state != HAL_TIM_CHANNEL_STATE_READY)
 490              		.loc 1 329 6
 491 0028 FB7B     		ldrb	r3, [r7, #15]	@ zero_extendqisi2
 492 002a 012B     		cmp	r3, #1
 493 002c 08D1     		bne	.L12
 330:Drivers/STM32L4xx_HAL_Driver/Src/stm32l4xx_hal_tim_ex.c ****       || (channel_2_state != HAL_TIM_CHANNEL_STATE_READY)
 494              		.loc 1 330 7
 495 002e BB7B     		ldrb	r3, [r7, #14]	@ zero_extendqisi2
 496 0030 012B     		cmp	r3, #1
 497 0032 05D1     		bne	.L12
 331:Drivers/STM32L4xx_HAL_Driver/Src/stm32l4xx_hal_tim_ex.c ****       || (complementary_channel_1_state != HAL_TIM_CHANNEL_STATE_READY)
 498              		.loc 1 331 7
 499 0034 7B7B     		ldrb	r3, [r7, #13]	@ zero_extendqisi2
 500 0036 012B     		cmp	r3, #1
 501 0038 02D1     		bne	.L12
 332:Drivers/STM32L4xx_HAL_Driver/Src/stm32l4xx_hal_tim_ex.c ****       || (complementary_channel_2_state != HAL_TIM_CHANNEL_STATE_READY))
 502              		.loc 1 332 7
 503 003a 3B7B     		ldrb	r3, [r7, #12]	@ zero_extendqisi2
 504 003c 012B     		cmp	r3, #1
 505 003e 01D0     		beq	.L13
 506              	.L12:
 333:Drivers/STM32L4xx_HAL_Driver/Src/stm32l4xx_hal_tim_ex.c ****   {
 334:Drivers/STM32L4xx_HAL_Driver/Src/stm32l4xx_hal_tim_ex.c ****     return HAL_ERROR;
 507              		.loc 1 334 12
 508 0040 0123     		movs	r3, #1
 509 0042 46E0     		b	.L14
 510              	.L13:
 335:Drivers/STM32L4xx_HAL_Driver/Src/stm32l4xx_hal_tim_ex.c ****   }
 336:Drivers/STM32L4xx_HAL_Driver/Src/stm32l4xx_hal_tim_ex.c **** 
 337:Drivers/STM32L4xx_HAL_Driver/Src/stm32l4xx_hal_tim_ex.c ****   /* Set the TIM channels state */
 338:Drivers/STM32L4xx_HAL_Driver/Src/stm32l4xx_hal_tim_ex.c ****   TIM_CHANNEL_STATE_SET(htim, TIM_CHANNEL_1, HAL_TIM_CHANNEL_STATE_BUSY);
 511              		.loc 1 338 3
 512 0044 7B68     		ldr	r3, [r7, #4]
 513 0046 0222     		movs	r2, #2
 514 0048 83F83E20 		strb	r2, [r3, #62]
 339:Drivers/STM32L4xx_HAL_Driver/Src/stm32l4xx_hal_tim_ex.c ****   TIM_CHANNEL_STATE_SET(htim, TIM_CHANNEL_2, HAL_TIM_CHANNEL_STATE_BUSY);
 515              		.loc 1 339 3
 516 004c 7B68     		ldr	r3, [r7, #4]
 517 004e 0222     		movs	r2, #2
 518 0050 83F83F20 		strb	r2, [r3, #63]
 340:Drivers/STM32L4xx_HAL_Driver/Src/stm32l4xx_hal_tim_ex.c ****   TIM_CHANNEL_N_STATE_SET(htim, TIM_CHANNEL_1, HAL_TIM_CHANNEL_STATE_BUSY);
 519              		.loc 1 340 3
 520 0054 7B68     		ldr	r3, [r7, #4]
 521 0056 0222     		movs	r2, #2
 522 0058 83F84420 		strb	r2, [r3, #68]
 341:Drivers/STM32L4xx_HAL_Driver/Src/stm32l4xx_hal_tim_ex.c ****   TIM_CHANNEL_N_STATE_SET(htim, TIM_CHANNEL_2, HAL_TIM_CHANNEL_STATE_BUSY);
 523              		.loc 1 341 3
ARM GAS  /tmp/ccR4xO3u.s 			page 16


 524 005c 7B68     		ldr	r3, [r7, #4]
 525 005e 0222     		movs	r2, #2
 526 0060 83F84520 		strb	r2, [r3, #69]
 342:Drivers/STM32L4xx_HAL_Driver/Src/stm32l4xx_hal_tim_ex.c **** 
 343:Drivers/STM32L4xx_HAL_Driver/Src/stm32l4xx_hal_tim_ex.c ****   /* Enable the Input Capture channel 1
 344:Drivers/STM32L4xx_HAL_Driver/Src/stm32l4xx_hal_tim_ex.c ****   (in the Hall Sensor Interface the three possible channels that can be used are TIM_CHANNEL_1,
 345:Drivers/STM32L4xx_HAL_Driver/Src/stm32l4xx_hal_tim_ex.c ****   TIM_CHANNEL_2 and TIM_CHANNEL_3) */
 346:Drivers/STM32L4xx_HAL_Driver/Src/stm32l4xx_hal_tim_ex.c ****   TIM_CCxChannelCmd(htim->Instance, TIM_CHANNEL_1, TIM_CCx_ENABLE);
 527              		.loc 1 346 3
 528 0064 7B68     		ldr	r3, [r7, #4]
 529 0066 1B68     		ldr	r3, [r3]
 530 0068 0122     		movs	r2, #1
 531 006a 0021     		movs	r1, #0
 532 006c 1846     		mov	r0, r3
 533 006e FFF7FEFF 		bl	TIM_CCxChannelCmd
 347:Drivers/STM32L4xx_HAL_Driver/Src/stm32l4xx_hal_tim_ex.c **** 
 348:Drivers/STM32L4xx_HAL_Driver/Src/stm32l4xx_hal_tim_ex.c ****   /* Enable the Peripheral, except in trigger mode where enable is automatically done with trigger 
 349:Drivers/STM32L4xx_HAL_Driver/Src/stm32l4xx_hal_tim_ex.c ****   if (IS_TIM_SLAVE_INSTANCE(htim->Instance))
 534              		.loc 1 349 7
 535 0072 7B68     		ldr	r3, [r7, #4]
 536 0074 1B68     		ldr	r3, [r3]
 537              		.loc 1 349 6
 538 0076 194A     		ldr	r2, .L20
 539 0078 9342     		cmp	r3, r2
 540 007a 09D0     		beq	.L15
 541              		.loc 1 349 7 discriminator 1
 542 007c 7B68     		ldr	r3, [r7, #4]
 543 007e 1B68     		ldr	r3, [r3]
 544 0080 B3F1804F 		cmp	r3, #1073741824
 545 0084 04D0     		beq	.L15
 546              		.loc 1 349 7 is_stmt 0 discriminator 2
 547 0086 7B68     		ldr	r3, [r7, #4]
 548 0088 1B68     		ldr	r3, [r3]
 549 008a 154A     		ldr	r2, .L20+4
 550 008c 9342     		cmp	r3, r2
 551 008e 15D1     		bne	.L16
 552              	.L15:
 350:Drivers/STM32L4xx_HAL_Driver/Src/stm32l4xx_hal_tim_ex.c ****   {
 351:Drivers/STM32L4xx_HAL_Driver/Src/stm32l4xx_hal_tim_ex.c ****     tmpsmcr = htim->Instance->SMCR & TIM_SMCR_SMS;
 553              		.loc 1 351 19 is_stmt 1
 554 0090 7B68     		ldr	r3, [r7, #4]
 555 0092 1B68     		ldr	r3, [r3]
 556              		.loc 1 351 29
 557 0094 9A68     		ldr	r2, [r3, #8]
 558              		.loc 1 351 13
 559 0096 134B     		ldr	r3, .L20+8
 560 0098 1340     		ands	r3, r3, r2
 561 009a BB60     		str	r3, [r7, #8]
 352:Drivers/STM32L4xx_HAL_Driver/Src/stm32l4xx_hal_tim_ex.c ****     if (!IS_TIM_SLAVEMODE_TRIGGER_ENABLED(tmpsmcr))
 562              		.loc 1 352 8
 563 009c BB68     		ldr	r3, [r7, #8]
 564 009e 062B     		cmp	r3, #6
 565 00a0 15D0     		beq	.L19
 566              		.loc 1 352 9 discriminator 1
 567 00a2 BB68     		ldr	r3, [r7, #8]
 568 00a4 B3F5803F 		cmp	r3, #65536
 569 00a8 11D0     		beq	.L19
ARM GAS  /tmp/ccR4xO3u.s 			page 17


 353:Drivers/STM32L4xx_HAL_Driver/Src/stm32l4xx_hal_tim_ex.c ****     {
 354:Drivers/STM32L4xx_HAL_Driver/Src/stm32l4xx_hal_tim_ex.c ****       __HAL_TIM_ENABLE(htim);
 570              		.loc 1 354 7
 571 00aa 7B68     		ldr	r3, [r7, #4]
 572 00ac 1B68     		ldr	r3, [r3]
 573 00ae 1A68     		ldr	r2, [r3]
 574 00b0 7B68     		ldr	r3, [r7, #4]
 575 00b2 1B68     		ldr	r3, [r3]
 576 00b4 42F00102 		orr	r2, r2, #1
 577 00b8 1A60     		str	r2, [r3]
 352:Drivers/STM32L4xx_HAL_Driver/Src/stm32l4xx_hal_tim_ex.c ****     if (!IS_TIM_SLAVEMODE_TRIGGER_ENABLED(tmpsmcr))
 578              		.loc 1 352 8
 579 00ba 08E0     		b	.L19
 580              	.L16:
 355:Drivers/STM32L4xx_HAL_Driver/Src/stm32l4xx_hal_tim_ex.c ****     }
 356:Drivers/STM32L4xx_HAL_Driver/Src/stm32l4xx_hal_tim_ex.c ****   }
 357:Drivers/STM32L4xx_HAL_Driver/Src/stm32l4xx_hal_tim_ex.c ****   else
 358:Drivers/STM32L4xx_HAL_Driver/Src/stm32l4xx_hal_tim_ex.c ****   {
 359:Drivers/STM32L4xx_HAL_Driver/Src/stm32l4xx_hal_tim_ex.c ****     __HAL_TIM_ENABLE(htim);
 581              		.loc 1 359 5
 582 00bc 7B68     		ldr	r3, [r7, #4]
 583 00be 1B68     		ldr	r3, [r3]
 584 00c0 1A68     		ldr	r2, [r3]
 585 00c2 7B68     		ldr	r3, [r7, #4]
 586 00c4 1B68     		ldr	r3, [r3]
 587 00c6 42F00102 		orr	r2, r2, #1
 588 00ca 1A60     		str	r2, [r3]
 589 00cc 00E0     		b	.L18
 590              	.L19:
 352:Drivers/STM32L4xx_HAL_Driver/Src/stm32l4xx_hal_tim_ex.c ****     {
 591              		.loc 1 352 8
 592 00ce 00BF     		nop
 593              	.L18:
 360:Drivers/STM32L4xx_HAL_Driver/Src/stm32l4xx_hal_tim_ex.c ****   }
 361:Drivers/STM32L4xx_HAL_Driver/Src/stm32l4xx_hal_tim_ex.c **** 
 362:Drivers/STM32L4xx_HAL_Driver/Src/stm32l4xx_hal_tim_ex.c ****   /* Return function status */
 363:Drivers/STM32L4xx_HAL_Driver/Src/stm32l4xx_hal_tim_ex.c ****   return HAL_OK;
 594              		.loc 1 363 10
 595 00d0 0023     		movs	r3, #0
 596              	.L14:
 364:Drivers/STM32L4xx_HAL_Driver/Src/stm32l4xx_hal_tim_ex.c **** }
 597              		.loc 1 364 1
 598 00d2 1846     		mov	r0, r3
 599 00d4 1037     		adds	r7, r7, #16
 600              	.LCFI25:
 601              		.cfi_def_cfa_offset 8
 602 00d6 BD46     		mov	sp, r7
 603              	.LCFI26:
 604              		.cfi_def_cfa_register 13
 605              		@ sp needed
 606 00d8 80BD     		pop	{r7, pc}
 607              	.L21:
 608 00da 00BF     		.align	2
 609              	.L20:
 610 00dc 002C0140 		.word	1073818624
 611 00e0 00400140 		.word	1073823744
 612 00e4 07000100 		.word	65543
ARM GAS  /tmp/ccR4xO3u.s 			page 18


 613              		.cfi_endproc
 614              	.LFE136:
 616              		.section	.text.HAL_TIMEx_HallSensor_Stop,"ax",%progbits
 617              		.align	1
 618              		.global	HAL_TIMEx_HallSensor_Stop
 619              		.syntax unified
 620              		.thumb
 621              		.thumb_func
 623              	HAL_TIMEx_HallSensor_Stop:
 624              	.LFB137:
 365:Drivers/STM32L4xx_HAL_Driver/Src/stm32l4xx_hal_tim_ex.c **** 
 366:Drivers/STM32L4xx_HAL_Driver/Src/stm32l4xx_hal_tim_ex.c **** /**
 367:Drivers/STM32L4xx_HAL_Driver/Src/stm32l4xx_hal_tim_ex.c ****   * @brief  Stops the TIM Hall sensor Interface.
 368:Drivers/STM32L4xx_HAL_Driver/Src/stm32l4xx_hal_tim_ex.c ****   * @param  htim TIM Hall Sensor Interface handle
 369:Drivers/STM32L4xx_HAL_Driver/Src/stm32l4xx_hal_tim_ex.c ****   * @retval HAL status
 370:Drivers/STM32L4xx_HAL_Driver/Src/stm32l4xx_hal_tim_ex.c ****   */
 371:Drivers/STM32L4xx_HAL_Driver/Src/stm32l4xx_hal_tim_ex.c **** HAL_StatusTypeDef HAL_TIMEx_HallSensor_Stop(TIM_HandleTypeDef *htim)
 372:Drivers/STM32L4xx_HAL_Driver/Src/stm32l4xx_hal_tim_ex.c **** {
 625              		.loc 1 372 1
 626              		.cfi_startproc
 627              		@ args = 0, pretend = 0, frame = 8
 628              		@ frame_needed = 1, uses_anonymous_args = 0
 629 0000 80B5     		push	{r7, lr}
 630              	.LCFI27:
 631              		.cfi_def_cfa_offset 8
 632              		.cfi_offset 7, -8
 633              		.cfi_offset 14, -4
 634 0002 82B0     		sub	sp, sp, #8
 635              	.LCFI28:
 636              		.cfi_def_cfa_offset 16
 637 0004 00AF     		add	r7, sp, #0
 638              	.LCFI29:
 639              		.cfi_def_cfa_register 7
 640 0006 7860     		str	r0, [r7, #4]
 373:Drivers/STM32L4xx_HAL_Driver/Src/stm32l4xx_hal_tim_ex.c ****   /* Check the parameters */
 374:Drivers/STM32L4xx_HAL_Driver/Src/stm32l4xx_hal_tim_ex.c ****   assert_param(IS_TIM_HALL_SENSOR_INTERFACE_INSTANCE(htim->Instance));
 375:Drivers/STM32L4xx_HAL_Driver/Src/stm32l4xx_hal_tim_ex.c **** 
 376:Drivers/STM32L4xx_HAL_Driver/Src/stm32l4xx_hal_tim_ex.c ****   /* Disable the Input Capture channels 1, 2 and 3
 377:Drivers/STM32L4xx_HAL_Driver/Src/stm32l4xx_hal_tim_ex.c ****   (in the Hall Sensor Interface the three possible channels that can be used are TIM_CHANNEL_1,
 378:Drivers/STM32L4xx_HAL_Driver/Src/stm32l4xx_hal_tim_ex.c ****   TIM_CHANNEL_2 and TIM_CHANNEL_3) */
 379:Drivers/STM32L4xx_HAL_Driver/Src/stm32l4xx_hal_tim_ex.c ****   TIM_CCxChannelCmd(htim->Instance, TIM_CHANNEL_1, TIM_CCx_DISABLE);
 641              		.loc 1 379 3
 642 0008 7B68     		ldr	r3, [r7, #4]
 643 000a 1B68     		ldr	r3, [r3]
 644 000c 0022     		movs	r2, #0
 645 000e 0021     		movs	r1, #0
 646 0010 1846     		mov	r0, r3
 647 0012 FFF7FEFF 		bl	TIM_CCxChannelCmd
 380:Drivers/STM32L4xx_HAL_Driver/Src/stm32l4xx_hal_tim_ex.c **** 
 381:Drivers/STM32L4xx_HAL_Driver/Src/stm32l4xx_hal_tim_ex.c ****   /* Disable the Peripheral */
 382:Drivers/STM32L4xx_HAL_Driver/Src/stm32l4xx_hal_tim_ex.c ****   __HAL_TIM_DISABLE(htim);
 648              		.loc 1 382 3
 649 0016 7B68     		ldr	r3, [r7, #4]
 650 0018 1B68     		ldr	r3, [r3]
 651 001a 1A6A     		ldr	r2, [r3, #32]
 652 001c 41F21113 		movw	r3, #4369
 653 0020 1340     		ands	r3, r3, r2
ARM GAS  /tmp/ccR4xO3u.s 			page 19


 654 0022 002B     		cmp	r3, #0
 655 0024 0FD1     		bne	.L23
 656              		.loc 1 382 3 is_stmt 0 discriminator 1
 657 0026 7B68     		ldr	r3, [r7, #4]
 658 0028 1B68     		ldr	r3, [r3]
 659 002a 1A6A     		ldr	r2, [r3, #32]
 660 002c 40F24443 		movw	r3, #1092
 661 0030 1340     		ands	r3, r3, r2
 662 0032 002B     		cmp	r3, #0
 663 0034 07D1     		bne	.L23
 664              		.loc 1 382 3 discriminator 2
 665 0036 7B68     		ldr	r3, [r7, #4]
 666 0038 1B68     		ldr	r3, [r3]
 667 003a 1A68     		ldr	r2, [r3]
 668 003c 7B68     		ldr	r3, [r7, #4]
 669 003e 1B68     		ldr	r3, [r3]
 670 0040 22F00102 		bic	r2, r2, #1
 671 0044 1A60     		str	r2, [r3]
 672              	.L23:
 383:Drivers/STM32L4xx_HAL_Driver/Src/stm32l4xx_hal_tim_ex.c **** 
 384:Drivers/STM32L4xx_HAL_Driver/Src/stm32l4xx_hal_tim_ex.c ****   /* Set the TIM channels state */
 385:Drivers/STM32L4xx_HAL_Driver/Src/stm32l4xx_hal_tim_ex.c ****   TIM_CHANNEL_STATE_SET(htim, TIM_CHANNEL_1, HAL_TIM_CHANNEL_STATE_READY);
 673              		.loc 1 385 3 is_stmt 1
 674 0046 7B68     		ldr	r3, [r7, #4]
 675 0048 0122     		movs	r2, #1
 676 004a 83F83E20 		strb	r2, [r3, #62]
 386:Drivers/STM32L4xx_HAL_Driver/Src/stm32l4xx_hal_tim_ex.c ****   TIM_CHANNEL_STATE_SET(htim, TIM_CHANNEL_2, HAL_TIM_CHANNEL_STATE_READY);
 677              		.loc 1 386 3
 678 004e 7B68     		ldr	r3, [r7, #4]
 679 0050 0122     		movs	r2, #1
 680 0052 83F83F20 		strb	r2, [r3, #63]
 387:Drivers/STM32L4xx_HAL_Driver/Src/stm32l4xx_hal_tim_ex.c ****   TIM_CHANNEL_N_STATE_SET(htim, TIM_CHANNEL_1, HAL_TIM_CHANNEL_STATE_READY);
 681              		.loc 1 387 3
 682 0056 7B68     		ldr	r3, [r7, #4]
 683 0058 0122     		movs	r2, #1
 684 005a 83F84420 		strb	r2, [r3, #68]
 388:Drivers/STM32L4xx_HAL_Driver/Src/stm32l4xx_hal_tim_ex.c ****   TIM_CHANNEL_N_STATE_SET(htim, TIM_CHANNEL_2, HAL_TIM_CHANNEL_STATE_READY);
 685              		.loc 1 388 3
 686 005e 7B68     		ldr	r3, [r7, #4]
 687 0060 0122     		movs	r2, #1
 688 0062 83F84520 		strb	r2, [r3, #69]
 389:Drivers/STM32L4xx_HAL_Driver/Src/stm32l4xx_hal_tim_ex.c **** 
 390:Drivers/STM32L4xx_HAL_Driver/Src/stm32l4xx_hal_tim_ex.c ****   /* Return function status */
 391:Drivers/STM32L4xx_HAL_Driver/Src/stm32l4xx_hal_tim_ex.c ****   return HAL_OK;
 689              		.loc 1 391 10
 690 0066 0023     		movs	r3, #0
 392:Drivers/STM32L4xx_HAL_Driver/Src/stm32l4xx_hal_tim_ex.c **** }
 691              		.loc 1 392 1
 692 0068 1846     		mov	r0, r3
 693 006a 0837     		adds	r7, r7, #8
 694              	.LCFI30:
 695              		.cfi_def_cfa_offset 8
 696 006c BD46     		mov	sp, r7
 697              	.LCFI31:
 698              		.cfi_def_cfa_register 13
 699              		@ sp needed
 700 006e 80BD     		pop	{r7, pc}
ARM GAS  /tmp/ccR4xO3u.s 			page 20


 701              		.cfi_endproc
 702              	.LFE137:
 704              		.section	.text.HAL_TIMEx_HallSensor_Start_IT,"ax",%progbits
 705              		.align	1
 706              		.global	HAL_TIMEx_HallSensor_Start_IT
 707              		.syntax unified
 708              		.thumb
 709              		.thumb_func
 711              	HAL_TIMEx_HallSensor_Start_IT:
 712              	.LFB138:
 393:Drivers/STM32L4xx_HAL_Driver/Src/stm32l4xx_hal_tim_ex.c **** 
 394:Drivers/STM32L4xx_HAL_Driver/Src/stm32l4xx_hal_tim_ex.c **** /**
 395:Drivers/STM32L4xx_HAL_Driver/Src/stm32l4xx_hal_tim_ex.c ****   * @brief  Starts the TIM Hall Sensor Interface in interrupt mode.
 396:Drivers/STM32L4xx_HAL_Driver/Src/stm32l4xx_hal_tim_ex.c ****   * @param  htim TIM Hall Sensor Interface handle
 397:Drivers/STM32L4xx_HAL_Driver/Src/stm32l4xx_hal_tim_ex.c ****   * @retval HAL status
 398:Drivers/STM32L4xx_HAL_Driver/Src/stm32l4xx_hal_tim_ex.c ****   */
 399:Drivers/STM32L4xx_HAL_Driver/Src/stm32l4xx_hal_tim_ex.c **** HAL_StatusTypeDef HAL_TIMEx_HallSensor_Start_IT(TIM_HandleTypeDef *htim)
 400:Drivers/STM32L4xx_HAL_Driver/Src/stm32l4xx_hal_tim_ex.c **** {
 713              		.loc 1 400 1
 714              		.cfi_startproc
 715              		@ args = 0, pretend = 0, frame = 16
 716              		@ frame_needed = 1, uses_anonymous_args = 0
 717 0000 80B5     		push	{r7, lr}
 718              	.LCFI32:
 719              		.cfi_def_cfa_offset 8
 720              		.cfi_offset 7, -8
 721              		.cfi_offset 14, -4
 722 0002 84B0     		sub	sp, sp, #16
 723              	.LCFI33:
 724              		.cfi_def_cfa_offset 24
 725 0004 00AF     		add	r7, sp, #0
 726              	.LCFI34:
 727              		.cfi_def_cfa_register 7
 728 0006 7860     		str	r0, [r7, #4]
 401:Drivers/STM32L4xx_HAL_Driver/Src/stm32l4xx_hal_tim_ex.c ****   uint32_t tmpsmcr;
 402:Drivers/STM32L4xx_HAL_Driver/Src/stm32l4xx_hal_tim_ex.c ****   HAL_TIM_ChannelStateTypeDef channel_1_state = TIM_CHANNEL_STATE_GET(htim, TIM_CHANNEL_1);
 729              		.loc 1 402 31
 730 0008 7B68     		ldr	r3, [r7, #4]
 731 000a 93F83E30 		ldrb	r3, [r3, #62]
 732 000e FB73     		strb	r3, [r7, #15]
 403:Drivers/STM32L4xx_HAL_Driver/Src/stm32l4xx_hal_tim_ex.c ****   HAL_TIM_ChannelStateTypeDef channel_2_state = TIM_CHANNEL_STATE_GET(htim, TIM_CHANNEL_2);
 733              		.loc 1 403 31
 734 0010 7B68     		ldr	r3, [r7, #4]
 735 0012 93F83F30 		ldrb	r3, [r3, #63]
 736 0016 BB73     		strb	r3, [r7, #14]
 404:Drivers/STM32L4xx_HAL_Driver/Src/stm32l4xx_hal_tim_ex.c ****   HAL_TIM_ChannelStateTypeDef complementary_channel_1_state = TIM_CHANNEL_N_STATE_GET(htim, TIM_CHA
 737              		.loc 1 404 31
 738 0018 7B68     		ldr	r3, [r7, #4]
 739 001a 93F84430 		ldrb	r3, [r3, #68]
 740 001e 7B73     		strb	r3, [r7, #13]
 405:Drivers/STM32L4xx_HAL_Driver/Src/stm32l4xx_hal_tim_ex.c ****   HAL_TIM_ChannelStateTypeDef complementary_channel_2_state = TIM_CHANNEL_N_STATE_GET(htim, TIM_CHA
 741              		.loc 1 405 31
 742 0020 7B68     		ldr	r3, [r7, #4]
 743 0022 93F84530 		ldrb	r3, [r3, #69]
 744 0026 3B73     		strb	r3, [r7, #12]
 406:Drivers/STM32L4xx_HAL_Driver/Src/stm32l4xx_hal_tim_ex.c **** 
 407:Drivers/STM32L4xx_HAL_Driver/Src/stm32l4xx_hal_tim_ex.c ****   /* Check the parameters */
ARM GAS  /tmp/ccR4xO3u.s 			page 21


 408:Drivers/STM32L4xx_HAL_Driver/Src/stm32l4xx_hal_tim_ex.c ****   assert_param(IS_TIM_HALL_SENSOR_INTERFACE_INSTANCE(htim->Instance));
 409:Drivers/STM32L4xx_HAL_Driver/Src/stm32l4xx_hal_tim_ex.c **** 
 410:Drivers/STM32L4xx_HAL_Driver/Src/stm32l4xx_hal_tim_ex.c ****   /* Check the TIM channels state */
 411:Drivers/STM32L4xx_HAL_Driver/Src/stm32l4xx_hal_tim_ex.c ****   if ((channel_1_state != HAL_TIM_CHANNEL_STATE_READY)
 745              		.loc 1 411 6
 746 0028 FB7B     		ldrb	r3, [r7, #15]	@ zero_extendqisi2
 747 002a 012B     		cmp	r3, #1
 748 002c 08D1     		bne	.L26
 412:Drivers/STM32L4xx_HAL_Driver/Src/stm32l4xx_hal_tim_ex.c ****       || (channel_2_state != HAL_TIM_CHANNEL_STATE_READY)
 749              		.loc 1 412 7
 750 002e BB7B     		ldrb	r3, [r7, #14]	@ zero_extendqisi2
 751 0030 012B     		cmp	r3, #1
 752 0032 05D1     		bne	.L26
 413:Drivers/STM32L4xx_HAL_Driver/Src/stm32l4xx_hal_tim_ex.c ****       || (complementary_channel_1_state != HAL_TIM_CHANNEL_STATE_READY)
 753              		.loc 1 413 7
 754 0034 7B7B     		ldrb	r3, [r7, #13]	@ zero_extendqisi2
 755 0036 012B     		cmp	r3, #1
 756 0038 02D1     		bne	.L26
 414:Drivers/STM32L4xx_HAL_Driver/Src/stm32l4xx_hal_tim_ex.c ****       || (complementary_channel_2_state != HAL_TIM_CHANNEL_STATE_READY))
 757              		.loc 1 414 7
 758 003a 3B7B     		ldrb	r3, [r7, #12]	@ zero_extendqisi2
 759 003c 012B     		cmp	r3, #1
 760 003e 01D0     		beq	.L27
 761              	.L26:
 415:Drivers/STM32L4xx_HAL_Driver/Src/stm32l4xx_hal_tim_ex.c ****   {
 416:Drivers/STM32L4xx_HAL_Driver/Src/stm32l4xx_hal_tim_ex.c ****     return HAL_ERROR;
 762              		.loc 1 416 12
 763 0040 0123     		movs	r3, #1
 764 0042 4EE0     		b	.L28
 765              	.L27:
 417:Drivers/STM32L4xx_HAL_Driver/Src/stm32l4xx_hal_tim_ex.c ****   }
 418:Drivers/STM32L4xx_HAL_Driver/Src/stm32l4xx_hal_tim_ex.c **** 
 419:Drivers/STM32L4xx_HAL_Driver/Src/stm32l4xx_hal_tim_ex.c ****   /* Set the TIM channels state */
 420:Drivers/STM32L4xx_HAL_Driver/Src/stm32l4xx_hal_tim_ex.c ****   TIM_CHANNEL_STATE_SET(htim, TIM_CHANNEL_1, HAL_TIM_CHANNEL_STATE_BUSY);
 766              		.loc 1 420 3
 767 0044 7B68     		ldr	r3, [r7, #4]
 768 0046 0222     		movs	r2, #2
 769 0048 83F83E20 		strb	r2, [r3, #62]
 421:Drivers/STM32L4xx_HAL_Driver/Src/stm32l4xx_hal_tim_ex.c ****   TIM_CHANNEL_STATE_SET(htim, TIM_CHANNEL_2, HAL_TIM_CHANNEL_STATE_BUSY);
 770              		.loc 1 421 3
 771 004c 7B68     		ldr	r3, [r7, #4]
 772 004e 0222     		movs	r2, #2
 773 0050 83F83F20 		strb	r2, [r3, #63]
 422:Drivers/STM32L4xx_HAL_Driver/Src/stm32l4xx_hal_tim_ex.c ****   TIM_CHANNEL_N_STATE_SET(htim, TIM_CHANNEL_1, HAL_TIM_CHANNEL_STATE_BUSY);
 774              		.loc 1 422 3
 775 0054 7B68     		ldr	r3, [r7, #4]
 776 0056 0222     		movs	r2, #2
 777 0058 83F84420 		strb	r2, [r3, #68]
 423:Drivers/STM32L4xx_HAL_Driver/Src/stm32l4xx_hal_tim_ex.c ****   TIM_CHANNEL_N_STATE_SET(htim, TIM_CHANNEL_2, HAL_TIM_CHANNEL_STATE_BUSY);
 778              		.loc 1 423 3
 779 005c 7B68     		ldr	r3, [r7, #4]
 780 005e 0222     		movs	r2, #2
 781 0060 83F84520 		strb	r2, [r3, #69]
 424:Drivers/STM32L4xx_HAL_Driver/Src/stm32l4xx_hal_tim_ex.c **** 
 425:Drivers/STM32L4xx_HAL_Driver/Src/stm32l4xx_hal_tim_ex.c ****   /* Enable the capture compare Interrupts 1 event */
 426:Drivers/STM32L4xx_HAL_Driver/Src/stm32l4xx_hal_tim_ex.c ****   __HAL_TIM_ENABLE_IT(htim, TIM_IT_CC1);
 782              		.loc 1 426 3
ARM GAS  /tmp/ccR4xO3u.s 			page 22


 783 0064 7B68     		ldr	r3, [r7, #4]
 784 0066 1B68     		ldr	r3, [r3]
 785 0068 DA68     		ldr	r2, [r3, #12]
 786 006a 7B68     		ldr	r3, [r7, #4]
 787 006c 1B68     		ldr	r3, [r3]
 788 006e 42F00202 		orr	r2, r2, #2
 789 0072 DA60     		str	r2, [r3, #12]
 427:Drivers/STM32L4xx_HAL_Driver/Src/stm32l4xx_hal_tim_ex.c **** 
 428:Drivers/STM32L4xx_HAL_Driver/Src/stm32l4xx_hal_tim_ex.c ****   /* Enable the Input Capture channel 1
 429:Drivers/STM32L4xx_HAL_Driver/Src/stm32l4xx_hal_tim_ex.c ****   (in the Hall Sensor Interface the three possible channels that can be used are TIM_CHANNEL_1,
 430:Drivers/STM32L4xx_HAL_Driver/Src/stm32l4xx_hal_tim_ex.c ****   TIM_CHANNEL_2 and TIM_CHANNEL_3) */
 431:Drivers/STM32L4xx_HAL_Driver/Src/stm32l4xx_hal_tim_ex.c ****   TIM_CCxChannelCmd(htim->Instance, TIM_CHANNEL_1, TIM_CCx_ENABLE);
 790              		.loc 1 431 3
 791 0074 7B68     		ldr	r3, [r7, #4]
 792 0076 1B68     		ldr	r3, [r3]
 793 0078 0122     		movs	r2, #1
 794 007a 0021     		movs	r1, #0
 795 007c 1846     		mov	r0, r3
 796 007e FFF7FEFF 		bl	TIM_CCxChannelCmd
 432:Drivers/STM32L4xx_HAL_Driver/Src/stm32l4xx_hal_tim_ex.c **** 
 433:Drivers/STM32L4xx_HAL_Driver/Src/stm32l4xx_hal_tim_ex.c ****   /* Enable the Peripheral, except in trigger mode where enable is automatically done with trigger 
 434:Drivers/STM32L4xx_HAL_Driver/Src/stm32l4xx_hal_tim_ex.c ****   if (IS_TIM_SLAVE_INSTANCE(htim->Instance))
 797              		.loc 1 434 7
 798 0082 7B68     		ldr	r3, [r7, #4]
 799 0084 1B68     		ldr	r3, [r3]
 800              		.loc 1 434 6
 801 0086 194A     		ldr	r2, .L34
 802 0088 9342     		cmp	r3, r2
 803 008a 09D0     		beq	.L29
 804              		.loc 1 434 7 discriminator 1
 805 008c 7B68     		ldr	r3, [r7, #4]
 806 008e 1B68     		ldr	r3, [r3]
 807 0090 B3F1804F 		cmp	r3, #1073741824
 808 0094 04D0     		beq	.L29
 809              		.loc 1 434 7 is_stmt 0 discriminator 2
 810 0096 7B68     		ldr	r3, [r7, #4]
 811 0098 1B68     		ldr	r3, [r3]
 812 009a 154A     		ldr	r2, .L34+4
 813 009c 9342     		cmp	r3, r2
 814 009e 15D1     		bne	.L30
 815              	.L29:
 435:Drivers/STM32L4xx_HAL_Driver/Src/stm32l4xx_hal_tim_ex.c ****   {
 436:Drivers/STM32L4xx_HAL_Driver/Src/stm32l4xx_hal_tim_ex.c ****     tmpsmcr = htim->Instance->SMCR & TIM_SMCR_SMS;
 816              		.loc 1 436 19 is_stmt 1
 817 00a0 7B68     		ldr	r3, [r7, #4]
 818 00a2 1B68     		ldr	r3, [r3]
 819              		.loc 1 436 29
 820 00a4 9A68     		ldr	r2, [r3, #8]
 821              		.loc 1 436 13
 822 00a6 134B     		ldr	r3, .L34+8
 823 00a8 1340     		ands	r3, r3, r2
 824 00aa BB60     		str	r3, [r7, #8]
 437:Drivers/STM32L4xx_HAL_Driver/Src/stm32l4xx_hal_tim_ex.c ****     if (!IS_TIM_SLAVEMODE_TRIGGER_ENABLED(tmpsmcr))
 825              		.loc 1 437 8
 826 00ac BB68     		ldr	r3, [r7, #8]
 827 00ae 062B     		cmp	r3, #6
 828 00b0 15D0     		beq	.L33
ARM GAS  /tmp/ccR4xO3u.s 			page 23


 829              		.loc 1 437 9 discriminator 1
 830 00b2 BB68     		ldr	r3, [r7, #8]
 831 00b4 B3F5803F 		cmp	r3, #65536
 832 00b8 11D0     		beq	.L33
 438:Drivers/STM32L4xx_HAL_Driver/Src/stm32l4xx_hal_tim_ex.c ****     {
 439:Drivers/STM32L4xx_HAL_Driver/Src/stm32l4xx_hal_tim_ex.c ****       __HAL_TIM_ENABLE(htim);
 833              		.loc 1 439 7
 834 00ba 7B68     		ldr	r3, [r7, #4]
 835 00bc 1B68     		ldr	r3, [r3]
 836 00be 1A68     		ldr	r2, [r3]
 837 00c0 7B68     		ldr	r3, [r7, #4]
 838 00c2 1B68     		ldr	r3, [r3]
 839 00c4 42F00102 		orr	r2, r2, #1
 840 00c8 1A60     		str	r2, [r3]
 437:Drivers/STM32L4xx_HAL_Driver/Src/stm32l4xx_hal_tim_ex.c ****     if (!IS_TIM_SLAVEMODE_TRIGGER_ENABLED(tmpsmcr))
 841              		.loc 1 437 8
 842 00ca 08E0     		b	.L33
 843              	.L30:
 440:Drivers/STM32L4xx_HAL_Driver/Src/stm32l4xx_hal_tim_ex.c ****     }
 441:Drivers/STM32L4xx_HAL_Driver/Src/stm32l4xx_hal_tim_ex.c ****   }
 442:Drivers/STM32L4xx_HAL_Driver/Src/stm32l4xx_hal_tim_ex.c ****   else
 443:Drivers/STM32L4xx_HAL_Driver/Src/stm32l4xx_hal_tim_ex.c ****   {
 444:Drivers/STM32L4xx_HAL_Driver/Src/stm32l4xx_hal_tim_ex.c ****     __HAL_TIM_ENABLE(htim);
 844              		.loc 1 444 5
 845 00cc 7B68     		ldr	r3, [r7, #4]
 846 00ce 1B68     		ldr	r3, [r3]
 847 00d0 1A68     		ldr	r2, [r3]
 848 00d2 7B68     		ldr	r3, [r7, #4]
 849 00d4 1B68     		ldr	r3, [r3]
 850 00d6 42F00102 		orr	r2, r2, #1
 851 00da 1A60     		str	r2, [r3]
 852 00dc 00E0     		b	.L32
 853              	.L33:
 437:Drivers/STM32L4xx_HAL_Driver/Src/stm32l4xx_hal_tim_ex.c ****     {
 854              		.loc 1 437 8
 855 00de 00BF     		nop
 856              	.L32:
 445:Drivers/STM32L4xx_HAL_Driver/Src/stm32l4xx_hal_tim_ex.c ****   }
 446:Drivers/STM32L4xx_HAL_Driver/Src/stm32l4xx_hal_tim_ex.c **** 
 447:Drivers/STM32L4xx_HAL_Driver/Src/stm32l4xx_hal_tim_ex.c ****   /* Return function status */
 448:Drivers/STM32L4xx_HAL_Driver/Src/stm32l4xx_hal_tim_ex.c ****   return HAL_OK;
 857              		.loc 1 448 10
 858 00e0 0023     		movs	r3, #0
 859              	.L28:
 449:Drivers/STM32L4xx_HAL_Driver/Src/stm32l4xx_hal_tim_ex.c **** }
 860              		.loc 1 449 1
 861 00e2 1846     		mov	r0, r3
 862 00e4 1037     		adds	r7, r7, #16
 863              	.LCFI35:
 864              		.cfi_def_cfa_offset 8
 865 00e6 BD46     		mov	sp, r7
 866              	.LCFI36:
 867              		.cfi_def_cfa_register 13
 868              		@ sp needed
 869 00e8 80BD     		pop	{r7, pc}
 870              	.L35:
 871 00ea 00BF     		.align	2
ARM GAS  /tmp/ccR4xO3u.s 			page 24


 872              	.L34:
 873 00ec 002C0140 		.word	1073818624
 874 00f0 00400140 		.word	1073823744
 875 00f4 07000100 		.word	65543
 876              		.cfi_endproc
 877              	.LFE138:
 879              		.section	.text.HAL_TIMEx_HallSensor_Stop_IT,"ax",%progbits
 880              		.align	1
 881              		.global	HAL_TIMEx_HallSensor_Stop_IT
 882              		.syntax unified
 883              		.thumb
 884              		.thumb_func
 886              	HAL_TIMEx_HallSensor_Stop_IT:
 887              	.LFB139:
 450:Drivers/STM32L4xx_HAL_Driver/Src/stm32l4xx_hal_tim_ex.c **** 
 451:Drivers/STM32L4xx_HAL_Driver/Src/stm32l4xx_hal_tim_ex.c **** /**
 452:Drivers/STM32L4xx_HAL_Driver/Src/stm32l4xx_hal_tim_ex.c ****   * @brief  Stops the TIM Hall Sensor Interface in interrupt mode.
 453:Drivers/STM32L4xx_HAL_Driver/Src/stm32l4xx_hal_tim_ex.c ****   * @param  htim TIM Hall Sensor Interface handle
 454:Drivers/STM32L4xx_HAL_Driver/Src/stm32l4xx_hal_tim_ex.c ****   * @retval HAL status
 455:Drivers/STM32L4xx_HAL_Driver/Src/stm32l4xx_hal_tim_ex.c ****   */
 456:Drivers/STM32L4xx_HAL_Driver/Src/stm32l4xx_hal_tim_ex.c **** HAL_StatusTypeDef HAL_TIMEx_HallSensor_Stop_IT(TIM_HandleTypeDef *htim)
 457:Drivers/STM32L4xx_HAL_Driver/Src/stm32l4xx_hal_tim_ex.c **** {
 888              		.loc 1 457 1
 889              		.cfi_startproc
 890              		@ args = 0, pretend = 0, frame = 8
 891              		@ frame_needed = 1, uses_anonymous_args = 0
 892 0000 80B5     		push	{r7, lr}
 893              	.LCFI37:
 894              		.cfi_def_cfa_offset 8
 895              		.cfi_offset 7, -8
 896              		.cfi_offset 14, -4
 897 0002 82B0     		sub	sp, sp, #8
 898              	.LCFI38:
 899              		.cfi_def_cfa_offset 16
 900 0004 00AF     		add	r7, sp, #0
 901              	.LCFI39:
 902              		.cfi_def_cfa_register 7
 903 0006 7860     		str	r0, [r7, #4]
 458:Drivers/STM32L4xx_HAL_Driver/Src/stm32l4xx_hal_tim_ex.c ****   /* Check the parameters */
 459:Drivers/STM32L4xx_HAL_Driver/Src/stm32l4xx_hal_tim_ex.c ****   assert_param(IS_TIM_HALL_SENSOR_INTERFACE_INSTANCE(htim->Instance));
 460:Drivers/STM32L4xx_HAL_Driver/Src/stm32l4xx_hal_tim_ex.c **** 
 461:Drivers/STM32L4xx_HAL_Driver/Src/stm32l4xx_hal_tim_ex.c ****   /* Disable the Input Capture channel 1
 462:Drivers/STM32L4xx_HAL_Driver/Src/stm32l4xx_hal_tim_ex.c ****   (in the Hall Sensor Interface the three possible channels that can be used are TIM_CHANNEL_1,
 463:Drivers/STM32L4xx_HAL_Driver/Src/stm32l4xx_hal_tim_ex.c ****   TIM_CHANNEL_2 and TIM_CHANNEL_3) */
 464:Drivers/STM32L4xx_HAL_Driver/Src/stm32l4xx_hal_tim_ex.c ****   TIM_CCxChannelCmd(htim->Instance, TIM_CHANNEL_1, TIM_CCx_DISABLE);
 904              		.loc 1 464 3
 905 0008 7B68     		ldr	r3, [r7, #4]
 906 000a 1B68     		ldr	r3, [r3]
 907 000c 0022     		movs	r2, #0
 908 000e 0021     		movs	r1, #0
 909 0010 1846     		mov	r0, r3
 910 0012 FFF7FEFF 		bl	TIM_CCxChannelCmd
 465:Drivers/STM32L4xx_HAL_Driver/Src/stm32l4xx_hal_tim_ex.c **** 
 466:Drivers/STM32L4xx_HAL_Driver/Src/stm32l4xx_hal_tim_ex.c ****   /* Disable the capture compare Interrupts event */
 467:Drivers/STM32L4xx_HAL_Driver/Src/stm32l4xx_hal_tim_ex.c ****   __HAL_TIM_DISABLE_IT(htim, TIM_IT_CC1);
 911              		.loc 1 467 3
 912 0016 7B68     		ldr	r3, [r7, #4]
ARM GAS  /tmp/ccR4xO3u.s 			page 25


 913 0018 1B68     		ldr	r3, [r3]
 914 001a DA68     		ldr	r2, [r3, #12]
 915 001c 7B68     		ldr	r3, [r7, #4]
 916 001e 1B68     		ldr	r3, [r3]
 917 0020 22F00202 		bic	r2, r2, #2
 918 0024 DA60     		str	r2, [r3, #12]
 468:Drivers/STM32L4xx_HAL_Driver/Src/stm32l4xx_hal_tim_ex.c **** 
 469:Drivers/STM32L4xx_HAL_Driver/Src/stm32l4xx_hal_tim_ex.c ****   /* Disable the Peripheral */
 470:Drivers/STM32L4xx_HAL_Driver/Src/stm32l4xx_hal_tim_ex.c ****   __HAL_TIM_DISABLE(htim);
 919              		.loc 1 470 3
 920 0026 7B68     		ldr	r3, [r7, #4]
 921 0028 1B68     		ldr	r3, [r3]
 922 002a 1A6A     		ldr	r2, [r3, #32]
 923 002c 41F21113 		movw	r3, #4369
 924 0030 1340     		ands	r3, r3, r2
 925 0032 002B     		cmp	r3, #0
 926 0034 0FD1     		bne	.L37
 927              		.loc 1 470 3 is_stmt 0 discriminator 1
 928 0036 7B68     		ldr	r3, [r7, #4]
 929 0038 1B68     		ldr	r3, [r3]
 930 003a 1A6A     		ldr	r2, [r3, #32]
 931 003c 40F24443 		movw	r3, #1092
 932 0040 1340     		ands	r3, r3, r2
 933 0042 002B     		cmp	r3, #0
 934 0044 07D1     		bne	.L37
 935              		.loc 1 470 3 discriminator 2
 936 0046 7B68     		ldr	r3, [r7, #4]
 937 0048 1B68     		ldr	r3, [r3]
 938 004a 1A68     		ldr	r2, [r3]
 939 004c 7B68     		ldr	r3, [r7, #4]
 940 004e 1B68     		ldr	r3, [r3]
 941 0050 22F00102 		bic	r2, r2, #1
 942 0054 1A60     		str	r2, [r3]
 943              	.L37:
 471:Drivers/STM32L4xx_HAL_Driver/Src/stm32l4xx_hal_tim_ex.c **** 
 472:Drivers/STM32L4xx_HAL_Driver/Src/stm32l4xx_hal_tim_ex.c ****   /* Set the TIM channels state */
 473:Drivers/STM32L4xx_HAL_Driver/Src/stm32l4xx_hal_tim_ex.c ****   TIM_CHANNEL_STATE_SET(htim, TIM_CHANNEL_1, HAL_TIM_CHANNEL_STATE_READY);
 944              		.loc 1 473 3 is_stmt 1
 945 0056 7B68     		ldr	r3, [r7, #4]
 946 0058 0122     		movs	r2, #1
 947 005a 83F83E20 		strb	r2, [r3, #62]
 474:Drivers/STM32L4xx_HAL_Driver/Src/stm32l4xx_hal_tim_ex.c ****   TIM_CHANNEL_STATE_SET(htim, TIM_CHANNEL_2, HAL_TIM_CHANNEL_STATE_READY);
 948              		.loc 1 474 3
 949 005e 7B68     		ldr	r3, [r7, #4]
 950 0060 0122     		movs	r2, #1
 951 0062 83F83F20 		strb	r2, [r3, #63]
 475:Drivers/STM32L4xx_HAL_Driver/Src/stm32l4xx_hal_tim_ex.c ****   TIM_CHANNEL_N_STATE_SET(htim, TIM_CHANNEL_1, HAL_TIM_CHANNEL_STATE_READY);
 952              		.loc 1 475 3
 953 0066 7B68     		ldr	r3, [r7, #4]
 954 0068 0122     		movs	r2, #1
 955 006a 83F84420 		strb	r2, [r3, #68]
 476:Drivers/STM32L4xx_HAL_Driver/Src/stm32l4xx_hal_tim_ex.c ****   TIM_CHANNEL_N_STATE_SET(htim, TIM_CHANNEL_2, HAL_TIM_CHANNEL_STATE_READY);
 956              		.loc 1 476 3
 957 006e 7B68     		ldr	r3, [r7, #4]
 958 0070 0122     		movs	r2, #1
 959 0072 83F84520 		strb	r2, [r3, #69]
 477:Drivers/STM32L4xx_HAL_Driver/Src/stm32l4xx_hal_tim_ex.c **** 
ARM GAS  /tmp/ccR4xO3u.s 			page 26


 478:Drivers/STM32L4xx_HAL_Driver/Src/stm32l4xx_hal_tim_ex.c ****   /* Return function status */
 479:Drivers/STM32L4xx_HAL_Driver/Src/stm32l4xx_hal_tim_ex.c ****   return HAL_OK;
 960              		.loc 1 479 10
 961 0076 0023     		movs	r3, #0
 480:Drivers/STM32L4xx_HAL_Driver/Src/stm32l4xx_hal_tim_ex.c **** }
 962              		.loc 1 480 1
 963 0078 1846     		mov	r0, r3
 964 007a 0837     		adds	r7, r7, #8
 965              	.LCFI40:
 966              		.cfi_def_cfa_offset 8
 967 007c BD46     		mov	sp, r7
 968              	.LCFI41:
 969              		.cfi_def_cfa_register 13
 970              		@ sp needed
 971 007e 80BD     		pop	{r7, pc}
 972              		.cfi_endproc
 973              	.LFE139:
 975              		.section	.text.HAL_TIMEx_HallSensor_Start_DMA,"ax",%progbits
 976              		.align	1
 977              		.global	HAL_TIMEx_HallSensor_Start_DMA
 978              		.syntax unified
 979              		.thumb
 980              		.thumb_func
 982              	HAL_TIMEx_HallSensor_Start_DMA:
 983              	.LFB140:
 481:Drivers/STM32L4xx_HAL_Driver/Src/stm32l4xx_hal_tim_ex.c **** 
 482:Drivers/STM32L4xx_HAL_Driver/Src/stm32l4xx_hal_tim_ex.c **** /**
 483:Drivers/STM32L4xx_HAL_Driver/Src/stm32l4xx_hal_tim_ex.c ****   * @brief  Starts the TIM Hall Sensor Interface in DMA mode.
 484:Drivers/STM32L4xx_HAL_Driver/Src/stm32l4xx_hal_tim_ex.c ****   * @param  htim TIM Hall Sensor Interface handle
 485:Drivers/STM32L4xx_HAL_Driver/Src/stm32l4xx_hal_tim_ex.c ****   * @param  pData The destination Buffer address.
 486:Drivers/STM32L4xx_HAL_Driver/Src/stm32l4xx_hal_tim_ex.c ****   * @param  Length The length of data to be transferred from TIM peripheral to memory.
 487:Drivers/STM32L4xx_HAL_Driver/Src/stm32l4xx_hal_tim_ex.c ****   * @retval HAL status
 488:Drivers/STM32L4xx_HAL_Driver/Src/stm32l4xx_hal_tim_ex.c ****   */
 489:Drivers/STM32L4xx_HAL_Driver/Src/stm32l4xx_hal_tim_ex.c **** HAL_StatusTypeDef HAL_TIMEx_HallSensor_Start_DMA(TIM_HandleTypeDef *htim, uint32_t *pData, uint16_t
 490:Drivers/STM32L4xx_HAL_Driver/Src/stm32l4xx_hal_tim_ex.c **** {
 984              		.loc 1 490 1
 985              		.cfi_startproc
 986              		@ args = 0, pretend = 0, frame = 24
 987              		@ frame_needed = 1, uses_anonymous_args = 0
 988 0000 80B5     		push	{r7, lr}
 989              	.LCFI42:
 990              		.cfi_def_cfa_offset 8
 991              		.cfi_offset 7, -8
 992              		.cfi_offset 14, -4
 993 0002 86B0     		sub	sp, sp, #24
 994              	.LCFI43:
 995              		.cfi_def_cfa_offset 32
 996 0004 00AF     		add	r7, sp, #0
 997              	.LCFI44:
 998              		.cfi_def_cfa_register 7
 999 0006 F860     		str	r0, [r7, #12]
 1000 0008 B960     		str	r1, [r7, #8]
 1001 000a 1346     		mov	r3, r2
 1002 000c FB80     		strh	r3, [r7, #6]	@ movhi
 491:Drivers/STM32L4xx_HAL_Driver/Src/stm32l4xx_hal_tim_ex.c ****   uint32_t tmpsmcr;
 492:Drivers/STM32L4xx_HAL_Driver/Src/stm32l4xx_hal_tim_ex.c ****   HAL_TIM_ChannelStateTypeDef channel_1_state = TIM_CHANNEL_STATE_GET(htim, TIM_CHANNEL_1);
 1003              		.loc 1 492 31
ARM GAS  /tmp/ccR4xO3u.s 			page 27


 1004 000e FB68     		ldr	r3, [r7, #12]
 1005 0010 93F83E30 		ldrb	r3, [r3, #62]
 1006 0014 FB75     		strb	r3, [r7, #23]
 493:Drivers/STM32L4xx_HAL_Driver/Src/stm32l4xx_hal_tim_ex.c ****   HAL_TIM_ChannelStateTypeDef complementary_channel_1_state = TIM_CHANNEL_N_STATE_GET(htim, TIM_CHA
 1007              		.loc 1 493 31
 1008 0016 FB68     		ldr	r3, [r7, #12]
 1009 0018 93F84430 		ldrb	r3, [r3, #68]
 1010 001c BB75     		strb	r3, [r7, #22]
 494:Drivers/STM32L4xx_HAL_Driver/Src/stm32l4xx_hal_tim_ex.c **** 
 495:Drivers/STM32L4xx_HAL_Driver/Src/stm32l4xx_hal_tim_ex.c ****   /* Check the parameters */
 496:Drivers/STM32L4xx_HAL_Driver/Src/stm32l4xx_hal_tim_ex.c ****   assert_param(IS_TIM_HALL_SENSOR_INTERFACE_INSTANCE(htim->Instance));
 497:Drivers/STM32L4xx_HAL_Driver/Src/stm32l4xx_hal_tim_ex.c **** 
 498:Drivers/STM32L4xx_HAL_Driver/Src/stm32l4xx_hal_tim_ex.c ****   /* Set the TIM channel state */
 499:Drivers/STM32L4xx_HAL_Driver/Src/stm32l4xx_hal_tim_ex.c ****   if ((channel_1_state == HAL_TIM_CHANNEL_STATE_BUSY)
 1011              		.loc 1 499 6
 1012 001e FB7D     		ldrb	r3, [r7, #23]	@ zero_extendqisi2
 1013 0020 022B     		cmp	r3, #2
 1014 0022 02D0     		beq	.L40
 500:Drivers/STM32L4xx_HAL_Driver/Src/stm32l4xx_hal_tim_ex.c ****       || (complementary_channel_1_state == HAL_TIM_CHANNEL_STATE_BUSY))
 1015              		.loc 1 500 7
 1016 0024 BB7D     		ldrb	r3, [r7, #22]	@ zero_extendqisi2
 1017 0026 022B     		cmp	r3, #2
 1018 0028 01D1     		bne	.L41
 1019              	.L40:
 501:Drivers/STM32L4xx_HAL_Driver/Src/stm32l4xx_hal_tim_ex.c ****   {
 502:Drivers/STM32L4xx_HAL_Driver/Src/stm32l4xx_hal_tim_ex.c ****     return HAL_BUSY;
 1020              		.loc 1 502 12
 1021 002a 0223     		movs	r3, #2
 1022 002c 73E0     		b	.L42
 1023              	.L41:
 503:Drivers/STM32L4xx_HAL_Driver/Src/stm32l4xx_hal_tim_ex.c ****   }
 504:Drivers/STM32L4xx_HAL_Driver/Src/stm32l4xx_hal_tim_ex.c ****   else if ((channel_1_state == HAL_TIM_CHANNEL_STATE_READY)
 1024              		.loc 1 504 11
 1025 002e FB7D     		ldrb	r3, [r7, #23]	@ zero_extendqisi2
 1026 0030 012B     		cmp	r3, #1
 1027 0032 34D1     		bne	.L43
 505:Drivers/STM32L4xx_HAL_Driver/Src/stm32l4xx_hal_tim_ex.c ****            && (complementary_channel_1_state == HAL_TIM_CHANNEL_STATE_READY))
 1028              		.loc 1 505 12
 1029 0034 BB7D     		ldrb	r3, [r7, #22]	@ zero_extendqisi2
 1030 0036 012B     		cmp	r3, #1
 1031 0038 31D1     		bne	.L43
 506:Drivers/STM32L4xx_HAL_Driver/Src/stm32l4xx_hal_tim_ex.c ****   {
 507:Drivers/STM32L4xx_HAL_Driver/Src/stm32l4xx_hal_tim_ex.c ****     if ((pData == NULL) || (Length == 0U))
 1032              		.loc 1 507 8
 1033 003a BB68     		ldr	r3, [r7, #8]
 1034 003c 002B     		cmp	r3, #0
 1035 003e 02D0     		beq	.L44
 1036              		.loc 1 507 25 discriminator 1
 1037 0040 FB88     		ldrh	r3, [r7, #6]
 1038 0042 002B     		cmp	r3, #0
 1039 0044 01D1     		bne	.L45
 1040              	.L44:
 508:Drivers/STM32L4xx_HAL_Driver/Src/stm32l4xx_hal_tim_ex.c ****     {
 509:Drivers/STM32L4xx_HAL_Driver/Src/stm32l4xx_hal_tim_ex.c ****       return HAL_ERROR;
 1041              		.loc 1 509 14
 1042 0046 0123     		movs	r3, #1
 1043 0048 65E0     		b	.L42
ARM GAS  /tmp/ccR4xO3u.s 			page 28


 1044              	.L45:
 510:Drivers/STM32L4xx_HAL_Driver/Src/stm32l4xx_hal_tim_ex.c ****     }
 511:Drivers/STM32L4xx_HAL_Driver/Src/stm32l4xx_hal_tim_ex.c ****     else
 512:Drivers/STM32L4xx_HAL_Driver/Src/stm32l4xx_hal_tim_ex.c ****     {
 513:Drivers/STM32L4xx_HAL_Driver/Src/stm32l4xx_hal_tim_ex.c ****       TIM_CHANNEL_STATE_SET(htim, TIM_CHANNEL_1, HAL_TIM_CHANNEL_STATE_BUSY);
 1045              		.loc 1 513 7
 1046 004a FB68     		ldr	r3, [r7, #12]
 1047 004c 0222     		movs	r2, #2
 1048 004e 83F83E20 		strb	r2, [r3, #62]
 514:Drivers/STM32L4xx_HAL_Driver/Src/stm32l4xx_hal_tim_ex.c ****       TIM_CHANNEL_N_STATE_SET(htim, TIM_CHANNEL_1, HAL_TIM_CHANNEL_STATE_BUSY);
 1049              		.loc 1 514 7
 1050 0052 FB68     		ldr	r3, [r7, #12]
 1051 0054 0222     		movs	r2, #2
 1052 0056 83F84420 		strb	r2, [r3, #68]
 507:Drivers/STM32L4xx_HAL_Driver/Src/stm32l4xx_hal_tim_ex.c ****     {
 1053              		.loc 1 507 8
 1054 005a 00BF     		nop
 515:Drivers/STM32L4xx_HAL_Driver/Src/stm32l4xx_hal_tim_ex.c ****     }
 516:Drivers/STM32L4xx_HAL_Driver/Src/stm32l4xx_hal_tim_ex.c ****   }
 517:Drivers/STM32L4xx_HAL_Driver/Src/stm32l4xx_hal_tim_ex.c ****   else
 518:Drivers/STM32L4xx_HAL_Driver/Src/stm32l4xx_hal_tim_ex.c ****   {
 519:Drivers/STM32L4xx_HAL_Driver/Src/stm32l4xx_hal_tim_ex.c ****     return HAL_ERROR;
 520:Drivers/STM32L4xx_HAL_Driver/Src/stm32l4xx_hal_tim_ex.c ****   }
 521:Drivers/STM32L4xx_HAL_Driver/Src/stm32l4xx_hal_tim_ex.c **** 
 522:Drivers/STM32L4xx_HAL_Driver/Src/stm32l4xx_hal_tim_ex.c ****   /* Enable the Input Capture channel 1
 523:Drivers/STM32L4xx_HAL_Driver/Src/stm32l4xx_hal_tim_ex.c ****   (in the Hall Sensor Interface the three possible channels that can be used are TIM_CHANNEL_1,
 524:Drivers/STM32L4xx_HAL_Driver/Src/stm32l4xx_hal_tim_ex.c ****   TIM_CHANNEL_2 and TIM_CHANNEL_3) */
 525:Drivers/STM32L4xx_HAL_Driver/Src/stm32l4xx_hal_tim_ex.c ****   TIM_CCxChannelCmd(htim->Instance, TIM_CHANNEL_1, TIM_CCx_ENABLE);
 1055              		.loc 1 525 3
 1056 005c FB68     		ldr	r3, [r7, #12]
 1057 005e 1B68     		ldr	r3, [r3]
 1058 0060 0122     		movs	r2, #1
 1059 0062 0021     		movs	r1, #0
 1060 0064 1846     		mov	r0, r3
 1061 0066 FFF7FEFF 		bl	TIM_CCxChannelCmd
 526:Drivers/STM32L4xx_HAL_Driver/Src/stm32l4xx_hal_tim_ex.c **** 
 527:Drivers/STM32L4xx_HAL_Driver/Src/stm32l4xx_hal_tim_ex.c ****   /* Set the DMA Input Capture 1 Callbacks */
 528:Drivers/STM32L4xx_HAL_Driver/Src/stm32l4xx_hal_tim_ex.c ****   htim->hdma[TIM_DMA_ID_CC1]->XferCpltCallback = TIM_DMACaptureCplt;
 1062              		.loc 1 528 13
 1063 006a FB68     		ldr	r3, [r7, #12]
 1064 006c 5B6A     		ldr	r3, [r3, #36]
 1065              		.loc 1 528 48
 1066 006e 2C4A     		ldr	r2, .L54
 1067 0070 DA62     		str	r2, [r3, #44]
 529:Drivers/STM32L4xx_HAL_Driver/Src/stm32l4xx_hal_tim_ex.c ****   htim->hdma[TIM_DMA_ID_CC1]->XferHalfCpltCallback = TIM_DMACaptureHalfCplt;
 1068              		.loc 1 529 13
 1069 0072 FB68     		ldr	r3, [r7, #12]
 1070 0074 5B6A     		ldr	r3, [r3, #36]
 1071              		.loc 1 529 52
 1072 0076 2B4A     		ldr	r2, .L54+4
 1073 0078 1A63     		str	r2, [r3, #48]
 530:Drivers/STM32L4xx_HAL_Driver/Src/stm32l4xx_hal_tim_ex.c ****   /* Set the DMA error callback */
 531:Drivers/STM32L4xx_HAL_Driver/Src/stm32l4xx_hal_tim_ex.c ****   htim->hdma[TIM_DMA_ID_CC1]->XferErrorCallback = TIM_DMAError ;
 1074              		.loc 1 531 13
 1075 007a FB68     		ldr	r3, [r7, #12]
 1076 007c 5B6A     		ldr	r3, [r3, #36]
 1077              		.loc 1 531 49
ARM GAS  /tmp/ccR4xO3u.s 			page 29


 1078 007e 2A4A     		ldr	r2, .L54+8
 1079 0080 5A63     		str	r2, [r3, #52]
 532:Drivers/STM32L4xx_HAL_Driver/Src/stm32l4xx_hal_tim_ex.c **** 
 533:Drivers/STM32L4xx_HAL_Driver/Src/stm32l4xx_hal_tim_ex.c ****   /* Enable the DMA channel for Capture 1*/
 534:Drivers/STM32L4xx_HAL_Driver/Src/stm32l4xx_hal_tim_ex.c ****   if (HAL_DMA_Start_IT(htim->hdma[TIM_DMA_ID_CC1], (uint32_t)&htim->Instance->CCR1, (uint32_t)pData
 1080              		.loc 1 534 7
 1081 0082 FB68     		ldr	r3, [r7, #12]
 1082 0084 586A     		ldr	r0, [r3, #36]
 1083              		.loc 1 534 67
 1084 0086 FB68     		ldr	r3, [r7, #12]
 1085 0088 1B68     		ldr	r3, [r3]
 1086              		.loc 1 534 62
 1087 008a 3433     		adds	r3, r3, #52
 1088              		.loc 1 534 7
 1089 008c 1946     		mov	r1, r3
 1090 008e BA68     		ldr	r2, [r7, #8]
 1091 0090 FB88     		ldrh	r3, [r7, #6]
 1092 0092 FFF7FEFF 		bl	HAL_DMA_Start_IT
 1093 0096 0346     		mov	r3, r0
 1094              		.loc 1 534 6
 1095 0098 002B     		cmp	r3, #0
 1096 009a 04D0     		beq	.L47
 1097 009c 01E0     		b	.L52
 1098              	.L43:
 519:Drivers/STM32L4xx_HAL_Driver/Src/stm32l4xx_hal_tim_ex.c ****   }
 1099              		.loc 1 519 12
 1100 009e 0123     		movs	r3, #1
 1101 00a0 39E0     		b	.L42
 1102              	.L52:
 535:Drivers/STM32L4xx_HAL_Driver/Src/stm32l4xx_hal_tim_ex.c ****   {
 536:Drivers/STM32L4xx_HAL_Driver/Src/stm32l4xx_hal_tim_ex.c ****     /* Return error status */
 537:Drivers/STM32L4xx_HAL_Driver/Src/stm32l4xx_hal_tim_ex.c ****     return HAL_ERROR;
 1103              		.loc 1 537 12
 1104 00a2 0123     		movs	r3, #1
 1105 00a4 37E0     		b	.L42
 1106              	.L47:
 538:Drivers/STM32L4xx_HAL_Driver/Src/stm32l4xx_hal_tim_ex.c ****   }
 539:Drivers/STM32L4xx_HAL_Driver/Src/stm32l4xx_hal_tim_ex.c ****   /* Enable the capture compare 1 Interrupt */
 540:Drivers/STM32L4xx_HAL_Driver/Src/stm32l4xx_hal_tim_ex.c ****   __HAL_TIM_ENABLE_DMA(htim, TIM_DMA_CC1);
 1107              		.loc 1 540 3
 1108 00a6 FB68     		ldr	r3, [r7, #12]
 1109 00a8 1B68     		ldr	r3, [r3]
 1110 00aa DA68     		ldr	r2, [r3, #12]
 1111 00ac FB68     		ldr	r3, [r7, #12]
 1112 00ae 1B68     		ldr	r3, [r3]
 1113 00b0 42F40072 		orr	r2, r2, #512
 1114 00b4 DA60     		str	r2, [r3, #12]
 541:Drivers/STM32L4xx_HAL_Driver/Src/stm32l4xx_hal_tim_ex.c **** 
 542:Drivers/STM32L4xx_HAL_Driver/Src/stm32l4xx_hal_tim_ex.c ****   /* Enable the Peripheral, except in trigger mode where enable is automatically done with trigger 
 543:Drivers/STM32L4xx_HAL_Driver/Src/stm32l4xx_hal_tim_ex.c ****   if (IS_TIM_SLAVE_INSTANCE(htim->Instance))
 1115              		.loc 1 543 7
 1116 00b6 FB68     		ldr	r3, [r7, #12]
 1117 00b8 1B68     		ldr	r3, [r3]
 1118              		.loc 1 543 6
 1119 00ba 1C4A     		ldr	r2, .L54+12
 1120 00bc 9342     		cmp	r3, r2
 1121 00be 09D0     		beq	.L48
ARM GAS  /tmp/ccR4xO3u.s 			page 30


 1122              		.loc 1 543 7 discriminator 1
 1123 00c0 FB68     		ldr	r3, [r7, #12]
 1124 00c2 1B68     		ldr	r3, [r3]
 1125 00c4 B3F1804F 		cmp	r3, #1073741824
 1126 00c8 04D0     		beq	.L48
 1127              		.loc 1 543 7 is_stmt 0 discriminator 2
 1128 00ca FB68     		ldr	r3, [r7, #12]
 1129 00cc 1B68     		ldr	r3, [r3]
 1130 00ce 184A     		ldr	r2, .L54+16
 1131 00d0 9342     		cmp	r3, r2
 1132 00d2 15D1     		bne	.L49
 1133              	.L48:
 544:Drivers/STM32L4xx_HAL_Driver/Src/stm32l4xx_hal_tim_ex.c ****   {
 545:Drivers/STM32L4xx_HAL_Driver/Src/stm32l4xx_hal_tim_ex.c ****     tmpsmcr = htim->Instance->SMCR & TIM_SMCR_SMS;
 1134              		.loc 1 545 19 is_stmt 1
 1135 00d4 FB68     		ldr	r3, [r7, #12]
 1136 00d6 1B68     		ldr	r3, [r3]
 1137              		.loc 1 545 29
 1138 00d8 9A68     		ldr	r2, [r3, #8]
 1139              		.loc 1 545 13
 1140 00da 164B     		ldr	r3, .L54+20
 1141 00dc 1340     		ands	r3, r3, r2
 1142 00de 3B61     		str	r3, [r7, #16]
 546:Drivers/STM32L4xx_HAL_Driver/Src/stm32l4xx_hal_tim_ex.c ****     if (!IS_TIM_SLAVEMODE_TRIGGER_ENABLED(tmpsmcr))
 1143              		.loc 1 546 8
 1144 00e0 3B69     		ldr	r3, [r7, #16]
 1145 00e2 062B     		cmp	r3, #6
 1146 00e4 15D0     		beq	.L53
 1147              		.loc 1 546 9 discriminator 1
 1148 00e6 3B69     		ldr	r3, [r7, #16]
 1149 00e8 B3F5803F 		cmp	r3, #65536
 1150 00ec 11D0     		beq	.L53
 547:Drivers/STM32L4xx_HAL_Driver/Src/stm32l4xx_hal_tim_ex.c ****     {
 548:Drivers/STM32L4xx_HAL_Driver/Src/stm32l4xx_hal_tim_ex.c ****       __HAL_TIM_ENABLE(htim);
 1151              		.loc 1 548 7
 1152 00ee FB68     		ldr	r3, [r7, #12]
 1153 00f0 1B68     		ldr	r3, [r3]
 1154 00f2 1A68     		ldr	r2, [r3]
 1155 00f4 FB68     		ldr	r3, [r7, #12]
 1156 00f6 1B68     		ldr	r3, [r3]
 1157 00f8 42F00102 		orr	r2, r2, #1
 1158 00fc 1A60     		str	r2, [r3]
 546:Drivers/STM32L4xx_HAL_Driver/Src/stm32l4xx_hal_tim_ex.c ****     if (!IS_TIM_SLAVEMODE_TRIGGER_ENABLED(tmpsmcr))
 1159              		.loc 1 546 8
 1160 00fe 08E0     		b	.L53
 1161              	.L49:
 549:Drivers/STM32L4xx_HAL_Driver/Src/stm32l4xx_hal_tim_ex.c ****     }
 550:Drivers/STM32L4xx_HAL_Driver/Src/stm32l4xx_hal_tim_ex.c ****   }
 551:Drivers/STM32L4xx_HAL_Driver/Src/stm32l4xx_hal_tim_ex.c ****   else
 552:Drivers/STM32L4xx_HAL_Driver/Src/stm32l4xx_hal_tim_ex.c ****   {
 553:Drivers/STM32L4xx_HAL_Driver/Src/stm32l4xx_hal_tim_ex.c ****     __HAL_TIM_ENABLE(htim);
 1162              		.loc 1 553 5
 1163 0100 FB68     		ldr	r3, [r7, #12]
 1164 0102 1B68     		ldr	r3, [r3]
 1165 0104 1A68     		ldr	r2, [r3]
 1166 0106 FB68     		ldr	r3, [r7, #12]
 1167 0108 1B68     		ldr	r3, [r3]
ARM GAS  /tmp/ccR4xO3u.s 			page 31


 1168 010a 42F00102 		orr	r2, r2, #1
 1169 010e 1A60     		str	r2, [r3]
 1170 0110 00E0     		b	.L51
 1171              	.L53:
 546:Drivers/STM32L4xx_HAL_Driver/Src/stm32l4xx_hal_tim_ex.c ****     {
 1172              		.loc 1 546 8
 1173 0112 00BF     		nop
 1174              	.L51:
 554:Drivers/STM32L4xx_HAL_Driver/Src/stm32l4xx_hal_tim_ex.c ****   }
 555:Drivers/STM32L4xx_HAL_Driver/Src/stm32l4xx_hal_tim_ex.c **** 
 556:Drivers/STM32L4xx_HAL_Driver/Src/stm32l4xx_hal_tim_ex.c ****   /* Return function status */
 557:Drivers/STM32L4xx_HAL_Driver/Src/stm32l4xx_hal_tim_ex.c ****   return HAL_OK;
 1175              		.loc 1 557 10
 1176 0114 0023     		movs	r3, #0
 1177              	.L42:
 558:Drivers/STM32L4xx_HAL_Driver/Src/stm32l4xx_hal_tim_ex.c **** }
 1178              		.loc 1 558 1
 1179 0116 1846     		mov	r0, r3
 1180 0118 1837     		adds	r7, r7, #24
 1181              	.LCFI45:
 1182              		.cfi_def_cfa_offset 8
 1183 011a BD46     		mov	sp, r7
 1184              	.LCFI46:
 1185              		.cfi_def_cfa_register 13
 1186              		@ sp needed
 1187 011c 80BD     		pop	{r7, pc}
 1188              	.L55:
 1189 011e 00BF     		.align	2
 1190              	.L54:
 1191 0120 00000000 		.word	TIM_DMACaptureCplt
 1192 0124 00000000 		.word	TIM_DMACaptureHalfCplt
 1193 0128 00000000 		.word	TIM_DMAError
 1194 012c 002C0140 		.word	1073818624
 1195 0130 00400140 		.word	1073823744
 1196 0134 07000100 		.word	65543
 1197              		.cfi_endproc
 1198              	.LFE140:
 1200              		.section	.text.HAL_TIMEx_HallSensor_Stop_DMA,"ax",%progbits
 1201              		.align	1
 1202              		.global	HAL_TIMEx_HallSensor_Stop_DMA
 1203              		.syntax unified
 1204              		.thumb
 1205              		.thumb_func
 1207              	HAL_TIMEx_HallSensor_Stop_DMA:
 1208              	.LFB141:
 559:Drivers/STM32L4xx_HAL_Driver/Src/stm32l4xx_hal_tim_ex.c **** 
 560:Drivers/STM32L4xx_HAL_Driver/Src/stm32l4xx_hal_tim_ex.c **** /**
 561:Drivers/STM32L4xx_HAL_Driver/Src/stm32l4xx_hal_tim_ex.c ****   * @brief  Stops the TIM Hall Sensor Interface in DMA mode.
 562:Drivers/STM32L4xx_HAL_Driver/Src/stm32l4xx_hal_tim_ex.c ****   * @param  htim TIM Hall Sensor Interface handle
 563:Drivers/STM32L4xx_HAL_Driver/Src/stm32l4xx_hal_tim_ex.c ****   * @retval HAL status
 564:Drivers/STM32L4xx_HAL_Driver/Src/stm32l4xx_hal_tim_ex.c ****   */
 565:Drivers/STM32L4xx_HAL_Driver/Src/stm32l4xx_hal_tim_ex.c **** HAL_StatusTypeDef HAL_TIMEx_HallSensor_Stop_DMA(TIM_HandleTypeDef *htim)
 566:Drivers/STM32L4xx_HAL_Driver/Src/stm32l4xx_hal_tim_ex.c **** {
 1209              		.loc 1 566 1
 1210              		.cfi_startproc
 1211              		@ args = 0, pretend = 0, frame = 8
 1212              		@ frame_needed = 1, uses_anonymous_args = 0
ARM GAS  /tmp/ccR4xO3u.s 			page 32


 1213 0000 80B5     		push	{r7, lr}
 1214              	.LCFI47:
 1215              		.cfi_def_cfa_offset 8
 1216              		.cfi_offset 7, -8
 1217              		.cfi_offset 14, -4
 1218 0002 82B0     		sub	sp, sp, #8
 1219              	.LCFI48:
 1220              		.cfi_def_cfa_offset 16
 1221 0004 00AF     		add	r7, sp, #0
 1222              	.LCFI49:
 1223              		.cfi_def_cfa_register 7
 1224 0006 7860     		str	r0, [r7, #4]
 567:Drivers/STM32L4xx_HAL_Driver/Src/stm32l4xx_hal_tim_ex.c ****   /* Check the parameters */
 568:Drivers/STM32L4xx_HAL_Driver/Src/stm32l4xx_hal_tim_ex.c ****   assert_param(IS_TIM_HALL_SENSOR_INTERFACE_INSTANCE(htim->Instance));
 569:Drivers/STM32L4xx_HAL_Driver/Src/stm32l4xx_hal_tim_ex.c **** 
 570:Drivers/STM32L4xx_HAL_Driver/Src/stm32l4xx_hal_tim_ex.c ****   /* Disable the Input Capture channel 1
 571:Drivers/STM32L4xx_HAL_Driver/Src/stm32l4xx_hal_tim_ex.c ****   (in the Hall Sensor Interface the three possible channels that can be used are TIM_CHANNEL_1,
 572:Drivers/STM32L4xx_HAL_Driver/Src/stm32l4xx_hal_tim_ex.c ****   TIM_CHANNEL_2 and TIM_CHANNEL_3) */
 573:Drivers/STM32L4xx_HAL_Driver/Src/stm32l4xx_hal_tim_ex.c ****   TIM_CCxChannelCmd(htim->Instance, TIM_CHANNEL_1, TIM_CCx_DISABLE);
 1225              		.loc 1 573 3
 1226 0008 7B68     		ldr	r3, [r7, #4]
 1227 000a 1B68     		ldr	r3, [r3]
 1228 000c 0022     		movs	r2, #0
 1229 000e 0021     		movs	r1, #0
 1230 0010 1846     		mov	r0, r3
 1231 0012 FFF7FEFF 		bl	TIM_CCxChannelCmd
 574:Drivers/STM32L4xx_HAL_Driver/Src/stm32l4xx_hal_tim_ex.c **** 
 575:Drivers/STM32L4xx_HAL_Driver/Src/stm32l4xx_hal_tim_ex.c **** 
 576:Drivers/STM32L4xx_HAL_Driver/Src/stm32l4xx_hal_tim_ex.c ****   /* Disable the capture compare Interrupts 1 event */
 577:Drivers/STM32L4xx_HAL_Driver/Src/stm32l4xx_hal_tim_ex.c ****   __HAL_TIM_DISABLE_DMA(htim, TIM_DMA_CC1);
 1232              		.loc 1 577 3
 1233 0016 7B68     		ldr	r3, [r7, #4]
 1234 0018 1B68     		ldr	r3, [r3]
 1235 001a DA68     		ldr	r2, [r3, #12]
 1236 001c 7B68     		ldr	r3, [r7, #4]
 1237 001e 1B68     		ldr	r3, [r3]
 1238 0020 22F40072 		bic	r2, r2, #512
 1239 0024 DA60     		str	r2, [r3, #12]
 578:Drivers/STM32L4xx_HAL_Driver/Src/stm32l4xx_hal_tim_ex.c **** 
 579:Drivers/STM32L4xx_HAL_Driver/Src/stm32l4xx_hal_tim_ex.c ****   (void)HAL_DMA_Abort_IT(htim->hdma[TIM_DMA_ID_CC1]);
 1240              		.loc 1 579 9
 1241 0026 7B68     		ldr	r3, [r7, #4]
 1242 0028 5B6A     		ldr	r3, [r3, #36]
 1243 002a 1846     		mov	r0, r3
 1244 002c FFF7FEFF 		bl	HAL_DMA_Abort_IT
 580:Drivers/STM32L4xx_HAL_Driver/Src/stm32l4xx_hal_tim_ex.c **** 
 581:Drivers/STM32L4xx_HAL_Driver/Src/stm32l4xx_hal_tim_ex.c ****   /* Disable the Peripheral */
 582:Drivers/STM32L4xx_HAL_Driver/Src/stm32l4xx_hal_tim_ex.c ****   __HAL_TIM_DISABLE(htim);
 1245              		.loc 1 582 3
 1246 0030 7B68     		ldr	r3, [r7, #4]
 1247 0032 1B68     		ldr	r3, [r3]
 1248 0034 1A6A     		ldr	r2, [r3, #32]
 1249 0036 41F21113 		movw	r3, #4369
 1250 003a 1340     		ands	r3, r3, r2
 1251 003c 002B     		cmp	r3, #0
 1252 003e 0FD1     		bne	.L57
 1253              		.loc 1 582 3 is_stmt 0 discriminator 1
ARM GAS  /tmp/ccR4xO3u.s 			page 33


 1254 0040 7B68     		ldr	r3, [r7, #4]
 1255 0042 1B68     		ldr	r3, [r3]
 1256 0044 1A6A     		ldr	r2, [r3, #32]
 1257 0046 40F24443 		movw	r3, #1092
 1258 004a 1340     		ands	r3, r3, r2
 1259 004c 002B     		cmp	r3, #0
 1260 004e 07D1     		bne	.L57
 1261              		.loc 1 582 3 discriminator 2
 1262 0050 7B68     		ldr	r3, [r7, #4]
 1263 0052 1B68     		ldr	r3, [r3]
 1264 0054 1A68     		ldr	r2, [r3]
 1265 0056 7B68     		ldr	r3, [r7, #4]
 1266 0058 1B68     		ldr	r3, [r3]
 1267 005a 22F00102 		bic	r2, r2, #1
 1268 005e 1A60     		str	r2, [r3]
 1269              	.L57:
 583:Drivers/STM32L4xx_HAL_Driver/Src/stm32l4xx_hal_tim_ex.c **** 
 584:Drivers/STM32L4xx_HAL_Driver/Src/stm32l4xx_hal_tim_ex.c ****   /* Set the TIM channel state */
 585:Drivers/STM32L4xx_HAL_Driver/Src/stm32l4xx_hal_tim_ex.c ****   TIM_CHANNEL_STATE_SET(htim, TIM_CHANNEL_1, HAL_TIM_CHANNEL_STATE_READY);
 1270              		.loc 1 585 3 is_stmt 1
 1271 0060 7B68     		ldr	r3, [r7, #4]
 1272 0062 0122     		movs	r2, #1
 1273 0064 83F83E20 		strb	r2, [r3, #62]
 586:Drivers/STM32L4xx_HAL_Driver/Src/stm32l4xx_hal_tim_ex.c ****   TIM_CHANNEL_N_STATE_SET(htim, TIM_CHANNEL_1, HAL_TIM_CHANNEL_STATE_READY);
 1274              		.loc 1 586 3
 1275 0068 7B68     		ldr	r3, [r7, #4]
 1276 006a 0122     		movs	r2, #1
 1277 006c 83F84420 		strb	r2, [r3, #68]
 587:Drivers/STM32L4xx_HAL_Driver/Src/stm32l4xx_hal_tim_ex.c **** 
 588:Drivers/STM32L4xx_HAL_Driver/Src/stm32l4xx_hal_tim_ex.c ****   /* Return function status */
 589:Drivers/STM32L4xx_HAL_Driver/Src/stm32l4xx_hal_tim_ex.c ****   return HAL_OK;
 1278              		.loc 1 589 10
 1279 0070 0023     		movs	r3, #0
 590:Drivers/STM32L4xx_HAL_Driver/Src/stm32l4xx_hal_tim_ex.c **** }
 1280              		.loc 1 590 1
 1281 0072 1846     		mov	r0, r3
 1282 0074 0837     		adds	r7, r7, #8
 1283              	.LCFI50:
 1284              		.cfi_def_cfa_offset 8
 1285 0076 BD46     		mov	sp, r7
 1286              	.LCFI51:
 1287              		.cfi_def_cfa_register 13
 1288              		@ sp needed
 1289 0078 80BD     		pop	{r7, pc}
 1290              		.cfi_endproc
 1291              	.LFE141:
 1293              		.section	.text.HAL_TIMEx_OCN_Start,"ax",%progbits
 1294              		.align	1
 1295              		.global	HAL_TIMEx_OCN_Start
 1296              		.syntax unified
 1297              		.thumb
 1298              		.thumb_func
 1300              	HAL_TIMEx_OCN_Start:
 1301              	.LFB142:
 591:Drivers/STM32L4xx_HAL_Driver/Src/stm32l4xx_hal_tim_ex.c **** 
 592:Drivers/STM32L4xx_HAL_Driver/Src/stm32l4xx_hal_tim_ex.c **** /**
 593:Drivers/STM32L4xx_HAL_Driver/Src/stm32l4xx_hal_tim_ex.c ****   * @}
ARM GAS  /tmp/ccR4xO3u.s 			page 34


 594:Drivers/STM32L4xx_HAL_Driver/Src/stm32l4xx_hal_tim_ex.c ****   */
 595:Drivers/STM32L4xx_HAL_Driver/Src/stm32l4xx_hal_tim_ex.c **** 
 596:Drivers/STM32L4xx_HAL_Driver/Src/stm32l4xx_hal_tim_ex.c **** /** @defgroup TIMEx_Exported_Functions_Group2 Extended Timer Complementary Output Compare functions
 597:Drivers/STM32L4xx_HAL_Driver/Src/stm32l4xx_hal_tim_ex.c ****   *  @brief   Timer Complementary Output Compare functions
 598:Drivers/STM32L4xx_HAL_Driver/Src/stm32l4xx_hal_tim_ex.c ****   *
 599:Drivers/STM32L4xx_HAL_Driver/Src/stm32l4xx_hal_tim_ex.c **** @verbatim
 600:Drivers/STM32L4xx_HAL_Driver/Src/stm32l4xx_hal_tim_ex.c ****   ==============================================================================
 601:Drivers/STM32L4xx_HAL_Driver/Src/stm32l4xx_hal_tim_ex.c ****               ##### Timer Complementary Output Compare functions #####
 602:Drivers/STM32L4xx_HAL_Driver/Src/stm32l4xx_hal_tim_ex.c ****   ==============================================================================
 603:Drivers/STM32L4xx_HAL_Driver/Src/stm32l4xx_hal_tim_ex.c ****   [..]
 604:Drivers/STM32L4xx_HAL_Driver/Src/stm32l4xx_hal_tim_ex.c ****     This section provides functions allowing to:
 605:Drivers/STM32L4xx_HAL_Driver/Src/stm32l4xx_hal_tim_ex.c ****     (+) Start the Complementary Output Compare/PWM.
 606:Drivers/STM32L4xx_HAL_Driver/Src/stm32l4xx_hal_tim_ex.c ****     (+) Stop the Complementary Output Compare/PWM.
 607:Drivers/STM32L4xx_HAL_Driver/Src/stm32l4xx_hal_tim_ex.c ****     (+) Start the Complementary Output Compare/PWM and enable interrupts.
 608:Drivers/STM32L4xx_HAL_Driver/Src/stm32l4xx_hal_tim_ex.c ****     (+) Stop the Complementary Output Compare/PWM and disable interrupts.
 609:Drivers/STM32L4xx_HAL_Driver/Src/stm32l4xx_hal_tim_ex.c ****     (+) Start the Complementary Output Compare/PWM and enable DMA transfers.
 610:Drivers/STM32L4xx_HAL_Driver/Src/stm32l4xx_hal_tim_ex.c ****     (+) Stop the Complementary Output Compare/PWM and disable DMA transfers.
 611:Drivers/STM32L4xx_HAL_Driver/Src/stm32l4xx_hal_tim_ex.c **** 
 612:Drivers/STM32L4xx_HAL_Driver/Src/stm32l4xx_hal_tim_ex.c **** @endverbatim
 613:Drivers/STM32L4xx_HAL_Driver/Src/stm32l4xx_hal_tim_ex.c ****   * @{
 614:Drivers/STM32L4xx_HAL_Driver/Src/stm32l4xx_hal_tim_ex.c ****   */
 615:Drivers/STM32L4xx_HAL_Driver/Src/stm32l4xx_hal_tim_ex.c **** 
 616:Drivers/STM32L4xx_HAL_Driver/Src/stm32l4xx_hal_tim_ex.c **** /**
 617:Drivers/STM32L4xx_HAL_Driver/Src/stm32l4xx_hal_tim_ex.c ****   * @brief  Starts the TIM Output Compare signal generation on the complementary
 618:Drivers/STM32L4xx_HAL_Driver/Src/stm32l4xx_hal_tim_ex.c ****   *         output.
 619:Drivers/STM32L4xx_HAL_Driver/Src/stm32l4xx_hal_tim_ex.c ****   * @param  htim TIM Output Compare handle
 620:Drivers/STM32L4xx_HAL_Driver/Src/stm32l4xx_hal_tim_ex.c ****   * @param  Channel TIM Channel to be enabled
 621:Drivers/STM32L4xx_HAL_Driver/Src/stm32l4xx_hal_tim_ex.c ****   *          This parameter can be one of the following values:
 622:Drivers/STM32L4xx_HAL_Driver/Src/stm32l4xx_hal_tim_ex.c ****   *            @arg TIM_CHANNEL_1: TIM Channel 1 selected
 623:Drivers/STM32L4xx_HAL_Driver/Src/stm32l4xx_hal_tim_ex.c ****   *            @arg TIM_CHANNEL_2: TIM Channel 2 selected
 624:Drivers/STM32L4xx_HAL_Driver/Src/stm32l4xx_hal_tim_ex.c ****   *            @arg TIM_CHANNEL_3: TIM Channel 3 selected
 625:Drivers/STM32L4xx_HAL_Driver/Src/stm32l4xx_hal_tim_ex.c ****   * @retval HAL status
 626:Drivers/STM32L4xx_HAL_Driver/Src/stm32l4xx_hal_tim_ex.c ****   */
 627:Drivers/STM32L4xx_HAL_Driver/Src/stm32l4xx_hal_tim_ex.c **** HAL_StatusTypeDef HAL_TIMEx_OCN_Start(TIM_HandleTypeDef *htim, uint32_t Channel)
 628:Drivers/STM32L4xx_HAL_Driver/Src/stm32l4xx_hal_tim_ex.c **** {
 1302              		.loc 1 628 1
 1303              		.cfi_startproc
 1304              		@ args = 0, pretend = 0, frame = 16
 1305              		@ frame_needed = 1, uses_anonymous_args = 0
 1306 0000 80B5     		push	{r7, lr}
 1307              	.LCFI52:
 1308              		.cfi_def_cfa_offset 8
 1309              		.cfi_offset 7, -8
 1310              		.cfi_offset 14, -4
 1311 0002 84B0     		sub	sp, sp, #16
 1312              	.LCFI53:
 1313              		.cfi_def_cfa_offset 24
 1314 0004 00AF     		add	r7, sp, #0
 1315              	.LCFI54:
 1316              		.cfi_def_cfa_register 7
 1317 0006 7860     		str	r0, [r7, #4]
 1318 0008 3960     		str	r1, [r7]
 629:Drivers/STM32L4xx_HAL_Driver/Src/stm32l4xx_hal_tim_ex.c ****   uint32_t tmpsmcr;
 630:Drivers/STM32L4xx_HAL_Driver/Src/stm32l4xx_hal_tim_ex.c **** 
 631:Drivers/STM32L4xx_HAL_Driver/Src/stm32l4xx_hal_tim_ex.c ****   /* Check the parameters */
 632:Drivers/STM32L4xx_HAL_Driver/Src/stm32l4xx_hal_tim_ex.c ****   assert_param(IS_TIM_CCXN_INSTANCE(htim->Instance, Channel));
 633:Drivers/STM32L4xx_HAL_Driver/Src/stm32l4xx_hal_tim_ex.c **** 
ARM GAS  /tmp/ccR4xO3u.s 			page 35


 634:Drivers/STM32L4xx_HAL_Driver/Src/stm32l4xx_hal_tim_ex.c ****   /* Check the TIM complementary channel state */
 635:Drivers/STM32L4xx_HAL_Driver/Src/stm32l4xx_hal_tim_ex.c ****   if (TIM_CHANNEL_N_STATE_GET(htim, Channel) != HAL_TIM_CHANNEL_STATE_READY)
 1319              		.loc 1 635 46
 1320 000a 3B68     		ldr	r3, [r7]
 1321 000c 002B     		cmp	r3, #0
 1322 000e 09D1     		bne	.L60
 1323              		.loc 1 635 7 discriminator 1
 1324 0010 7B68     		ldr	r3, [r7, #4]
 1325 0012 93F84430 		ldrb	r3, [r3, #68]
 1326 0016 DBB2     		uxtb	r3, r3
 1327              		.loc 1 635 46 discriminator 1
 1328 0018 012B     		cmp	r3, #1
 1329 001a 14BF     		ite	ne
 1330 001c 0123     		movne	r3, #1
 1331 001e 0023     		moveq	r3, #0
 1332 0020 DBB2     		uxtb	r3, r3
 1333 0022 22E0     		b	.L61
 1334              	.L60:
 1335              		.loc 1 635 46 is_stmt 0 discriminator 2
 1336 0024 3B68     		ldr	r3, [r7]
 1337 0026 042B     		cmp	r3, #4
 1338 0028 09D1     		bne	.L62
 1339              		.loc 1 635 7 is_stmt 1 discriminator 4
 1340 002a 7B68     		ldr	r3, [r7, #4]
 1341 002c 93F84530 		ldrb	r3, [r3, #69]
 1342 0030 DBB2     		uxtb	r3, r3
 1343              		.loc 1 635 46 discriminator 4
 1344 0032 012B     		cmp	r3, #1
 1345 0034 14BF     		ite	ne
 1346 0036 0123     		movne	r3, #1
 1347 0038 0023     		moveq	r3, #0
 1348 003a DBB2     		uxtb	r3, r3
 1349 003c 15E0     		b	.L61
 1350              	.L62:
 1351              		.loc 1 635 46 is_stmt 0 discriminator 5
 1352 003e 3B68     		ldr	r3, [r7]
 1353 0040 082B     		cmp	r3, #8
 1354 0042 09D1     		bne	.L64
 1355              		.loc 1 635 7 is_stmt 1 discriminator 7
 1356 0044 7B68     		ldr	r3, [r7, #4]
 1357 0046 93F84630 		ldrb	r3, [r3, #70]
 1358 004a DBB2     		uxtb	r3, r3
 1359              		.loc 1 635 46 discriminator 7
 1360 004c 012B     		cmp	r3, #1
 1361 004e 14BF     		ite	ne
 1362 0050 0123     		movne	r3, #1
 1363 0052 0023     		moveq	r3, #0
 1364 0054 DBB2     		uxtb	r3, r3
 1365 0056 08E0     		b	.L61
 1366              	.L64:
 1367              		.loc 1 635 7 discriminator 8
 1368 0058 7B68     		ldr	r3, [r7, #4]
 1369 005a 93F84730 		ldrb	r3, [r3, #71]
 1370 005e DBB2     		uxtb	r3, r3
 1371              		.loc 1 635 46 discriminator 8
 1372 0060 012B     		cmp	r3, #1
 1373 0062 14BF     		ite	ne
ARM GAS  /tmp/ccR4xO3u.s 			page 36


 1374 0064 0123     		movne	r3, #1
 1375 0066 0023     		moveq	r3, #0
 1376 0068 DBB2     		uxtb	r3, r3
 1377              	.L61:
 1378              		.loc 1 635 6 discriminator 12
 1379 006a 002B     		cmp	r3, #0
 1380 006c 01D0     		beq	.L66
 636:Drivers/STM32L4xx_HAL_Driver/Src/stm32l4xx_hal_tim_ex.c ****   {
 637:Drivers/STM32L4xx_HAL_Driver/Src/stm32l4xx_hal_tim_ex.c ****     return HAL_ERROR;
 1381              		.loc 1 637 12
 1382 006e 0123     		movs	r3, #1
 1383 0070 5AE0     		b	.L67
 1384              	.L66:
 638:Drivers/STM32L4xx_HAL_Driver/Src/stm32l4xx_hal_tim_ex.c ****   }
 639:Drivers/STM32L4xx_HAL_Driver/Src/stm32l4xx_hal_tim_ex.c **** 
 640:Drivers/STM32L4xx_HAL_Driver/Src/stm32l4xx_hal_tim_ex.c ****   /* Set the TIM complementary channel state */
 641:Drivers/STM32L4xx_HAL_Driver/Src/stm32l4xx_hal_tim_ex.c ****   TIM_CHANNEL_N_STATE_SET(htim, Channel, HAL_TIM_CHANNEL_STATE_BUSY);
 1385              		.loc 1 641 3
 1386 0072 3B68     		ldr	r3, [r7]
 1387 0074 002B     		cmp	r3, #0
 1388 0076 04D1     		bne	.L68
 1389              		.loc 1 641 3 is_stmt 0 discriminator 1
 1390 0078 7B68     		ldr	r3, [r7, #4]
 1391 007a 0222     		movs	r2, #2
 1392 007c 83F84420 		strb	r2, [r3, #68]
 1393 0080 13E0     		b	.L69
 1394              	.L68:
 1395              		.loc 1 641 3 discriminator 2
 1396 0082 3B68     		ldr	r3, [r7]
 1397 0084 042B     		cmp	r3, #4
 1398 0086 04D1     		bne	.L70
 1399              		.loc 1 641 3 discriminator 3
 1400 0088 7B68     		ldr	r3, [r7, #4]
 1401 008a 0222     		movs	r2, #2
 1402 008c 83F84520 		strb	r2, [r3, #69]
 1403 0090 0BE0     		b	.L69
 1404              	.L70:
 1405              		.loc 1 641 3 discriminator 4
 1406 0092 3B68     		ldr	r3, [r7]
 1407 0094 082B     		cmp	r3, #8
 1408 0096 04D1     		bne	.L72
 1409              		.loc 1 641 3 discriminator 6
 1410 0098 7B68     		ldr	r3, [r7, #4]
 1411 009a 0222     		movs	r2, #2
 1412 009c 83F84620 		strb	r2, [r3, #70]
 1413 00a0 03E0     		b	.L69
 1414              	.L72:
 1415              		.loc 1 641 3 discriminator 7
 1416 00a2 7B68     		ldr	r3, [r7, #4]
 1417 00a4 0222     		movs	r2, #2
 1418 00a6 83F84720 		strb	r2, [r3, #71]
 1419              	.L69:
 642:Drivers/STM32L4xx_HAL_Driver/Src/stm32l4xx_hal_tim_ex.c **** 
 643:Drivers/STM32L4xx_HAL_Driver/Src/stm32l4xx_hal_tim_ex.c ****   /* Enable the Capture compare channel N */
 644:Drivers/STM32L4xx_HAL_Driver/Src/stm32l4xx_hal_tim_ex.c ****   TIM_CCxNChannelCmd(htim->Instance, Channel, TIM_CCxN_ENABLE);
 1420              		.loc 1 644 3 is_stmt 1
 1421 00aa 7B68     		ldr	r3, [r7, #4]
ARM GAS  /tmp/ccR4xO3u.s 			page 37


 1422 00ac 1B68     		ldr	r3, [r3]
 1423 00ae 0422     		movs	r2, #4
 1424 00b0 3968     		ldr	r1, [r7]
 1425 00b2 1846     		mov	r0, r3
 1426 00b4 FFF7FEFF 		bl	TIM_CCxNChannelCmd
 645:Drivers/STM32L4xx_HAL_Driver/Src/stm32l4xx_hal_tim_ex.c **** 
 646:Drivers/STM32L4xx_HAL_Driver/Src/stm32l4xx_hal_tim_ex.c ****   /* Enable the Main Output */
 647:Drivers/STM32L4xx_HAL_Driver/Src/stm32l4xx_hal_tim_ex.c ****   __HAL_TIM_MOE_ENABLE(htim);
 1427              		.loc 1 647 3
 1428 00b8 7B68     		ldr	r3, [r7, #4]
 1429 00ba 1B68     		ldr	r3, [r3]
 1430 00bc 5A6C     		ldr	r2, [r3, #68]
 1431 00be 7B68     		ldr	r3, [r7, #4]
 1432 00c0 1B68     		ldr	r3, [r3]
 1433 00c2 42F40042 		orr	r2, r2, #32768
 1434 00c6 5A64     		str	r2, [r3, #68]
 648:Drivers/STM32L4xx_HAL_Driver/Src/stm32l4xx_hal_tim_ex.c **** 
 649:Drivers/STM32L4xx_HAL_Driver/Src/stm32l4xx_hal_tim_ex.c ****   /* Enable the Peripheral, except in trigger mode where enable is automatically done with trigger 
 650:Drivers/STM32L4xx_HAL_Driver/Src/stm32l4xx_hal_tim_ex.c ****   if (IS_TIM_SLAVE_INSTANCE(htim->Instance))
 1435              		.loc 1 650 7
 1436 00c8 7B68     		ldr	r3, [r7, #4]
 1437 00ca 1B68     		ldr	r3, [r3]
 1438              		.loc 1 650 6
 1439 00cc 184A     		ldr	r2, .L79
 1440 00ce 9342     		cmp	r3, r2
 1441 00d0 09D0     		beq	.L74
 1442              		.loc 1 650 7 discriminator 1
 1443 00d2 7B68     		ldr	r3, [r7, #4]
 1444 00d4 1B68     		ldr	r3, [r3]
 1445 00d6 B3F1804F 		cmp	r3, #1073741824
 1446 00da 04D0     		beq	.L74
 1447              		.loc 1 650 7 is_stmt 0 discriminator 2
 1448 00dc 7B68     		ldr	r3, [r7, #4]
 1449 00de 1B68     		ldr	r3, [r3]
 1450 00e0 144A     		ldr	r2, .L79+4
 1451 00e2 9342     		cmp	r3, r2
 1452 00e4 15D1     		bne	.L75
 1453              	.L74:
 651:Drivers/STM32L4xx_HAL_Driver/Src/stm32l4xx_hal_tim_ex.c ****   {
 652:Drivers/STM32L4xx_HAL_Driver/Src/stm32l4xx_hal_tim_ex.c ****     tmpsmcr = htim->Instance->SMCR & TIM_SMCR_SMS;
 1454              		.loc 1 652 19 is_stmt 1
 1455 00e6 7B68     		ldr	r3, [r7, #4]
 1456 00e8 1B68     		ldr	r3, [r3]
 1457              		.loc 1 652 29
 1458 00ea 9A68     		ldr	r2, [r3, #8]
 1459              		.loc 1 652 13
 1460 00ec 124B     		ldr	r3, .L79+8
 1461 00ee 1340     		ands	r3, r3, r2
 1462 00f0 FB60     		str	r3, [r7, #12]
 653:Drivers/STM32L4xx_HAL_Driver/Src/stm32l4xx_hal_tim_ex.c ****     if (!IS_TIM_SLAVEMODE_TRIGGER_ENABLED(tmpsmcr))
 1463              		.loc 1 653 8
 1464 00f2 FB68     		ldr	r3, [r7, #12]
 1465 00f4 062B     		cmp	r3, #6
 1466 00f6 15D0     		beq	.L78
 1467              		.loc 1 653 9 discriminator 1
 1468 00f8 FB68     		ldr	r3, [r7, #12]
 1469 00fa B3F5803F 		cmp	r3, #65536
ARM GAS  /tmp/ccR4xO3u.s 			page 38


 1470 00fe 11D0     		beq	.L78
 654:Drivers/STM32L4xx_HAL_Driver/Src/stm32l4xx_hal_tim_ex.c ****     {
 655:Drivers/STM32L4xx_HAL_Driver/Src/stm32l4xx_hal_tim_ex.c ****       __HAL_TIM_ENABLE(htim);
 1471              		.loc 1 655 7
 1472 0100 7B68     		ldr	r3, [r7, #4]
 1473 0102 1B68     		ldr	r3, [r3]
 1474 0104 1A68     		ldr	r2, [r3]
 1475 0106 7B68     		ldr	r3, [r7, #4]
 1476 0108 1B68     		ldr	r3, [r3]
 1477 010a 42F00102 		orr	r2, r2, #1
 1478 010e 1A60     		str	r2, [r3]
 653:Drivers/STM32L4xx_HAL_Driver/Src/stm32l4xx_hal_tim_ex.c ****     if (!IS_TIM_SLAVEMODE_TRIGGER_ENABLED(tmpsmcr))
 1479              		.loc 1 653 8
 1480 0110 08E0     		b	.L78
 1481              	.L75:
 656:Drivers/STM32L4xx_HAL_Driver/Src/stm32l4xx_hal_tim_ex.c ****     }
 657:Drivers/STM32L4xx_HAL_Driver/Src/stm32l4xx_hal_tim_ex.c ****   }
 658:Drivers/STM32L4xx_HAL_Driver/Src/stm32l4xx_hal_tim_ex.c ****   else
 659:Drivers/STM32L4xx_HAL_Driver/Src/stm32l4xx_hal_tim_ex.c ****   {
 660:Drivers/STM32L4xx_HAL_Driver/Src/stm32l4xx_hal_tim_ex.c ****     __HAL_TIM_ENABLE(htim);
 1482              		.loc 1 660 5
 1483 0112 7B68     		ldr	r3, [r7, #4]
 1484 0114 1B68     		ldr	r3, [r3]
 1485 0116 1A68     		ldr	r2, [r3]
 1486 0118 7B68     		ldr	r3, [r7, #4]
 1487 011a 1B68     		ldr	r3, [r3]
 1488 011c 42F00102 		orr	r2, r2, #1
 1489 0120 1A60     		str	r2, [r3]
 1490 0122 00E0     		b	.L77
 1491              	.L78:
 653:Drivers/STM32L4xx_HAL_Driver/Src/stm32l4xx_hal_tim_ex.c ****     {
 1492              		.loc 1 653 8
 1493 0124 00BF     		nop
 1494              	.L77:
 661:Drivers/STM32L4xx_HAL_Driver/Src/stm32l4xx_hal_tim_ex.c ****   }
 662:Drivers/STM32L4xx_HAL_Driver/Src/stm32l4xx_hal_tim_ex.c **** 
 663:Drivers/STM32L4xx_HAL_Driver/Src/stm32l4xx_hal_tim_ex.c ****   /* Return function status */
 664:Drivers/STM32L4xx_HAL_Driver/Src/stm32l4xx_hal_tim_ex.c ****   return HAL_OK;
 1495              		.loc 1 664 10
 1496 0126 0023     		movs	r3, #0
 1497              	.L67:
 665:Drivers/STM32L4xx_HAL_Driver/Src/stm32l4xx_hal_tim_ex.c **** }
 1498              		.loc 1 665 1
 1499 0128 1846     		mov	r0, r3
 1500 012a 1037     		adds	r7, r7, #16
 1501              	.LCFI55:
 1502              		.cfi_def_cfa_offset 8
 1503 012c BD46     		mov	sp, r7
 1504              	.LCFI56:
 1505              		.cfi_def_cfa_register 13
 1506              		@ sp needed
 1507 012e 80BD     		pop	{r7, pc}
 1508              	.L80:
 1509              		.align	2
 1510              	.L79:
 1511 0130 002C0140 		.word	1073818624
 1512 0134 00400140 		.word	1073823744
ARM GAS  /tmp/ccR4xO3u.s 			page 39


 1513 0138 07000100 		.word	65543
 1514              		.cfi_endproc
 1515              	.LFE142:
 1517              		.section	.text.HAL_TIMEx_OCN_Stop,"ax",%progbits
 1518              		.align	1
 1519              		.global	HAL_TIMEx_OCN_Stop
 1520              		.syntax unified
 1521              		.thumb
 1522              		.thumb_func
 1524              	HAL_TIMEx_OCN_Stop:
 1525              	.LFB143:
 666:Drivers/STM32L4xx_HAL_Driver/Src/stm32l4xx_hal_tim_ex.c **** 
 667:Drivers/STM32L4xx_HAL_Driver/Src/stm32l4xx_hal_tim_ex.c **** /**
 668:Drivers/STM32L4xx_HAL_Driver/Src/stm32l4xx_hal_tim_ex.c ****   * @brief  Stops the TIM Output Compare signal generation on the complementary
 669:Drivers/STM32L4xx_HAL_Driver/Src/stm32l4xx_hal_tim_ex.c ****   *         output.
 670:Drivers/STM32L4xx_HAL_Driver/Src/stm32l4xx_hal_tim_ex.c ****   * @param  htim TIM handle
 671:Drivers/STM32L4xx_HAL_Driver/Src/stm32l4xx_hal_tim_ex.c ****   * @param  Channel TIM Channel to be disabled
 672:Drivers/STM32L4xx_HAL_Driver/Src/stm32l4xx_hal_tim_ex.c ****   *          This parameter can be one of the following values:
 673:Drivers/STM32L4xx_HAL_Driver/Src/stm32l4xx_hal_tim_ex.c ****   *            @arg TIM_CHANNEL_1: TIM Channel 1 selected
 674:Drivers/STM32L4xx_HAL_Driver/Src/stm32l4xx_hal_tim_ex.c ****   *            @arg TIM_CHANNEL_2: TIM Channel 2 selected
 675:Drivers/STM32L4xx_HAL_Driver/Src/stm32l4xx_hal_tim_ex.c ****   *            @arg TIM_CHANNEL_3: TIM Channel 3 selected
 676:Drivers/STM32L4xx_HAL_Driver/Src/stm32l4xx_hal_tim_ex.c ****   * @retval HAL status
 677:Drivers/STM32L4xx_HAL_Driver/Src/stm32l4xx_hal_tim_ex.c ****   */
 678:Drivers/STM32L4xx_HAL_Driver/Src/stm32l4xx_hal_tim_ex.c **** HAL_StatusTypeDef HAL_TIMEx_OCN_Stop(TIM_HandleTypeDef *htim, uint32_t Channel)
 679:Drivers/STM32L4xx_HAL_Driver/Src/stm32l4xx_hal_tim_ex.c **** {
 1526              		.loc 1 679 1
 1527              		.cfi_startproc
 1528              		@ args = 0, pretend = 0, frame = 8
 1529              		@ frame_needed = 1, uses_anonymous_args = 0
 1530 0000 80B5     		push	{r7, lr}
 1531              	.LCFI57:
 1532              		.cfi_def_cfa_offset 8
 1533              		.cfi_offset 7, -8
 1534              		.cfi_offset 14, -4
 1535 0002 82B0     		sub	sp, sp, #8
 1536              	.LCFI58:
 1537              		.cfi_def_cfa_offset 16
 1538 0004 00AF     		add	r7, sp, #0
 1539              	.LCFI59:
 1540              		.cfi_def_cfa_register 7
 1541 0006 7860     		str	r0, [r7, #4]
 1542 0008 3960     		str	r1, [r7]
 680:Drivers/STM32L4xx_HAL_Driver/Src/stm32l4xx_hal_tim_ex.c ****   /* Check the parameters */
 681:Drivers/STM32L4xx_HAL_Driver/Src/stm32l4xx_hal_tim_ex.c ****   assert_param(IS_TIM_CCXN_INSTANCE(htim->Instance, Channel));
 682:Drivers/STM32L4xx_HAL_Driver/Src/stm32l4xx_hal_tim_ex.c **** 
 683:Drivers/STM32L4xx_HAL_Driver/Src/stm32l4xx_hal_tim_ex.c ****   /* Disable the Capture compare channel N */
 684:Drivers/STM32L4xx_HAL_Driver/Src/stm32l4xx_hal_tim_ex.c ****   TIM_CCxNChannelCmd(htim->Instance, Channel, TIM_CCxN_DISABLE);
 1543              		.loc 1 684 3
 1544 000a 7B68     		ldr	r3, [r7, #4]
 1545 000c 1B68     		ldr	r3, [r3]
 1546 000e 0022     		movs	r2, #0
 1547 0010 3968     		ldr	r1, [r7]
 1548 0012 1846     		mov	r0, r3
 1549 0014 FFF7FEFF 		bl	TIM_CCxNChannelCmd
 685:Drivers/STM32L4xx_HAL_Driver/Src/stm32l4xx_hal_tim_ex.c **** 
 686:Drivers/STM32L4xx_HAL_Driver/Src/stm32l4xx_hal_tim_ex.c ****   /* Disable the Main Output */
 687:Drivers/STM32L4xx_HAL_Driver/Src/stm32l4xx_hal_tim_ex.c ****   __HAL_TIM_MOE_DISABLE(htim);
ARM GAS  /tmp/ccR4xO3u.s 			page 40


 1550              		.loc 1 687 3
 1551 0018 7B68     		ldr	r3, [r7, #4]
 1552 001a 1B68     		ldr	r3, [r3]
 1553 001c 1A6A     		ldr	r2, [r3, #32]
 1554 001e 41F21113 		movw	r3, #4369
 1555 0022 1340     		ands	r3, r3, r2
 1556 0024 002B     		cmp	r3, #0
 1557 0026 0FD1     		bne	.L82
 1558              		.loc 1 687 3 is_stmt 0 discriminator 1
 1559 0028 7B68     		ldr	r3, [r7, #4]
 1560 002a 1B68     		ldr	r3, [r3]
 1561 002c 1A6A     		ldr	r2, [r3, #32]
 1562 002e 40F24443 		movw	r3, #1092
 1563 0032 1340     		ands	r3, r3, r2
 1564 0034 002B     		cmp	r3, #0
 1565 0036 07D1     		bne	.L82
 1566              		.loc 1 687 3 discriminator 2
 1567 0038 7B68     		ldr	r3, [r7, #4]
 1568 003a 1B68     		ldr	r3, [r3]
 1569 003c 5A6C     		ldr	r2, [r3, #68]
 1570 003e 7B68     		ldr	r3, [r7, #4]
 1571 0040 1B68     		ldr	r3, [r3]
 1572 0042 22F40042 		bic	r2, r2, #32768
 1573 0046 5A64     		str	r2, [r3, #68]
 1574              	.L82:
 688:Drivers/STM32L4xx_HAL_Driver/Src/stm32l4xx_hal_tim_ex.c **** 
 689:Drivers/STM32L4xx_HAL_Driver/Src/stm32l4xx_hal_tim_ex.c ****   /* Disable the Peripheral */
 690:Drivers/STM32L4xx_HAL_Driver/Src/stm32l4xx_hal_tim_ex.c ****   __HAL_TIM_DISABLE(htim);
 1575              		.loc 1 690 3 is_stmt 1
 1576 0048 7B68     		ldr	r3, [r7, #4]
 1577 004a 1B68     		ldr	r3, [r3]
 1578 004c 1A6A     		ldr	r2, [r3, #32]
 1579 004e 41F21113 		movw	r3, #4369
 1580 0052 1340     		ands	r3, r3, r2
 1581 0054 002B     		cmp	r3, #0
 1582 0056 0FD1     		bne	.L83
 1583              		.loc 1 690 3 is_stmt 0 discriminator 1
 1584 0058 7B68     		ldr	r3, [r7, #4]
 1585 005a 1B68     		ldr	r3, [r3]
 1586 005c 1A6A     		ldr	r2, [r3, #32]
 1587 005e 40F24443 		movw	r3, #1092
 1588 0062 1340     		ands	r3, r3, r2
 1589 0064 002B     		cmp	r3, #0
 1590 0066 07D1     		bne	.L83
 1591              		.loc 1 690 3 discriminator 2
 1592 0068 7B68     		ldr	r3, [r7, #4]
 1593 006a 1B68     		ldr	r3, [r3]
 1594 006c 1A68     		ldr	r2, [r3]
 1595 006e 7B68     		ldr	r3, [r7, #4]
 1596 0070 1B68     		ldr	r3, [r3]
 1597 0072 22F00102 		bic	r2, r2, #1
 1598 0076 1A60     		str	r2, [r3]
 1599              	.L83:
 691:Drivers/STM32L4xx_HAL_Driver/Src/stm32l4xx_hal_tim_ex.c **** 
 692:Drivers/STM32L4xx_HAL_Driver/Src/stm32l4xx_hal_tim_ex.c ****   /* Set the TIM complementary channel state */
 693:Drivers/STM32L4xx_HAL_Driver/Src/stm32l4xx_hal_tim_ex.c ****   TIM_CHANNEL_N_STATE_SET(htim, Channel, HAL_TIM_CHANNEL_STATE_READY);
 1600              		.loc 1 693 3 is_stmt 1
ARM GAS  /tmp/ccR4xO3u.s 			page 41


 1601 0078 3B68     		ldr	r3, [r7]
 1602 007a 002B     		cmp	r3, #0
 1603 007c 04D1     		bne	.L84
 1604              		.loc 1 693 3 is_stmt 0 discriminator 1
 1605 007e 7B68     		ldr	r3, [r7, #4]
 1606 0080 0122     		movs	r2, #1
 1607 0082 83F84420 		strb	r2, [r3, #68]
 1608 0086 13E0     		b	.L85
 1609              	.L84:
 1610              		.loc 1 693 3 discriminator 2
 1611 0088 3B68     		ldr	r3, [r7]
 1612 008a 042B     		cmp	r3, #4
 1613 008c 04D1     		bne	.L86
 1614              		.loc 1 693 3 discriminator 3
 1615 008e 7B68     		ldr	r3, [r7, #4]
 1616 0090 0122     		movs	r2, #1
 1617 0092 83F84520 		strb	r2, [r3, #69]
 1618 0096 0BE0     		b	.L85
 1619              	.L86:
 1620              		.loc 1 693 3 discriminator 4
 1621 0098 3B68     		ldr	r3, [r7]
 1622 009a 082B     		cmp	r3, #8
 1623 009c 04D1     		bne	.L88
 1624              		.loc 1 693 3 discriminator 6
 1625 009e 7B68     		ldr	r3, [r7, #4]
 1626 00a0 0122     		movs	r2, #1
 1627 00a2 83F84620 		strb	r2, [r3, #70]
 1628 00a6 03E0     		b	.L85
 1629              	.L88:
 1630              		.loc 1 693 3 discriminator 7
 1631 00a8 7B68     		ldr	r3, [r7, #4]
 1632 00aa 0122     		movs	r2, #1
 1633 00ac 83F84720 		strb	r2, [r3, #71]
 1634              	.L85:
 694:Drivers/STM32L4xx_HAL_Driver/Src/stm32l4xx_hal_tim_ex.c **** 
 695:Drivers/STM32L4xx_HAL_Driver/Src/stm32l4xx_hal_tim_ex.c ****   /* Return function status */
 696:Drivers/STM32L4xx_HAL_Driver/Src/stm32l4xx_hal_tim_ex.c ****   return HAL_OK;
 1635              		.loc 1 696 10 is_stmt 1
 1636 00b0 0023     		movs	r3, #0
 697:Drivers/STM32L4xx_HAL_Driver/Src/stm32l4xx_hal_tim_ex.c **** }
 1637              		.loc 1 697 1
 1638 00b2 1846     		mov	r0, r3
 1639 00b4 0837     		adds	r7, r7, #8
 1640              	.LCFI60:
 1641              		.cfi_def_cfa_offset 8
 1642 00b6 BD46     		mov	sp, r7
 1643              	.LCFI61:
 1644              		.cfi_def_cfa_register 13
 1645              		@ sp needed
 1646 00b8 80BD     		pop	{r7, pc}
 1647              		.cfi_endproc
 1648              	.LFE143:
 1650              		.section	.text.HAL_TIMEx_OCN_Start_IT,"ax",%progbits
 1651              		.align	1
 1652              		.global	HAL_TIMEx_OCN_Start_IT
 1653              		.syntax unified
 1654              		.thumb
ARM GAS  /tmp/ccR4xO3u.s 			page 42


 1655              		.thumb_func
 1657              	HAL_TIMEx_OCN_Start_IT:
 1658              	.LFB144:
 698:Drivers/STM32L4xx_HAL_Driver/Src/stm32l4xx_hal_tim_ex.c **** 
 699:Drivers/STM32L4xx_HAL_Driver/Src/stm32l4xx_hal_tim_ex.c **** /**
 700:Drivers/STM32L4xx_HAL_Driver/Src/stm32l4xx_hal_tim_ex.c ****   * @brief  Starts the TIM Output Compare signal generation in interrupt mode
 701:Drivers/STM32L4xx_HAL_Driver/Src/stm32l4xx_hal_tim_ex.c ****   *         on the complementary output.
 702:Drivers/STM32L4xx_HAL_Driver/Src/stm32l4xx_hal_tim_ex.c ****   * @param  htim TIM OC handle
 703:Drivers/STM32L4xx_HAL_Driver/Src/stm32l4xx_hal_tim_ex.c ****   * @param  Channel TIM Channel to be enabled
 704:Drivers/STM32L4xx_HAL_Driver/Src/stm32l4xx_hal_tim_ex.c ****   *          This parameter can be one of the following values:
 705:Drivers/STM32L4xx_HAL_Driver/Src/stm32l4xx_hal_tim_ex.c ****   *            @arg TIM_CHANNEL_1: TIM Channel 1 selected
 706:Drivers/STM32L4xx_HAL_Driver/Src/stm32l4xx_hal_tim_ex.c ****   *            @arg TIM_CHANNEL_2: TIM Channel 2 selected
 707:Drivers/STM32L4xx_HAL_Driver/Src/stm32l4xx_hal_tim_ex.c ****   *            @arg TIM_CHANNEL_3: TIM Channel 3 selected
 708:Drivers/STM32L4xx_HAL_Driver/Src/stm32l4xx_hal_tim_ex.c ****   * @retval HAL status
 709:Drivers/STM32L4xx_HAL_Driver/Src/stm32l4xx_hal_tim_ex.c ****   */
 710:Drivers/STM32L4xx_HAL_Driver/Src/stm32l4xx_hal_tim_ex.c **** HAL_StatusTypeDef HAL_TIMEx_OCN_Start_IT(TIM_HandleTypeDef *htim, uint32_t Channel)
 711:Drivers/STM32L4xx_HAL_Driver/Src/stm32l4xx_hal_tim_ex.c **** {
 1659              		.loc 1 711 1
 1660              		.cfi_startproc
 1661              		@ args = 0, pretend = 0, frame = 16
 1662              		@ frame_needed = 1, uses_anonymous_args = 0
 1663 0000 80B5     		push	{r7, lr}
 1664              	.LCFI62:
 1665              		.cfi_def_cfa_offset 8
 1666              		.cfi_offset 7, -8
 1667              		.cfi_offset 14, -4
 1668 0002 84B0     		sub	sp, sp, #16
 1669              	.LCFI63:
 1670              		.cfi_def_cfa_offset 24
 1671 0004 00AF     		add	r7, sp, #0
 1672              	.LCFI64:
 1673              		.cfi_def_cfa_register 7
 1674 0006 7860     		str	r0, [r7, #4]
 1675 0008 3960     		str	r1, [r7]
 712:Drivers/STM32L4xx_HAL_Driver/Src/stm32l4xx_hal_tim_ex.c ****   HAL_StatusTypeDef status = HAL_OK;
 1676              		.loc 1 712 21
 1677 000a 0023     		movs	r3, #0
 1678 000c FB73     		strb	r3, [r7, #15]
 713:Drivers/STM32L4xx_HAL_Driver/Src/stm32l4xx_hal_tim_ex.c ****   uint32_t tmpsmcr;
 714:Drivers/STM32L4xx_HAL_Driver/Src/stm32l4xx_hal_tim_ex.c **** 
 715:Drivers/STM32L4xx_HAL_Driver/Src/stm32l4xx_hal_tim_ex.c ****   /* Check the parameters */
 716:Drivers/STM32L4xx_HAL_Driver/Src/stm32l4xx_hal_tim_ex.c ****   assert_param(IS_TIM_CCXN_INSTANCE(htim->Instance, Channel));
 717:Drivers/STM32L4xx_HAL_Driver/Src/stm32l4xx_hal_tim_ex.c **** 
 718:Drivers/STM32L4xx_HAL_Driver/Src/stm32l4xx_hal_tim_ex.c ****   /* Check the TIM complementary channel state */
 719:Drivers/STM32L4xx_HAL_Driver/Src/stm32l4xx_hal_tim_ex.c ****   if (TIM_CHANNEL_N_STATE_GET(htim, Channel) != HAL_TIM_CHANNEL_STATE_READY)
 1679              		.loc 1 719 46
 1680 000e 3B68     		ldr	r3, [r7]
 1681 0010 002B     		cmp	r3, #0
 1682 0012 09D1     		bne	.L92
 1683              		.loc 1 719 7 discriminator 1
 1684 0014 7B68     		ldr	r3, [r7, #4]
 1685 0016 93F84430 		ldrb	r3, [r3, #68]
 1686 001a DBB2     		uxtb	r3, r3
 1687              		.loc 1 719 46 discriminator 1
 1688 001c 012B     		cmp	r3, #1
 1689 001e 14BF     		ite	ne
 1690 0020 0123     		movne	r3, #1
ARM GAS  /tmp/ccR4xO3u.s 			page 43


 1691 0022 0023     		moveq	r3, #0
 1692 0024 DBB2     		uxtb	r3, r3
 1693 0026 22E0     		b	.L93
 1694              	.L92:
 1695              		.loc 1 719 46 is_stmt 0 discriminator 2
 1696 0028 3B68     		ldr	r3, [r7]
 1697 002a 042B     		cmp	r3, #4
 1698 002c 09D1     		bne	.L94
 1699              		.loc 1 719 7 is_stmt 1 discriminator 4
 1700 002e 7B68     		ldr	r3, [r7, #4]
 1701 0030 93F84530 		ldrb	r3, [r3, #69]
 1702 0034 DBB2     		uxtb	r3, r3
 1703              		.loc 1 719 46 discriminator 4
 1704 0036 012B     		cmp	r3, #1
 1705 0038 14BF     		ite	ne
 1706 003a 0123     		movne	r3, #1
 1707 003c 0023     		moveq	r3, #0
 1708 003e DBB2     		uxtb	r3, r3
 1709 0040 15E0     		b	.L93
 1710              	.L94:
 1711              		.loc 1 719 46 is_stmt 0 discriminator 5
 1712 0042 3B68     		ldr	r3, [r7]
 1713 0044 082B     		cmp	r3, #8
 1714 0046 09D1     		bne	.L96
 1715              		.loc 1 719 7 is_stmt 1 discriminator 7
 1716 0048 7B68     		ldr	r3, [r7, #4]
 1717 004a 93F84630 		ldrb	r3, [r3, #70]
 1718 004e DBB2     		uxtb	r3, r3
 1719              		.loc 1 719 46 discriminator 7
 1720 0050 012B     		cmp	r3, #1
 1721 0052 14BF     		ite	ne
 1722 0054 0123     		movne	r3, #1
 1723 0056 0023     		moveq	r3, #0
 1724 0058 DBB2     		uxtb	r3, r3
 1725 005a 08E0     		b	.L93
 1726              	.L96:
 1727              		.loc 1 719 7 discriminator 8
 1728 005c 7B68     		ldr	r3, [r7, #4]
 1729 005e 93F84730 		ldrb	r3, [r3, #71]
 1730 0062 DBB2     		uxtb	r3, r3
 1731              		.loc 1 719 46 discriminator 8
 1732 0064 012B     		cmp	r3, #1
 1733 0066 14BF     		ite	ne
 1734 0068 0123     		movne	r3, #1
 1735 006a 0023     		moveq	r3, #0
 1736 006c DBB2     		uxtb	r3, r3
 1737              	.L93:
 1738              		.loc 1 719 6 discriminator 12
 1739 006e 002B     		cmp	r3, #0
 1740 0070 01D0     		beq	.L98
 720:Drivers/STM32L4xx_HAL_Driver/Src/stm32l4xx_hal_tim_ex.c ****   {
 721:Drivers/STM32L4xx_HAL_Driver/Src/stm32l4xx_hal_tim_ex.c ****     return HAL_ERROR;
 1741              		.loc 1 721 12
 1742 0072 0123     		movs	r3, #1
 1743 0074 90E0     		b	.L99
 1744              	.L98:
 722:Drivers/STM32L4xx_HAL_Driver/Src/stm32l4xx_hal_tim_ex.c ****   }
ARM GAS  /tmp/ccR4xO3u.s 			page 44


 723:Drivers/STM32L4xx_HAL_Driver/Src/stm32l4xx_hal_tim_ex.c **** 
 724:Drivers/STM32L4xx_HAL_Driver/Src/stm32l4xx_hal_tim_ex.c ****   /* Set the TIM complementary channel state */
 725:Drivers/STM32L4xx_HAL_Driver/Src/stm32l4xx_hal_tim_ex.c ****   TIM_CHANNEL_N_STATE_SET(htim, Channel, HAL_TIM_CHANNEL_STATE_BUSY);
 1745              		.loc 1 725 3
 1746 0076 3B68     		ldr	r3, [r7]
 1747 0078 002B     		cmp	r3, #0
 1748 007a 04D1     		bne	.L100
 1749              		.loc 1 725 3 is_stmt 0 discriminator 1
 1750 007c 7B68     		ldr	r3, [r7, #4]
 1751 007e 0222     		movs	r2, #2
 1752 0080 83F84420 		strb	r2, [r3, #68]
 1753 0084 13E0     		b	.L101
 1754              	.L100:
 1755              		.loc 1 725 3 discriminator 2
 1756 0086 3B68     		ldr	r3, [r7]
 1757 0088 042B     		cmp	r3, #4
 1758 008a 04D1     		bne	.L102
 1759              		.loc 1 725 3 discriminator 3
 1760 008c 7B68     		ldr	r3, [r7, #4]
 1761 008e 0222     		movs	r2, #2
 1762 0090 83F84520 		strb	r2, [r3, #69]
 1763 0094 0BE0     		b	.L101
 1764              	.L102:
 1765              		.loc 1 725 3 discriminator 4
 1766 0096 3B68     		ldr	r3, [r7]
 1767 0098 082B     		cmp	r3, #8
 1768 009a 04D1     		bne	.L104
 1769              		.loc 1 725 3 discriminator 6
 1770 009c 7B68     		ldr	r3, [r7, #4]
 1771 009e 0222     		movs	r2, #2
 1772 00a0 83F84620 		strb	r2, [r3, #70]
 1773 00a4 03E0     		b	.L101
 1774              	.L104:
 1775              		.loc 1 725 3 discriminator 7
 1776 00a6 7B68     		ldr	r3, [r7, #4]
 1777 00a8 0222     		movs	r2, #2
 1778 00aa 83F84720 		strb	r2, [r3, #71]
 1779              	.L101:
 726:Drivers/STM32L4xx_HAL_Driver/Src/stm32l4xx_hal_tim_ex.c **** 
 727:Drivers/STM32L4xx_HAL_Driver/Src/stm32l4xx_hal_tim_ex.c ****   switch (Channel)
 1780              		.loc 1 727 3 is_stmt 1
 1781 00ae 3B68     		ldr	r3, [r7]
 1782 00b0 082B     		cmp	r3, #8
 1783 00b2 1BD0     		beq	.L106
 1784 00b4 3B68     		ldr	r3, [r7]
 1785 00b6 082B     		cmp	r3, #8
 1786 00b8 21D8     		bhi	.L107
 1787 00ba 3B68     		ldr	r3, [r7]
 1788 00bc 002B     		cmp	r3, #0
 1789 00be 03D0     		beq	.L108
 1790 00c0 3B68     		ldr	r3, [r7]
 1791 00c2 042B     		cmp	r3, #4
 1792 00c4 09D0     		beq	.L109
 1793 00c6 1AE0     		b	.L107
 1794              	.L108:
 728:Drivers/STM32L4xx_HAL_Driver/Src/stm32l4xx_hal_tim_ex.c ****   {
 729:Drivers/STM32L4xx_HAL_Driver/Src/stm32l4xx_hal_tim_ex.c ****     case TIM_CHANNEL_1:
ARM GAS  /tmp/ccR4xO3u.s 			page 45


 730:Drivers/STM32L4xx_HAL_Driver/Src/stm32l4xx_hal_tim_ex.c ****     {
 731:Drivers/STM32L4xx_HAL_Driver/Src/stm32l4xx_hal_tim_ex.c ****       /* Enable the TIM Output Compare interrupt */
 732:Drivers/STM32L4xx_HAL_Driver/Src/stm32l4xx_hal_tim_ex.c ****       __HAL_TIM_ENABLE_IT(htim, TIM_IT_CC1);
 1795              		.loc 1 732 7
 1796 00c8 7B68     		ldr	r3, [r7, #4]
 1797 00ca 1B68     		ldr	r3, [r3]
 1798 00cc DA68     		ldr	r2, [r3, #12]
 1799 00ce 7B68     		ldr	r3, [r7, #4]
 1800 00d0 1B68     		ldr	r3, [r3]
 1801 00d2 42F00202 		orr	r2, r2, #2
 1802 00d6 DA60     		str	r2, [r3, #12]
 733:Drivers/STM32L4xx_HAL_Driver/Src/stm32l4xx_hal_tim_ex.c ****       break;
 1803              		.loc 1 733 7
 1804 00d8 14E0     		b	.L110
 1805              	.L109:
 734:Drivers/STM32L4xx_HAL_Driver/Src/stm32l4xx_hal_tim_ex.c ****     }
 735:Drivers/STM32L4xx_HAL_Driver/Src/stm32l4xx_hal_tim_ex.c **** 
 736:Drivers/STM32L4xx_HAL_Driver/Src/stm32l4xx_hal_tim_ex.c ****     case TIM_CHANNEL_2:
 737:Drivers/STM32L4xx_HAL_Driver/Src/stm32l4xx_hal_tim_ex.c ****     {
 738:Drivers/STM32L4xx_HAL_Driver/Src/stm32l4xx_hal_tim_ex.c ****       /* Enable the TIM Output Compare interrupt */
 739:Drivers/STM32L4xx_HAL_Driver/Src/stm32l4xx_hal_tim_ex.c ****       __HAL_TIM_ENABLE_IT(htim, TIM_IT_CC2);
 1806              		.loc 1 739 7
 1807 00da 7B68     		ldr	r3, [r7, #4]
 1808 00dc 1B68     		ldr	r3, [r3]
 1809 00de DA68     		ldr	r2, [r3, #12]
 1810 00e0 7B68     		ldr	r3, [r7, #4]
 1811 00e2 1B68     		ldr	r3, [r3]
 1812 00e4 42F00402 		orr	r2, r2, #4
 1813 00e8 DA60     		str	r2, [r3, #12]
 740:Drivers/STM32L4xx_HAL_Driver/Src/stm32l4xx_hal_tim_ex.c ****       break;
 1814              		.loc 1 740 7
 1815 00ea 0BE0     		b	.L110
 1816              	.L106:
 741:Drivers/STM32L4xx_HAL_Driver/Src/stm32l4xx_hal_tim_ex.c ****     }
 742:Drivers/STM32L4xx_HAL_Driver/Src/stm32l4xx_hal_tim_ex.c **** 
 743:Drivers/STM32L4xx_HAL_Driver/Src/stm32l4xx_hal_tim_ex.c ****     case TIM_CHANNEL_3:
 744:Drivers/STM32L4xx_HAL_Driver/Src/stm32l4xx_hal_tim_ex.c ****     {
 745:Drivers/STM32L4xx_HAL_Driver/Src/stm32l4xx_hal_tim_ex.c ****       /* Enable the TIM Output Compare interrupt */
 746:Drivers/STM32L4xx_HAL_Driver/Src/stm32l4xx_hal_tim_ex.c ****       __HAL_TIM_ENABLE_IT(htim, TIM_IT_CC3);
 1817              		.loc 1 746 7
 1818 00ec 7B68     		ldr	r3, [r7, #4]
 1819 00ee 1B68     		ldr	r3, [r3]
 1820 00f0 DA68     		ldr	r2, [r3, #12]
 1821 00f2 7B68     		ldr	r3, [r7, #4]
 1822 00f4 1B68     		ldr	r3, [r3]
 1823 00f6 42F00802 		orr	r2, r2, #8
 1824 00fa DA60     		str	r2, [r3, #12]
 747:Drivers/STM32L4xx_HAL_Driver/Src/stm32l4xx_hal_tim_ex.c ****       break;
 1825              		.loc 1 747 7
 1826 00fc 02E0     		b	.L110
 1827              	.L107:
 748:Drivers/STM32L4xx_HAL_Driver/Src/stm32l4xx_hal_tim_ex.c ****     }
 749:Drivers/STM32L4xx_HAL_Driver/Src/stm32l4xx_hal_tim_ex.c **** 
 750:Drivers/STM32L4xx_HAL_Driver/Src/stm32l4xx_hal_tim_ex.c **** 
 751:Drivers/STM32L4xx_HAL_Driver/Src/stm32l4xx_hal_tim_ex.c ****     default:
 752:Drivers/STM32L4xx_HAL_Driver/Src/stm32l4xx_hal_tim_ex.c ****       status = HAL_ERROR;
 1828              		.loc 1 752 14
ARM GAS  /tmp/ccR4xO3u.s 			page 46


 1829 00fe 0123     		movs	r3, #1
 1830 0100 FB73     		strb	r3, [r7, #15]
 753:Drivers/STM32L4xx_HAL_Driver/Src/stm32l4xx_hal_tim_ex.c ****       break;
 1831              		.loc 1 753 7
 1832 0102 00BF     		nop
 1833              	.L110:
 754:Drivers/STM32L4xx_HAL_Driver/Src/stm32l4xx_hal_tim_ex.c ****   }
 755:Drivers/STM32L4xx_HAL_Driver/Src/stm32l4xx_hal_tim_ex.c **** 
 756:Drivers/STM32L4xx_HAL_Driver/Src/stm32l4xx_hal_tim_ex.c ****   if (status == HAL_OK)
 1834              		.loc 1 756 6
 1835 0104 FB7B     		ldrb	r3, [r7, #15]	@ zero_extendqisi2
 1836 0106 002B     		cmp	r3, #0
 1837 0108 45D1     		bne	.L111
 757:Drivers/STM32L4xx_HAL_Driver/Src/stm32l4xx_hal_tim_ex.c ****   {
 758:Drivers/STM32L4xx_HAL_Driver/Src/stm32l4xx_hal_tim_ex.c ****     /* Enable the TIM Break interrupt */
 759:Drivers/STM32L4xx_HAL_Driver/Src/stm32l4xx_hal_tim_ex.c ****     __HAL_TIM_ENABLE_IT(htim, TIM_IT_BREAK);
 1838              		.loc 1 759 5
 1839 010a 7B68     		ldr	r3, [r7, #4]
 1840 010c 1B68     		ldr	r3, [r3]
 1841 010e DA68     		ldr	r2, [r3, #12]
 1842 0110 7B68     		ldr	r3, [r7, #4]
 1843 0112 1B68     		ldr	r3, [r3]
 1844 0114 42F08002 		orr	r2, r2, #128
 1845 0118 DA60     		str	r2, [r3, #12]
 760:Drivers/STM32L4xx_HAL_Driver/Src/stm32l4xx_hal_tim_ex.c **** 
 761:Drivers/STM32L4xx_HAL_Driver/Src/stm32l4xx_hal_tim_ex.c ****     /* Enable the Capture compare channel N */
 762:Drivers/STM32L4xx_HAL_Driver/Src/stm32l4xx_hal_tim_ex.c ****     TIM_CCxNChannelCmd(htim->Instance, Channel, TIM_CCxN_ENABLE);
 1846              		.loc 1 762 5
 1847 011a 7B68     		ldr	r3, [r7, #4]
 1848 011c 1B68     		ldr	r3, [r3]
 1849 011e 0422     		movs	r2, #4
 1850 0120 3968     		ldr	r1, [r7]
 1851 0122 1846     		mov	r0, r3
 1852 0124 FFF7FEFF 		bl	TIM_CCxNChannelCmd
 763:Drivers/STM32L4xx_HAL_Driver/Src/stm32l4xx_hal_tim_ex.c **** 
 764:Drivers/STM32L4xx_HAL_Driver/Src/stm32l4xx_hal_tim_ex.c ****     /* Enable the Main Output */
 765:Drivers/STM32L4xx_HAL_Driver/Src/stm32l4xx_hal_tim_ex.c ****     __HAL_TIM_MOE_ENABLE(htim);
 1853              		.loc 1 765 5
 1854 0128 7B68     		ldr	r3, [r7, #4]
 1855 012a 1B68     		ldr	r3, [r3]
 1856 012c 5A6C     		ldr	r2, [r3, #68]
 1857 012e 7B68     		ldr	r3, [r7, #4]
 1858 0130 1B68     		ldr	r3, [r3]
 1859 0132 42F40042 		orr	r2, r2, #32768
 1860 0136 5A64     		str	r2, [r3, #68]
 766:Drivers/STM32L4xx_HAL_Driver/Src/stm32l4xx_hal_tim_ex.c **** 
 767:Drivers/STM32L4xx_HAL_Driver/Src/stm32l4xx_hal_tim_ex.c ****     /* Enable the Peripheral, except in trigger mode where enable is automatically done with trigge
 768:Drivers/STM32L4xx_HAL_Driver/Src/stm32l4xx_hal_tim_ex.c ****     if (IS_TIM_SLAVE_INSTANCE(htim->Instance))
 1861              		.loc 1 768 9
 1862 0138 7B68     		ldr	r3, [r7, #4]
 1863 013a 1B68     		ldr	r3, [r3]
 1864              		.loc 1 768 8
 1865 013c 184A     		ldr	r2, .L116
 1866 013e 9342     		cmp	r3, r2
 1867 0140 09D0     		beq	.L112
 1868              		.loc 1 768 9 discriminator 1
 1869 0142 7B68     		ldr	r3, [r7, #4]
ARM GAS  /tmp/ccR4xO3u.s 			page 47


 1870 0144 1B68     		ldr	r3, [r3]
 1871 0146 B3F1804F 		cmp	r3, #1073741824
 1872 014a 04D0     		beq	.L112
 1873              		.loc 1 768 9 is_stmt 0 discriminator 2
 1874 014c 7B68     		ldr	r3, [r7, #4]
 1875 014e 1B68     		ldr	r3, [r3]
 1876 0150 144A     		ldr	r2, .L116+4
 1877 0152 9342     		cmp	r3, r2
 1878 0154 15D1     		bne	.L113
 1879              	.L112:
 769:Drivers/STM32L4xx_HAL_Driver/Src/stm32l4xx_hal_tim_ex.c ****     {
 770:Drivers/STM32L4xx_HAL_Driver/Src/stm32l4xx_hal_tim_ex.c ****       tmpsmcr = htim->Instance->SMCR & TIM_SMCR_SMS;
 1880              		.loc 1 770 21 is_stmt 1
 1881 0156 7B68     		ldr	r3, [r7, #4]
 1882 0158 1B68     		ldr	r3, [r3]
 1883              		.loc 1 770 31
 1884 015a 9A68     		ldr	r2, [r3, #8]
 1885              		.loc 1 770 15
 1886 015c 124B     		ldr	r3, .L116+8
 1887 015e 1340     		ands	r3, r3, r2
 1888 0160 BB60     		str	r3, [r7, #8]
 771:Drivers/STM32L4xx_HAL_Driver/Src/stm32l4xx_hal_tim_ex.c ****       if (!IS_TIM_SLAVEMODE_TRIGGER_ENABLED(tmpsmcr))
 1889              		.loc 1 771 10
 1890 0162 BB68     		ldr	r3, [r7, #8]
 1891 0164 062B     		cmp	r3, #6
 1892 0166 15D0     		beq	.L115
 1893              		.loc 1 771 11 discriminator 1
 1894 0168 BB68     		ldr	r3, [r7, #8]
 1895 016a B3F5803F 		cmp	r3, #65536
 1896 016e 11D0     		beq	.L115
 772:Drivers/STM32L4xx_HAL_Driver/Src/stm32l4xx_hal_tim_ex.c ****       {
 773:Drivers/STM32L4xx_HAL_Driver/Src/stm32l4xx_hal_tim_ex.c ****         __HAL_TIM_ENABLE(htim);
 1897              		.loc 1 773 9
 1898 0170 7B68     		ldr	r3, [r7, #4]
 1899 0172 1B68     		ldr	r3, [r3]
 1900 0174 1A68     		ldr	r2, [r3]
 1901 0176 7B68     		ldr	r3, [r7, #4]
 1902 0178 1B68     		ldr	r3, [r3]
 1903 017a 42F00102 		orr	r2, r2, #1
 1904 017e 1A60     		str	r2, [r3]
 771:Drivers/STM32L4xx_HAL_Driver/Src/stm32l4xx_hal_tim_ex.c ****       if (!IS_TIM_SLAVEMODE_TRIGGER_ENABLED(tmpsmcr))
 1905              		.loc 1 771 10
 1906 0180 08E0     		b	.L115
 1907              	.L113:
 774:Drivers/STM32L4xx_HAL_Driver/Src/stm32l4xx_hal_tim_ex.c ****       }
 775:Drivers/STM32L4xx_HAL_Driver/Src/stm32l4xx_hal_tim_ex.c ****     }
 776:Drivers/STM32L4xx_HAL_Driver/Src/stm32l4xx_hal_tim_ex.c ****     else
 777:Drivers/STM32L4xx_HAL_Driver/Src/stm32l4xx_hal_tim_ex.c ****     {
 778:Drivers/STM32L4xx_HAL_Driver/Src/stm32l4xx_hal_tim_ex.c ****       __HAL_TIM_ENABLE(htim);
 1908              		.loc 1 778 7
 1909 0182 7B68     		ldr	r3, [r7, #4]
 1910 0184 1B68     		ldr	r3, [r3]
 1911 0186 1A68     		ldr	r2, [r3]
 1912 0188 7B68     		ldr	r3, [r7, #4]
 1913 018a 1B68     		ldr	r3, [r3]
 1914 018c 42F00102 		orr	r2, r2, #1
 1915 0190 1A60     		str	r2, [r3]
ARM GAS  /tmp/ccR4xO3u.s 			page 48


 1916 0192 00E0     		b	.L111
 1917              	.L115:
 771:Drivers/STM32L4xx_HAL_Driver/Src/stm32l4xx_hal_tim_ex.c ****       {
 1918              		.loc 1 771 10
 1919 0194 00BF     		nop
 1920              	.L111:
 779:Drivers/STM32L4xx_HAL_Driver/Src/stm32l4xx_hal_tim_ex.c ****     }
 780:Drivers/STM32L4xx_HAL_Driver/Src/stm32l4xx_hal_tim_ex.c ****   }
 781:Drivers/STM32L4xx_HAL_Driver/Src/stm32l4xx_hal_tim_ex.c **** 
 782:Drivers/STM32L4xx_HAL_Driver/Src/stm32l4xx_hal_tim_ex.c ****   /* Return function status */
 783:Drivers/STM32L4xx_HAL_Driver/Src/stm32l4xx_hal_tim_ex.c ****   return status;
 1921              		.loc 1 783 10
 1922 0196 FB7B     		ldrb	r3, [r7, #15]	@ zero_extendqisi2
 1923              	.L99:
 784:Drivers/STM32L4xx_HAL_Driver/Src/stm32l4xx_hal_tim_ex.c **** }
 1924              		.loc 1 784 1
 1925 0198 1846     		mov	r0, r3
 1926 019a 1037     		adds	r7, r7, #16
 1927              	.LCFI65:
 1928              		.cfi_def_cfa_offset 8
 1929 019c BD46     		mov	sp, r7
 1930              	.LCFI66:
 1931              		.cfi_def_cfa_register 13
 1932              		@ sp needed
 1933 019e 80BD     		pop	{r7, pc}
 1934              	.L117:
 1935              		.align	2
 1936              	.L116:
 1937 01a0 002C0140 		.word	1073818624
 1938 01a4 00400140 		.word	1073823744
 1939 01a8 07000100 		.word	65543
 1940              		.cfi_endproc
 1941              	.LFE144:
 1943              		.section	.text.HAL_TIMEx_OCN_Stop_IT,"ax",%progbits
 1944              		.align	1
 1945              		.global	HAL_TIMEx_OCN_Stop_IT
 1946              		.syntax unified
 1947              		.thumb
 1948              		.thumb_func
 1950              	HAL_TIMEx_OCN_Stop_IT:
 1951              	.LFB145:
 785:Drivers/STM32L4xx_HAL_Driver/Src/stm32l4xx_hal_tim_ex.c **** 
 786:Drivers/STM32L4xx_HAL_Driver/Src/stm32l4xx_hal_tim_ex.c **** /**
 787:Drivers/STM32L4xx_HAL_Driver/Src/stm32l4xx_hal_tim_ex.c ****   * @brief  Stops the TIM Output Compare signal generation in interrupt mode
 788:Drivers/STM32L4xx_HAL_Driver/Src/stm32l4xx_hal_tim_ex.c ****   *         on the complementary output.
 789:Drivers/STM32L4xx_HAL_Driver/Src/stm32l4xx_hal_tim_ex.c ****   * @param  htim TIM Output Compare handle
 790:Drivers/STM32L4xx_HAL_Driver/Src/stm32l4xx_hal_tim_ex.c ****   * @param  Channel TIM Channel to be disabled
 791:Drivers/STM32L4xx_HAL_Driver/Src/stm32l4xx_hal_tim_ex.c ****   *          This parameter can be one of the following values:
 792:Drivers/STM32L4xx_HAL_Driver/Src/stm32l4xx_hal_tim_ex.c ****   *            @arg TIM_CHANNEL_1: TIM Channel 1 selected
 793:Drivers/STM32L4xx_HAL_Driver/Src/stm32l4xx_hal_tim_ex.c ****   *            @arg TIM_CHANNEL_2: TIM Channel 2 selected
 794:Drivers/STM32L4xx_HAL_Driver/Src/stm32l4xx_hal_tim_ex.c ****   *            @arg TIM_CHANNEL_3: TIM Channel 3 selected
 795:Drivers/STM32L4xx_HAL_Driver/Src/stm32l4xx_hal_tim_ex.c ****   * @retval HAL status
 796:Drivers/STM32L4xx_HAL_Driver/Src/stm32l4xx_hal_tim_ex.c ****   */
 797:Drivers/STM32L4xx_HAL_Driver/Src/stm32l4xx_hal_tim_ex.c **** HAL_StatusTypeDef HAL_TIMEx_OCN_Stop_IT(TIM_HandleTypeDef *htim, uint32_t Channel)
 798:Drivers/STM32L4xx_HAL_Driver/Src/stm32l4xx_hal_tim_ex.c **** {
 1952              		.loc 1 798 1
 1953              		.cfi_startproc
ARM GAS  /tmp/ccR4xO3u.s 			page 49


 1954              		@ args = 0, pretend = 0, frame = 16
 1955              		@ frame_needed = 1, uses_anonymous_args = 0
 1956 0000 80B5     		push	{r7, lr}
 1957              	.LCFI67:
 1958              		.cfi_def_cfa_offset 8
 1959              		.cfi_offset 7, -8
 1960              		.cfi_offset 14, -4
 1961 0002 84B0     		sub	sp, sp, #16
 1962              	.LCFI68:
 1963              		.cfi_def_cfa_offset 24
 1964 0004 00AF     		add	r7, sp, #0
 1965              	.LCFI69:
 1966              		.cfi_def_cfa_register 7
 1967 0006 7860     		str	r0, [r7, #4]
 1968 0008 3960     		str	r1, [r7]
 799:Drivers/STM32L4xx_HAL_Driver/Src/stm32l4xx_hal_tim_ex.c ****   HAL_StatusTypeDef status = HAL_OK;
 1969              		.loc 1 799 21
 1970 000a 0023     		movs	r3, #0
 1971 000c FB73     		strb	r3, [r7, #15]
 800:Drivers/STM32L4xx_HAL_Driver/Src/stm32l4xx_hal_tim_ex.c ****   uint32_t tmpccer;
 801:Drivers/STM32L4xx_HAL_Driver/Src/stm32l4xx_hal_tim_ex.c **** 
 802:Drivers/STM32L4xx_HAL_Driver/Src/stm32l4xx_hal_tim_ex.c ****   /* Check the parameters */
 803:Drivers/STM32L4xx_HAL_Driver/Src/stm32l4xx_hal_tim_ex.c ****   assert_param(IS_TIM_CCXN_INSTANCE(htim->Instance, Channel));
 804:Drivers/STM32L4xx_HAL_Driver/Src/stm32l4xx_hal_tim_ex.c **** 
 805:Drivers/STM32L4xx_HAL_Driver/Src/stm32l4xx_hal_tim_ex.c ****   switch (Channel)
 1972              		.loc 1 805 3
 1973 000e 3B68     		ldr	r3, [r7]
 1974 0010 082B     		cmp	r3, #8
 1975 0012 1BD0     		beq	.L119
 1976 0014 3B68     		ldr	r3, [r7]
 1977 0016 082B     		cmp	r3, #8
 1978 0018 21D8     		bhi	.L120
 1979 001a 3B68     		ldr	r3, [r7]
 1980 001c 002B     		cmp	r3, #0
 1981 001e 03D0     		beq	.L121
 1982 0020 3B68     		ldr	r3, [r7]
 1983 0022 042B     		cmp	r3, #4
 1984 0024 09D0     		beq	.L122
 1985 0026 1AE0     		b	.L120
 1986              	.L121:
 806:Drivers/STM32L4xx_HAL_Driver/Src/stm32l4xx_hal_tim_ex.c ****   {
 807:Drivers/STM32L4xx_HAL_Driver/Src/stm32l4xx_hal_tim_ex.c ****     case TIM_CHANNEL_1:
 808:Drivers/STM32L4xx_HAL_Driver/Src/stm32l4xx_hal_tim_ex.c ****     {
 809:Drivers/STM32L4xx_HAL_Driver/Src/stm32l4xx_hal_tim_ex.c ****       /* Disable the TIM Output Compare interrupt */
 810:Drivers/STM32L4xx_HAL_Driver/Src/stm32l4xx_hal_tim_ex.c ****       __HAL_TIM_DISABLE_IT(htim, TIM_IT_CC1);
 1987              		.loc 1 810 7
 1988 0028 7B68     		ldr	r3, [r7, #4]
 1989 002a 1B68     		ldr	r3, [r3]
 1990 002c DA68     		ldr	r2, [r3, #12]
 1991 002e 7B68     		ldr	r3, [r7, #4]
 1992 0030 1B68     		ldr	r3, [r3]
 1993 0032 22F00202 		bic	r2, r2, #2
 1994 0036 DA60     		str	r2, [r3, #12]
 811:Drivers/STM32L4xx_HAL_Driver/Src/stm32l4xx_hal_tim_ex.c ****       break;
 1995              		.loc 1 811 7
 1996 0038 14E0     		b	.L123
 1997              	.L122:
ARM GAS  /tmp/ccR4xO3u.s 			page 50


 812:Drivers/STM32L4xx_HAL_Driver/Src/stm32l4xx_hal_tim_ex.c ****     }
 813:Drivers/STM32L4xx_HAL_Driver/Src/stm32l4xx_hal_tim_ex.c **** 
 814:Drivers/STM32L4xx_HAL_Driver/Src/stm32l4xx_hal_tim_ex.c ****     case TIM_CHANNEL_2:
 815:Drivers/STM32L4xx_HAL_Driver/Src/stm32l4xx_hal_tim_ex.c ****     {
 816:Drivers/STM32L4xx_HAL_Driver/Src/stm32l4xx_hal_tim_ex.c ****       /* Disable the TIM Output Compare interrupt */
 817:Drivers/STM32L4xx_HAL_Driver/Src/stm32l4xx_hal_tim_ex.c ****       __HAL_TIM_DISABLE_IT(htim, TIM_IT_CC2);
 1998              		.loc 1 817 7
 1999 003a 7B68     		ldr	r3, [r7, #4]
 2000 003c 1B68     		ldr	r3, [r3]
 2001 003e DA68     		ldr	r2, [r3, #12]
 2002 0040 7B68     		ldr	r3, [r7, #4]
 2003 0042 1B68     		ldr	r3, [r3]
 2004 0044 22F00402 		bic	r2, r2, #4
 2005 0048 DA60     		str	r2, [r3, #12]
 818:Drivers/STM32L4xx_HAL_Driver/Src/stm32l4xx_hal_tim_ex.c ****       break;
 2006              		.loc 1 818 7
 2007 004a 0BE0     		b	.L123
 2008              	.L119:
 819:Drivers/STM32L4xx_HAL_Driver/Src/stm32l4xx_hal_tim_ex.c ****     }
 820:Drivers/STM32L4xx_HAL_Driver/Src/stm32l4xx_hal_tim_ex.c **** 
 821:Drivers/STM32L4xx_HAL_Driver/Src/stm32l4xx_hal_tim_ex.c ****     case TIM_CHANNEL_3:
 822:Drivers/STM32L4xx_HAL_Driver/Src/stm32l4xx_hal_tim_ex.c ****     {
 823:Drivers/STM32L4xx_HAL_Driver/Src/stm32l4xx_hal_tim_ex.c ****       /* Disable the TIM Output Compare interrupt */
 824:Drivers/STM32L4xx_HAL_Driver/Src/stm32l4xx_hal_tim_ex.c ****       __HAL_TIM_DISABLE_IT(htim, TIM_IT_CC3);
 2009              		.loc 1 824 7
 2010 004c 7B68     		ldr	r3, [r7, #4]
 2011 004e 1B68     		ldr	r3, [r3]
 2012 0050 DA68     		ldr	r2, [r3, #12]
 2013 0052 7B68     		ldr	r3, [r7, #4]
 2014 0054 1B68     		ldr	r3, [r3]
 2015 0056 22F00802 		bic	r2, r2, #8
 2016 005a DA60     		str	r2, [r3, #12]
 825:Drivers/STM32L4xx_HAL_Driver/Src/stm32l4xx_hal_tim_ex.c ****       break;
 2017              		.loc 1 825 7
 2018 005c 02E0     		b	.L123
 2019              	.L120:
 826:Drivers/STM32L4xx_HAL_Driver/Src/stm32l4xx_hal_tim_ex.c ****     }
 827:Drivers/STM32L4xx_HAL_Driver/Src/stm32l4xx_hal_tim_ex.c **** 
 828:Drivers/STM32L4xx_HAL_Driver/Src/stm32l4xx_hal_tim_ex.c ****     default:
 829:Drivers/STM32L4xx_HAL_Driver/Src/stm32l4xx_hal_tim_ex.c ****       status = HAL_ERROR;
 2020              		.loc 1 829 14
 2021 005e 0123     		movs	r3, #1
 2022 0060 FB73     		strb	r3, [r7, #15]
 830:Drivers/STM32L4xx_HAL_Driver/Src/stm32l4xx_hal_tim_ex.c ****       break;
 2023              		.loc 1 830 7
 2024 0062 00BF     		nop
 2025              	.L123:
 831:Drivers/STM32L4xx_HAL_Driver/Src/stm32l4xx_hal_tim_ex.c ****   }
 832:Drivers/STM32L4xx_HAL_Driver/Src/stm32l4xx_hal_tim_ex.c **** 
 833:Drivers/STM32L4xx_HAL_Driver/Src/stm32l4xx_hal_tim_ex.c ****   if (status == HAL_OK)
 2026              		.loc 1 833 6
 2027 0064 FB7B     		ldrb	r3, [r7, #15]	@ zero_extendqisi2
 2028 0066 002B     		cmp	r3, #0
 2029 0068 64D1     		bne	.L124
 834:Drivers/STM32L4xx_HAL_Driver/Src/stm32l4xx_hal_tim_ex.c ****   {
 835:Drivers/STM32L4xx_HAL_Driver/Src/stm32l4xx_hal_tim_ex.c ****     /* Disable the Capture compare channel N */
 836:Drivers/STM32L4xx_HAL_Driver/Src/stm32l4xx_hal_tim_ex.c ****     TIM_CCxNChannelCmd(htim->Instance, Channel, TIM_CCxN_DISABLE);
ARM GAS  /tmp/ccR4xO3u.s 			page 51


 2030              		.loc 1 836 5
 2031 006a 7B68     		ldr	r3, [r7, #4]
 2032 006c 1B68     		ldr	r3, [r3]
 2033 006e 0022     		movs	r2, #0
 2034 0070 3968     		ldr	r1, [r7]
 2035 0072 1846     		mov	r0, r3
 2036 0074 FFF7FEFF 		bl	TIM_CCxNChannelCmd
 837:Drivers/STM32L4xx_HAL_Driver/Src/stm32l4xx_hal_tim_ex.c **** 
 838:Drivers/STM32L4xx_HAL_Driver/Src/stm32l4xx_hal_tim_ex.c ****     /* Disable the TIM Break interrupt (only if no more channel is active) */
 839:Drivers/STM32L4xx_HAL_Driver/Src/stm32l4xx_hal_tim_ex.c ****     tmpccer = htim->Instance->CCER;
 2037              		.loc 1 839 19
 2038 0078 7B68     		ldr	r3, [r7, #4]
 2039 007a 1B68     		ldr	r3, [r3]
 2040              		.loc 1 839 13
 2041 007c 1B6A     		ldr	r3, [r3, #32]
 2042 007e BB60     		str	r3, [r7, #8]
 840:Drivers/STM32L4xx_HAL_Driver/Src/stm32l4xx_hal_tim_ex.c ****     if ((tmpccer & (TIM_CCER_CC1NE | TIM_CCER_CC2NE | TIM_CCER_CC3NE)) == (uint32_t)RESET)
 2043              		.loc 1 840 18
 2044 0080 BA68     		ldr	r2, [r7, #8]
 2045 0082 40F24443 		movw	r3, #1092
 2046 0086 1340     		ands	r3, r3, r2
 2047              		.loc 1 840 8
 2048 0088 002B     		cmp	r3, #0
 2049 008a 07D1     		bne	.L125
 841:Drivers/STM32L4xx_HAL_Driver/Src/stm32l4xx_hal_tim_ex.c ****     {
 842:Drivers/STM32L4xx_HAL_Driver/Src/stm32l4xx_hal_tim_ex.c ****       __HAL_TIM_DISABLE_IT(htim, TIM_IT_BREAK);
 2050              		.loc 1 842 7
 2051 008c 7B68     		ldr	r3, [r7, #4]
 2052 008e 1B68     		ldr	r3, [r3]
 2053 0090 DA68     		ldr	r2, [r3, #12]
 2054 0092 7B68     		ldr	r3, [r7, #4]
 2055 0094 1B68     		ldr	r3, [r3]
 2056 0096 22F08002 		bic	r2, r2, #128
 2057 009a DA60     		str	r2, [r3, #12]
 2058              	.L125:
 843:Drivers/STM32L4xx_HAL_Driver/Src/stm32l4xx_hal_tim_ex.c ****     }
 844:Drivers/STM32L4xx_HAL_Driver/Src/stm32l4xx_hal_tim_ex.c **** 
 845:Drivers/STM32L4xx_HAL_Driver/Src/stm32l4xx_hal_tim_ex.c ****     /* Disable the Main Output */
 846:Drivers/STM32L4xx_HAL_Driver/Src/stm32l4xx_hal_tim_ex.c ****     __HAL_TIM_MOE_DISABLE(htim);
 2059              		.loc 1 846 5
 2060 009c 7B68     		ldr	r3, [r7, #4]
 2061 009e 1B68     		ldr	r3, [r3]
 2062 00a0 1A6A     		ldr	r2, [r3, #32]
 2063 00a2 41F21113 		movw	r3, #4369
 2064 00a6 1340     		ands	r3, r3, r2
 2065 00a8 002B     		cmp	r3, #0
 2066 00aa 0FD1     		bne	.L126
 2067              		.loc 1 846 5 is_stmt 0 discriminator 1
 2068 00ac 7B68     		ldr	r3, [r7, #4]
 2069 00ae 1B68     		ldr	r3, [r3]
 2070 00b0 1A6A     		ldr	r2, [r3, #32]
 2071 00b2 40F24443 		movw	r3, #1092
 2072 00b6 1340     		ands	r3, r3, r2
 2073 00b8 002B     		cmp	r3, #0
 2074 00ba 07D1     		bne	.L126
 2075              		.loc 1 846 5 discriminator 2
 2076 00bc 7B68     		ldr	r3, [r7, #4]
ARM GAS  /tmp/ccR4xO3u.s 			page 52


 2077 00be 1B68     		ldr	r3, [r3]
 2078 00c0 5A6C     		ldr	r2, [r3, #68]
 2079 00c2 7B68     		ldr	r3, [r7, #4]
 2080 00c4 1B68     		ldr	r3, [r3]
 2081 00c6 22F40042 		bic	r2, r2, #32768
 2082 00ca 5A64     		str	r2, [r3, #68]
 2083              	.L126:
 847:Drivers/STM32L4xx_HAL_Driver/Src/stm32l4xx_hal_tim_ex.c **** 
 848:Drivers/STM32L4xx_HAL_Driver/Src/stm32l4xx_hal_tim_ex.c ****     /* Disable the Peripheral */
 849:Drivers/STM32L4xx_HAL_Driver/Src/stm32l4xx_hal_tim_ex.c ****     __HAL_TIM_DISABLE(htim);
 2084              		.loc 1 849 5 is_stmt 1
 2085 00cc 7B68     		ldr	r3, [r7, #4]
 2086 00ce 1B68     		ldr	r3, [r3]
 2087 00d0 1A6A     		ldr	r2, [r3, #32]
 2088 00d2 41F21113 		movw	r3, #4369
 2089 00d6 1340     		ands	r3, r3, r2
 2090 00d8 002B     		cmp	r3, #0
 2091 00da 0FD1     		bne	.L127
 2092              		.loc 1 849 5 is_stmt 0 discriminator 1
 2093 00dc 7B68     		ldr	r3, [r7, #4]
 2094 00de 1B68     		ldr	r3, [r3]
 2095 00e0 1A6A     		ldr	r2, [r3, #32]
 2096 00e2 40F24443 		movw	r3, #1092
 2097 00e6 1340     		ands	r3, r3, r2
 2098 00e8 002B     		cmp	r3, #0
 2099 00ea 07D1     		bne	.L127
 2100              		.loc 1 849 5 discriminator 2
 2101 00ec 7B68     		ldr	r3, [r7, #4]
 2102 00ee 1B68     		ldr	r3, [r3]
 2103 00f0 1A68     		ldr	r2, [r3]
 2104 00f2 7B68     		ldr	r3, [r7, #4]
 2105 00f4 1B68     		ldr	r3, [r3]
 2106 00f6 22F00102 		bic	r2, r2, #1
 2107 00fa 1A60     		str	r2, [r3]
 2108              	.L127:
 850:Drivers/STM32L4xx_HAL_Driver/Src/stm32l4xx_hal_tim_ex.c **** 
 851:Drivers/STM32L4xx_HAL_Driver/Src/stm32l4xx_hal_tim_ex.c ****     /* Set the TIM complementary channel state */
 852:Drivers/STM32L4xx_HAL_Driver/Src/stm32l4xx_hal_tim_ex.c ****     TIM_CHANNEL_N_STATE_SET(htim, Channel, HAL_TIM_CHANNEL_STATE_READY);
 2109              		.loc 1 852 5 is_stmt 1
 2110 00fc 3B68     		ldr	r3, [r7]
 2111 00fe 002B     		cmp	r3, #0
 2112 0100 04D1     		bne	.L128
 2113              		.loc 1 852 5 is_stmt 0 discriminator 1
 2114 0102 7B68     		ldr	r3, [r7, #4]
 2115 0104 0122     		movs	r2, #1
 2116 0106 83F84420 		strb	r2, [r3, #68]
 2117 010a 13E0     		b	.L124
 2118              	.L128:
 2119              		.loc 1 852 5 discriminator 2
 2120 010c 3B68     		ldr	r3, [r7]
 2121 010e 042B     		cmp	r3, #4
 2122 0110 04D1     		bne	.L129
 2123              		.loc 1 852 5 discriminator 3
 2124 0112 7B68     		ldr	r3, [r7, #4]
 2125 0114 0122     		movs	r2, #1
 2126 0116 83F84520 		strb	r2, [r3, #69]
 2127 011a 0BE0     		b	.L124
ARM GAS  /tmp/ccR4xO3u.s 			page 53


 2128              	.L129:
 2129              		.loc 1 852 5 discriminator 4
 2130 011c 3B68     		ldr	r3, [r7]
 2131 011e 082B     		cmp	r3, #8
 2132 0120 04D1     		bne	.L131
 2133              		.loc 1 852 5 discriminator 6
 2134 0122 7B68     		ldr	r3, [r7, #4]
 2135 0124 0122     		movs	r2, #1
 2136 0126 83F84620 		strb	r2, [r3, #70]
 2137 012a 03E0     		b	.L124
 2138              	.L131:
 2139              		.loc 1 852 5 discriminator 7
 2140 012c 7B68     		ldr	r3, [r7, #4]
 2141 012e 0122     		movs	r2, #1
 2142 0130 83F84720 		strb	r2, [r3, #71]
 2143              	.L124:
 853:Drivers/STM32L4xx_HAL_Driver/Src/stm32l4xx_hal_tim_ex.c ****   }
 854:Drivers/STM32L4xx_HAL_Driver/Src/stm32l4xx_hal_tim_ex.c **** 
 855:Drivers/STM32L4xx_HAL_Driver/Src/stm32l4xx_hal_tim_ex.c ****   /* Return function status */
 856:Drivers/STM32L4xx_HAL_Driver/Src/stm32l4xx_hal_tim_ex.c ****   return status;
 2144              		.loc 1 856 10 is_stmt 1
 2145 0134 FB7B     		ldrb	r3, [r7, #15]	@ zero_extendqisi2
 857:Drivers/STM32L4xx_HAL_Driver/Src/stm32l4xx_hal_tim_ex.c **** }
 2146              		.loc 1 857 1
 2147 0136 1846     		mov	r0, r3
 2148 0138 1037     		adds	r7, r7, #16
 2149              	.LCFI70:
 2150              		.cfi_def_cfa_offset 8
 2151 013a BD46     		mov	sp, r7
 2152              	.LCFI71:
 2153              		.cfi_def_cfa_register 13
 2154              		@ sp needed
 2155 013c 80BD     		pop	{r7, pc}
 2156              		.cfi_endproc
 2157              	.LFE145:
 2159              		.section	.text.HAL_TIMEx_OCN_Start_DMA,"ax",%progbits
 2160              		.align	1
 2161              		.global	HAL_TIMEx_OCN_Start_DMA
 2162              		.syntax unified
 2163              		.thumb
 2164              		.thumb_func
 2166              	HAL_TIMEx_OCN_Start_DMA:
 2167              	.LFB146:
 858:Drivers/STM32L4xx_HAL_Driver/Src/stm32l4xx_hal_tim_ex.c **** 
 859:Drivers/STM32L4xx_HAL_Driver/Src/stm32l4xx_hal_tim_ex.c **** /**
 860:Drivers/STM32L4xx_HAL_Driver/Src/stm32l4xx_hal_tim_ex.c ****   * @brief  Starts the TIM Output Compare signal generation in DMA mode
 861:Drivers/STM32L4xx_HAL_Driver/Src/stm32l4xx_hal_tim_ex.c ****   *         on the complementary output.
 862:Drivers/STM32L4xx_HAL_Driver/Src/stm32l4xx_hal_tim_ex.c ****   * @param  htim TIM Output Compare handle
 863:Drivers/STM32L4xx_HAL_Driver/Src/stm32l4xx_hal_tim_ex.c ****   * @param  Channel TIM Channel to be enabled
 864:Drivers/STM32L4xx_HAL_Driver/Src/stm32l4xx_hal_tim_ex.c ****   *          This parameter can be one of the following values:
 865:Drivers/STM32L4xx_HAL_Driver/Src/stm32l4xx_hal_tim_ex.c ****   *            @arg TIM_CHANNEL_1: TIM Channel 1 selected
 866:Drivers/STM32L4xx_HAL_Driver/Src/stm32l4xx_hal_tim_ex.c ****   *            @arg TIM_CHANNEL_2: TIM Channel 2 selected
 867:Drivers/STM32L4xx_HAL_Driver/Src/stm32l4xx_hal_tim_ex.c ****   *            @arg TIM_CHANNEL_3: TIM Channel 3 selected
 868:Drivers/STM32L4xx_HAL_Driver/Src/stm32l4xx_hal_tim_ex.c ****   * @param  pData The source Buffer address.
 869:Drivers/STM32L4xx_HAL_Driver/Src/stm32l4xx_hal_tim_ex.c ****   * @param  Length The length of data to be transferred from memory to TIM peripheral
 870:Drivers/STM32L4xx_HAL_Driver/Src/stm32l4xx_hal_tim_ex.c ****   * @retval HAL status
 871:Drivers/STM32L4xx_HAL_Driver/Src/stm32l4xx_hal_tim_ex.c ****   */
ARM GAS  /tmp/ccR4xO3u.s 			page 54


 872:Drivers/STM32L4xx_HAL_Driver/Src/stm32l4xx_hal_tim_ex.c **** HAL_StatusTypeDef HAL_TIMEx_OCN_Start_DMA(TIM_HandleTypeDef *htim, uint32_t Channel, const uint32_t
 873:Drivers/STM32L4xx_HAL_Driver/Src/stm32l4xx_hal_tim_ex.c ****                                           uint16_t Length)
 874:Drivers/STM32L4xx_HAL_Driver/Src/stm32l4xx_hal_tim_ex.c **** {
 2168              		.loc 1 874 1
 2169              		.cfi_startproc
 2170              		@ args = 0, pretend = 0, frame = 24
 2171              		@ frame_needed = 1, uses_anonymous_args = 0
 2172 0000 80B5     		push	{r7, lr}
 2173              	.LCFI72:
 2174              		.cfi_def_cfa_offset 8
 2175              		.cfi_offset 7, -8
 2176              		.cfi_offset 14, -4
 2177 0002 86B0     		sub	sp, sp, #24
 2178              	.LCFI73:
 2179              		.cfi_def_cfa_offset 32
 2180 0004 00AF     		add	r7, sp, #0
 2181              	.LCFI74:
 2182              		.cfi_def_cfa_register 7
 2183 0006 F860     		str	r0, [r7, #12]
 2184 0008 B960     		str	r1, [r7, #8]
 2185 000a 7A60     		str	r2, [r7, #4]
 2186 000c 7B80     		strh	r3, [r7, #2]	@ movhi
 875:Drivers/STM32L4xx_HAL_Driver/Src/stm32l4xx_hal_tim_ex.c ****   HAL_StatusTypeDef status = HAL_OK;
 2187              		.loc 1 875 21
 2188 000e 0023     		movs	r3, #0
 2189 0010 FB75     		strb	r3, [r7, #23]
 876:Drivers/STM32L4xx_HAL_Driver/Src/stm32l4xx_hal_tim_ex.c ****   uint32_t tmpsmcr;
 877:Drivers/STM32L4xx_HAL_Driver/Src/stm32l4xx_hal_tim_ex.c **** 
 878:Drivers/STM32L4xx_HAL_Driver/Src/stm32l4xx_hal_tim_ex.c ****   /* Check the parameters */
 879:Drivers/STM32L4xx_HAL_Driver/Src/stm32l4xx_hal_tim_ex.c ****   assert_param(IS_TIM_CCXN_INSTANCE(htim->Instance, Channel));
 880:Drivers/STM32L4xx_HAL_Driver/Src/stm32l4xx_hal_tim_ex.c **** 
 881:Drivers/STM32L4xx_HAL_Driver/Src/stm32l4xx_hal_tim_ex.c ****   /* Set the TIM complementary channel state */
 882:Drivers/STM32L4xx_HAL_Driver/Src/stm32l4xx_hal_tim_ex.c ****   if (TIM_CHANNEL_N_STATE_GET(htim, Channel) == HAL_TIM_CHANNEL_STATE_BUSY)
 2190              		.loc 1 882 46
 2191 0012 BB68     		ldr	r3, [r7, #8]
 2192 0014 002B     		cmp	r3, #0
 2193 0016 09D1     		bne	.L135
 2194              		.loc 1 882 7 discriminator 1
 2195 0018 FB68     		ldr	r3, [r7, #12]
 2196 001a 93F84430 		ldrb	r3, [r3, #68]
 2197 001e DBB2     		uxtb	r3, r3
 2198              		.loc 1 882 46 discriminator 1
 2199 0020 022B     		cmp	r3, #2
 2200 0022 0CBF     		ite	eq
 2201 0024 0123     		moveq	r3, #1
 2202 0026 0023     		movne	r3, #0
 2203 0028 DBB2     		uxtb	r3, r3
 2204 002a 22E0     		b	.L136
 2205              	.L135:
 2206              		.loc 1 882 46 is_stmt 0 discriminator 2
 2207 002c BB68     		ldr	r3, [r7, #8]
 2208 002e 042B     		cmp	r3, #4
 2209 0030 09D1     		bne	.L137
 2210              		.loc 1 882 7 is_stmt 1 discriminator 4
 2211 0032 FB68     		ldr	r3, [r7, #12]
 2212 0034 93F84530 		ldrb	r3, [r3, #69]
 2213 0038 DBB2     		uxtb	r3, r3
ARM GAS  /tmp/ccR4xO3u.s 			page 55


 2214              		.loc 1 882 46 discriminator 4
 2215 003a 022B     		cmp	r3, #2
 2216 003c 0CBF     		ite	eq
 2217 003e 0123     		moveq	r3, #1
 2218 0040 0023     		movne	r3, #0
 2219 0042 DBB2     		uxtb	r3, r3
 2220 0044 15E0     		b	.L136
 2221              	.L137:
 2222              		.loc 1 882 46 is_stmt 0 discriminator 5
 2223 0046 BB68     		ldr	r3, [r7, #8]
 2224 0048 082B     		cmp	r3, #8
 2225 004a 09D1     		bne	.L139
 2226              		.loc 1 882 7 is_stmt 1 discriminator 7
 2227 004c FB68     		ldr	r3, [r7, #12]
 2228 004e 93F84630 		ldrb	r3, [r3, #70]
 2229 0052 DBB2     		uxtb	r3, r3
 2230              		.loc 1 882 46 discriminator 7
 2231 0054 022B     		cmp	r3, #2
 2232 0056 0CBF     		ite	eq
 2233 0058 0123     		moveq	r3, #1
 2234 005a 0023     		movne	r3, #0
 2235 005c DBB2     		uxtb	r3, r3
 2236 005e 08E0     		b	.L136
 2237              	.L139:
 2238              		.loc 1 882 7 discriminator 8
 2239 0060 FB68     		ldr	r3, [r7, #12]
 2240 0062 93F84730 		ldrb	r3, [r3, #71]
 2241 0066 DBB2     		uxtb	r3, r3
 2242              		.loc 1 882 46 discriminator 8
 2243 0068 022B     		cmp	r3, #2
 2244 006a 0CBF     		ite	eq
 2245 006c 0123     		moveq	r3, #1
 2246 006e 0023     		movne	r3, #0
 2247 0070 DBB2     		uxtb	r3, r3
 2248              	.L136:
 2249              		.loc 1 882 6 discriminator 12
 2250 0072 002B     		cmp	r3, #0
 2251 0074 01D0     		beq	.L141
 883:Drivers/STM32L4xx_HAL_Driver/Src/stm32l4xx_hal_tim_ex.c ****   {
 884:Drivers/STM32L4xx_HAL_Driver/Src/stm32l4xx_hal_tim_ex.c ****     return HAL_BUSY;
 2252              		.loc 1 884 12
 2253 0076 0223     		movs	r3, #2
 2254 0078 16E1     		b	.L142
 2255              	.L141:
 885:Drivers/STM32L4xx_HAL_Driver/Src/stm32l4xx_hal_tim_ex.c ****   }
 886:Drivers/STM32L4xx_HAL_Driver/Src/stm32l4xx_hal_tim_ex.c ****   else if (TIM_CHANNEL_N_STATE_GET(htim, Channel) == HAL_TIM_CHANNEL_STATE_READY)
 2256              		.loc 1 886 51
 2257 007a BB68     		ldr	r3, [r7, #8]
 2258 007c 002B     		cmp	r3, #0
 2259 007e 09D1     		bne	.L143
 2260              		.loc 1 886 12 discriminator 1
 2261 0080 FB68     		ldr	r3, [r7, #12]
 2262 0082 93F84430 		ldrb	r3, [r3, #68]
 2263 0086 DBB2     		uxtb	r3, r3
 2264              		.loc 1 886 51 discriminator 1
 2265 0088 012B     		cmp	r3, #1
 2266 008a 0CBF     		ite	eq
ARM GAS  /tmp/ccR4xO3u.s 			page 56


 2267 008c 0123     		moveq	r3, #1
 2268 008e 0023     		movne	r3, #0
 2269 0090 DBB2     		uxtb	r3, r3
 2270 0092 22E0     		b	.L144
 2271              	.L143:
 2272              		.loc 1 886 51 is_stmt 0 discriminator 2
 2273 0094 BB68     		ldr	r3, [r7, #8]
 2274 0096 042B     		cmp	r3, #4
 2275 0098 09D1     		bne	.L145
 2276              		.loc 1 886 12 is_stmt 1 discriminator 4
 2277 009a FB68     		ldr	r3, [r7, #12]
 2278 009c 93F84530 		ldrb	r3, [r3, #69]
 2279 00a0 DBB2     		uxtb	r3, r3
 2280              		.loc 1 886 51 discriminator 4
 2281 00a2 012B     		cmp	r3, #1
 2282 00a4 0CBF     		ite	eq
 2283 00a6 0123     		moveq	r3, #1
 2284 00a8 0023     		movne	r3, #0
 2285 00aa DBB2     		uxtb	r3, r3
 2286 00ac 15E0     		b	.L144
 2287              	.L145:
 2288              		.loc 1 886 51 is_stmt 0 discriminator 5
 2289 00ae BB68     		ldr	r3, [r7, #8]
 2290 00b0 082B     		cmp	r3, #8
 2291 00b2 09D1     		bne	.L147
 2292              		.loc 1 886 12 is_stmt 1 discriminator 7
 2293 00b4 FB68     		ldr	r3, [r7, #12]
 2294 00b6 93F84630 		ldrb	r3, [r3, #70]
 2295 00ba DBB2     		uxtb	r3, r3
 2296              		.loc 1 886 51 discriminator 7
 2297 00bc 012B     		cmp	r3, #1
 2298 00be 0CBF     		ite	eq
 2299 00c0 0123     		moveq	r3, #1
 2300 00c2 0023     		movne	r3, #0
 2301 00c4 DBB2     		uxtb	r3, r3
 2302 00c6 08E0     		b	.L144
 2303              	.L147:
 2304              		.loc 1 886 12 discriminator 8
 2305 00c8 FB68     		ldr	r3, [r7, #12]
 2306 00ca 93F84730 		ldrb	r3, [r3, #71]
 2307 00ce DBB2     		uxtb	r3, r3
 2308              		.loc 1 886 51 discriminator 8
 2309 00d0 012B     		cmp	r3, #1
 2310 00d2 0CBF     		ite	eq
 2311 00d4 0123     		moveq	r3, #1
 2312 00d6 0023     		movne	r3, #0
 2313 00d8 DBB2     		uxtb	r3, r3
 2314              	.L144:
 2315              		.loc 1 886 11 discriminator 12
 2316 00da 002B     		cmp	r3, #0
 2317 00dc 24D0     		beq	.L149
 887:Drivers/STM32L4xx_HAL_Driver/Src/stm32l4xx_hal_tim_ex.c ****   {
 888:Drivers/STM32L4xx_HAL_Driver/Src/stm32l4xx_hal_tim_ex.c ****     if ((pData == NULL) || (Length == 0U))
 2318              		.loc 1 888 8
 2319 00de 7B68     		ldr	r3, [r7, #4]
 2320 00e0 002B     		cmp	r3, #0
 2321 00e2 02D0     		beq	.L150
ARM GAS  /tmp/ccR4xO3u.s 			page 57


 2322              		.loc 1 888 25 discriminator 1
 2323 00e4 7B88     		ldrh	r3, [r7, #2]
 2324 00e6 002B     		cmp	r3, #0
 2325 00e8 01D1     		bne	.L151
 2326              	.L150:
 889:Drivers/STM32L4xx_HAL_Driver/Src/stm32l4xx_hal_tim_ex.c ****     {
 890:Drivers/STM32L4xx_HAL_Driver/Src/stm32l4xx_hal_tim_ex.c ****       return HAL_ERROR;
 2327              		.loc 1 890 14
 2328 00ea 0123     		movs	r3, #1
 2329 00ec DCE0     		b	.L142
 2330              	.L151:
 891:Drivers/STM32L4xx_HAL_Driver/Src/stm32l4xx_hal_tim_ex.c ****     }
 892:Drivers/STM32L4xx_HAL_Driver/Src/stm32l4xx_hal_tim_ex.c ****     else
 893:Drivers/STM32L4xx_HAL_Driver/Src/stm32l4xx_hal_tim_ex.c ****     {
 894:Drivers/STM32L4xx_HAL_Driver/Src/stm32l4xx_hal_tim_ex.c ****       TIM_CHANNEL_N_STATE_SET(htim, Channel, HAL_TIM_CHANNEL_STATE_BUSY);
 2331              		.loc 1 894 7
 2332 00ee BB68     		ldr	r3, [r7, #8]
 2333 00f0 002B     		cmp	r3, #0
 2334 00f2 04D1     		bne	.L152
 2335              		.loc 1 894 7 is_stmt 0 discriminator 1
 2336 00f4 FB68     		ldr	r3, [r7, #12]
 2337 00f6 0222     		movs	r2, #2
 2338 00f8 83F84420 		strb	r2, [r3, #68]
 2339 00fc 16E0     		b	.L153
 2340              	.L152:
 2341              		.loc 1 894 7 discriminator 2
 2342 00fe BB68     		ldr	r3, [r7, #8]
 2343 0100 042B     		cmp	r3, #4
 2344 0102 04D1     		bne	.L154
 2345              		.loc 1 894 7 discriminator 3
 2346 0104 FB68     		ldr	r3, [r7, #12]
 2347 0106 0222     		movs	r2, #2
 2348 0108 83F84520 		strb	r2, [r3, #69]
 2349 010c 0EE0     		b	.L153
 2350              	.L154:
 2351              		.loc 1 894 7 discriminator 4
 2352 010e BB68     		ldr	r3, [r7, #8]
 2353 0110 082B     		cmp	r3, #8
 2354 0112 04D1     		bne	.L156
 2355              		.loc 1 894 7 discriminator 6
 2356 0114 FB68     		ldr	r3, [r7, #12]
 2357 0116 0222     		movs	r2, #2
 2358 0118 83F84620 		strb	r2, [r3, #70]
 2359 011c 06E0     		b	.L153
 2360              	.L156:
 2361              		.loc 1 894 7 discriminator 7
 2362 011e FB68     		ldr	r3, [r7, #12]
 2363 0120 0222     		movs	r2, #2
 2364 0122 83F84720 		strb	r2, [r3, #71]
 2365 0126 01E0     		b	.L153
 2366              	.L149:
 895:Drivers/STM32L4xx_HAL_Driver/Src/stm32l4xx_hal_tim_ex.c ****     }
 896:Drivers/STM32L4xx_HAL_Driver/Src/stm32l4xx_hal_tim_ex.c ****   }
 897:Drivers/STM32L4xx_HAL_Driver/Src/stm32l4xx_hal_tim_ex.c ****   else
 898:Drivers/STM32L4xx_HAL_Driver/Src/stm32l4xx_hal_tim_ex.c ****   {
 899:Drivers/STM32L4xx_HAL_Driver/Src/stm32l4xx_hal_tim_ex.c ****     return HAL_ERROR;
 2367              		.loc 1 899 12 is_stmt 1
ARM GAS  /tmp/ccR4xO3u.s 			page 58


 2368 0128 0123     		movs	r3, #1
 2369 012a BDE0     		b	.L142
 2370              	.L153:
 900:Drivers/STM32L4xx_HAL_Driver/Src/stm32l4xx_hal_tim_ex.c ****   }
 901:Drivers/STM32L4xx_HAL_Driver/Src/stm32l4xx_hal_tim_ex.c **** 
 902:Drivers/STM32L4xx_HAL_Driver/Src/stm32l4xx_hal_tim_ex.c ****   switch (Channel)
 2371              		.loc 1 902 3
 2372 012c BB68     		ldr	r3, [r7, #8]
 2373 012e 082B     		cmp	r3, #8
 2374 0130 51D0     		beq	.L158
 2375 0132 BB68     		ldr	r3, [r7, #8]
 2376 0134 082B     		cmp	r3, #8
 2377 0136 72D8     		bhi	.L159
 2378 0138 BB68     		ldr	r3, [r7, #8]
 2379 013a 002B     		cmp	r3, #0
 2380 013c 03D0     		beq	.L160
 2381 013e BB68     		ldr	r3, [r7, #8]
 2382 0140 042B     		cmp	r3, #4
 2383 0142 24D0     		beq	.L161
 2384 0144 6BE0     		b	.L159
 2385              	.L160:
 903:Drivers/STM32L4xx_HAL_Driver/Src/stm32l4xx_hal_tim_ex.c ****   {
 904:Drivers/STM32L4xx_HAL_Driver/Src/stm32l4xx_hal_tim_ex.c ****     case TIM_CHANNEL_1:
 905:Drivers/STM32L4xx_HAL_Driver/Src/stm32l4xx_hal_tim_ex.c ****     {
 906:Drivers/STM32L4xx_HAL_Driver/Src/stm32l4xx_hal_tim_ex.c ****       /* Set the DMA compare callbacks */
 907:Drivers/STM32L4xx_HAL_Driver/Src/stm32l4xx_hal_tim_ex.c ****       htim->hdma[TIM_DMA_ID_CC1]->XferCpltCallback = TIM_DMADelayPulseNCplt;
 2386              		.loc 1 907 17
 2387 0146 FB68     		ldr	r3, [r7, #12]
 2388 0148 5B6A     		ldr	r3, [r3, #36]
 2389              		.loc 1 907 52
 2390 014a 594A     		ldr	r2, .L171
 2391 014c DA62     		str	r2, [r3, #44]
 908:Drivers/STM32L4xx_HAL_Driver/Src/stm32l4xx_hal_tim_ex.c ****       htim->hdma[TIM_DMA_ID_CC1]->XferHalfCpltCallback = TIM_DMADelayPulseHalfCplt;
 2392              		.loc 1 908 17
 2393 014e FB68     		ldr	r3, [r7, #12]
 2394 0150 5B6A     		ldr	r3, [r3, #36]
 2395              		.loc 1 908 56
 2396 0152 584A     		ldr	r2, .L171+4
 2397 0154 1A63     		str	r2, [r3, #48]
 909:Drivers/STM32L4xx_HAL_Driver/Src/stm32l4xx_hal_tim_ex.c **** 
 910:Drivers/STM32L4xx_HAL_Driver/Src/stm32l4xx_hal_tim_ex.c ****       /* Set the DMA error callback */
 911:Drivers/STM32L4xx_HAL_Driver/Src/stm32l4xx_hal_tim_ex.c ****       htim->hdma[TIM_DMA_ID_CC1]->XferErrorCallback = TIM_DMAErrorCCxN ;
 2398              		.loc 1 911 17
 2399 0156 FB68     		ldr	r3, [r7, #12]
 2400 0158 5B6A     		ldr	r3, [r3, #36]
 2401              		.loc 1 911 53
 2402 015a 574A     		ldr	r2, .L171+8
 2403 015c 5A63     		str	r2, [r3, #52]
 912:Drivers/STM32L4xx_HAL_Driver/Src/stm32l4xx_hal_tim_ex.c **** 
 913:Drivers/STM32L4xx_HAL_Driver/Src/stm32l4xx_hal_tim_ex.c ****       /* Enable the DMA channel */
 914:Drivers/STM32L4xx_HAL_Driver/Src/stm32l4xx_hal_tim_ex.c ****       if (HAL_DMA_Start_IT(htim->hdma[TIM_DMA_ID_CC1], (uint32_t)pData, (uint32_t)&htim->Instance->
 2404              		.loc 1 914 11
 2405 015e FB68     		ldr	r3, [r7, #12]
 2406 0160 586A     		ldr	r0, [r3, #36]
 2407 0162 7968     		ldr	r1, [r7, #4]
 2408              		.loc 1 914 88
 2409 0164 FB68     		ldr	r3, [r7, #12]
ARM GAS  /tmp/ccR4xO3u.s 			page 59


 2410 0166 1B68     		ldr	r3, [r3]
 2411              		.loc 1 914 83
 2412 0168 3433     		adds	r3, r3, #52
 2413              		.loc 1 914 11
 2414 016a 1A46     		mov	r2, r3
 2415 016c 7B88     		ldrh	r3, [r7, #2]
 2416 016e FFF7FEFF 		bl	HAL_DMA_Start_IT
 2417 0172 0346     		mov	r3, r0
 2418              		.loc 1 914 10
 2419 0174 002B     		cmp	r3, #0
 2420 0176 01D0     		beq	.L162
 915:Drivers/STM32L4xx_HAL_Driver/Src/stm32l4xx_hal_tim_ex.c ****                            Length) != HAL_OK)
 916:Drivers/STM32L4xx_HAL_Driver/Src/stm32l4xx_hal_tim_ex.c ****       {
 917:Drivers/STM32L4xx_HAL_Driver/Src/stm32l4xx_hal_tim_ex.c ****         /* Return error status */
 918:Drivers/STM32L4xx_HAL_Driver/Src/stm32l4xx_hal_tim_ex.c ****         return HAL_ERROR;
 2421              		.loc 1 918 16
 2422 0178 0123     		movs	r3, #1
 2423 017a 95E0     		b	.L142
 2424              	.L162:
 919:Drivers/STM32L4xx_HAL_Driver/Src/stm32l4xx_hal_tim_ex.c ****       }
 920:Drivers/STM32L4xx_HAL_Driver/Src/stm32l4xx_hal_tim_ex.c ****       /* Enable the TIM Output Compare DMA request */
 921:Drivers/STM32L4xx_HAL_Driver/Src/stm32l4xx_hal_tim_ex.c ****       __HAL_TIM_ENABLE_DMA(htim, TIM_DMA_CC1);
 2425              		.loc 1 921 7
 2426 017c FB68     		ldr	r3, [r7, #12]
 2427 017e 1B68     		ldr	r3, [r3]
 2428 0180 DA68     		ldr	r2, [r3, #12]
 2429 0182 FB68     		ldr	r3, [r7, #12]
 2430 0184 1B68     		ldr	r3, [r3]
 2431 0186 42F40072 		orr	r2, r2, #512
 2432 018a DA60     		str	r2, [r3, #12]
 922:Drivers/STM32L4xx_HAL_Driver/Src/stm32l4xx_hal_tim_ex.c ****       break;
 2433              		.loc 1 922 7
 2434 018c 4AE0     		b	.L163
 2435              	.L161:
 923:Drivers/STM32L4xx_HAL_Driver/Src/stm32l4xx_hal_tim_ex.c ****     }
 924:Drivers/STM32L4xx_HAL_Driver/Src/stm32l4xx_hal_tim_ex.c **** 
 925:Drivers/STM32L4xx_HAL_Driver/Src/stm32l4xx_hal_tim_ex.c ****     case TIM_CHANNEL_2:
 926:Drivers/STM32L4xx_HAL_Driver/Src/stm32l4xx_hal_tim_ex.c ****     {
 927:Drivers/STM32L4xx_HAL_Driver/Src/stm32l4xx_hal_tim_ex.c ****       /* Set the DMA compare callbacks */
 928:Drivers/STM32L4xx_HAL_Driver/Src/stm32l4xx_hal_tim_ex.c ****       htim->hdma[TIM_DMA_ID_CC2]->XferCpltCallback = TIM_DMADelayPulseNCplt;
 2436              		.loc 1 928 17
 2437 018e FB68     		ldr	r3, [r7, #12]
 2438 0190 9B6A     		ldr	r3, [r3, #40]
 2439              		.loc 1 928 52
 2440 0192 474A     		ldr	r2, .L171
 2441 0194 DA62     		str	r2, [r3, #44]
 929:Drivers/STM32L4xx_HAL_Driver/Src/stm32l4xx_hal_tim_ex.c ****       htim->hdma[TIM_DMA_ID_CC2]->XferHalfCpltCallback = TIM_DMADelayPulseHalfCplt;
 2442              		.loc 1 929 17
 2443 0196 FB68     		ldr	r3, [r7, #12]
 2444 0198 9B6A     		ldr	r3, [r3, #40]
 2445              		.loc 1 929 56
 2446 019a 464A     		ldr	r2, .L171+4
 2447 019c 1A63     		str	r2, [r3, #48]
 930:Drivers/STM32L4xx_HAL_Driver/Src/stm32l4xx_hal_tim_ex.c **** 
 931:Drivers/STM32L4xx_HAL_Driver/Src/stm32l4xx_hal_tim_ex.c ****       /* Set the DMA error callback */
 932:Drivers/STM32L4xx_HAL_Driver/Src/stm32l4xx_hal_tim_ex.c ****       htim->hdma[TIM_DMA_ID_CC2]->XferErrorCallback = TIM_DMAErrorCCxN ;
 2448              		.loc 1 932 17
ARM GAS  /tmp/ccR4xO3u.s 			page 60


 2449 019e FB68     		ldr	r3, [r7, #12]
 2450 01a0 9B6A     		ldr	r3, [r3, #40]
 2451              		.loc 1 932 53
 2452 01a2 454A     		ldr	r2, .L171+8
 2453 01a4 5A63     		str	r2, [r3, #52]
 933:Drivers/STM32L4xx_HAL_Driver/Src/stm32l4xx_hal_tim_ex.c **** 
 934:Drivers/STM32L4xx_HAL_Driver/Src/stm32l4xx_hal_tim_ex.c ****       /* Enable the DMA channel */
 935:Drivers/STM32L4xx_HAL_Driver/Src/stm32l4xx_hal_tim_ex.c ****       if (HAL_DMA_Start_IT(htim->hdma[TIM_DMA_ID_CC2], (uint32_t)pData, (uint32_t)&htim->Instance->
 2454              		.loc 1 935 11
 2455 01a6 FB68     		ldr	r3, [r7, #12]
 2456 01a8 986A     		ldr	r0, [r3, #40]
 2457 01aa 7968     		ldr	r1, [r7, #4]
 2458              		.loc 1 935 88
 2459 01ac FB68     		ldr	r3, [r7, #12]
 2460 01ae 1B68     		ldr	r3, [r3]
 2461              		.loc 1 935 83
 2462 01b0 3833     		adds	r3, r3, #56
 2463              		.loc 1 935 11
 2464 01b2 1A46     		mov	r2, r3
 2465 01b4 7B88     		ldrh	r3, [r7, #2]
 2466 01b6 FFF7FEFF 		bl	HAL_DMA_Start_IT
 2467 01ba 0346     		mov	r3, r0
 2468              		.loc 1 935 10
 2469 01bc 002B     		cmp	r3, #0
 2470 01be 01D0     		beq	.L164
 936:Drivers/STM32L4xx_HAL_Driver/Src/stm32l4xx_hal_tim_ex.c ****                            Length) != HAL_OK)
 937:Drivers/STM32L4xx_HAL_Driver/Src/stm32l4xx_hal_tim_ex.c ****       {
 938:Drivers/STM32L4xx_HAL_Driver/Src/stm32l4xx_hal_tim_ex.c ****         /* Return error status */
 939:Drivers/STM32L4xx_HAL_Driver/Src/stm32l4xx_hal_tim_ex.c ****         return HAL_ERROR;
 2471              		.loc 1 939 16
 2472 01c0 0123     		movs	r3, #1
 2473 01c2 71E0     		b	.L142
 2474              	.L164:
 940:Drivers/STM32L4xx_HAL_Driver/Src/stm32l4xx_hal_tim_ex.c ****       }
 941:Drivers/STM32L4xx_HAL_Driver/Src/stm32l4xx_hal_tim_ex.c ****       /* Enable the TIM Output Compare DMA request */
 942:Drivers/STM32L4xx_HAL_Driver/Src/stm32l4xx_hal_tim_ex.c ****       __HAL_TIM_ENABLE_DMA(htim, TIM_DMA_CC2);
 2475              		.loc 1 942 7
 2476 01c4 FB68     		ldr	r3, [r7, #12]
 2477 01c6 1B68     		ldr	r3, [r3]
 2478 01c8 DA68     		ldr	r2, [r3, #12]
 2479 01ca FB68     		ldr	r3, [r7, #12]
 2480 01cc 1B68     		ldr	r3, [r3]
 2481 01ce 42F48062 		orr	r2, r2, #1024
 2482 01d2 DA60     		str	r2, [r3, #12]
 943:Drivers/STM32L4xx_HAL_Driver/Src/stm32l4xx_hal_tim_ex.c ****       break;
 2483              		.loc 1 943 7
 2484 01d4 26E0     		b	.L163
 2485              	.L158:
 944:Drivers/STM32L4xx_HAL_Driver/Src/stm32l4xx_hal_tim_ex.c ****     }
 945:Drivers/STM32L4xx_HAL_Driver/Src/stm32l4xx_hal_tim_ex.c **** 
 946:Drivers/STM32L4xx_HAL_Driver/Src/stm32l4xx_hal_tim_ex.c ****     case TIM_CHANNEL_3:
 947:Drivers/STM32L4xx_HAL_Driver/Src/stm32l4xx_hal_tim_ex.c ****     {
 948:Drivers/STM32L4xx_HAL_Driver/Src/stm32l4xx_hal_tim_ex.c ****       /* Set the DMA compare callbacks */
 949:Drivers/STM32L4xx_HAL_Driver/Src/stm32l4xx_hal_tim_ex.c ****       htim->hdma[TIM_DMA_ID_CC3]->XferCpltCallback = TIM_DMADelayPulseNCplt;
 2486              		.loc 1 949 17
 2487 01d6 FB68     		ldr	r3, [r7, #12]
 2488 01d8 DB6A     		ldr	r3, [r3, #44]
ARM GAS  /tmp/ccR4xO3u.s 			page 61


 2489              		.loc 1 949 52
 2490 01da 354A     		ldr	r2, .L171
 2491 01dc DA62     		str	r2, [r3, #44]
 950:Drivers/STM32L4xx_HAL_Driver/Src/stm32l4xx_hal_tim_ex.c ****       htim->hdma[TIM_DMA_ID_CC3]->XferHalfCpltCallback = TIM_DMADelayPulseHalfCplt;
 2492              		.loc 1 950 17
 2493 01de FB68     		ldr	r3, [r7, #12]
 2494 01e0 DB6A     		ldr	r3, [r3, #44]
 2495              		.loc 1 950 56
 2496 01e2 344A     		ldr	r2, .L171+4
 2497 01e4 1A63     		str	r2, [r3, #48]
 951:Drivers/STM32L4xx_HAL_Driver/Src/stm32l4xx_hal_tim_ex.c **** 
 952:Drivers/STM32L4xx_HAL_Driver/Src/stm32l4xx_hal_tim_ex.c ****       /* Set the DMA error callback */
 953:Drivers/STM32L4xx_HAL_Driver/Src/stm32l4xx_hal_tim_ex.c ****       htim->hdma[TIM_DMA_ID_CC3]->XferErrorCallback = TIM_DMAErrorCCxN ;
 2498              		.loc 1 953 17
 2499 01e6 FB68     		ldr	r3, [r7, #12]
 2500 01e8 DB6A     		ldr	r3, [r3, #44]
 2501              		.loc 1 953 53
 2502 01ea 334A     		ldr	r2, .L171+8
 2503 01ec 5A63     		str	r2, [r3, #52]
 954:Drivers/STM32L4xx_HAL_Driver/Src/stm32l4xx_hal_tim_ex.c **** 
 955:Drivers/STM32L4xx_HAL_Driver/Src/stm32l4xx_hal_tim_ex.c ****       /* Enable the DMA channel */
 956:Drivers/STM32L4xx_HAL_Driver/Src/stm32l4xx_hal_tim_ex.c ****       if (HAL_DMA_Start_IT(htim->hdma[TIM_DMA_ID_CC3], (uint32_t)pData, (uint32_t)&htim->Instance->
 2504              		.loc 1 956 11
 2505 01ee FB68     		ldr	r3, [r7, #12]
 2506 01f0 D86A     		ldr	r0, [r3, #44]
 2507 01f2 7968     		ldr	r1, [r7, #4]
 2508              		.loc 1 956 88
 2509 01f4 FB68     		ldr	r3, [r7, #12]
 2510 01f6 1B68     		ldr	r3, [r3]
 2511              		.loc 1 956 83
 2512 01f8 3C33     		adds	r3, r3, #60
 2513              		.loc 1 956 11
 2514 01fa 1A46     		mov	r2, r3
 2515 01fc 7B88     		ldrh	r3, [r7, #2]
 2516 01fe FFF7FEFF 		bl	HAL_DMA_Start_IT
 2517 0202 0346     		mov	r3, r0
 2518              		.loc 1 956 10
 2519 0204 002B     		cmp	r3, #0
 2520 0206 01D0     		beq	.L165
 957:Drivers/STM32L4xx_HAL_Driver/Src/stm32l4xx_hal_tim_ex.c ****                            Length) != HAL_OK)
 958:Drivers/STM32L4xx_HAL_Driver/Src/stm32l4xx_hal_tim_ex.c ****       {
 959:Drivers/STM32L4xx_HAL_Driver/Src/stm32l4xx_hal_tim_ex.c ****         /* Return error status */
 960:Drivers/STM32L4xx_HAL_Driver/Src/stm32l4xx_hal_tim_ex.c ****         return HAL_ERROR;
 2521              		.loc 1 960 16
 2522 0208 0123     		movs	r3, #1
 2523 020a 4DE0     		b	.L142
 2524              	.L165:
 961:Drivers/STM32L4xx_HAL_Driver/Src/stm32l4xx_hal_tim_ex.c ****       }
 962:Drivers/STM32L4xx_HAL_Driver/Src/stm32l4xx_hal_tim_ex.c ****       /* Enable the TIM Output Compare DMA request */
 963:Drivers/STM32L4xx_HAL_Driver/Src/stm32l4xx_hal_tim_ex.c ****       __HAL_TIM_ENABLE_DMA(htim, TIM_DMA_CC3);
 2525              		.loc 1 963 7
 2526 020c FB68     		ldr	r3, [r7, #12]
 2527 020e 1B68     		ldr	r3, [r3]
 2528 0210 DA68     		ldr	r2, [r3, #12]
 2529 0212 FB68     		ldr	r3, [r7, #12]
 2530 0214 1B68     		ldr	r3, [r3]
 2531 0216 42F40062 		orr	r2, r2, #2048
ARM GAS  /tmp/ccR4xO3u.s 			page 62


 2532 021a DA60     		str	r2, [r3, #12]
 964:Drivers/STM32L4xx_HAL_Driver/Src/stm32l4xx_hal_tim_ex.c ****       break;
 2533              		.loc 1 964 7
 2534 021c 02E0     		b	.L163
 2535              	.L159:
 965:Drivers/STM32L4xx_HAL_Driver/Src/stm32l4xx_hal_tim_ex.c ****     }
 966:Drivers/STM32L4xx_HAL_Driver/Src/stm32l4xx_hal_tim_ex.c **** 
 967:Drivers/STM32L4xx_HAL_Driver/Src/stm32l4xx_hal_tim_ex.c ****     default:
 968:Drivers/STM32L4xx_HAL_Driver/Src/stm32l4xx_hal_tim_ex.c ****       status = HAL_ERROR;
 2536              		.loc 1 968 14
 2537 021e 0123     		movs	r3, #1
 2538 0220 FB75     		strb	r3, [r7, #23]
 969:Drivers/STM32L4xx_HAL_Driver/Src/stm32l4xx_hal_tim_ex.c ****       break;
 2539              		.loc 1 969 7
 2540 0222 00BF     		nop
 2541              	.L163:
 970:Drivers/STM32L4xx_HAL_Driver/Src/stm32l4xx_hal_tim_ex.c ****   }
 971:Drivers/STM32L4xx_HAL_Driver/Src/stm32l4xx_hal_tim_ex.c **** 
 972:Drivers/STM32L4xx_HAL_Driver/Src/stm32l4xx_hal_tim_ex.c ****   if (status == HAL_OK)
 2542              		.loc 1 972 6
 2543 0224 FB7D     		ldrb	r3, [r7, #23]	@ zero_extendqisi2
 2544 0226 002B     		cmp	r3, #0
 2545 0228 3DD1     		bne	.L166
 973:Drivers/STM32L4xx_HAL_Driver/Src/stm32l4xx_hal_tim_ex.c ****   {
 974:Drivers/STM32L4xx_HAL_Driver/Src/stm32l4xx_hal_tim_ex.c ****     /* Enable the Capture compare channel N */
 975:Drivers/STM32L4xx_HAL_Driver/Src/stm32l4xx_hal_tim_ex.c ****     TIM_CCxNChannelCmd(htim->Instance, Channel, TIM_CCxN_ENABLE);
 2546              		.loc 1 975 5
 2547 022a FB68     		ldr	r3, [r7, #12]
 2548 022c 1B68     		ldr	r3, [r3]
 2549 022e 0422     		movs	r2, #4
 2550 0230 B968     		ldr	r1, [r7, #8]
 2551 0232 1846     		mov	r0, r3
 2552 0234 FFF7FEFF 		bl	TIM_CCxNChannelCmd
 976:Drivers/STM32L4xx_HAL_Driver/Src/stm32l4xx_hal_tim_ex.c **** 
 977:Drivers/STM32L4xx_HAL_Driver/Src/stm32l4xx_hal_tim_ex.c ****     /* Enable the Main Output */
 978:Drivers/STM32L4xx_HAL_Driver/Src/stm32l4xx_hal_tim_ex.c ****     __HAL_TIM_MOE_ENABLE(htim);
 2553              		.loc 1 978 5
 2554 0238 FB68     		ldr	r3, [r7, #12]
 2555 023a 1B68     		ldr	r3, [r3]
 2556 023c 5A6C     		ldr	r2, [r3, #68]
 2557 023e FB68     		ldr	r3, [r7, #12]
 2558 0240 1B68     		ldr	r3, [r3]
 2559 0242 42F40042 		orr	r2, r2, #32768
 2560 0246 5A64     		str	r2, [r3, #68]
 979:Drivers/STM32L4xx_HAL_Driver/Src/stm32l4xx_hal_tim_ex.c **** 
 980:Drivers/STM32L4xx_HAL_Driver/Src/stm32l4xx_hal_tim_ex.c ****     /* Enable the Peripheral, except in trigger mode where enable is automatically done with trigge
 981:Drivers/STM32L4xx_HAL_Driver/Src/stm32l4xx_hal_tim_ex.c ****     if (IS_TIM_SLAVE_INSTANCE(htim->Instance))
 2561              		.loc 1 981 9
 2562 0248 FB68     		ldr	r3, [r7, #12]
 2563 024a 1B68     		ldr	r3, [r3]
 2564              		.loc 1 981 8
 2565 024c 1B4A     		ldr	r2, .L171+12
 2566 024e 9342     		cmp	r3, r2
 2567 0250 09D0     		beq	.L167
 2568              		.loc 1 981 9 discriminator 1
 2569 0252 FB68     		ldr	r3, [r7, #12]
 2570 0254 1B68     		ldr	r3, [r3]
ARM GAS  /tmp/ccR4xO3u.s 			page 63


 2571 0256 B3F1804F 		cmp	r3, #1073741824
 2572 025a 04D0     		beq	.L167
 2573              		.loc 1 981 9 is_stmt 0 discriminator 2
 2574 025c FB68     		ldr	r3, [r7, #12]
 2575 025e 1B68     		ldr	r3, [r3]
 2576 0260 174A     		ldr	r2, .L171+16
 2577 0262 9342     		cmp	r3, r2
 2578 0264 15D1     		bne	.L168
 2579              	.L167:
 982:Drivers/STM32L4xx_HAL_Driver/Src/stm32l4xx_hal_tim_ex.c ****     {
 983:Drivers/STM32L4xx_HAL_Driver/Src/stm32l4xx_hal_tim_ex.c ****       tmpsmcr = htim->Instance->SMCR & TIM_SMCR_SMS;
 2580              		.loc 1 983 21 is_stmt 1
 2581 0266 FB68     		ldr	r3, [r7, #12]
 2582 0268 1B68     		ldr	r3, [r3]
 2583              		.loc 1 983 31
 2584 026a 9A68     		ldr	r2, [r3, #8]
 2585              		.loc 1 983 15
 2586 026c 154B     		ldr	r3, .L171+20
 2587 026e 1340     		ands	r3, r3, r2
 2588 0270 3B61     		str	r3, [r7, #16]
 984:Drivers/STM32L4xx_HAL_Driver/Src/stm32l4xx_hal_tim_ex.c ****       if (!IS_TIM_SLAVEMODE_TRIGGER_ENABLED(tmpsmcr))
 2589              		.loc 1 984 10
 2590 0272 3B69     		ldr	r3, [r7, #16]
 2591 0274 062B     		cmp	r3, #6
 2592 0276 15D0     		beq	.L170
 2593              		.loc 1 984 11 discriminator 1
 2594 0278 3B69     		ldr	r3, [r7, #16]
 2595 027a B3F5803F 		cmp	r3, #65536
 2596 027e 11D0     		beq	.L170
 985:Drivers/STM32L4xx_HAL_Driver/Src/stm32l4xx_hal_tim_ex.c ****       {
 986:Drivers/STM32L4xx_HAL_Driver/Src/stm32l4xx_hal_tim_ex.c ****         __HAL_TIM_ENABLE(htim);
 2597              		.loc 1 986 9
 2598 0280 FB68     		ldr	r3, [r7, #12]
 2599 0282 1B68     		ldr	r3, [r3]
 2600 0284 1A68     		ldr	r2, [r3]
 2601 0286 FB68     		ldr	r3, [r7, #12]
 2602 0288 1B68     		ldr	r3, [r3]
 2603 028a 42F00102 		orr	r2, r2, #1
 2604 028e 1A60     		str	r2, [r3]
 984:Drivers/STM32L4xx_HAL_Driver/Src/stm32l4xx_hal_tim_ex.c ****       if (!IS_TIM_SLAVEMODE_TRIGGER_ENABLED(tmpsmcr))
 2605              		.loc 1 984 10
 2606 0290 08E0     		b	.L170
 2607              	.L168:
 987:Drivers/STM32L4xx_HAL_Driver/Src/stm32l4xx_hal_tim_ex.c ****       }
 988:Drivers/STM32L4xx_HAL_Driver/Src/stm32l4xx_hal_tim_ex.c ****     }
 989:Drivers/STM32L4xx_HAL_Driver/Src/stm32l4xx_hal_tim_ex.c ****     else
 990:Drivers/STM32L4xx_HAL_Driver/Src/stm32l4xx_hal_tim_ex.c ****     {
 991:Drivers/STM32L4xx_HAL_Driver/Src/stm32l4xx_hal_tim_ex.c ****       __HAL_TIM_ENABLE(htim);
 2608              		.loc 1 991 7
 2609 0292 FB68     		ldr	r3, [r7, #12]
 2610 0294 1B68     		ldr	r3, [r3]
 2611 0296 1A68     		ldr	r2, [r3]
 2612 0298 FB68     		ldr	r3, [r7, #12]
 2613 029a 1B68     		ldr	r3, [r3]
 2614 029c 42F00102 		orr	r2, r2, #1
 2615 02a0 1A60     		str	r2, [r3]
 2616 02a2 00E0     		b	.L166
ARM GAS  /tmp/ccR4xO3u.s 			page 64


 2617              	.L170:
 984:Drivers/STM32L4xx_HAL_Driver/Src/stm32l4xx_hal_tim_ex.c ****       {
 2618              		.loc 1 984 10
 2619 02a4 00BF     		nop
 2620              	.L166:
 992:Drivers/STM32L4xx_HAL_Driver/Src/stm32l4xx_hal_tim_ex.c ****     }
 993:Drivers/STM32L4xx_HAL_Driver/Src/stm32l4xx_hal_tim_ex.c ****   }
 994:Drivers/STM32L4xx_HAL_Driver/Src/stm32l4xx_hal_tim_ex.c **** 
 995:Drivers/STM32L4xx_HAL_Driver/Src/stm32l4xx_hal_tim_ex.c ****   /* Return function status */
 996:Drivers/STM32L4xx_HAL_Driver/Src/stm32l4xx_hal_tim_ex.c ****   return status;
 2621              		.loc 1 996 10
 2622 02a6 FB7D     		ldrb	r3, [r7, #23]	@ zero_extendqisi2
 2623              	.L142:
 997:Drivers/STM32L4xx_HAL_Driver/Src/stm32l4xx_hal_tim_ex.c **** }
 2624              		.loc 1 997 1
 2625 02a8 1846     		mov	r0, r3
 2626 02aa 1837     		adds	r7, r7, #24
 2627              	.LCFI75:
 2628              		.cfi_def_cfa_offset 8
 2629 02ac BD46     		mov	sp, r7
 2630              	.LCFI76:
 2631              		.cfi_def_cfa_register 13
 2632              		@ sp needed
 2633 02ae 80BD     		pop	{r7, pc}
 2634              	.L172:
 2635              		.align	2
 2636              	.L171:
 2637 02b0 00000000 		.word	TIM_DMADelayPulseNCplt
 2638 02b4 00000000 		.word	TIM_DMADelayPulseHalfCplt
 2639 02b8 00000000 		.word	TIM_DMAErrorCCxN
 2640 02bc 002C0140 		.word	1073818624
 2641 02c0 00400140 		.word	1073823744
 2642 02c4 07000100 		.word	65543
 2643              		.cfi_endproc
 2644              	.LFE146:
 2646              		.section	.text.HAL_TIMEx_OCN_Stop_DMA,"ax",%progbits
 2647              		.align	1
 2648              		.global	HAL_TIMEx_OCN_Stop_DMA
 2649              		.syntax unified
 2650              		.thumb
 2651              		.thumb_func
 2653              	HAL_TIMEx_OCN_Stop_DMA:
 2654              	.LFB147:
 998:Drivers/STM32L4xx_HAL_Driver/Src/stm32l4xx_hal_tim_ex.c **** 
 999:Drivers/STM32L4xx_HAL_Driver/Src/stm32l4xx_hal_tim_ex.c **** /**
1000:Drivers/STM32L4xx_HAL_Driver/Src/stm32l4xx_hal_tim_ex.c ****   * @brief  Stops the TIM Output Compare signal generation in DMA mode
1001:Drivers/STM32L4xx_HAL_Driver/Src/stm32l4xx_hal_tim_ex.c ****   *         on the complementary output.
1002:Drivers/STM32L4xx_HAL_Driver/Src/stm32l4xx_hal_tim_ex.c ****   * @param  htim TIM Output Compare handle
1003:Drivers/STM32L4xx_HAL_Driver/Src/stm32l4xx_hal_tim_ex.c ****   * @param  Channel TIM Channel to be disabled
1004:Drivers/STM32L4xx_HAL_Driver/Src/stm32l4xx_hal_tim_ex.c ****   *          This parameter can be one of the following values:
1005:Drivers/STM32L4xx_HAL_Driver/Src/stm32l4xx_hal_tim_ex.c ****   *            @arg TIM_CHANNEL_1: TIM Channel 1 selected
1006:Drivers/STM32L4xx_HAL_Driver/Src/stm32l4xx_hal_tim_ex.c ****   *            @arg TIM_CHANNEL_2: TIM Channel 2 selected
1007:Drivers/STM32L4xx_HAL_Driver/Src/stm32l4xx_hal_tim_ex.c ****   *            @arg TIM_CHANNEL_3: TIM Channel 3 selected
1008:Drivers/STM32L4xx_HAL_Driver/Src/stm32l4xx_hal_tim_ex.c ****   * @retval HAL status
1009:Drivers/STM32L4xx_HAL_Driver/Src/stm32l4xx_hal_tim_ex.c ****   */
1010:Drivers/STM32L4xx_HAL_Driver/Src/stm32l4xx_hal_tim_ex.c **** HAL_StatusTypeDef HAL_TIMEx_OCN_Stop_DMA(TIM_HandleTypeDef *htim, uint32_t Channel)
1011:Drivers/STM32L4xx_HAL_Driver/Src/stm32l4xx_hal_tim_ex.c **** {
ARM GAS  /tmp/ccR4xO3u.s 			page 65


 2655              		.loc 1 1011 1
 2656              		.cfi_startproc
 2657              		@ args = 0, pretend = 0, frame = 16
 2658              		@ frame_needed = 1, uses_anonymous_args = 0
 2659 0000 80B5     		push	{r7, lr}
 2660              	.LCFI77:
 2661              		.cfi_def_cfa_offset 8
 2662              		.cfi_offset 7, -8
 2663              		.cfi_offset 14, -4
 2664 0002 84B0     		sub	sp, sp, #16
 2665              	.LCFI78:
 2666              		.cfi_def_cfa_offset 24
 2667 0004 00AF     		add	r7, sp, #0
 2668              	.LCFI79:
 2669              		.cfi_def_cfa_register 7
 2670 0006 7860     		str	r0, [r7, #4]
 2671 0008 3960     		str	r1, [r7]
1012:Drivers/STM32L4xx_HAL_Driver/Src/stm32l4xx_hal_tim_ex.c ****   HAL_StatusTypeDef status = HAL_OK;
 2672              		.loc 1 1012 21
 2673 000a 0023     		movs	r3, #0
 2674 000c FB73     		strb	r3, [r7, #15]
1013:Drivers/STM32L4xx_HAL_Driver/Src/stm32l4xx_hal_tim_ex.c **** 
1014:Drivers/STM32L4xx_HAL_Driver/Src/stm32l4xx_hal_tim_ex.c ****   /* Check the parameters */
1015:Drivers/STM32L4xx_HAL_Driver/Src/stm32l4xx_hal_tim_ex.c ****   assert_param(IS_TIM_CCXN_INSTANCE(htim->Instance, Channel));
1016:Drivers/STM32L4xx_HAL_Driver/Src/stm32l4xx_hal_tim_ex.c **** 
1017:Drivers/STM32L4xx_HAL_Driver/Src/stm32l4xx_hal_tim_ex.c ****   switch (Channel)
 2675              		.loc 1 1017 3
 2676 000e 3B68     		ldr	r3, [r7]
 2677 0010 082B     		cmp	r3, #8
 2678 0012 25D0     		beq	.L174
 2679 0014 3B68     		ldr	r3, [r7]
 2680 0016 082B     		cmp	r3, #8
 2681 0018 30D8     		bhi	.L175
 2682 001a 3B68     		ldr	r3, [r7]
 2683 001c 002B     		cmp	r3, #0
 2684 001e 03D0     		beq	.L176
 2685 0020 3B68     		ldr	r3, [r7]
 2686 0022 042B     		cmp	r3, #4
 2687 0024 0ED0     		beq	.L177
 2688 0026 29E0     		b	.L175
 2689              	.L176:
1018:Drivers/STM32L4xx_HAL_Driver/Src/stm32l4xx_hal_tim_ex.c ****   {
1019:Drivers/STM32L4xx_HAL_Driver/Src/stm32l4xx_hal_tim_ex.c ****     case TIM_CHANNEL_1:
1020:Drivers/STM32L4xx_HAL_Driver/Src/stm32l4xx_hal_tim_ex.c ****     {
1021:Drivers/STM32L4xx_HAL_Driver/Src/stm32l4xx_hal_tim_ex.c ****       /* Disable the TIM Output Compare DMA request */
1022:Drivers/STM32L4xx_HAL_Driver/Src/stm32l4xx_hal_tim_ex.c ****       __HAL_TIM_DISABLE_DMA(htim, TIM_DMA_CC1);
 2690              		.loc 1 1022 7
 2691 0028 7B68     		ldr	r3, [r7, #4]
 2692 002a 1B68     		ldr	r3, [r3]
 2693 002c DA68     		ldr	r2, [r3, #12]
 2694 002e 7B68     		ldr	r3, [r7, #4]
 2695 0030 1B68     		ldr	r3, [r3]
 2696 0032 22F40072 		bic	r2, r2, #512
 2697 0036 DA60     		str	r2, [r3, #12]
1023:Drivers/STM32L4xx_HAL_Driver/Src/stm32l4xx_hal_tim_ex.c ****       (void)HAL_DMA_Abort_IT(htim->hdma[TIM_DMA_ID_CC1]);
 2698              		.loc 1 1023 13
 2699 0038 7B68     		ldr	r3, [r7, #4]
ARM GAS  /tmp/ccR4xO3u.s 			page 66


 2700 003a 5B6A     		ldr	r3, [r3, #36]
 2701 003c 1846     		mov	r0, r3
 2702 003e FFF7FEFF 		bl	HAL_DMA_Abort_IT
1024:Drivers/STM32L4xx_HAL_Driver/Src/stm32l4xx_hal_tim_ex.c ****       break;
 2703              		.loc 1 1024 7
 2704 0042 1EE0     		b	.L178
 2705              	.L177:
1025:Drivers/STM32L4xx_HAL_Driver/Src/stm32l4xx_hal_tim_ex.c ****     }
1026:Drivers/STM32L4xx_HAL_Driver/Src/stm32l4xx_hal_tim_ex.c **** 
1027:Drivers/STM32L4xx_HAL_Driver/Src/stm32l4xx_hal_tim_ex.c ****     case TIM_CHANNEL_2:
1028:Drivers/STM32L4xx_HAL_Driver/Src/stm32l4xx_hal_tim_ex.c ****     {
1029:Drivers/STM32L4xx_HAL_Driver/Src/stm32l4xx_hal_tim_ex.c ****       /* Disable the TIM Output Compare DMA request */
1030:Drivers/STM32L4xx_HAL_Driver/Src/stm32l4xx_hal_tim_ex.c ****       __HAL_TIM_DISABLE_DMA(htim, TIM_DMA_CC2);
 2706              		.loc 1 1030 7
 2707 0044 7B68     		ldr	r3, [r7, #4]
 2708 0046 1B68     		ldr	r3, [r3]
 2709 0048 DA68     		ldr	r2, [r3, #12]
 2710 004a 7B68     		ldr	r3, [r7, #4]
 2711 004c 1B68     		ldr	r3, [r3]
 2712 004e 22F48062 		bic	r2, r2, #1024
 2713 0052 DA60     		str	r2, [r3, #12]
1031:Drivers/STM32L4xx_HAL_Driver/Src/stm32l4xx_hal_tim_ex.c ****       (void)HAL_DMA_Abort_IT(htim->hdma[TIM_DMA_ID_CC2]);
 2714              		.loc 1 1031 13
 2715 0054 7B68     		ldr	r3, [r7, #4]
 2716 0056 9B6A     		ldr	r3, [r3, #40]
 2717 0058 1846     		mov	r0, r3
 2718 005a FFF7FEFF 		bl	HAL_DMA_Abort_IT
1032:Drivers/STM32L4xx_HAL_Driver/Src/stm32l4xx_hal_tim_ex.c ****       break;
 2719              		.loc 1 1032 7
 2720 005e 10E0     		b	.L178
 2721              	.L174:
1033:Drivers/STM32L4xx_HAL_Driver/Src/stm32l4xx_hal_tim_ex.c ****     }
1034:Drivers/STM32L4xx_HAL_Driver/Src/stm32l4xx_hal_tim_ex.c **** 
1035:Drivers/STM32L4xx_HAL_Driver/Src/stm32l4xx_hal_tim_ex.c ****     case TIM_CHANNEL_3:
1036:Drivers/STM32L4xx_HAL_Driver/Src/stm32l4xx_hal_tim_ex.c ****     {
1037:Drivers/STM32L4xx_HAL_Driver/Src/stm32l4xx_hal_tim_ex.c ****       /* Disable the TIM Output Compare DMA request */
1038:Drivers/STM32L4xx_HAL_Driver/Src/stm32l4xx_hal_tim_ex.c ****       __HAL_TIM_DISABLE_DMA(htim, TIM_DMA_CC3);
 2722              		.loc 1 1038 7
 2723 0060 7B68     		ldr	r3, [r7, #4]
 2724 0062 1B68     		ldr	r3, [r3]
 2725 0064 DA68     		ldr	r2, [r3, #12]
 2726 0066 7B68     		ldr	r3, [r7, #4]
 2727 0068 1B68     		ldr	r3, [r3]
 2728 006a 22F40062 		bic	r2, r2, #2048
 2729 006e DA60     		str	r2, [r3, #12]
1039:Drivers/STM32L4xx_HAL_Driver/Src/stm32l4xx_hal_tim_ex.c ****       (void)HAL_DMA_Abort_IT(htim->hdma[TIM_DMA_ID_CC3]);
 2730              		.loc 1 1039 13
 2731 0070 7B68     		ldr	r3, [r7, #4]
 2732 0072 DB6A     		ldr	r3, [r3, #44]
 2733 0074 1846     		mov	r0, r3
 2734 0076 FFF7FEFF 		bl	HAL_DMA_Abort_IT
1040:Drivers/STM32L4xx_HAL_Driver/Src/stm32l4xx_hal_tim_ex.c ****       break;
 2735              		.loc 1 1040 7
 2736 007a 02E0     		b	.L178
 2737              	.L175:
1041:Drivers/STM32L4xx_HAL_Driver/Src/stm32l4xx_hal_tim_ex.c ****     }
1042:Drivers/STM32L4xx_HAL_Driver/Src/stm32l4xx_hal_tim_ex.c **** 
ARM GAS  /tmp/ccR4xO3u.s 			page 67


1043:Drivers/STM32L4xx_HAL_Driver/Src/stm32l4xx_hal_tim_ex.c ****     default:
1044:Drivers/STM32L4xx_HAL_Driver/Src/stm32l4xx_hal_tim_ex.c ****       status = HAL_ERROR;
 2738              		.loc 1 1044 14
 2739 007c 0123     		movs	r3, #1
 2740 007e FB73     		strb	r3, [r7, #15]
1045:Drivers/STM32L4xx_HAL_Driver/Src/stm32l4xx_hal_tim_ex.c ****       break;
 2741              		.loc 1 1045 7
 2742 0080 00BF     		nop
 2743              	.L178:
1046:Drivers/STM32L4xx_HAL_Driver/Src/stm32l4xx_hal_tim_ex.c ****   }
1047:Drivers/STM32L4xx_HAL_Driver/Src/stm32l4xx_hal_tim_ex.c **** 
1048:Drivers/STM32L4xx_HAL_Driver/Src/stm32l4xx_hal_tim_ex.c ****   if (status == HAL_OK)
 2744              		.loc 1 1048 6
 2745 0082 FB7B     		ldrb	r3, [r7, #15]	@ zero_extendqisi2
 2746 0084 002B     		cmp	r3, #0
 2747 0086 52D1     		bne	.L179
1049:Drivers/STM32L4xx_HAL_Driver/Src/stm32l4xx_hal_tim_ex.c ****   {
1050:Drivers/STM32L4xx_HAL_Driver/Src/stm32l4xx_hal_tim_ex.c ****     /* Disable the Capture compare channel N */
1051:Drivers/STM32L4xx_HAL_Driver/Src/stm32l4xx_hal_tim_ex.c ****     TIM_CCxNChannelCmd(htim->Instance, Channel, TIM_CCxN_DISABLE);
 2748              		.loc 1 1051 5
 2749 0088 7B68     		ldr	r3, [r7, #4]
 2750 008a 1B68     		ldr	r3, [r3]
 2751 008c 0022     		movs	r2, #0
 2752 008e 3968     		ldr	r1, [r7]
 2753 0090 1846     		mov	r0, r3
 2754 0092 FFF7FEFF 		bl	TIM_CCxNChannelCmd
1052:Drivers/STM32L4xx_HAL_Driver/Src/stm32l4xx_hal_tim_ex.c **** 
1053:Drivers/STM32L4xx_HAL_Driver/Src/stm32l4xx_hal_tim_ex.c ****     /* Disable the Main Output */
1054:Drivers/STM32L4xx_HAL_Driver/Src/stm32l4xx_hal_tim_ex.c ****     __HAL_TIM_MOE_DISABLE(htim);
 2755              		.loc 1 1054 5
 2756 0096 7B68     		ldr	r3, [r7, #4]
 2757 0098 1B68     		ldr	r3, [r3]
 2758 009a 1A6A     		ldr	r2, [r3, #32]
 2759 009c 41F21113 		movw	r3, #4369
 2760 00a0 1340     		ands	r3, r3, r2
 2761 00a2 002B     		cmp	r3, #0
 2762 00a4 0FD1     		bne	.L180
 2763              		.loc 1 1054 5 is_stmt 0 discriminator 1
 2764 00a6 7B68     		ldr	r3, [r7, #4]
 2765 00a8 1B68     		ldr	r3, [r3]
 2766 00aa 1A6A     		ldr	r2, [r3, #32]
 2767 00ac 40F24443 		movw	r3, #1092
 2768 00b0 1340     		ands	r3, r3, r2
 2769 00b2 002B     		cmp	r3, #0
 2770 00b4 07D1     		bne	.L180
 2771              		.loc 1 1054 5 discriminator 2
 2772 00b6 7B68     		ldr	r3, [r7, #4]
 2773 00b8 1B68     		ldr	r3, [r3]
 2774 00ba 5A6C     		ldr	r2, [r3, #68]
 2775 00bc 7B68     		ldr	r3, [r7, #4]
 2776 00be 1B68     		ldr	r3, [r3]
 2777 00c0 22F40042 		bic	r2, r2, #32768
 2778 00c4 5A64     		str	r2, [r3, #68]
 2779              	.L180:
1055:Drivers/STM32L4xx_HAL_Driver/Src/stm32l4xx_hal_tim_ex.c **** 
1056:Drivers/STM32L4xx_HAL_Driver/Src/stm32l4xx_hal_tim_ex.c ****     /* Disable the Peripheral */
1057:Drivers/STM32L4xx_HAL_Driver/Src/stm32l4xx_hal_tim_ex.c ****     __HAL_TIM_DISABLE(htim);
ARM GAS  /tmp/ccR4xO3u.s 			page 68


 2780              		.loc 1 1057 5 is_stmt 1
 2781 00c6 7B68     		ldr	r3, [r7, #4]
 2782 00c8 1B68     		ldr	r3, [r3]
 2783 00ca 1A6A     		ldr	r2, [r3, #32]
 2784 00cc 41F21113 		movw	r3, #4369
 2785 00d0 1340     		ands	r3, r3, r2
 2786 00d2 002B     		cmp	r3, #0
 2787 00d4 0FD1     		bne	.L181
 2788              		.loc 1 1057 5 is_stmt 0 discriminator 1
 2789 00d6 7B68     		ldr	r3, [r7, #4]
 2790 00d8 1B68     		ldr	r3, [r3]
 2791 00da 1A6A     		ldr	r2, [r3, #32]
 2792 00dc 40F24443 		movw	r3, #1092
 2793 00e0 1340     		ands	r3, r3, r2
 2794 00e2 002B     		cmp	r3, #0
 2795 00e4 07D1     		bne	.L181
 2796              		.loc 1 1057 5 discriminator 2
 2797 00e6 7B68     		ldr	r3, [r7, #4]
 2798 00e8 1B68     		ldr	r3, [r3]
 2799 00ea 1A68     		ldr	r2, [r3]
 2800 00ec 7B68     		ldr	r3, [r7, #4]
 2801 00ee 1B68     		ldr	r3, [r3]
 2802 00f0 22F00102 		bic	r2, r2, #1
 2803 00f4 1A60     		str	r2, [r3]
 2804              	.L181:
1058:Drivers/STM32L4xx_HAL_Driver/Src/stm32l4xx_hal_tim_ex.c **** 
1059:Drivers/STM32L4xx_HAL_Driver/Src/stm32l4xx_hal_tim_ex.c ****     /* Set the TIM complementary channel state */
1060:Drivers/STM32L4xx_HAL_Driver/Src/stm32l4xx_hal_tim_ex.c ****     TIM_CHANNEL_N_STATE_SET(htim, Channel, HAL_TIM_CHANNEL_STATE_READY);
 2805              		.loc 1 1060 5 is_stmt 1
 2806 00f6 3B68     		ldr	r3, [r7]
 2807 00f8 002B     		cmp	r3, #0
 2808 00fa 04D1     		bne	.L182
 2809              		.loc 1 1060 5 is_stmt 0 discriminator 1
 2810 00fc 7B68     		ldr	r3, [r7, #4]
 2811 00fe 0122     		movs	r2, #1
 2812 0100 83F84420 		strb	r2, [r3, #68]
 2813 0104 13E0     		b	.L179
 2814              	.L182:
 2815              		.loc 1 1060 5 discriminator 2
 2816 0106 3B68     		ldr	r3, [r7]
 2817 0108 042B     		cmp	r3, #4
 2818 010a 04D1     		bne	.L183
 2819              		.loc 1 1060 5 discriminator 3
 2820 010c 7B68     		ldr	r3, [r7, #4]
 2821 010e 0122     		movs	r2, #1
 2822 0110 83F84520 		strb	r2, [r3, #69]
 2823 0114 0BE0     		b	.L179
 2824              	.L183:
 2825              		.loc 1 1060 5 discriminator 4
 2826 0116 3B68     		ldr	r3, [r7]
 2827 0118 082B     		cmp	r3, #8
 2828 011a 04D1     		bne	.L185
 2829              		.loc 1 1060 5 discriminator 6
 2830 011c 7B68     		ldr	r3, [r7, #4]
 2831 011e 0122     		movs	r2, #1
 2832 0120 83F84620 		strb	r2, [r3, #70]
 2833 0124 03E0     		b	.L179
ARM GAS  /tmp/ccR4xO3u.s 			page 69


 2834              	.L185:
 2835              		.loc 1 1060 5 discriminator 7
 2836 0126 7B68     		ldr	r3, [r7, #4]
 2837 0128 0122     		movs	r2, #1
 2838 012a 83F84720 		strb	r2, [r3, #71]
 2839              	.L179:
1061:Drivers/STM32L4xx_HAL_Driver/Src/stm32l4xx_hal_tim_ex.c ****   }
1062:Drivers/STM32L4xx_HAL_Driver/Src/stm32l4xx_hal_tim_ex.c **** 
1063:Drivers/STM32L4xx_HAL_Driver/Src/stm32l4xx_hal_tim_ex.c ****   /* Return function status */
1064:Drivers/STM32L4xx_HAL_Driver/Src/stm32l4xx_hal_tim_ex.c ****   return status;
 2840              		.loc 1 1064 10 is_stmt 1
 2841 012e FB7B     		ldrb	r3, [r7, #15]	@ zero_extendqisi2
1065:Drivers/STM32L4xx_HAL_Driver/Src/stm32l4xx_hal_tim_ex.c **** }
 2842              		.loc 1 1065 1
 2843 0130 1846     		mov	r0, r3
 2844 0132 1037     		adds	r7, r7, #16
 2845              	.LCFI80:
 2846              		.cfi_def_cfa_offset 8
 2847 0134 BD46     		mov	sp, r7
 2848              	.LCFI81:
 2849              		.cfi_def_cfa_register 13
 2850              		@ sp needed
 2851 0136 80BD     		pop	{r7, pc}
 2852              		.cfi_endproc
 2853              	.LFE147:
 2855              		.section	.text.HAL_TIMEx_PWMN_Start,"ax",%progbits
 2856              		.align	1
 2857              		.global	HAL_TIMEx_PWMN_Start
 2858              		.syntax unified
 2859              		.thumb
 2860              		.thumb_func
 2862              	HAL_TIMEx_PWMN_Start:
 2863              	.LFB148:
1066:Drivers/STM32L4xx_HAL_Driver/Src/stm32l4xx_hal_tim_ex.c **** 
1067:Drivers/STM32L4xx_HAL_Driver/Src/stm32l4xx_hal_tim_ex.c **** /**
1068:Drivers/STM32L4xx_HAL_Driver/Src/stm32l4xx_hal_tim_ex.c ****   * @}
1069:Drivers/STM32L4xx_HAL_Driver/Src/stm32l4xx_hal_tim_ex.c ****   */
1070:Drivers/STM32L4xx_HAL_Driver/Src/stm32l4xx_hal_tim_ex.c **** 
1071:Drivers/STM32L4xx_HAL_Driver/Src/stm32l4xx_hal_tim_ex.c **** /** @defgroup TIMEx_Exported_Functions_Group3 Extended Timer Complementary PWM functions
1072:Drivers/STM32L4xx_HAL_Driver/Src/stm32l4xx_hal_tim_ex.c ****   * @brief    Timer Complementary PWM functions
1073:Drivers/STM32L4xx_HAL_Driver/Src/stm32l4xx_hal_tim_ex.c ****   *
1074:Drivers/STM32L4xx_HAL_Driver/Src/stm32l4xx_hal_tim_ex.c **** @verbatim
1075:Drivers/STM32L4xx_HAL_Driver/Src/stm32l4xx_hal_tim_ex.c ****   ==============================================================================
1076:Drivers/STM32L4xx_HAL_Driver/Src/stm32l4xx_hal_tim_ex.c ****                  ##### Timer Complementary PWM functions #####
1077:Drivers/STM32L4xx_HAL_Driver/Src/stm32l4xx_hal_tim_ex.c ****   ==============================================================================
1078:Drivers/STM32L4xx_HAL_Driver/Src/stm32l4xx_hal_tim_ex.c ****   [..]
1079:Drivers/STM32L4xx_HAL_Driver/Src/stm32l4xx_hal_tim_ex.c ****     This section provides functions allowing to:
1080:Drivers/STM32L4xx_HAL_Driver/Src/stm32l4xx_hal_tim_ex.c ****     (+) Start the Complementary PWM.
1081:Drivers/STM32L4xx_HAL_Driver/Src/stm32l4xx_hal_tim_ex.c ****     (+) Stop the Complementary PWM.
1082:Drivers/STM32L4xx_HAL_Driver/Src/stm32l4xx_hal_tim_ex.c ****     (+) Start the Complementary PWM and enable interrupts.
1083:Drivers/STM32L4xx_HAL_Driver/Src/stm32l4xx_hal_tim_ex.c ****     (+) Stop the Complementary PWM and disable interrupts.
1084:Drivers/STM32L4xx_HAL_Driver/Src/stm32l4xx_hal_tim_ex.c ****     (+) Start the Complementary PWM and enable DMA transfers.
1085:Drivers/STM32L4xx_HAL_Driver/Src/stm32l4xx_hal_tim_ex.c ****     (+) Stop the Complementary PWM and disable DMA transfers.
1086:Drivers/STM32L4xx_HAL_Driver/Src/stm32l4xx_hal_tim_ex.c ****     (+) Start the Complementary Input Capture measurement.
1087:Drivers/STM32L4xx_HAL_Driver/Src/stm32l4xx_hal_tim_ex.c ****     (+) Stop the Complementary Input Capture.
1088:Drivers/STM32L4xx_HAL_Driver/Src/stm32l4xx_hal_tim_ex.c ****     (+) Start the Complementary Input Capture and enable interrupts.
1089:Drivers/STM32L4xx_HAL_Driver/Src/stm32l4xx_hal_tim_ex.c ****     (+) Stop the Complementary Input Capture and disable interrupts.
ARM GAS  /tmp/ccR4xO3u.s 			page 70


1090:Drivers/STM32L4xx_HAL_Driver/Src/stm32l4xx_hal_tim_ex.c ****     (+) Start the Complementary Input Capture and enable DMA transfers.
1091:Drivers/STM32L4xx_HAL_Driver/Src/stm32l4xx_hal_tim_ex.c ****     (+) Stop the Complementary Input Capture and disable DMA transfers.
1092:Drivers/STM32L4xx_HAL_Driver/Src/stm32l4xx_hal_tim_ex.c ****     (+) Start the Complementary One Pulse generation.
1093:Drivers/STM32L4xx_HAL_Driver/Src/stm32l4xx_hal_tim_ex.c ****     (+) Stop the Complementary One Pulse.
1094:Drivers/STM32L4xx_HAL_Driver/Src/stm32l4xx_hal_tim_ex.c ****     (+) Start the Complementary One Pulse and enable interrupts.
1095:Drivers/STM32L4xx_HAL_Driver/Src/stm32l4xx_hal_tim_ex.c ****     (+) Stop the Complementary One Pulse and disable interrupts.
1096:Drivers/STM32L4xx_HAL_Driver/Src/stm32l4xx_hal_tim_ex.c **** 
1097:Drivers/STM32L4xx_HAL_Driver/Src/stm32l4xx_hal_tim_ex.c **** @endverbatim
1098:Drivers/STM32L4xx_HAL_Driver/Src/stm32l4xx_hal_tim_ex.c ****   * @{
1099:Drivers/STM32L4xx_HAL_Driver/Src/stm32l4xx_hal_tim_ex.c ****   */
1100:Drivers/STM32L4xx_HAL_Driver/Src/stm32l4xx_hal_tim_ex.c **** 
1101:Drivers/STM32L4xx_HAL_Driver/Src/stm32l4xx_hal_tim_ex.c **** /**
1102:Drivers/STM32L4xx_HAL_Driver/Src/stm32l4xx_hal_tim_ex.c ****   * @brief  Starts the PWM signal generation on the complementary output.
1103:Drivers/STM32L4xx_HAL_Driver/Src/stm32l4xx_hal_tim_ex.c ****   * @param  htim TIM handle
1104:Drivers/STM32L4xx_HAL_Driver/Src/stm32l4xx_hal_tim_ex.c ****   * @param  Channel TIM Channel to be enabled
1105:Drivers/STM32L4xx_HAL_Driver/Src/stm32l4xx_hal_tim_ex.c ****   *          This parameter can be one of the following values:
1106:Drivers/STM32L4xx_HAL_Driver/Src/stm32l4xx_hal_tim_ex.c ****   *            @arg TIM_CHANNEL_1: TIM Channel 1 selected
1107:Drivers/STM32L4xx_HAL_Driver/Src/stm32l4xx_hal_tim_ex.c ****   *            @arg TIM_CHANNEL_2: TIM Channel 2 selected
1108:Drivers/STM32L4xx_HAL_Driver/Src/stm32l4xx_hal_tim_ex.c ****   *            @arg TIM_CHANNEL_3: TIM Channel 3 selected
1109:Drivers/STM32L4xx_HAL_Driver/Src/stm32l4xx_hal_tim_ex.c ****   * @retval HAL status
1110:Drivers/STM32L4xx_HAL_Driver/Src/stm32l4xx_hal_tim_ex.c ****   */
1111:Drivers/STM32L4xx_HAL_Driver/Src/stm32l4xx_hal_tim_ex.c **** HAL_StatusTypeDef HAL_TIMEx_PWMN_Start(TIM_HandleTypeDef *htim, uint32_t Channel)
1112:Drivers/STM32L4xx_HAL_Driver/Src/stm32l4xx_hal_tim_ex.c **** {
 2864              		.loc 1 1112 1
 2865              		.cfi_startproc
 2866              		@ args = 0, pretend = 0, frame = 16
 2867              		@ frame_needed = 1, uses_anonymous_args = 0
 2868 0000 80B5     		push	{r7, lr}
 2869              	.LCFI82:
 2870              		.cfi_def_cfa_offset 8
 2871              		.cfi_offset 7, -8
 2872              		.cfi_offset 14, -4
 2873 0002 84B0     		sub	sp, sp, #16
 2874              	.LCFI83:
 2875              		.cfi_def_cfa_offset 24
 2876 0004 00AF     		add	r7, sp, #0
 2877              	.LCFI84:
 2878              		.cfi_def_cfa_register 7
 2879 0006 7860     		str	r0, [r7, #4]
 2880 0008 3960     		str	r1, [r7]
1113:Drivers/STM32L4xx_HAL_Driver/Src/stm32l4xx_hal_tim_ex.c ****   uint32_t tmpsmcr;
1114:Drivers/STM32L4xx_HAL_Driver/Src/stm32l4xx_hal_tim_ex.c **** 
1115:Drivers/STM32L4xx_HAL_Driver/Src/stm32l4xx_hal_tim_ex.c ****   /* Check the parameters */
1116:Drivers/STM32L4xx_HAL_Driver/Src/stm32l4xx_hal_tim_ex.c ****   assert_param(IS_TIM_CCXN_INSTANCE(htim->Instance, Channel));
1117:Drivers/STM32L4xx_HAL_Driver/Src/stm32l4xx_hal_tim_ex.c **** 
1118:Drivers/STM32L4xx_HAL_Driver/Src/stm32l4xx_hal_tim_ex.c ****   /* Check the TIM complementary channel state */
1119:Drivers/STM32L4xx_HAL_Driver/Src/stm32l4xx_hal_tim_ex.c ****   if (TIM_CHANNEL_N_STATE_GET(htim, Channel) != HAL_TIM_CHANNEL_STATE_READY)
 2881              		.loc 1 1119 46
 2882 000a 3B68     		ldr	r3, [r7]
 2883 000c 002B     		cmp	r3, #0
 2884 000e 09D1     		bne	.L189
 2885              		.loc 1 1119 7 discriminator 1
 2886 0010 7B68     		ldr	r3, [r7, #4]
 2887 0012 93F84430 		ldrb	r3, [r3, #68]
 2888 0016 DBB2     		uxtb	r3, r3
 2889              		.loc 1 1119 46 discriminator 1
 2890 0018 012B     		cmp	r3, #1
ARM GAS  /tmp/ccR4xO3u.s 			page 71


 2891 001a 14BF     		ite	ne
 2892 001c 0123     		movne	r3, #1
 2893 001e 0023     		moveq	r3, #0
 2894 0020 DBB2     		uxtb	r3, r3
 2895 0022 22E0     		b	.L190
 2896              	.L189:
 2897              		.loc 1 1119 46 is_stmt 0 discriminator 2
 2898 0024 3B68     		ldr	r3, [r7]
 2899 0026 042B     		cmp	r3, #4
 2900 0028 09D1     		bne	.L191
 2901              		.loc 1 1119 7 is_stmt 1 discriminator 4
 2902 002a 7B68     		ldr	r3, [r7, #4]
 2903 002c 93F84530 		ldrb	r3, [r3, #69]
 2904 0030 DBB2     		uxtb	r3, r3
 2905              		.loc 1 1119 46 discriminator 4
 2906 0032 012B     		cmp	r3, #1
 2907 0034 14BF     		ite	ne
 2908 0036 0123     		movne	r3, #1
 2909 0038 0023     		moveq	r3, #0
 2910 003a DBB2     		uxtb	r3, r3
 2911 003c 15E0     		b	.L190
 2912              	.L191:
 2913              		.loc 1 1119 46 is_stmt 0 discriminator 5
 2914 003e 3B68     		ldr	r3, [r7]
 2915 0040 082B     		cmp	r3, #8
 2916 0042 09D1     		bne	.L193
 2917              		.loc 1 1119 7 is_stmt 1 discriminator 7
 2918 0044 7B68     		ldr	r3, [r7, #4]
 2919 0046 93F84630 		ldrb	r3, [r3, #70]
 2920 004a DBB2     		uxtb	r3, r3
 2921              		.loc 1 1119 46 discriminator 7
 2922 004c 012B     		cmp	r3, #1
 2923 004e 14BF     		ite	ne
 2924 0050 0123     		movne	r3, #1
 2925 0052 0023     		moveq	r3, #0
 2926 0054 DBB2     		uxtb	r3, r3
 2927 0056 08E0     		b	.L190
 2928              	.L193:
 2929              		.loc 1 1119 7 discriminator 8
 2930 0058 7B68     		ldr	r3, [r7, #4]
 2931 005a 93F84730 		ldrb	r3, [r3, #71]
 2932 005e DBB2     		uxtb	r3, r3
 2933              		.loc 1 1119 46 discriminator 8
 2934 0060 012B     		cmp	r3, #1
 2935 0062 14BF     		ite	ne
 2936 0064 0123     		movne	r3, #1
 2937 0066 0023     		moveq	r3, #0
 2938 0068 DBB2     		uxtb	r3, r3
 2939              	.L190:
 2940              		.loc 1 1119 6 discriminator 12
 2941 006a 002B     		cmp	r3, #0
 2942 006c 01D0     		beq	.L195
1120:Drivers/STM32L4xx_HAL_Driver/Src/stm32l4xx_hal_tim_ex.c ****   {
1121:Drivers/STM32L4xx_HAL_Driver/Src/stm32l4xx_hal_tim_ex.c ****     return HAL_ERROR;
 2943              		.loc 1 1121 12
 2944 006e 0123     		movs	r3, #1
 2945 0070 5AE0     		b	.L196
ARM GAS  /tmp/ccR4xO3u.s 			page 72


 2946              	.L195:
1122:Drivers/STM32L4xx_HAL_Driver/Src/stm32l4xx_hal_tim_ex.c ****   }
1123:Drivers/STM32L4xx_HAL_Driver/Src/stm32l4xx_hal_tim_ex.c **** 
1124:Drivers/STM32L4xx_HAL_Driver/Src/stm32l4xx_hal_tim_ex.c ****   /* Set the TIM complementary channel state */
1125:Drivers/STM32L4xx_HAL_Driver/Src/stm32l4xx_hal_tim_ex.c ****   TIM_CHANNEL_N_STATE_SET(htim, Channel, HAL_TIM_CHANNEL_STATE_BUSY);
 2947              		.loc 1 1125 3
 2948 0072 3B68     		ldr	r3, [r7]
 2949 0074 002B     		cmp	r3, #0
 2950 0076 04D1     		bne	.L197
 2951              		.loc 1 1125 3 is_stmt 0 discriminator 1
 2952 0078 7B68     		ldr	r3, [r7, #4]
 2953 007a 0222     		movs	r2, #2
 2954 007c 83F84420 		strb	r2, [r3, #68]
 2955 0080 13E0     		b	.L198
 2956              	.L197:
 2957              		.loc 1 1125 3 discriminator 2
 2958 0082 3B68     		ldr	r3, [r7]
 2959 0084 042B     		cmp	r3, #4
 2960 0086 04D1     		bne	.L199
 2961              		.loc 1 1125 3 discriminator 3
 2962 0088 7B68     		ldr	r3, [r7, #4]
 2963 008a 0222     		movs	r2, #2
 2964 008c 83F84520 		strb	r2, [r3, #69]
 2965 0090 0BE0     		b	.L198
 2966              	.L199:
 2967              		.loc 1 1125 3 discriminator 4
 2968 0092 3B68     		ldr	r3, [r7]
 2969 0094 082B     		cmp	r3, #8
 2970 0096 04D1     		bne	.L201
 2971              		.loc 1 1125 3 discriminator 6
 2972 0098 7B68     		ldr	r3, [r7, #4]
 2973 009a 0222     		movs	r2, #2
 2974 009c 83F84620 		strb	r2, [r3, #70]
 2975 00a0 03E0     		b	.L198
 2976              	.L201:
 2977              		.loc 1 1125 3 discriminator 7
 2978 00a2 7B68     		ldr	r3, [r7, #4]
 2979 00a4 0222     		movs	r2, #2
 2980 00a6 83F84720 		strb	r2, [r3, #71]
 2981              	.L198:
1126:Drivers/STM32L4xx_HAL_Driver/Src/stm32l4xx_hal_tim_ex.c **** 
1127:Drivers/STM32L4xx_HAL_Driver/Src/stm32l4xx_hal_tim_ex.c ****   /* Enable the complementary PWM output  */
1128:Drivers/STM32L4xx_HAL_Driver/Src/stm32l4xx_hal_tim_ex.c ****   TIM_CCxNChannelCmd(htim->Instance, Channel, TIM_CCxN_ENABLE);
 2982              		.loc 1 1128 3 is_stmt 1
 2983 00aa 7B68     		ldr	r3, [r7, #4]
 2984 00ac 1B68     		ldr	r3, [r3]
 2985 00ae 0422     		movs	r2, #4
 2986 00b0 3968     		ldr	r1, [r7]
 2987 00b2 1846     		mov	r0, r3
 2988 00b4 FFF7FEFF 		bl	TIM_CCxNChannelCmd
1129:Drivers/STM32L4xx_HAL_Driver/Src/stm32l4xx_hal_tim_ex.c **** 
1130:Drivers/STM32L4xx_HAL_Driver/Src/stm32l4xx_hal_tim_ex.c ****   /* Enable the Main Output */
1131:Drivers/STM32L4xx_HAL_Driver/Src/stm32l4xx_hal_tim_ex.c ****   __HAL_TIM_MOE_ENABLE(htim);
 2989              		.loc 1 1131 3
 2990 00b8 7B68     		ldr	r3, [r7, #4]
 2991 00ba 1B68     		ldr	r3, [r3]
 2992 00bc 5A6C     		ldr	r2, [r3, #68]
ARM GAS  /tmp/ccR4xO3u.s 			page 73


 2993 00be 7B68     		ldr	r3, [r7, #4]
 2994 00c0 1B68     		ldr	r3, [r3]
 2995 00c2 42F40042 		orr	r2, r2, #32768
 2996 00c6 5A64     		str	r2, [r3, #68]
1132:Drivers/STM32L4xx_HAL_Driver/Src/stm32l4xx_hal_tim_ex.c **** 
1133:Drivers/STM32L4xx_HAL_Driver/Src/stm32l4xx_hal_tim_ex.c ****   /* Enable the Peripheral, except in trigger mode where enable is automatically done with trigger 
1134:Drivers/STM32L4xx_HAL_Driver/Src/stm32l4xx_hal_tim_ex.c ****   if (IS_TIM_SLAVE_INSTANCE(htim->Instance))
 2997              		.loc 1 1134 7
 2998 00c8 7B68     		ldr	r3, [r7, #4]
 2999 00ca 1B68     		ldr	r3, [r3]
 3000              		.loc 1 1134 6
 3001 00cc 184A     		ldr	r2, .L208
 3002 00ce 9342     		cmp	r3, r2
 3003 00d0 09D0     		beq	.L203
 3004              		.loc 1 1134 7 discriminator 1
 3005 00d2 7B68     		ldr	r3, [r7, #4]
 3006 00d4 1B68     		ldr	r3, [r3]
 3007 00d6 B3F1804F 		cmp	r3, #1073741824
 3008 00da 04D0     		beq	.L203
 3009              		.loc 1 1134 7 is_stmt 0 discriminator 2
 3010 00dc 7B68     		ldr	r3, [r7, #4]
 3011 00de 1B68     		ldr	r3, [r3]
 3012 00e0 144A     		ldr	r2, .L208+4
 3013 00e2 9342     		cmp	r3, r2
 3014 00e4 15D1     		bne	.L204
 3015              	.L203:
1135:Drivers/STM32L4xx_HAL_Driver/Src/stm32l4xx_hal_tim_ex.c ****   {
1136:Drivers/STM32L4xx_HAL_Driver/Src/stm32l4xx_hal_tim_ex.c ****     tmpsmcr = htim->Instance->SMCR & TIM_SMCR_SMS;
 3016              		.loc 1 1136 19 is_stmt 1
 3017 00e6 7B68     		ldr	r3, [r7, #4]
 3018 00e8 1B68     		ldr	r3, [r3]
 3019              		.loc 1 1136 29
 3020 00ea 9A68     		ldr	r2, [r3, #8]
 3021              		.loc 1 1136 13
 3022 00ec 124B     		ldr	r3, .L208+8
 3023 00ee 1340     		ands	r3, r3, r2
 3024 00f0 FB60     		str	r3, [r7, #12]
1137:Drivers/STM32L4xx_HAL_Driver/Src/stm32l4xx_hal_tim_ex.c ****     if (!IS_TIM_SLAVEMODE_TRIGGER_ENABLED(tmpsmcr))
 3025              		.loc 1 1137 8
 3026 00f2 FB68     		ldr	r3, [r7, #12]
 3027 00f4 062B     		cmp	r3, #6
 3028 00f6 15D0     		beq	.L207
 3029              		.loc 1 1137 9 discriminator 1
 3030 00f8 FB68     		ldr	r3, [r7, #12]
 3031 00fa B3F5803F 		cmp	r3, #65536
 3032 00fe 11D0     		beq	.L207
1138:Drivers/STM32L4xx_HAL_Driver/Src/stm32l4xx_hal_tim_ex.c ****     {
1139:Drivers/STM32L4xx_HAL_Driver/Src/stm32l4xx_hal_tim_ex.c ****       __HAL_TIM_ENABLE(htim);
 3033              		.loc 1 1139 7
 3034 0100 7B68     		ldr	r3, [r7, #4]
 3035 0102 1B68     		ldr	r3, [r3]
 3036 0104 1A68     		ldr	r2, [r3]
 3037 0106 7B68     		ldr	r3, [r7, #4]
 3038 0108 1B68     		ldr	r3, [r3]
 3039 010a 42F00102 		orr	r2, r2, #1
 3040 010e 1A60     		str	r2, [r3]
1137:Drivers/STM32L4xx_HAL_Driver/Src/stm32l4xx_hal_tim_ex.c ****     if (!IS_TIM_SLAVEMODE_TRIGGER_ENABLED(tmpsmcr))
ARM GAS  /tmp/ccR4xO3u.s 			page 74


 3041              		.loc 1 1137 8
 3042 0110 08E0     		b	.L207
 3043              	.L204:
1140:Drivers/STM32L4xx_HAL_Driver/Src/stm32l4xx_hal_tim_ex.c ****     }
1141:Drivers/STM32L4xx_HAL_Driver/Src/stm32l4xx_hal_tim_ex.c ****   }
1142:Drivers/STM32L4xx_HAL_Driver/Src/stm32l4xx_hal_tim_ex.c ****   else
1143:Drivers/STM32L4xx_HAL_Driver/Src/stm32l4xx_hal_tim_ex.c ****   {
1144:Drivers/STM32L4xx_HAL_Driver/Src/stm32l4xx_hal_tim_ex.c ****     __HAL_TIM_ENABLE(htim);
 3044              		.loc 1 1144 5
 3045 0112 7B68     		ldr	r3, [r7, #4]
 3046 0114 1B68     		ldr	r3, [r3]
 3047 0116 1A68     		ldr	r2, [r3]
 3048 0118 7B68     		ldr	r3, [r7, #4]
 3049 011a 1B68     		ldr	r3, [r3]
 3050 011c 42F00102 		orr	r2, r2, #1
 3051 0120 1A60     		str	r2, [r3]
 3052 0122 00E0     		b	.L206
 3053              	.L207:
1137:Drivers/STM32L4xx_HAL_Driver/Src/stm32l4xx_hal_tim_ex.c ****     {
 3054              		.loc 1 1137 8
 3055 0124 00BF     		nop
 3056              	.L206:
1145:Drivers/STM32L4xx_HAL_Driver/Src/stm32l4xx_hal_tim_ex.c ****   }
1146:Drivers/STM32L4xx_HAL_Driver/Src/stm32l4xx_hal_tim_ex.c **** 
1147:Drivers/STM32L4xx_HAL_Driver/Src/stm32l4xx_hal_tim_ex.c ****   /* Return function status */
1148:Drivers/STM32L4xx_HAL_Driver/Src/stm32l4xx_hal_tim_ex.c ****   return HAL_OK;
 3057              		.loc 1 1148 10
 3058 0126 0023     		movs	r3, #0
 3059              	.L196:
1149:Drivers/STM32L4xx_HAL_Driver/Src/stm32l4xx_hal_tim_ex.c **** }
 3060              		.loc 1 1149 1
 3061 0128 1846     		mov	r0, r3
 3062 012a 1037     		adds	r7, r7, #16
 3063              	.LCFI85:
 3064              		.cfi_def_cfa_offset 8
 3065 012c BD46     		mov	sp, r7
 3066              	.LCFI86:
 3067              		.cfi_def_cfa_register 13
 3068              		@ sp needed
 3069 012e 80BD     		pop	{r7, pc}
 3070              	.L209:
 3071              		.align	2
 3072              	.L208:
 3073 0130 002C0140 		.word	1073818624
 3074 0134 00400140 		.word	1073823744
 3075 0138 07000100 		.word	65543
 3076              		.cfi_endproc
 3077              	.LFE148:
 3079              		.section	.text.HAL_TIMEx_PWMN_Stop,"ax",%progbits
 3080              		.align	1
 3081              		.global	HAL_TIMEx_PWMN_Stop
 3082              		.syntax unified
 3083              		.thumb
 3084              		.thumb_func
 3086              	HAL_TIMEx_PWMN_Stop:
 3087              	.LFB149:
1150:Drivers/STM32L4xx_HAL_Driver/Src/stm32l4xx_hal_tim_ex.c **** 
ARM GAS  /tmp/ccR4xO3u.s 			page 75


1151:Drivers/STM32L4xx_HAL_Driver/Src/stm32l4xx_hal_tim_ex.c **** /**
1152:Drivers/STM32L4xx_HAL_Driver/Src/stm32l4xx_hal_tim_ex.c ****   * @brief  Stops the PWM signal generation on the complementary output.
1153:Drivers/STM32L4xx_HAL_Driver/Src/stm32l4xx_hal_tim_ex.c ****   * @param  htim TIM handle
1154:Drivers/STM32L4xx_HAL_Driver/Src/stm32l4xx_hal_tim_ex.c ****   * @param  Channel TIM Channel to be disabled
1155:Drivers/STM32L4xx_HAL_Driver/Src/stm32l4xx_hal_tim_ex.c ****   *          This parameter can be one of the following values:
1156:Drivers/STM32L4xx_HAL_Driver/Src/stm32l4xx_hal_tim_ex.c ****   *            @arg TIM_CHANNEL_1: TIM Channel 1 selected
1157:Drivers/STM32L4xx_HAL_Driver/Src/stm32l4xx_hal_tim_ex.c ****   *            @arg TIM_CHANNEL_2: TIM Channel 2 selected
1158:Drivers/STM32L4xx_HAL_Driver/Src/stm32l4xx_hal_tim_ex.c ****   *            @arg TIM_CHANNEL_3: TIM Channel 3 selected
1159:Drivers/STM32L4xx_HAL_Driver/Src/stm32l4xx_hal_tim_ex.c ****   * @retval HAL status
1160:Drivers/STM32L4xx_HAL_Driver/Src/stm32l4xx_hal_tim_ex.c ****   */
1161:Drivers/STM32L4xx_HAL_Driver/Src/stm32l4xx_hal_tim_ex.c **** HAL_StatusTypeDef HAL_TIMEx_PWMN_Stop(TIM_HandleTypeDef *htim, uint32_t Channel)
1162:Drivers/STM32L4xx_HAL_Driver/Src/stm32l4xx_hal_tim_ex.c **** {
 3088              		.loc 1 1162 1
 3089              		.cfi_startproc
 3090              		@ args = 0, pretend = 0, frame = 8
 3091              		@ frame_needed = 1, uses_anonymous_args = 0
 3092 0000 80B5     		push	{r7, lr}
 3093              	.LCFI87:
 3094              		.cfi_def_cfa_offset 8
 3095              		.cfi_offset 7, -8
 3096              		.cfi_offset 14, -4
 3097 0002 82B0     		sub	sp, sp, #8
 3098              	.LCFI88:
 3099              		.cfi_def_cfa_offset 16
 3100 0004 00AF     		add	r7, sp, #0
 3101              	.LCFI89:
 3102              		.cfi_def_cfa_register 7
 3103 0006 7860     		str	r0, [r7, #4]
 3104 0008 3960     		str	r1, [r7]
1163:Drivers/STM32L4xx_HAL_Driver/Src/stm32l4xx_hal_tim_ex.c ****   /* Check the parameters */
1164:Drivers/STM32L4xx_HAL_Driver/Src/stm32l4xx_hal_tim_ex.c ****   assert_param(IS_TIM_CCXN_INSTANCE(htim->Instance, Channel));
1165:Drivers/STM32L4xx_HAL_Driver/Src/stm32l4xx_hal_tim_ex.c **** 
1166:Drivers/STM32L4xx_HAL_Driver/Src/stm32l4xx_hal_tim_ex.c ****   /* Disable the complementary PWM output  */
1167:Drivers/STM32L4xx_HAL_Driver/Src/stm32l4xx_hal_tim_ex.c ****   TIM_CCxNChannelCmd(htim->Instance, Channel, TIM_CCxN_DISABLE);
 3105              		.loc 1 1167 3
 3106 000a 7B68     		ldr	r3, [r7, #4]
 3107 000c 1B68     		ldr	r3, [r3]
 3108 000e 0022     		movs	r2, #0
 3109 0010 3968     		ldr	r1, [r7]
 3110 0012 1846     		mov	r0, r3
 3111 0014 FFF7FEFF 		bl	TIM_CCxNChannelCmd
1168:Drivers/STM32L4xx_HAL_Driver/Src/stm32l4xx_hal_tim_ex.c **** 
1169:Drivers/STM32L4xx_HAL_Driver/Src/stm32l4xx_hal_tim_ex.c ****   /* Disable the Main Output */
1170:Drivers/STM32L4xx_HAL_Driver/Src/stm32l4xx_hal_tim_ex.c ****   __HAL_TIM_MOE_DISABLE(htim);
 3112              		.loc 1 1170 3
 3113 0018 7B68     		ldr	r3, [r7, #4]
 3114 001a 1B68     		ldr	r3, [r3]
 3115 001c 1A6A     		ldr	r2, [r3, #32]
 3116 001e 41F21113 		movw	r3, #4369
 3117 0022 1340     		ands	r3, r3, r2
 3118 0024 002B     		cmp	r3, #0
 3119 0026 0FD1     		bne	.L211
 3120              		.loc 1 1170 3 is_stmt 0 discriminator 1
 3121 0028 7B68     		ldr	r3, [r7, #4]
 3122 002a 1B68     		ldr	r3, [r3]
 3123 002c 1A6A     		ldr	r2, [r3, #32]
 3124 002e 40F24443 		movw	r3, #1092
ARM GAS  /tmp/ccR4xO3u.s 			page 76


 3125 0032 1340     		ands	r3, r3, r2
 3126 0034 002B     		cmp	r3, #0
 3127 0036 07D1     		bne	.L211
 3128              		.loc 1 1170 3 discriminator 2
 3129 0038 7B68     		ldr	r3, [r7, #4]
 3130 003a 1B68     		ldr	r3, [r3]
 3131 003c 5A6C     		ldr	r2, [r3, #68]
 3132 003e 7B68     		ldr	r3, [r7, #4]
 3133 0040 1B68     		ldr	r3, [r3]
 3134 0042 22F40042 		bic	r2, r2, #32768
 3135 0046 5A64     		str	r2, [r3, #68]
 3136              	.L211:
1171:Drivers/STM32L4xx_HAL_Driver/Src/stm32l4xx_hal_tim_ex.c **** 
1172:Drivers/STM32L4xx_HAL_Driver/Src/stm32l4xx_hal_tim_ex.c ****   /* Disable the Peripheral */
1173:Drivers/STM32L4xx_HAL_Driver/Src/stm32l4xx_hal_tim_ex.c ****   __HAL_TIM_DISABLE(htim);
 3137              		.loc 1 1173 3 is_stmt 1
 3138 0048 7B68     		ldr	r3, [r7, #4]
 3139 004a 1B68     		ldr	r3, [r3]
 3140 004c 1A6A     		ldr	r2, [r3, #32]
 3141 004e 41F21113 		movw	r3, #4369
 3142 0052 1340     		ands	r3, r3, r2
 3143 0054 002B     		cmp	r3, #0
 3144 0056 0FD1     		bne	.L212
 3145              		.loc 1 1173 3 is_stmt 0 discriminator 1
 3146 0058 7B68     		ldr	r3, [r7, #4]
 3147 005a 1B68     		ldr	r3, [r3]
 3148 005c 1A6A     		ldr	r2, [r3, #32]
 3149 005e 40F24443 		movw	r3, #1092
 3150 0062 1340     		ands	r3, r3, r2
 3151 0064 002B     		cmp	r3, #0
 3152 0066 07D1     		bne	.L212
 3153              		.loc 1 1173 3 discriminator 2
 3154 0068 7B68     		ldr	r3, [r7, #4]
 3155 006a 1B68     		ldr	r3, [r3]
 3156 006c 1A68     		ldr	r2, [r3]
 3157 006e 7B68     		ldr	r3, [r7, #4]
 3158 0070 1B68     		ldr	r3, [r3]
 3159 0072 22F00102 		bic	r2, r2, #1
 3160 0076 1A60     		str	r2, [r3]
 3161              	.L212:
1174:Drivers/STM32L4xx_HAL_Driver/Src/stm32l4xx_hal_tim_ex.c **** 
1175:Drivers/STM32L4xx_HAL_Driver/Src/stm32l4xx_hal_tim_ex.c ****   /* Set the TIM complementary channel state */
1176:Drivers/STM32L4xx_HAL_Driver/Src/stm32l4xx_hal_tim_ex.c ****   TIM_CHANNEL_N_STATE_SET(htim, Channel, HAL_TIM_CHANNEL_STATE_READY);
 3162              		.loc 1 1176 3 is_stmt 1
 3163 0078 3B68     		ldr	r3, [r7]
 3164 007a 002B     		cmp	r3, #0
 3165 007c 04D1     		bne	.L213
 3166              		.loc 1 1176 3 is_stmt 0 discriminator 1
 3167 007e 7B68     		ldr	r3, [r7, #4]
 3168 0080 0122     		movs	r2, #1
 3169 0082 83F84420 		strb	r2, [r3, #68]
 3170 0086 13E0     		b	.L214
 3171              	.L213:
 3172              		.loc 1 1176 3 discriminator 2
 3173 0088 3B68     		ldr	r3, [r7]
 3174 008a 042B     		cmp	r3, #4
 3175 008c 04D1     		bne	.L215
ARM GAS  /tmp/ccR4xO3u.s 			page 77


 3176              		.loc 1 1176 3 discriminator 3
 3177 008e 7B68     		ldr	r3, [r7, #4]
 3178 0090 0122     		movs	r2, #1
 3179 0092 83F84520 		strb	r2, [r3, #69]
 3180 0096 0BE0     		b	.L214
 3181              	.L215:
 3182              		.loc 1 1176 3 discriminator 4
 3183 0098 3B68     		ldr	r3, [r7]
 3184 009a 082B     		cmp	r3, #8
 3185 009c 04D1     		bne	.L217
 3186              		.loc 1 1176 3 discriminator 6
 3187 009e 7B68     		ldr	r3, [r7, #4]
 3188 00a0 0122     		movs	r2, #1
 3189 00a2 83F84620 		strb	r2, [r3, #70]
 3190 00a6 03E0     		b	.L214
 3191              	.L217:
 3192              		.loc 1 1176 3 discriminator 7
 3193 00a8 7B68     		ldr	r3, [r7, #4]
 3194 00aa 0122     		movs	r2, #1
 3195 00ac 83F84720 		strb	r2, [r3, #71]
 3196              	.L214:
1177:Drivers/STM32L4xx_HAL_Driver/Src/stm32l4xx_hal_tim_ex.c **** 
1178:Drivers/STM32L4xx_HAL_Driver/Src/stm32l4xx_hal_tim_ex.c ****   /* Return function status */
1179:Drivers/STM32L4xx_HAL_Driver/Src/stm32l4xx_hal_tim_ex.c ****   return HAL_OK;
 3197              		.loc 1 1179 10 is_stmt 1
 3198 00b0 0023     		movs	r3, #0
1180:Drivers/STM32L4xx_HAL_Driver/Src/stm32l4xx_hal_tim_ex.c **** }
 3199              		.loc 1 1180 1
 3200 00b2 1846     		mov	r0, r3
 3201 00b4 0837     		adds	r7, r7, #8
 3202              	.LCFI90:
 3203              		.cfi_def_cfa_offset 8
 3204 00b6 BD46     		mov	sp, r7
 3205              	.LCFI91:
 3206              		.cfi_def_cfa_register 13
 3207              		@ sp needed
 3208 00b8 80BD     		pop	{r7, pc}
 3209              		.cfi_endproc
 3210              	.LFE149:
 3212              		.section	.text.HAL_TIMEx_PWMN_Start_IT,"ax",%progbits
 3213              		.align	1
 3214              		.global	HAL_TIMEx_PWMN_Start_IT
 3215              		.syntax unified
 3216              		.thumb
 3217              		.thumb_func
 3219              	HAL_TIMEx_PWMN_Start_IT:
 3220              	.LFB150:
1181:Drivers/STM32L4xx_HAL_Driver/Src/stm32l4xx_hal_tim_ex.c **** 
1182:Drivers/STM32L4xx_HAL_Driver/Src/stm32l4xx_hal_tim_ex.c **** /**
1183:Drivers/STM32L4xx_HAL_Driver/Src/stm32l4xx_hal_tim_ex.c ****   * @brief  Starts the PWM signal generation in interrupt mode on the
1184:Drivers/STM32L4xx_HAL_Driver/Src/stm32l4xx_hal_tim_ex.c ****   *         complementary output.
1185:Drivers/STM32L4xx_HAL_Driver/Src/stm32l4xx_hal_tim_ex.c ****   * @param  htim TIM handle
1186:Drivers/STM32L4xx_HAL_Driver/Src/stm32l4xx_hal_tim_ex.c ****   * @param  Channel TIM Channel to be disabled
1187:Drivers/STM32L4xx_HAL_Driver/Src/stm32l4xx_hal_tim_ex.c ****   *          This parameter can be one of the following values:
1188:Drivers/STM32L4xx_HAL_Driver/Src/stm32l4xx_hal_tim_ex.c ****   *            @arg TIM_CHANNEL_1: TIM Channel 1 selected
1189:Drivers/STM32L4xx_HAL_Driver/Src/stm32l4xx_hal_tim_ex.c ****   *            @arg TIM_CHANNEL_2: TIM Channel 2 selected
1190:Drivers/STM32L4xx_HAL_Driver/Src/stm32l4xx_hal_tim_ex.c ****   *            @arg TIM_CHANNEL_3: TIM Channel 3 selected
ARM GAS  /tmp/ccR4xO3u.s 			page 78


1191:Drivers/STM32L4xx_HAL_Driver/Src/stm32l4xx_hal_tim_ex.c ****   * @retval HAL status
1192:Drivers/STM32L4xx_HAL_Driver/Src/stm32l4xx_hal_tim_ex.c ****   */
1193:Drivers/STM32L4xx_HAL_Driver/Src/stm32l4xx_hal_tim_ex.c **** HAL_StatusTypeDef HAL_TIMEx_PWMN_Start_IT(TIM_HandleTypeDef *htim, uint32_t Channel)
1194:Drivers/STM32L4xx_HAL_Driver/Src/stm32l4xx_hal_tim_ex.c **** {
 3221              		.loc 1 1194 1
 3222              		.cfi_startproc
 3223              		@ args = 0, pretend = 0, frame = 16
 3224              		@ frame_needed = 1, uses_anonymous_args = 0
 3225 0000 80B5     		push	{r7, lr}
 3226              	.LCFI92:
 3227              		.cfi_def_cfa_offset 8
 3228              		.cfi_offset 7, -8
 3229              		.cfi_offset 14, -4
 3230 0002 84B0     		sub	sp, sp, #16
 3231              	.LCFI93:
 3232              		.cfi_def_cfa_offset 24
 3233 0004 00AF     		add	r7, sp, #0
 3234              	.LCFI94:
 3235              		.cfi_def_cfa_register 7
 3236 0006 7860     		str	r0, [r7, #4]
 3237 0008 3960     		str	r1, [r7]
1195:Drivers/STM32L4xx_HAL_Driver/Src/stm32l4xx_hal_tim_ex.c ****   HAL_StatusTypeDef status = HAL_OK;
 3238              		.loc 1 1195 21
 3239 000a 0023     		movs	r3, #0
 3240 000c FB73     		strb	r3, [r7, #15]
1196:Drivers/STM32L4xx_HAL_Driver/Src/stm32l4xx_hal_tim_ex.c ****   uint32_t tmpsmcr;
1197:Drivers/STM32L4xx_HAL_Driver/Src/stm32l4xx_hal_tim_ex.c **** 
1198:Drivers/STM32L4xx_HAL_Driver/Src/stm32l4xx_hal_tim_ex.c ****   /* Check the parameters */
1199:Drivers/STM32L4xx_HAL_Driver/Src/stm32l4xx_hal_tim_ex.c ****   assert_param(IS_TIM_CCXN_INSTANCE(htim->Instance, Channel));
1200:Drivers/STM32L4xx_HAL_Driver/Src/stm32l4xx_hal_tim_ex.c **** 
1201:Drivers/STM32L4xx_HAL_Driver/Src/stm32l4xx_hal_tim_ex.c ****   /* Check the TIM complementary channel state */
1202:Drivers/STM32L4xx_HAL_Driver/Src/stm32l4xx_hal_tim_ex.c ****   if (TIM_CHANNEL_N_STATE_GET(htim, Channel) != HAL_TIM_CHANNEL_STATE_READY)
 3241              		.loc 1 1202 46
 3242 000e 3B68     		ldr	r3, [r7]
 3243 0010 002B     		cmp	r3, #0
 3244 0012 09D1     		bne	.L221
 3245              		.loc 1 1202 7 discriminator 1
 3246 0014 7B68     		ldr	r3, [r7, #4]
 3247 0016 93F84430 		ldrb	r3, [r3, #68]
 3248 001a DBB2     		uxtb	r3, r3
 3249              		.loc 1 1202 46 discriminator 1
 3250 001c 012B     		cmp	r3, #1
 3251 001e 14BF     		ite	ne
 3252 0020 0123     		movne	r3, #1
 3253 0022 0023     		moveq	r3, #0
 3254 0024 DBB2     		uxtb	r3, r3
 3255 0026 22E0     		b	.L222
 3256              	.L221:
 3257              		.loc 1 1202 46 is_stmt 0 discriminator 2
 3258 0028 3B68     		ldr	r3, [r7]
 3259 002a 042B     		cmp	r3, #4
 3260 002c 09D1     		bne	.L223
 3261              		.loc 1 1202 7 is_stmt 1 discriminator 4
 3262 002e 7B68     		ldr	r3, [r7, #4]
 3263 0030 93F84530 		ldrb	r3, [r3, #69]
 3264 0034 DBB2     		uxtb	r3, r3
 3265              		.loc 1 1202 46 discriminator 4
ARM GAS  /tmp/ccR4xO3u.s 			page 79


 3266 0036 012B     		cmp	r3, #1
 3267 0038 14BF     		ite	ne
 3268 003a 0123     		movne	r3, #1
 3269 003c 0023     		moveq	r3, #0
 3270 003e DBB2     		uxtb	r3, r3
 3271 0040 15E0     		b	.L222
 3272              	.L223:
 3273              		.loc 1 1202 46 is_stmt 0 discriminator 5
 3274 0042 3B68     		ldr	r3, [r7]
 3275 0044 082B     		cmp	r3, #8
 3276 0046 09D1     		bne	.L225
 3277              		.loc 1 1202 7 is_stmt 1 discriminator 7
 3278 0048 7B68     		ldr	r3, [r7, #4]
 3279 004a 93F84630 		ldrb	r3, [r3, #70]
 3280 004e DBB2     		uxtb	r3, r3
 3281              		.loc 1 1202 46 discriminator 7
 3282 0050 012B     		cmp	r3, #1
 3283 0052 14BF     		ite	ne
 3284 0054 0123     		movne	r3, #1
 3285 0056 0023     		moveq	r3, #0
 3286 0058 DBB2     		uxtb	r3, r3
 3287 005a 08E0     		b	.L222
 3288              	.L225:
 3289              		.loc 1 1202 7 discriminator 8
 3290 005c 7B68     		ldr	r3, [r7, #4]
 3291 005e 93F84730 		ldrb	r3, [r3, #71]
 3292 0062 DBB2     		uxtb	r3, r3
 3293              		.loc 1 1202 46 discriminator 8
 3294 0064 012B     		cmp	r3, #1
 3295 0066 14BF     		ite	ne
 3296 0068 0123     		movne	r3, #1
 3297 006a 0023     		moveq	r3, #0
 3298 006c DBB2     		uxtb	r3, r3
 3299              	.L222:
 3300              		.loc 1 1202 6 discriminator 12
 3301 006e 002B     		cmp	r3, #0
 3302 0070 01D0     		beq	.L227
1203:Drivers/STM32L4xx_HAL_Driver/Src/stm32l4xx_hal_tim_ex.c ****   {
1204:Drivers/STM32L4xx_HAL_Driver/Src/stm32l4xx_hal_tim_ex.c ****     return HAL_ERROR;
 3303              		.loc 1 1204 12
 3304 0072 0123     		movs	r3, #1
 3305 0074 90E0     		b	.L228
 3306              	.L227:
1205:Drivers/STM32L4xx_HAL_Driver/Src/stm32l4xx_hal_tim_ex.c ****   }
1206:Drivers/STM32L4xx_HAL_Driver/Src/stm32l4xx_hal_tim_ex.c **** 
1207:Drivers/STM32L4xx_HAL_Driver/Src/stm32l4xx_hal_tim_ex.c ****   /* Set the TIM complementary channel state */
1208:Drivers/STM32L4xx_HAL_Driver/Src/stm32l4xx_hal_tim_ex.c ****   TIM_CHANNEL_N_STATE_SET(htim, Channel, HAL_TIM_CHANNEL_STATE_BUSY);
 3307              		.loc 1 1208 3
 3308 0076 3B68     		ldr	r3, [r7]
 3309 0078 002B     		cmp	r3, #0
 3310 007a 04D1     		bne	.L229
 3311              		.loc 1 1208 3 is_stmt 0 discriminator 1
 3312 007c 7B68     		ldr	r3, [r7, #4]
 3313 007e 0222     		movs	r2, #2
 3314 0080 83F84420 		strb	r2, [r3, #68]
 3315 0084 13E0     		b	.L230
 3316              	.L229:
ARM GAS  /tmp/ccR4xO3u.s 			page 80


 3317              		.loc 1 1208 3 discriminator 2
 3318 0086 3B68     		ldr	r3, [r7]
 3319 0088 042B     		cmp	r3, #4
 3320 008a 04D1     		bne	.L231
 3321              		.loc 1 1208 3 discriminator 3
 3322 008c 7B68     		ldr	r3, [r7, #4]
 3323 008e 0222     		movs	r2, #2
 3324 0090 83F84520 		strb	r2, [r3, #69]
 3325 0094 0BE0     		b	.L230
 3326              	.L231:
 3327              		.loc 1 1208 3 discriminator 4
 3328 0096 3B68     		ldr	r3, [r7]
 3329 0098 082B     		cmp	r3, #8
 3330 009a 04D1     		bne	.L233
 3331              		.loc 1 1208 3 discriminator 6
 3332 009c 7B68     		ldr	r3, [r7, #4]
 3333 009e 0222     		movs	r2, #2
 3334 00a0 83F84620 		strb	r2, [r3, #70]
 3335 00a4 03E0     		b	.L230
 3336              	.L233:
 3337              		.loc 1 1208 3 discriminator 7
 3338 00a6 7B68     		ldr	r3, [r7, #4]
 3339 00a8 0222     		movs	r2, #2
 3340 00aa 83F84720 		strb	r2, [r3, #71]
 3341              	.L230:
1209:Drivers/STM32L4xx_HAL_Driver/Src/stm32l4xx_hal_tim_ex.c **** 
1210:Drivers/STM32L4xx_HAL_Driver/Src/stm32l4xx_hal_tim_ex.c ****   switch (Channel)
 3342              		.loc 1 1210 3 is_stmt 1
 3343 00ae 3B68     		ldr	r3, [r7]
 3344 00b0 082B     		cmp	r3, #8
 3345 00b2 1BD0     		beq	.L235
 3346 00b4 3B68     		ldr	r3, [r7]
 3347 00b6 082B     		cmp	r3, #8
 3348 00b8 21D8     		bhi	.L236
 3349 00ba 3B68     		ldr	r3, [r7]
 3350 00bc 002B     		cmp	r3, #0
 3351 00be 03D0     		beq	.L237
 3352 00c0 3B68     		ldr	r3, [r7]
 3353 00c2 042B     		cmp	r3, #4
 3354 00c4 09D0     		beq	.L238
 3355 00c6 1AE0     		b	.L236
 3356              	.L237:
1211:Drivers/STM32L4xx_HAL_Driver/Src/stm32l4xx_hal_tim_ex.c ****   {
1212:Drivers/STM32L4xx_HAL_Driver/Src/stm32l4xx_hal_tim_ex.c ****     case TIM_CHANNEL_1:
1213:Drivers/STM32L4xx_HAL_Driver/Src/stm32l4xx_hal_tim_ex.c ****     {
1214:Drivers/STM32L4xx_HAL_Driver/Src/stm32l4xx_hal_tim_ex.c ****       /* Enable the TIM Capture/Compare 1 interrupt */
1215:Drivers/STM32L4xx_HAL_Driver/Src/stm32l4xx_hal_tim_ex.c ****       __HAL_TIM_ENABLE_IT(htim, TIM_IT_CC1);
 3357              		.loc 1 1215 7
 3358 00c8 7B68     		ldr	r3, [r7, #4]
 3359 00ca 1B68     		ldr	r3, [r3]
 3360 00cc DA68     		ldr	r2, [r3, #12]
 3361 00ce 7B68     		ldr	r3, [r7, #4]
 3362 00d0 1B68     		ldr	r3, [r3]
 3363 00d2 42F00202 		orr	r2, r2, #2
 3364 00d6 DA60     		str	r2, [r3, #12]
1216:Drivers/STM32L4xx_HAL_Driver/Src/stm32l4xx_hal_tim_ex.c ****       break;
 3365              		.loc 1 1216 7
ARM GAS  /tmp/ccR4xO3u.s 			page 81


 3366 00d8 14E0     		b	.L239
 3367              	.L238:
1217:Drivers/STM32L4xx_HAL_Driver/Src/stm32l4xx_hal_tim_ex.c ****     }
1218:Drivers/STM32L4xx_HAL_Driver/Src/stm32l4xx_hal_tim_ex.c **** 
1219:Drivers/STM32L4xx_HAL_Driver/Src/stm32l4xx_hal_tim_ex.c ****     case TIM_CHANNEL_2:
1220:Drivers/STM32L4xx_HAL_Driver/Src/stm32l4xx_hal_tim_ex.c ****     {
1221:Drivers/STM32L4xx_HAL_Driver/Src/stm32l4xx_hal_tim_ex.c ****       /* Enable the TIM Capture/Compare 2 interrupt */
1222:Drivers/STM32L4xx_HAL_Driver/Src/stm32l4xx_hal_tim_ex.c ****       __HAL_TIM_ENABLE_IT(htim, TIM_IT_CC2);
 3368              		.loc 1 1222 7
 3369 00da 7B68     		ldr	r3, [r7, #4]
 3370 00dc 1B68     		ldr	r3, [r3]
 3371 00de DA68     		ldr	r2, [r3, #12]
 3372 00e0 7B68     		ldr	r3, [r7, #4]
 3373 00e2 1B68     		ldr	r3, [r3]
 3374 00e4 42F00402 		orr	r2, r2, #4
 3375 00e8 DA60     		str	r2, [r3, #12]
1223:Drivers/STM32L4xx_HAL_Driver/Src/stm32l4xx_hal_tim_ex.c ****       break;
 3376              		.loc 1 1223 7
 3377 00ea 0BE0     		b	.L239
 3378              	.L235:
1224:Drivers/STM32L4xx_HAL_Driver/Src/stm32l4xx_hal_tim_ex.c ****     }
1225:Drivers/STM32L4xx_HAL_Driver/Src/stm32l4xx_hal_tim_ex.c **** 
1226:Drivers/STM32L4xx_HAL_Driver/Src/stm32l4xx_hal_tim_ex.c ****     case TIM_CHANNEL_3:
1227:Drivers/STM32L4xx_HAL_Driver/Src/stm32l4xx_hal_tim_ex.c ****     {
1228:Drivers/STM32L4xx_HAL_Driver/Src/stm32l4xx_hal_tim_ex.c ****       /* Enable the TIM Capture/Compare 3 interrupt */
1229:Drivers/STM32L4xx_HAL_Driver/Src/stm32l4xx_hal_tim_ex.c ****       __HAL_TIM_ENABLE_IT(htim, TIM_IT_CC3);
 3379              		.loc 1 1229 7
 3380 00ec 7B68     		ldr	r3, [r7, #4]
