ARM GAS  /tmp/ccDSCK0d.s 			page 1


   1              		.cpu cortex-m4
   2              		.arch armv7e-m
   3              		.fpu fpv4-sp-d16
   4              		.eabi_attribute 27, 1
   5              		.eabi_attribute 28, 1
   6              		.eabi_attribute 20, 1
   7              		.eabi_attribute 21, 1
   8              		.eabi_attribute 23, 3
   9              		.eabi_attribute 24, 1
  10              		.eabi_attribute 25, 1
  11              		.eabi_attribute 26, 1
  12              		.eabi_attribute 30, 6
  13              		.eabi_attribute 34, 1
  14              		.eabi_attribute 18, 4
  15              		.file	"stm32f4xx_hal_can.c"
  16              		.text
  17              	.Ltext0:
  18              		.cfi_sections	.debug_frame
  19              		.section	.text.HAL_CAN_Init,"ax",%progbits
  20              		.align	1
  21              		.global	HAL_CAN_Init
  22              		.syntax unified
  23              		.thumb
  24              		.thumb_func
  26              	HAL_CAN_Init:
  27              	.LFB235:
  28              		.file 1 "Drivers/STM32F4xx_HAL_Driver/Src/stm32f4xx_hal_can.c"
   1:Drivers/STM32F4xx_HAL_Driver/Src/stm32f4xx_hal_can.c **** /**
   2:Drivers/STM32F4xx_HAL_Driver/Src/stm32f4xx_hal_can.c ****   ******************************************************************************
   3:Drivers/STM32F4xx_HAL_Driver/Src/stm32f4xx_hal_can.c ****   * @file    stm32f4xx_hal_can.c
   4:Drivers/STM32F4xx_HAL_Driver/Src/stm32f4xx_hal_can.c ****   * @author  MCD Application Team
   5:Drivers/STM32F4xx_HAL_Driver/Src/stm32f4xx_hal_can.c ****   * @brief   CAN HAL module driver.
   6:Drivers/STM32F4xx_HAL_Driver/Src/stm32f4xx_hal_can.c ****   *          This file provides firmware functions to manage the following
   7:Drivers/STM32F4xx_HAL_Driver/Src/stm32f4xx_hal_can.c ****   *          functionalities of the Controller Area Network (CAN) peripheral:
   8:Drivers/STM32F4xx_HAL_Driver/Src/stm32f4xx_hal_can.c ****   *           + Initialization and de-initialization functions
   9:Drivers/STM32F4xx_HAL_Driver/Src/stm32f4xx_hal_can.c ****   *           + Configuration functions
  10:Drivers/STM32F4xx_HAL_Driver/Src/stm32f4xx_hal_can.c ****   *           + Control functions
  11:Drivers/STM32F4xx_HAL_Driver/Src/stm32f4xx_hal_can.c ****   *           + Interrupts management
  12:Drivers/STM32F4xx_HAL_Driver/Src/stm32f4xx_hal_can.c ****   *           + Callbacks functions
  13:Drivers/STM32F4xx_HAL_Driver/Src/stm32f4xx_hal_can.c ****   *           + Peripheral State and Error functions
  14:Drivers/STM32F4xx_HAL_Driver/Src/stm32f4xx_hal_can.c ****   *
  15:Drivers/STM32F4xx_HAL_Driver/Src/stm32f4xx_hal_can.c ****   ******************************************************************************
  16:Drivers/STM32F4xx_HAL_Driver/Src/stm32f4xx_hal_can.c ****   * @attention
  17:Drivers/STM32F4xx_HAL_Driver/Src/stm32f4xx_hal_can.c ****   *
  18:Drivers/STM32F4xx_HAL_Driver/Src/stm32f4xx_hal_can.c ****   * Copyright (c) 2016 STMicroelectronics.
  19:Drivers/STM32F4xx_HAL_Driver/Src/stm32f4xx_hal_can.c ****   * All rights reserved.
  20:Drivers/STM32F4xx_HAL_Driver/Src/stm32f4xx_hal_can.c ****   *
  21:Drivers/STM32F4xx_HAL_Driver/Src/stm32f4xx_hal_can.c ****   * This software is licensed under terms that can be found in the LICENSE file
  22:Drivers/STM32F4xx_HAL_Driver/Src/stm32f4xx_hal_can.c ****   * in the root directory of this software component.
  23:Drivers/STM32F4xx_HAL_Driver/Src/stm32f4xx_hal_can.c ****   * If no LICENSE file comes with this software, it is provided AS-IS.
  24:Drivers/STM32F4xx_HAL_Driver/Src/stm32f4xx_hal_can.c ****   *
  25:Drivers/STM32F4xx_HAL_Driver/Src/stm32f4xx_hal_can.c ****   ******************************************************************************
  26:Drivers/STM32F4xx_HAL_Driver/Src/stm32f4xx_hal_can.c ****   @verbatim
  27:Drivers/STM32F4xx_HAL_Driver/Src/stm32f4xx_hal_can.c ****   ==============================================================================
  28:Drivers/STM32F4xx_HAL_Driver/Src/stm32f4xx_hal_can.c ****                         ##### How to use this driver #####
  29:Drivers/STM32F4xx_HAL_Driver/Src/stm32f4xx_hal_can.c ****   ==============================================================================
  30:Drivers/STM32F4xx_HAL_Driver/Src/stm32f4xx_hal_can.c ****     [..]
ARM GAS  /tmp/ccDSCK0d.s 			page 2


  31:Drivers/STM32F4xx_HAL_Driver/Src/stm32f4xx_hal_can.c ****       (#) Initialize the CAN low level resources by implementing the
  32:Drivers/STM32F4xx_HAL_Driver/Src/stm32f4xx_hal_can.c ****           HAL_CAN_MspInit():
  33:Drivers/STM32F4xx_HAL_Driver/Src/stm32f4xx_hal_can.c ****          (++) Enable the CAN interface clock using __HAL_RCC_CANx_CLK_ENABLE()
  34:Drivers/STM32F4xx_HAL_Driver/Src/stm32f4xx_hal_can.c ****          (++) Configure CAN pins
  35:Drivers/STM32F4xx_HAL_Driver/Src/stm32f4xx_hal_can.c ****              (+++) Enable the clock for the CAN GPIOs
  36:Drivers/STM32F4xx_HAL_Driver/Src/stm32f4xx_hal_can.c ****              (+++) Configure CAN pins as alternate function open-drain
  37:Drivers/STM32F4xx_HAL_Driver/Src/stm32f4xx_hal_can.c ****          (++) In case of using interrupts (e.g. HAL_CAN_ActivateNotification())
  38:Drivers/STM32F4xx_HAL_Driver/Src/stm32f4xx_hal_can.c ****              (+++) Configure the CAN interrupt priority using
  39:Drivers/STM32F4xx_HAL_Driver/Src/stm32f4xx_hal_can.c ****                    HAL_NVIC_SetPriority()
  40:Drivers/STM32F4xx_HAL_Driver/Src/stm32f4xx_hal_can.c ****              (+++) Enable the CAN IRQ handler using HAL_NVIC_EnableIRQ()
  41:Drivers/STM32F4xx_HAL_Driver/Src/stm32f4xx_hal_can.c ****              (+++) In CAN IRQ handler, call HAL_CAN_IRQHandler()
  42:Drivers/STM32F4xx_HAL_Driver/Src/stm32f4xx_hal_can.c **** 
  43:Drivers/STM32F4xx_HAL_Driver/Src/stm32f4xx_hal_can.c ****       (#) Initialize the CAN peripheral using HAL_CAN_Init() function. This
  44:Drivers/STM32F4xx_HAL_Driver/Src/stm32f4xx_hal_can.c ****           function resorts to HAL_CAN_MspInit() for low-level initialization.
  45:Drivers/STM32F4xx_HAL_Driver/Src/stm32f4xx_hal_can.c **** 
  46:Drivers/STM32F4xx_HAL_Driver/Src/stm32f4xx_hal_can.c ****       (#) Configure the reception filters using the following configuration
  47:Drivers/STM32F4xx_HAL_Driver/Src/stm32f4xx_hal_can.c ****           functions:
  48:Drivers/STM32F4xx_HAL_Driver/Src/stm32f4xx_hal_can.c ****             (++) HAL_CAN_ConfigFilter()
  49:Drivers/STM32F4xx_HAL_Driver/Src/stm32f4xx_hal_can.c **** 
  50:Drivers/STM32F4xx_HAL_Driver/Src/stm32f4xx_hal_can.c ****       (#) Start the CAN module using HAL_CAN_Start() function. At this level
  51:Drivers/STM32F4xx_HAL_Driver/Src/stm32f4xx_hal_can.c ****           the node is active on the bus: it receive messages, and can send
  52:Drivers/STM32F4xx_HAL_Driver/Src/stm32f4xx_hal_can.c ****           messages.
  53:Drivers/STM32F4xx_HAL_Driver/Src/stm32f4xx_hal_can.c **** 
  54:Drivers/STM32F4xx_HAL_Driver/Src/stm32f4xx_hal_can.c ****       (#) To manage messages transmission, the following Tx control functions
  55:Drivers/STM32F4xx_HAL_Driver/Src/stm32f4xx_hal_can.c ****           can be used:
  56:Drivers/STM32F4xx_HAL_Driver/Src/stm32f4xx_hal_can.c ****             (++) HAL_CAN_AddTxMessage() to request transmission of a new
  57:Drivers/STM32F4xx_HAL_Driver/Src/stm32f4xx_hal_can.c ****                  message.
  58:Drivers/STM32F4xx_HAL_Driver/Src/stm32f4xx_hal_can.c ****             (++) HAL_CAN_AbortTxRequest() to abort transmission of a pending
  59:Drivers/STM32F4xx_HAL_Driver/Src/stm32f4xx_hal_can.c ****                  message.
  60:Drivers/STM32F4xx_HAL_Driver/Src/stm32f4xx_hal_can.c ****             (++) HAL_CAN_GetTxMailboxesFreeLevel() to get the number of free Tx
  61:Drivers/STM32F4xx_HAL_Driver/Src/stm32f4xx_hal_can.c ****                  mailboxes.
  62:Drivers/STM32F4xx_HAL_Driver/Src/stm32f4xx_hal_can.c ****             (++) HAL_CAN_IsTxMessagePending() to check if a message is pending
  63:Drivers/STM32F4xx_HAL_Driver/Src/stm32f4xx_hal_can.c ****                  in a Tx mailbox.
  64:Drivers/STM32F4xx_HAL_Driver/Src/stm32f4xx_hal_can.c ****             (++) HAL_CAN_GetTxTimestamp() to get the timestamp of Tx message
  65:Drivers/STM32F4xx_HAL_Driver/Src/stm32f4xx_hal_can.c ****                  sent, if time triggered communication mode is enabled.
  66:Drivers/STM32F4xx_HAL_Driver/Src/stm32f4xx_hal_can.c **** 
  67:Drivers/STM32F4xx_HAL_Driver/Src/stm32f4xx_hal_can.c ****       (#) When a message is received into the CAN Rx FIFOs, it can be retrieved
  68:Drivers/STM32F4xx_HAL_Driver/Src/stm32f4xx_hal_can.c ****           using the HAL_CAN_GetRxMessage() function. The function
  69:Drivers/STM32F4xx_HAL_Driver/Src/stm32f4xx_hal_can.c ****           HAL_CAN_GetRxFifoFillLevel() allows to know how many Rx message are
  70:Drivers/STM32F4xx_HAL_Driver/Src/stm32f4xx_hal_can.c ****           stored in the Rx Fifo.
  71:Drivers/STM32F4xx_HAL_Driver/Src/stm32f4xx_hal_can.c **** 
  72:Drivers/STM32F4xx_HAL_Driver/Src/stm32f4xx_hal_can.c ****       (#) Calling the HAL_CAN_Stop() function stops the CAN module.
  73:Drivers/STM32F4xx_HAL_Driver/Src/stm32f4xx_hal_can.c **** 
  74:Drivers/STM32F4xx_HAL_Driver/Src/stm32f4xx_hal_can.c ****       (#) The deinitialization is achieved with HAL_CAN_DeInit() function.
  75:Drivers/STM32F4xx_HAL_Driver/Src/stm32f4xx_hal_can.c **** 
  76:Drivers/STM32F4xx_HAL_Driver/Src/stm32f4xx_hal_can.c **** 
  77:Drivers/STM32F4xx_HAL_Driver/Src/stm32f4xx_hal_can.c ****       *** Polling mode operation ***
  78:Drivers/STM32F4xx_HAL_Driver/Src/stm32f4xx_hal_can.c ****       ==============================
  79:Drivers/STM32F4xx_HAL_Driver/Src/stm32f4xx_hal_can.c ****     [..]
  80:Drivers/STM32F4xx_HAL_Driver/Src/stm32f4xx_hal_can.c ****       (#) Reception:
  81:Drivers/STM32F4xx_HAL_Driver/Src/stm32f4xx_hal_can.c ****             (++) Monitor reception of message using HAL_CAN_GetRxFifoFillLevel()
  82:Drivers/STM32F4xx_HAL_Driver/Src/stm32f4xx_hal_can.c ****                  until at least one message is received.
  83:Drivers/STM32F4xx_HAL_Driver/Src/stm32f4xx_hal_can.c ****             (++) Then get the message using HAL_CAN_GetRxMessage().
  84:Drivers/STM32F4xx_HAL_Driver/Src/stm32f4xx_hal_can.c **** 
  85:Drivers/STM32F4xx_HAL_Driver/Src/stm32f4xx_hal_can.c ****       (#) Transmission:
  86:Drivers/STM32F4xx_HAL_Driver/Src/stm32f4xx_hal_can.c ****             (++) Monitor the Tx mailboxes availability until at least one Tx
  87:Drivers/STM32F4xx_HAL_Driver/Src/stm32f4xx_hal_can.c ****                  mailbox is free, using HAL_CAN_GetTxMailboxesFreeLevel().
ARM GAS  /tmp/ccDSCK0d.s 			page 3


  88:Drivers/STM32F4xx_HAL_Driver/Src/stm32f4xx_hal_can.c ****             (++) Then request transmission of a message using
  89:Drivers/STM32F4xx_HAL_Driver/Src/stm32f4xx_hal_can.c ****                  HAL_CAN_AddTxMessage().
  90:Drivers/STM32F4xx_HAL_Driver/Src/stm32f4xx_hal_can.c **** 
  91:Drivers/STM32F4xx_HAL_Driver/Src/stm32f4xx_hal_can.c **** 
  92:Drivers/STM32F4xx_HAL_Driver/Src/stm32f4xx_hal_can.c ****       *** Interrupt mode operation ***
  93:Drivers/STM32F4xx_HAL_Driver/Src/stm32f4xx_hal_can.c ****       ================================
  94:Drivers/STM32F4xx_HAL_Driver/Src/stm32f4xx_hal_can.c ****     [..]
  95:Drivers/STM32F4xx_HAL_Driver/Src/stm32f4xx_hal_can.c ****       (#) Notifications are activated using HAL_CAN_ActivateNotification()
  96:Drivers/STM32F4xx_HAL_Driver/Src/stm32f4xx_hal_can.c ****           function. Then, the process can be controlled through the
  97:Drivers/STM32F4xx_HAL_Driver/Src/stm32f4xx_hal_can.c ****           available user callbacks: HAL_CAN_xxxCallback(), using same APIs
  98:Drivers/STM32F4xx_HAL_Driver/Src/stm32f4xx_hal_can.c ****           HAL_CAN_GetRxMessage() and HAL_CAN_AddTxMessage().
  99:Drivers/STM32F4xx_HAL_Driver/Src/stm32f4xx_hal_can.c **** 
 100:Drivers/STM32F4xx_HAL_Driver/Src/stm32f4xx_hal_can.c ****       (#) Notifications can be deactivated using
 101:Drivers/STM32F4xx_HAL_Driver/Src/stm32f4xx_hal_can.c ****           HAL_CAN_DeactivateNotification() function.
 102:Drivers/STM32F4xx_HAL_Driver/Src/stm32f4xx_hal_can.c **** 
 103:Drivers/STM32F4xx_HAL_Driver/Src/stm32f4xx_hal_can.c ****       (#) Special care should be taken for CAN_IT_RX_FIFO0_MSG_PENDING and
 104:Drivers/STM32F4xx_HAL_Driver/Src/stm32f4xx_hal_can.c ****           CAN_IT_RX_FIFO1_MSG_PENDING notifications. These notifications trig
 105:Drivers/STM32F4xx_HAL_Driver/Src/stm32f4xx_hal_can.c ****           the callbacks HAL_CAN_RxFIFO0MsgPendingCallback() and
 106:Drivers/STM32F4xx_HAL_Driver/Src/stm32f4xx_hal_can.c ****           HAL_CAN_RxFIFO1MsgPendingCallback(). User has two possible options
 107:Drivers/STM32F4xx_HAL_Driver/Src/stm32f4xx_hal_can.c ****           here.
 108:Drivers/STM32F4xx_HAL_Driver/Src/stm32f4xx_hal_can.c ****             (++) Directly get the Rx message in the callback, using
 109:Drivers/STM32F4xx_HAL_Driver/Src/stm32f4xx_hal_can.c ****                  HAL_CAN_GetRxMessage().
 110:Drivers/STM32F4xx_HAL_Driver/Src/stm32f4xx_hal_can.c ****             (++) Or deactivate the notification in the callback without
 111:Drivers/STM32F4xx_HAL_Driver/Src/stm32f4xx_hal_can.c ****                  getting the Rx message. The Rx message can then be got later
 112:Drivers/STM32F4xx_HAL_Driver/Src/stm32f4xx_hal_can.c ****                  using HAL_CAN_GetRxMessage(). Once the Rx message have been
 113:Drivers/STM32F4xx_HAL_Driver/Src/stm32f4xx_hal_can.c ****                  read, the notification can be activated again.
 114:Drivers/STM32F4xx_HAL_Driver/Src/stm32f4xx_hal_can.c **** 
 115:Drivers/STM32F4xx_HAL_Driver/Src/stm32f4xx_hal_can.c **** 
 116:Drivers/STM32F4xx_HAL_Driver/Src/stm32f4xx_hal_can.c ****       *** Sleep mode ***
 117:Drivers/STM32F4xx_HAL_Driver/Src/stm32f4xx_hal_can.c ****       ==================
 118:Drivers/STM32F4xx_HAL_Driver/Src/stm32f4xx_hal_can.c ****     [..]
 119:Drivers/STM32F4xx_HAL_Driver/Src/stm32f4xx_hal_can.c ****       (#) The CAN peripheral can be put in sleep mode (low power), using
 120:Drivers/STM32F4xx_HAL_Driver/Src/stm32f4xx_hal_can.c ****           HAL_CAN_RequestSleep(). The sleep mode will be entered as soon as the
 121:Drivers/STM32F4xx_HAL_Driver/Src/stm32f4xx_hal_can.c ****           current CAN activity (transmission or reception of a CAN frame) will
 122:Drivers/STM32F4xx_HAL_Driver/Src/stm32f4xx_hal_can.c ****           be completed.
 123:Drivers/STM32F4xx_HAL_Driver/Src/stm32f4xx_hal_can.c **** 
 124:Drivers/STM32F4xx_HAL_Driver/Src/stm32f4xx_hal_can.c ****       (#) A notification can be activated to be informed when the sleep mode
 125:Drivers/STM32F4xx_HAL_Driver/Src/stm32f4xx_hal_can.c ****           will be entered.
 126:Drivers/STM32F4xx_HAL_Driver/Src/stm32f4xx_hal_can.c **** 
 127:Drivers/STM32F4xx_HAL_Driver/Src/stm32f4xx_hal_can.c ****       (#) It can be checked if the sleep mode is entered using
 128:Drivers/STM32F4xx_HAL_Driver/Src/stm32f4xx_hal_can.c ****           HAL_CAN_IsSleepActive().
 129:Drivers/STM32F4xx_HAL_Driver/Src/stm32f4xx_hal_can.c ****           Note that the CAN state (accessible from the API HAL_CAN_GetState())
 130:Drivers/STM32F4xx_HAL_Driver/Src/stm32f4xx_hal_can.c ****           is HAL_CAN_STATE_SLEEP_PENDING as soon as the sleep mode request is
 131:Drivers/STM32F4xx_HAL_Driver/Src/stm32f4xx_hal_can.c ****           submitted (the sleep mode is not yet entered), and become
 132:Drivers/STM32F4xx_HAL_Driver/Src/stm32f4xx_hal_can.c ****           HAL_CAN_STATE_SLEEP_ACTIVE when the sleep mode is effective.
 133:Drivers/STM32F4xx_HAL_Driver/Src/stm32f4xx_hal_can.c **** 
 134:Drivers/STM32F4xx_HAL_Driver/Src/stm32f4xx_hal_can.c ****       (#) The wake-up from sleep mode can be triggered by two ways:
 135:Drivers/STM32F4xx_HAL_Driver/Src/stm32f4xx_hal_can.c ****             (++) Using HAL_CAN_WakeUp(). When returning from this function,
 136:Drivers/STM32F4xx_HAL_Driver/Src/stm32f4xx_hal_can.c ****                  the sleep mode is exited (if return status is HAL_OK).
 137:Drivers/STM32F4xx_HAL_Driver/Src/stm32f4xx_hal_can.c ****             (++) When a start of Rx CAN frame is detected by the CAN peripheral,
 138:Drivers/STM32F4xx_HAL_Driver/Src/stm32f4xx_hal_can.c ****                  if automatic wake up mode is enabled.
 139:Drivers/STM32F4xx_HAL_Driver/Src/stm32f4xx_hal_can.c **** 
 140:Drivers/STM32F4xx_HAL_Driver/Src/stm32f4xx_hal_can.c ****   *** Callback registration ***
 141:Drivers/STM32F4xx_HAL_Driver/Src/stm32f4xx_hal_can.c ****   =============================================
 142:Drivers/STM32F4xx_HAL_Driver/Src/stm32f4xx_hal_can.c **** 
 143:Drivers/STM32F4xx_HAL_Driver/Src/stm32f4xx_hal_can.c ****   The compilation define  USE_HAL_CAN_REGISTER_CALLBACKS when set to 1
 144:Drivers/STM32F4xx_HAL_Driver/Src/stm32f4xx_hal_can.c ****   allows the user to configure dynamically the driver callbacks.
ARM GAS  /tmp/ccDSCK0d.s 			page 4


 145:Drivers/STM32F4xx_HAL_Driver/Src/stm32f4xx_hal_can.c ****   Use Function HAL_CAN_RegisterCallback() to register an interrupt callback.
 146:Drivers/STM32F4xx_HAL_Driver/Src/stm32f4xx_hal_can.c **** 
 147:Drivers/STM32F4xx_HAL_Driver/Src/stm32f4xx_hal_can.c ****   Function HAL_CAN_RegisterCallback() allows to register following callbacks:
 148:Drivers/STM32F4xx_HAL_Driver/Src/stm32f4xx_hal_can.c ****     (+) TxMailbox0CompleteCallback   : Tx Mailbox 0 Complete Callback.
 149:Drivers/STM32F4xx_HAL_Driver/Src/stm32f4xx_hal_can.c ****     (+) TxMailbox1CompleteCallback   : Tx Mailbox 1 Complete Callback.
 150:Drivers/STM32F4xx_HAL_Driver/Src/stm32f4xx_hal_can.c ****     (+) TxMailbox2CompleteCallback   : Tx Mailbox 2 Complete Callback.
 151:Drivers/STM32F4xx_HAL_Driver/Src/stm32f4xx_hal_can.c ****     (+) TxMailbox0AbortCallback      : Tx Mailbox 0 Abort Callback.
 152:Drivers/STM32F4xx_HAL_Driver/Src/stm32f4xx_hal_can.c ****     (+) TxMailbox1AbortCallback      : Tx Mailbox 1 Abort Callback.
 153:Drivers/STM32F4xx_HAL_Driver/Src/stm32f4xx_hal_can.c ****     (+) TxMailbox2AbortCallback      : Tx Mailbox 2 Abort Callback.
 154:Drivers/STM32F4xx_HAL_Driver/Src/stm32f4xx_hal_can.c ****     (+) RxFifo0MsgPendingCallback    : Rx Fifo 0 Message Pending Callback.
 155:Drivers/STM32F4xx_HAL_Driver/Src/stm32f4xx_hal_can.c ****     (+) RxFifo0FullCallback          : Rx Fifo 0 Full Callback.
 156:Drivers/STM32F4xx_HAL_Driver/Src/stm32f4xx_hal_can.c ****     (+) RxFifo1MsgPendingCallback    : Rx Fifo 1 Message Pending Callback.
 157:Drivers/STM32F4xx_HAL_Driver/Src/stm32f4xx_hal_can.c ****     (+) RxFifo1FullCallback          : Rx Fifo 1 Full Callback.
 158:Drivers/STM32F4xx_HAL_Driver/Src/stm32f4xx_hal_can.c ****     (+) SleepCallback                : Sleep Callback.
 159:Drivers/STM32F4xx_HAL_Driver/Src/stm32f4xx_hal_can.c ****     (+) WakeUpFromRxMsgCallback      : Wake Up From Rx Message Callback.
 160:Drivers/STM32F4xx_HAL_Driver/Src/stm32f4xx_hal_can.c ****     (+) ErrorCallback                : Error Callback.
 161:Drivers/STM32F4xx_HAL_Driver/Src/stm32f4xx_hal_can.c ****     (+) MspInitCallback              : CAN MspInit.
 162:Drivers/STM32F4xx_HAL_Driver/Src/stm32f4xx_hal_can.c ****     (+) MspDeInitCallback            : CAN MspDeInit.
 163:Drivers/STM32F4xx_HAL_Driver/Src/stm32f4xx_hal_can.c ****   This function takes as parameters the HAL peripheral handle, the Callback ID
 164:Drivers/STM32F4xx_HAL_Driver/Src/stm32f4xx_hal_can.c ****   and a pointer to the user callback function.
 165:Drivers/STM32F4xx_HAL_Driver/Src/stm32f4xx_hal_can.c **** 
 166:Drivers/STM32F4xx_HAL_Driver/Src/stm32f4xx_hal_can.c ****   Use function HAL_CAN_UnRegisterCallback() to reset a callback to the default
 167:Drivers/STM32F4xx_HAL_Driver/Src/stm32f4xx_hal_can.c ****   weak function.
 168:Drivers/STM32F4xx_HAL_Driver/Src/stm32f4xx_hal_can.c ****   HAL_CAN_UnRegisterCallback takes as parameters the HAL peripheral handle,
 169:Drivers/STM32F4xx_HAL_Driver/Src/stm32f4xx_hal_can.c ****   and the Callback ID.
 170:Drivers/STM32F4xx_HAL_Driver/Src/stm32f4xx_hal_can.c ****   This function allows to reset following callbacks:
 171:Drivers/STM32F4xx_HAL_Driver/Src/stm32f4xx_hal_can.c ****     (+) TxMailbox0CompleteCallback   : Tx Mailbox 0 Complete Callback.
 172:Drivers/STM32F4xx_HAL_Driver/Src/stm32f4xx_hal_can.c ****     (+) TxMailbox1CompleteCallback   : Tx Mailbox 1 Complete Callback.
 173:Drivers/STM32F4xx_HAL_Driver/Src/stm32f4xx_hal_can.c ****     (+) TxMailbox2CompleteCallback   : Tx Mailbox 2 Complete Callback.
 174:Drivers/STM32F4xx_HAL_Driver/Src/stm32f4xx_hal_can.c ****     (+) TxMailbox0AbortCallback      : Tx Mailbox 0 Abort Callback.
 175:Drivers/STM32F4xx_HAL_Driver/Src/stm32f4xx_hal_can.c ****     (+) TxMailbox1AbortCallback      : Tx Mailbox 1 Abort Callback.
 176:Drivers/STM32F4xx_HAL_Driver/Src/stm32f4xx_hal_can.c ****     (+) TxMailbox2AbortCallback      : Tx Mailbox 2 Abort Callback.
 177:Drivers/STM32F4xx_HAL_Driver/Src/stm32f4xx_hal_can.c ****     (+) RxFifo0MsgPendingCallback    : Rx Fifo 0 Message Pending Callback.
 178:Drivers/STM32F4xx_HAL_Driver/Src/stm32f4xx_hal_can.c ****     (+) RxFifo0FullCallback          : Rx Fifo 0 Full Callback.
 179:Drivers/STM32F4xx_HAL_Driver/Src/stm32f4xx_hal_can.c ****     (+) RxFifo1MsgPendingCallback    : Rx Fifo 1 Message Pending Callback.
 180:Drivers/STM32F4xx_HAL_Driver/Src/stm32f4xx_hal_can.c ****     (+) RxFifo1FullCallback          : Rx Fifo 1 Full Callback.
 181:Drivers/STM32F4xx_HAL_Driver/Src/stm32f4xx_hal_can.c ****     (+) SleepCallback                : Sleep Callback.
 182:Drivers/STM32F4xx_HAL_Driver/Src/stm32f4xx_hal_can.c ****     (+) WakeUpFromRxMsgCallback      : Wake Up From Rx Message Callback.
 183:Drivers/STM32F4xx_HAL_Driver/Src/stm32f4xx_hal_can.c ****     (+) ErrorCallback                : Error Callback.
 184:Drivers/STM32F4xx_HAL_Driver/Src/stm32f4xx_hal_can.c ****     (+) MspInitCallback              : CAN MspInit.
 185:Drivers/STM32F4xx_HAL_Driver/Src/stm32f4xx_hal_can.c ****     (+) MspDeInitCallback            : CAN MspDeInit.
 186:Drivers/STM32F4xx_HAL_Driver/Src/stm32f4xx_hal_can.c **** 
 187:Drivers/STM32F4xx_HAL_Driver/Src/stm32f4xx_hal_can.c ****   By default, after the HAL_CAN_Init() and when the state is HAL_CAN_STATE_RESET,
 188:Drivers/STM32F4xx_HAL_Driver/Src/stm32f4xx_hal_can.c ****   all callbacks are set to the corresponding weak functions:
 189:Drivers/STM32F4xx_HAL_Driver/Src/stm32f4xx_hal_can.c ****   example HAL_CAN_ErrorCallback().
 190:Drivers/STM32F4xx_HAL_Driver/Src/stm32f4xx_hal_can.c ****   Exception done for MspInit and MspDeInit functions that are
 191:Drivers/STM32F4xx_HAL_Driver/Src/stm32f4xx_hal_can.c ****   reset to the legacy weak function in the HAL_CAN_Init()/ HAL_CAN_DeInit() only when
 192:Drivers/STM32F4xx_HAL_Driver/Src/stm32f4xx_hal_can.c ****   these callbacks are null (not registered beforehand).
 193:Drivers/STM32F4xx_HAL_Driver/Src/stm32f4xx_hal_can.c ****   if not, MspInit or MspDeInit are not null, the HAL_CAN_Init()/ HAL_CAN_DeInit()
 194:Drivers/STM32F4xx_HAL_Driver/Src/stm32f4xx_hal_can.c ****   keep and use the user MspInit/MspDeInit callbacks (registered beforehand)
 195:Drivers/STM32F4xx_HAL_Driver/Src/stm32f4xx_hal_can.c **** 
 196:Drivers/STM32F4xx_HAL_Driver/Src/stm32f4xx_hal_can.c ****   Callbacks can be registered/unregistered in HAL_CAN_STATE_READY state only.
 197:Drivers/STM32F4xx_HAL_Driver/Src/stm32f4xx_hal_can.c ****   Exception done MspInit/MspDeInit that can be registered/unregistered
 198:Drivers/STM32F4xx_HAL_Driver/Src/stm32f4xx_hal_can.c ****   in HAL_CAN_STATE_READY or HAL_CAN_STATE_RESET state,
 199:Drivers/STM32F4xx_HAL_Driver/Src/stm32f4xx_hal_can.c ****   thus registered (user) MspInit/DeInit callbacks can be used during the Init/DeInit.
 200:Drivers/STM32F4xx_HAL_Driver/Src/stm32f4xx_hal_can.c ****   In that case first register the MspInit/MspDeInit user callbacks
 201:Drivers/STM32F4xx_HAL_Driver/Src/stm32f4xx_hal_can.c ****   using HAL_CAN_RegisterCallback() before calling HAL_CAN_DeInit()
ARM GAS  /tmp/ccDSCK0d.s 			page 5


 202:Drivers/STM32F4xx_HAL_Driver/Src/stm32f4xx_hal_can.c ****   or HAL_CAN_Init() function.
 203:Drivers/STM32F4xx_HAL_Driver/Src/stm32f4xx_hal_can.c **** 
 204:Drivers/STM32F4xx_HAL_Driver/Src/stm32f4xx_hal_can.c ****   When The compilation define USE_HAL_CAN_REGISTER_CALLBACKS is set to 0 or
 205:Drivers/STM32F4xx_HAL_Driver/Src/stm32f4xx_hal_can.c ****   not defined, the callback registration feature is not available and all callbacks
 206:Drivers/STM32F4xx_HAL_Driver/Src/stm32f4xx_hal_can.c ****   are set to the corresponding weak functions.
 207:Drivers/STM32F4xx_HAL_Driver/Src/stm32f4xx_hal_can.c **** 
 208:Drivers/STM32F4xx_HAL_Driver/Src/stm32f4xx_hal_can.c ****   @endverbatim
 209:Drivers/STM32F4xx_HAL_Driver/Src/stm32f4xx_hal_can.c ****   ******************************************************************************
 210:Drivers/STM32F4xx_HAL_Driver/Src/stm32f4xx_hal_can.c ****   */
 211:Drivers/STM32F4xx_HAL_Driver/Src/stm32f4xx_hal_can.c **** 
 212:Drivers/STM32F4xx_HAL_Driver/Src/stm32f4xx_hal_can.c **** /* Includes ------------------------------------------------------------------*/
 213:Drivers/STM32F4xx_HAL_Driver/Src/stm32f4xx_hal_can.c **** #include "stm32f4xx_hal.h"
 214:Drivers/STM32F4xx_HAL_Driver/Src/stm32f4xx_hal_can.c **** 
 215:Drivers/STM32F4xx_HAL_Driver/Src/stm32f4xx_hal_can.c **** /** @addtogroup STM32F4xx_HAL_Driver
 216:Drivers/STM32F4xx_HAL_Driver/Src/stm32f4xx_hal_can.c ****   * @{
 217:Drivers/STM32F4xx_HAL_Driver/Src/stm32f4xx_hal_can.c ****   */
 218:Drivers/STM32F4xx_HAL_Driver/Src/stm32f4xx_hal_can.c **** 
 219:Drivers/STM32F4xx_HAL_Driver/Src/stm32f4xx_hal_can.c **** #if defined(CAN1)
 220:Drivers/STM32F4xx_HAL_Driver/Src/stm32f4xx_hal_can.c **** 
 221:Drivers/STM32F4xx_HAL_Driver/Src/stm32f4xx_hal_can.c **** /** @defgroup CAN CAN
 222:Drivers/STM32F4xx_HAL_Driver/Src/stm32f4xx_hal_can.c ****   * @brief CAN driver modules
 223:Drivers/STM32F4xx_HAL_Driver/Src/stm32f4xx_hal_can.c ****   * @{
 224:Drivers/STM32F4xx_HAL_Driver/Src/stm32f4xx_hal_can.c ****   */
 225:Drivers/STM32F4xx_HAL_Driver/Src/stm32f4xx_hal_can.c **** 
 226:Drivers/STM32F4xx_HAL_Driver/Src/stm32f4xx_hal_can.c **** #ifdef HAL_CAN_MODULE_ENABLED
 227:Drivers/STM32F4xx_HAL_Driver/Src/stm32f4xx_hal_can.c **** 
 228:Drivers/STM32F4xx_HAL_Driver/Src/stm32f4xx_hal_can.c **** #ifdef HAL_CAN_LEGACY_MODULE_ENABLED
 229:Drivers/STM32F4xx_HAL_Driver/Src/stm32f4xx_hal_can.c ****   #error "The CAN driver cannot be used with its legacy, Please enable only one CAN module at once"
 230:Drivers/STM32F4xx_HAL_Driver/Src/stm32f4xx_hal_can.c **** #endif
 231:Drivers/STM32F4xx_HAL_Driver/Src/stm32f4xx_hal_can.c **** 
 232:Drivers/STM32F4xx_HAL_Driver/Src/stm32f4xx_hal_can.c **** /* Private typedef -----------------------------------------------------------*/
 233:Drivers/STM32F4xx_HAL_Driver/Src/stm32f4xx_hal_can.c **** /* Private define ------------------------------------------------------------*/
 234:Drivers/STM32F4xx_HAL_Driver/Src/stm32f4xx_hal_can.c **** /** @defgroup CAN_Private_Constants CAN Private Constants
 235:Drivers/STM32F4xx_HAL_Driver/Src/stm32f4xx_hal_can.c ****   * @{
 236:Drivers/STM32F4xx_HAL_Driver/Src/stm32f4xx_hal_can.c ****   */
 237:Drivers/STM32F4xx_HAL_Driver/Src/stm32f4xx_hal_can.c **** #define CAN_TIMEOUT_VALUE 10U
 238:Drivers/STM32F4xx_HAL_Driver/Src/stm32f4xx_hal_can.c **** /**
 239:Drivers/STM32F4xx_HAL_Driver/Src/stm32f4xx_hal_can.c ****   * @}
 240:Drivers/STM32F4xx_HAL_Driver/Src/stm32f4xx_hal_can.c ****   */
 241:Drivers/STM32F4xx_HAL_Driver/Src/stm32f4xx_hal_can.c **** /* Private macro -------------------------------------------------------------*/
 242:Drivers/STM32F4xx_HAL_Driver/Src/stm32f4xx_hal_can.c **** /* Private variables ---------------------------------------------------------*/
 243:Drivers/STM32F4xx_HAL_Driver/Src/stm32f4xx_hal_can.c **** /* Private function prototypes -----------------------------------------------*/
 244:Drivers/STM32F4xx_HAL_Driver/Src/stm32f4xx_hal_can.c **** /* Exported functions --------------------------------------------------------*/
 245:Drivers/STM32F4xx_HAL_Driver/Src/stm32f4xx_hal_can.c **** 
 246:Drivers/STM32F4xx_HAL_Driver/Src/stm32f4xx_hal_can.c **** /** @defgroup CAN_Exported_Functions CAN Exported Functions
 247:Drivers/STM32F4xx_HAL_Driver/Src/stm32f4xx_hal_can.c ****   * @{
 248:Drivers/STM32F4xx_HAL_Driver/Src/stm32f4xx_hal_can.c ****   */
 249:Drivers/STM32F4xx_HAL_Driver/Src/stm32f4xx_hal_can.c **** 
 250:Drivers/STM32F4xx_HAL_Driver/Src/stm32f4xx_hal_can.c **** /** @defgroup CAN_Exported_Functions_Group1 Initialization and de-initialization functions
 251:Drivers/STM32F4xx_HAL_Driver/Src/stm32f4xx_hal_can.c ****  *  @brief    Initialization and Configuration functions
 252:Drivers/STM32F4xx_HAL_Driver/Src/stm32f4xx_hal_can.c ****  *
 253:Drivers/STM32F4xx_HAL_Driver/Src/stm32f4xx_hal_can.c **** @verbatim
 254:Drivers/STM32F4xx_HAL_Driver/Src/stm32f4xx_hal_can.c ****   ==============================================================================
 255:Drivers/STM32F4xx_HAL_Driver/Src/stm32f4xx_hal_can.c ****               ##### Initialization and de-initialization functions #####
 256:Drivers/STM32F4xx_HAL_Driver/Src/stm32f4xx_hal_can.c ****   ==============================================================================
 257:Drivers/STM32F4xx_HAL_Driver/Src/stm32f4xx_hal_can.c ****     [..]  This section provides functions allowing to:
 258:Drivers/STM32F4xx_HAL_Driver/Src/stm32f4xx_hal_can.c ****       (+) HAL_CAN_Init                       : Initialize and configure the CAN.
ARM GAS  /tmp/ccDSCK0d.s 			page 6


 259:Drivers/STM32F4xx_HAL_Driver/Src/stm32f4xx_hal_can.c ****       (+) HAL_CAN_DeInit                     : De-initialize the CAN.
 260:Drivers/STM32F4xx_HAL_Driver/Src/stm32f4xx_hal_can.c ****       (+) HAL_CAN_MspInit                    : Initialize the CAN MSP.
 261:Drivers/STM32F4xx_HAL_Driver/Src/stm32f4xx_hal_can.c ****       (+) HAL_CAN_MspDeInit                  : DeInitialize the CAN MSP.
 262:Drivers/STM32F4xx_HAL_Driver/Src/stm32f4xx_hal_can.c **** 
 263:Drivers/STM32F4xx_HAL_Driver/Src/stm32f4xx_hal_can.c **** @endverbatim
 264:Drivers/STM32F4xx_HAL_Driver/Src/stm32f4xx_hal_can.c ****   * @{
 265:Drivers/STM32F4xx_HAL_Driver/Src/stm32f4xx_hal_can.c ****   */
 266:Drivers/STM32F4xx_HAL_Driver/Src/stm32f4xx_hal_can.c **** 
 267:Drivers/STM32F4xx_HAL_Driver/Src/stm32f4xx_hal_can.c **** /**
 268:Drivers/STM32F4xx_HAL_Driver/Src/stm32f4xx_hal_can.c ****   * @brief  Initializes the CAN peripheral according to the specified
 269:Drivers/STM32F4xx_HAL_Driver/Src/stm32f4xx_hal_can.c ****   *         parameters in the CAN_InitStruct.
 270:Drivers/STM32F4xx_HAL_Driver/Src/stm32f4xx_hal_can.c ****   * @param  hcan pointer to a CAN_HandleTypeDef structure that contains
 271:Drivers/STM32F4xx_HAL_Driver/Src/stm32f4xx_hal_can.c ****   *         the configuration information for the specified CAN.
 272:Drivers/STM32F4xx_HAL_Driver/Src/stm32f4xx_hal_can.c ****   * @retval HAL status
 273:Drivers/STM32F4xx_HAL_Driver/Src/stm32f4xx_hal_can.c ****   */
 274:Drivers/STM32F4xx_HAL_Driver/Src/stm32f4xx_hal_can.c **** HAL_StatusTypeDef HAL_CAN_Init(CAN_HandleTypeDef *hcan)
 275:Drivers/STM32F4xx_HAL_Driver/Src/stm32f4xx_hal_can.c **** {
  29              		.loc 1 275 1
  30              		.cfi_startproc
  31              		@ args = 0, pretend = 0, frame = 16
  32              		@ frame_needed = 1, uses_anonymous_args = 0
  33 0000 80B5     		push	{r7, lr}
  34              	.LCFI0:
  35              		.cfi_def_cfa_offset 8
  36              		.cfi_offset 7, -8
  37              		.cfi_offset 14, -4
  38 0002 84B0     		sub	sp, sp, #16
  39              	.LCFI1:
  40              		.cfi_def_cfa_offset 24
  41 0004 00AF     		add	r7, sp, #0
  42              	.LCFI2:
  43              		.cfi_def_cfa_register 7
  44 0006 7860     		str	r0, [r7, #4]
 276:Drivers/STM32F4xx_HAL_Driver/Src/stm32f4xx_hal_can.c ****   uint32_t tickstart;
 277:Drivers/STM32F4xx_HAL_Driver/Src/stm32f4xx_hal_can.c **** 
 278:Drivers/STM32F4xx_HAL_Driver/Src/stm32f4xx_hal_can.c ****   /* Check CAN handle */
 279:Drivers/STM32F4xx_HAL_Driver/Src/stm32f4xx_hal_can.c ****   if (hcan == NULL)
  45              		.loc 1 279 6
  46 0008 7B68     		ldr	r3, [r7, #4]
  47 000a 002B     		cmp	r3, #0
  48 000c 01D1     		bne	.L2
 280:Drivers/STM32F4xx_HAL_Driver/Src/stm32f4xx_hal_can.c ****   {
 281:Drivers/STM32F4xx_HAL_Driver/Src/stm32f4xx_hal_can.c ****     return HAL_ERROR;
  49              		.loc 1 281 12
  50 000e 0123     		movs	r3, #1
  51 0010 EDE0     		b	.L3
  52              	.L2:
 282:Drivers/STM32F4xx_HAL_Driver/Src/stm32f4xx_hal_can.c ****   }
 283:Drivers/STM32F4xx_HAL_Driver/Src/stm32f4xx_hal_can.c **** 
 284:Drivers/STM32F4xx_HAL_Driver/Src/stm32f4xx_hal_can.c ****   /* Check the parameters */
 285:Drivers/STM32F4xx_HAL_Driver/Src/stm32f4xx_hal_can.c ****   assert_param(IS_CAN_ALL_INSTANCE(hcan->Instance));
 286:Drivers/STM32F4xx_HAL_Driver/Src/stm32f4xx_hal_can.c ****   assert_param(IS_FUNCTIONAL_STATE(hcan->Init.TimeTriggeredMode));
 287:Drivers/STM32F4xx_HAL_Driver/Src/stm32f4xx_hal_can.c ****   assert_param(IS_FUNCTIONAL_STATE(hcan->Init.AutoBusOff));
 288:Drivers/STM32F4xx_HAL_Driver/Src/stm32f4xx_hal_can.c ****   assert_param(IS_FUNCTIONAL_STATE(hcan->Init.AutoWakeUp));
 289:Drivers/STM32F4xx_HAL_Driver/Src/stm32f4xx_hal_can.c ****   assert_param(IS_FUNCTIONAL_STATE(hcan->Init.AutoRetransmission));
 290:Drivers/STM32F4xx_HAL_Driver/Src/stm32f4xx_hal_can.c ****   assert_param(IS_FUNCTIONAL_STATE(hcan->Init.ReceiveFifoLocked));
 291:Drivers/STM32F4xx_HAL_Driver/Src/stm32f4xx_hal_can.c ****   assert_param(IS_FUNCTIONAL_STATE(hcan->Init.TransmitFifoPriority));
ARM GAS  /tmp/ccDSCK0d.s 			page 7


 292:Drivers/STM32F4xx_HAL_Driver/Src/stm32f4xx_hal_can.c ****   assert_param(IS_CAN_MODE(hcan->Init.Mode));
 293:Drivers/STM32F4xx_HAL_Driver/Src/stm32f4xx_hal_can.c ****   assert_param(IS_CAN_SJW(hcan->Init.SyncJumpWidth));
 294:Drivers/STM32F4xx_HAL_Driver/Src/stm32f4xx_hal_can.c ****   assert_param(IS_CAN_BS1(hcan->Init.TimeSeg1));
 295:Drivers/STM32F4xx_HAL_Driver/Src/stm32f4xx_hal_can.c ****   assert_param(IS_CAN_BS2(hcan->Init.TimeSeg2));
 296:Drivers/STM32F4xx_HAL_Driver/Src/stm32f4xx_hal_can.c ****   assert_param(IS_CAN_PRESCALER(hcan->Init.Prescaler));
 297:Drivers/STM32F4xx_HAL_Driver/Src/stm32f4xx_hal_can.c **** 
 298:Drivers/STM32F4xx_HAL_Driver/Src/stm32f4xx_hal_can.c **** #if USE_HAL_CAN_REGISTER_CALLBACKS == 1
 299:Drivers/STM32F4xx_HAL_Driver/Src/stm32f4xx_hal_can.c ****   if (hcan->State == HAL_CAN_STATE_RESET)
 300:Drivers/STM32F4xx_HAL_Driver/Src/stm32f4xx_hal_can.c ****   {
 301:Drivers/STM32F4xx_HAL_Driver/Src/stm32f4xx_hal_can.c ****     /* Reset callbacks to legacy functions */
 302:Drivers/STM32F4xx_HAL_Driver/Src/stm32f4xx_hal_can.c ****     hcan->RxFifo0MsgPendingCallback  =  HAL_CAN_RxFifo0MsgPendingCallback;  /* Legacy weak RxFifo0M
 303:Drivers/STM32F4xx_HAL_Driver/Src/stm32f4xx_hal_can.c ****     hcan->RxFifo0FullCallback        =  HAL_CAN_RxFifo0FullCallback;        /* Legacy weak RxFifo0F
 304:Drivers/STM32F4xx_HAL_Driver/Src/stm32f4xx_hal_can.c ****     hcan->RxFifo1MsgPendingCallback  =  HAL_CAN_RxFifo1MsgPendingCallback;  /* Legacy weak RxFifo1M
 305:Drivers/STM32F4xx_HAL_Driver/Src/stm32f4xx_hal_can.c ****     hcan->RxFifo1FullCallback        =  HAL_CAN_RxFifo1FullCallback;        /* Legacy weak RxFifo1F
 306:Drivers/STM32F4xx_HAL_Driver/Src/stm32f4xx_hal_can.c ****     hcan->TxMailbox0CompleteCallback =  HAL_CAN_TxMailbox0CompleteCallback; /* Legacy weak TxMailbo
 307:Drivers/STM32F4xx_HAL_Driver/Src/stm32f4xx_hal_can.c ****     hcan->TxMailbox1CompleteCallback =  HAL_CAN_TxMailbox1CompleteCallback; /* Legacy weak TxMailbo
 308:Drivers/STM32F4xx_HAL_Driver/Src/stm32f4xx_hal_can.c ****     hcan->TxMailbox2CompleteCallback =  HAL_CAN_TxMailbox2CompleteCallback; /* Legacy weak TxMailbo
 309:Drivers/STM32F4xx_HAL_Driver/Src/stm32f4xx_hal_can.c ****     hcan->TxMailbox0AbortCallback    =  HAL_CAN_TxMailbox0AbortCallback;    /* Legacy weak TxMailbo
 310:Drivers/STM32F4xx_HAL_Driver/Src/stm32f4xx_hal_can.c ****     hcan->TxMailbox1AbortCallback    =  HAL_CAN_TxMailbox1AbortCallback;    /* Legacy weak TxMailbo
 311:Drivers/STM32F4xx_HAL_Driver/Src/stm32f4xx_hal_can.c ****     hcan->TxMailbox2AbortCallback    =  HAL_CAN_TxMailbox2AbortCallback;    /* Legacy weak TxMailbo
 312:Drivers/STM32F4xx_HAL_Driver/Src/stm32f4xx_hal_can.c ****     hcan->SleepCallback              =  HAL_CAN_SleepCallback;              /* Legacy weak SleepCal
 313:Drivers/STM32F4xx_HAL_Driver/Src/stm32f4xx_hal_can.c ****     hcan->WakeUpFromRxMsgCallback    =  HAL_CAN_WakeUpFromRxMsgCallback;    /* Legacy weak WakeUpFr
 314:Drivers/STM32F4xx_HAL_Driver/Src/stm32f4xx_hal_can.c ****     hcan->ErrorCallback              =  HAL_CAN_ErrorCallback;              /* Legacy weak ErrorCal
 315:Drivers/STM32F4xx_HAL_Driver/Src/stm32f4xx_hal_can.c **** 
 316:Drivers/STM32F4xx_HAL_Driver/Src/stm32f4xx_hal_can.c ****     if (hcan->MspInitCallback == NULL)
 317:Drivers/STM32F4xx_HAL_Driver/Src/stm32f4xx_hal_can.c ****     {
 318:Drivers/STM32F4xx_HAL_Driver/Src/stm32f4xx_hal_can.c ****       hcan->MspInitCallback = HAL_CAN_MspInit; /* Legacy weak MspInit */
 319:Drivers/STM32F4xx_HAL_Driver/Src/stm32f4xx_hal_can.c ****     }
 320:Drivers/STM32F4xx_HAL_Driver/Src/stm32f4xx_hal_can.c **** 
 321:Drivers/STM32F4xx_HAL_Driver/Src/stm32f4xx_hal_can.c ****     /* Init the low level hardware: CLOCK, NVIC */
 322:Drivers/STM32F4xx_HAL_Driver/Src/stm32f4xx_hal_can.c ****     hcan->MspInitCallback(hcan);
 323:Drivers/STM32F4xx_HAL_Driver/Src/stm32f4xx_hal_can.c ****   }
 324:Drivers/STM32F4xx_HAL_Driver/Src/stm32f4xx_hal_can.c **** 
 325:Drivers/STM32F4xx_HAL_Driver/Src/stm32f4xx_hal_can.c **** #else
 326:Drivers/STM32F4xx_HAL_Driver/Src/stm32f4xx_hal_can.c ****   if (hcan->State == HAL_CAN_STATE_RESET)
  53              		.loc 1 326 11
  54 0012 7B68     		ldr	r3, [r7, #4]
  55 0014 93F82030 		ldrb	r3, [r3, #32]
  56 0018 DBB2     		uxtb	r3, r3
  57              		.loc 1 326 6
  58 001a 002B     		cmp	r3, #0
  59 001c 02D1     		bne	.L4
 327:Drivers/STM32F4xx_HAL_Driver/Src/stm32f4xx_hal_can.c ****   {
 328:Drivers/STM32F4xx_HAL_Driver/Src/stm32f4xx_hal_can.c ****     /* Init the low level hardware: CLOCK, NVIC */
 329:Drivers/STM32F4xx_HAL_Driver/Src/stm32f4xx_hal_can.c ****     HAL_CAN_MspInit(hcan);
  60              		.loc 1 329 5
  61 001e 7868     		ldr	r0, [r7, #4]
  62 0020 FFF7FEFF 		bl	HAL_CAN_MspInit
  63              	.L4:
 330:Drivers/STM32F4xx_HAL_Driver/Src/stm32f4xx_hal_can.c ****   }
 331:Drivers/STM32F4xx_HAL_Driver/Src/stm32f4xx_hal_can.c **** #endif /* (USE_HAL_CAN_REGISTER_CALLBACKS) */
 332:Drivers/STM32F4xx_HAL_Driver/Src/stm32f4xx_hal_can.c **** 
 333:Drivers/STM32F4xx_HAL_Driver/Src/stm32f4xx_hal_can.c ****   /* Request initialisation */
 334:Drivers/STM32F4xx_HAL_Driver/Src/stm32f4xx_hal_can.c ****   SET_BIT(hcan->Instance->MCR, CAN_MCR_INRQ);
  64              		.loc 1 334 3
  65 0024 7B68     		ldr	r3, [r7, #4]
  66 0026 1B68     		ldr	r3, [r3]
ARM GAS  /tmp/ccDSCK0d.s 			page 8


  67 0028 1A68     		ldr	r2, [r3]
  68 002a 7B68     		ldr	r3, [r7, #4]
  69 002c 1B68     		ldr	r3, [r3]
  70 002e 42F00102 		orr	r2, r2, #1
  71 0032 1A60     		str	r2, [r3]
 335:Drivers/STM32F4xx_HAL_Driver/Src/stm32f4xx_hal_can.c **** 
 336:Drivers/STM32F4xx_HAL_Driver/Src/stm32f4xx_hal_can.c ****   /* Get tick */
 337:Drivers/STM32F4xx_HAL_Driver/Src/stm32f4xx_hal_can.c ****   tickstart = HAL_GetTick();
  72              		.loc 1 337 15
  73 0034 FFF7FEFF 		bl	HAL_GetTick
  74 0038 F860     		str	r0, [r7, #12]
 338:Drivers/STM32F4xx_HAL_Driver/Src/stm32f4xx_hal_can.c **** 
 339:Drivers/STM32F4xx_HAL_Driver/Src/stm32f4xx_hal_can.c ****   /* Wait initialisation acknowledge */
 340:Drivers/STM32F4xx_HAL_Driver/Src/stm32f4xx_hal_can.c ****   while ((hcan->Instance->MSR & CAN_MSR_INAK) == 0U)
  75              		.loc 1 340 9
  76 003a 12E0     		b	.L5
  77              	.L6:
 341:Drivers/STM32F4xx_HAL_Driver/Src/stm32f4xx_hal_can.c ****   {
 342:Drivers/STM32F4xx_HAL_Driver/Src/stm32f4xx_hal_can.c ****     if ((HAL_GetTick() - tickstart) > CAN_TIMEOUT_VALUE)
  78              		.loc 1 342 10
  79 003c FFF7FEFF 		bl	HAL_GetTick
  80 0040 0246     		mov	r2, r0
  81              		.loc 1 342 24
  82 0042 FB68     		ldr	r3, [r7, #12]
  83 0044 D31A     		subs	r3, r2, r3
  84              		.loc 1 342 8
  85 0046 0A2B     		cmp	r3, #10
  86 0048 0BD9     		bls	.L5
 343:Drivers/STM32F4xx_HAL_Driver/Src/stm32f4xx_hal_can.c ****     {
 344:Drivers/STM32F4xx_HAL_Driver/Src/stm32f4xx_hal_can.c ****       /* Update error code */
 345:Drivers/STM32F4xx_HAL_Driver/Src/stm32f4xx_hal_can.c ****       hcan->ErrorCode |= HAL_CAN_ERROR_TIMEOUT;
  87              		.loc 1 345 23
  88 004a 7B68     		ldr	r3, [r7, #4]
  89 004c 5B6A     		ldr	r3, [r3, #36]
  90 004e 43F40032 		orr	r2, r3, #131072
  91 0052 7B68     		ldr	r3, [r7, #4]
  92 0054 5A62     		str	r2, [r3, #36]
 346:Drivers/STM32F4xx_HAL_Driver/Src/stm32f4xx_hal_can.c **** 
 347:Drivers/STM32F4xx_HAL_Driver/Src/stm32f4xx_hal_can.c ****       /* Change CAN state */
 348:Drivers/STM32F4xx_HAL_Driver/Src/stm32f4xx_hal_can.c ****       hcan->State = HAL_CAN_STATE_ERROR;
  93              		.loc 1 348 19
  94 0056 7B68     		ldr	r3, [r7, #4]
  95 0058 0522     		movs	r2, #5
  96 005a 83F82020 		strb	r2, [r3, #32]
 349:Drivers/STM32F4xx_HAL_Driver/Src/stm32f4xx_hal_can.c **** 
 350:Drivers/STM32F4xx_HAL_Driver/Src/stm32f4xx_hal_can.c ****       return HAL_ERROR;
  97              		.loc 1 350 14
  98 005e 0123     		movs	r3, #1
  99 0060 C5E0     		b	.L3
 100              	.L5:
 340:Drivers/STM32F4xx_HAL_Driver/Src/stm32f4xx_hal_can.c ****   {
 101              		.loc 1 340 15
 102 0062 7B68     		ldr	r3, [r7, #4]
 103 0064 1B68     		ldr	r3, [r3]
 340:Drivers/STM32F4xx_HAL_Driver/Src/stm32f4xx_hal_can.c ****   {
 104              		.loc 1 340 25
 105 0066 5B68     		ldr	r3, [r3, #4]
ARM GAS  /tmp/ccDSCK0d.s 			page 9


 340:Drivers/STM32F4xx_HAL_Driver/Src/stm32f4xx_hal_can.c ****   {
 106              		.loc 1 340 31
 107 0068 03F00103 		and	r3, r3, #1
 340:Drivers/STM32F4xx_HAL_Driver/Src/stm32f4xx_hal_can.c ****   {
 108              		.loc 1 340 9
 109 006c 002B     		cmp	r3, #0
 110 006e E5D0     		beq	.L6
 351:Drivers/STM32F4xx_HAL_Driver/Src/stm32f4xx_hal_can.c ****     }
 352:Drivers/STM32F4xx_HAL_Driver/Src/stm32f4xx_hal_can.c ****   }
 353:Drivers/STM32F4xx_HAL_Driver/Src/stm32f4xx_hal_can.c **** 
 354:Drivers/STM32F4xx_HAL_Driver/Src/stm32f4xx_hal_can.c ****   /* Exit from sleep mode */
 355:Drivers/STM32F4xx_HAL_Driver/Src/stm32f4xx_hal_can.c ****   CLEAR_BIT(hcan->Instance->MCR, CAN_MCR_SLEEP);
 111              		.loc 1 355 3
 112 0070 7B68     		ldr	r3, [r7, #4]
 113 0072 1B68     		ldr	r3, [r3]
 114 0074 1A68     		ldr	r2, [r3]
 115 0076 7B68     		ldr	r3, [r7, #4]
 116 0078 1B68     		ldr	r3, [r3]
 117 007a 22F00202 		bic	r2, r2, #2
 118 007e 1A60     		str	r2, [r3]
 356:Drivers/STM32F4xx_HAL_Driver/Src/stm32f4xx_hal_can.c **** 
 357:Drivers/STM32F4xx_HAL_Driver/Src/stm32f4xx_hal_can.c ****   /* Get tick */
 358:Drivers/STM32F4xx_HAL_Driver/Src/stm32f4xx_hal_can.c ****   tickstart = HAL_GetTick();
 119              		.loc 1 358 15
 120 0080 FFF7FEFF 		bl	HAL_GetTick
 121 0084 F860     		str	r0, [r7, #12]
 359:Drivers/STM32F4xx_HAL_Driver/Src/stm32f4xx_hal_can.c **** 
 360:Drivers/STM32F4xx_HAL_Driver/Src/stm32f4xx_hal_can.c ****   /* Check Sleep mode leave acknowledge */
 361:Drivers/STM32F4xx_HAL_Driver/Src/stm32f4xx_hal_can.c ****   while ((hcan->Instance->MSR & CAN_MSR_SLAK) != 0U)
 122              		.loc 1 361 9
 123 0086 12E0     		b	.L7
 124              	.L8:
 362:Drivers/STM32F4xx_HAL_Driver/Src/stm32f4xx_hal_can.c ****   {
 363:Drivers/STM32F4xx_HAL_Driver/Src/stm32f4xx_hal_can.c ****     if ((HAL_GetTick() - tickstart) > CAN_TIMEOUT_VALUE)
 125              		.loc 1 363 10
 126 0088 FFF7FEFF 		bl	HAL_GetTick
 127 008c 0246     		mov	r2, r0
 128              		.loc 1 363 24
 129 008e FB68     		ldr	r3, [r7, #12]
 130 0090 D31A     		subs	r3, r2, r3
 131              		.loc 1 363 8
 132 0092 0A2B     		cmp	r3, #10
 133 0094 0BD9     		bls	.L7
 364:Drivers/STM32F4xx_HAL_Driver/Src/stm32f4xx_hal_can.c ****     {
 365:Drivers/STM32F4xx_HAL_Driver/Src/stm32f4xx_hal_can.c ****       /* Update error code */
 366:Drivers/STM32F4xx_HAL_Driver/Src/stm32f4xx_hal_can.c ****       hcan->ErrorCode |= HAL_CAN_ERROR_TIMEOUT;
 134              		.loc 1 366 23
 135 0096 7B68     		ldr	r3, [r7, #4]
 136 0098 5B6A     		ldr	r3, [r3, #36]
 137 009a 43F40032 		orr	r2, r3, #131072
 138 009e 7B68     		ldr	r3, [r7, #4]
 139 00a0 5A62     		str	r2, [r3, #36]
 367:Drivers/STM32F4xx_HAL_Driver/Src/stm32f4xx_hal_can.c **** 
 368:Drivers/STM32F4xx_HAL_Driver/Src/stm32f4xx_hal_can.c ****       /* Change CAN state */
 369:Drivers/STM32F4xx_HAL_Driver/Src/stm32f4xx_hal_can.c ****       hcan->State = HAL_CAN_STATE_ERROR;
 140              		.loc 1 369 19
 141 00a2 7B68     		ldr	r3, [r7, #4]
ARM GAS  /tmp/ccDSCK0d.s 			page 10


 142 00a4 0522     		movs	r2, #5
 143 00a6 83F82020 		strb	r2, [r3, #32]
 370:Drivers/STM32F4xx_HAL_Driver/Src/stm32f4xx_hal_can.c **** 
 371:Drivers/STM32F4xx_HAL_Driver/Src/stm32f4xx_hal_can.c ****       return HAL_ERROR;
 144              		.loc 1 371 14
 145 00aa 0123     		movs	r3, #1
 146 00ac 9FE0     		b	.L3
 147              	.L7:
 361:Drivers/STM32F4xx_HAL_Driver/Src/stm32f4xx_hal_can.c ****   {
 148              		.loc 1 361 15
 149 00ae 7B68     		ldr	r3, [r7, #4]
 150 00b0 1B68     		ldr	r3, [r3]
 361:Drivers/STM32F4xx_HAL_Driver/Src/stm32f4xx_hal_can.c ****   {
 151              		.loc 1 361 25
 152 00b2 5B68     		ldr	r3, [r3, #4]
 361:Drivers/STM32F4xx_HAL_Driver/Src/stm32f4xx_hal_can.c ****   {
 153              		.loc 1 361 31
 154 00b4 03F00203 		and	r3, r3, #2
 361:Drivers/STM32F4xx_HAL_Driver/Src/stm32f4xx_hal_can.c ****   {
 155              		.loc 1 361 9
 156 00b8 002B     		cmp	r3, #0
 157 00ba E5D1     		bne	.L8
 372:Drivers/STM32F4xx_HAL_Driver/Src/stm32f4xx_hal_can.c ****     }
 373:Drivers/STM32F4xx_HAL_Driver/Src/stm32f4xx_hal_can.c ****   }
 374:Drivers/STM32F4xx_HAL_Driver/Src/stm32f4xx_hal_can.c **** 
 375:Drivers/STM32F4xx_HAL_Driver/Src/stm32f4xx_hal_can.c ****   /* Set the time triggered communication mode */
 376:Drivers/STM32F4xx_HAL_Driver/Src/stm32f4xx_hal_can.c ****   if (hcan->Init.TimeTriggeredMode == ENABLE)
 158              		.loc 1 376 17
 159 00bc 7B68     		ldr	r3, [r7, #4]
 160 00be 1B7E     		ldrb	r3, [r3, #24]	@ zero_extendqisi2
 161              		.loc 1 376 6
 162 00c0 012B     		cmp	r3, #1
 163 00c2 08D1     		bne	.L9
 377:Drivers/STM32F4xx_HAL_Driver/Src/stm32f4xx_hal_can.c ****   {
 378:Drivers/STM32F4xx_HAL_Driver/Src/stm32f4xx_hal_can.c ****     SET_BIT(hcan->Instance->MCR, CAN_MCR_TTCM);
 164              		.loc 1 378 5
 165 00c4 7B68     		ldr	r3, [r7, #4]
 166 00c6 1B68     		ldr	r3, [r3]
 167 00c8 1A68     		ldr	r2, [r3]
 168 00ca 7B68     		ldr	r3, [r7, #4]
 169 00cc 1B68     		ldr	r3, [r3]
 170 00ce 42F08002 		orr	r2, r2, #128
 171 00d2 1A60     		str	r2, [r3]
 172 00d4 07E0     		b	.L10
 173              	.L9:
 379:Drivers/STM32F4xx_HAL_Driver/Src/stm32f4xx_hal_can.c ****   }
 380:Drivers/STM32F4xx_HAL_Driver/Src/stm32f4xx_hal_can.c ****   else
 381:Drivers/STM32F4xx_HAL_Driver/Src/stm32f4xx_hal_can.c ****   {
 382:Drivers/STM32F4xx_HAL_Driver/Src/stm32f4xx_hal_can.c ****     CLEAR_BIT(hcan->Instance->MCR, CAN_MCR_TTCM);
 174              		.loc 1 382 5
 175 00d6 7B68     		ldr	r3, [r7, #4]
 176 00d8 1B68     		ldr	r3, [r3]
 177 00da 1A68     		ldr	r2, [r3]
 178 00dc 7B68     		ldr	r3, [r7, #4]
 179 00de 1B68     		ldr	r3, [r3]
 180 00e0 22F08002 		bic	r2, r2, #128
 181 00e4 1A60     		str	r2, [r3]
ARM GAS  /tmp/ccDSCK0d.s 			page 11


 182              	.L10:
 383:Drivers/STM32F4xx_HAL_Driver/Src/stm32f4xx_hal_can.c ****   }
 384:Drivers/STM32F4xx_HAL_Driver/Src/stm32f4xx_hal_can.c **** 
 385:Drivers/STM32F4xx_HAL_Driver/Src/stm32f4xx_hal_can.c ****   /* Set the automatic bus-off management */
 386:Drivers/STM32F4xx_HAL_Driver/Src/stm32f4xx_hal_can.c ****   if (hcan->Init.AutoBusOff == ENABLE)
 183              		.loc 1 386 17
 184 00e6 7B68     		ldr	r3, [r7, #4]
 185 00e8 5B7E     		ldrb	r3, [r3, #25]	@ zero_extendqisi2
 186              		.loc 1 386 6
 187 00ea 012B     		cmp	r3, #1
 188 00ec 08D1     		bne	.L11
 387:Drivers/STM32F4xx_HAL_Driver/Src/stm32f4xx_hal_can.c ****   {
 388:Drivers/STM32F4xx_HAL_Driver/Src/stm32f4xx_hal_can.c ****     SET_BIT(hcan->Instance->MCR, CAN_MCR_ABOM);
 189              		.loc 1 388 5
 190 00ee 7B68     		ldr	r3, [r7, #4]
 191 00f0 1B68     		ldr	r3, [r3]
 192 00f2 1A68     		ldr	r2, [r3]
 193 00f4 7B68     		ldr	r3, [r7, #4]
 194 00f6 1B68     		ldr	r3, [r3]
 195 00f8 42F04002 		orr	r2, r2, #64
 196 00fc 1A60     		str	r2, [r3]
 197 00fe 07E0     		b	.L12
 198              	.L11:
 389:Drivers/STM32F4xx_HAL_Driver/Src/stm32f4xx_hal_can.c ****   }
 390:Drivers/STM32F4xx_HAL_Driver/Src/stm32f4xx_hal_can.c ****   else
 391:Drivers/STM32F4xx_HAL_Driver/Src/stm32f4xx_hal_can.c ****   {
 392:Drivers/STM32F4xx_HAL_Driver/Src/stm32f4xx_hal_can.c ****     CLEAR_BIT(hcan->Instance->MCR, CAN_MCR_ABOM);
 199              		.loc 1 392 5
 200 0100 7B68     		ldr	r3, [r7, #4]
 201 0102 1B68     		ldr	r3, [r3]
 202 0104 1A68     		ldr	r2, [r3]
 203 0106 7B68     		ldr	r3, [r7, #4]
 204 0108 1B68     		ldr	r3, [r3]
 205 010a 22F04002 		bic	r2, r2, #64
 206 010e 1A60     		str	r2, [r3]
 207              	.L12:
 393:Drivers/STM32F4xx_HAL_Driver/Src/stm32f4xx_hal_can.c ****   }
 394:Drivers/STM32F4xx_HAL_Driver/Src/stm32f4xx_hal_can.c **** 
 395:Drivers/STM32F4xx_HAL_Driver/Src/stm32f4xx_hal_can.c ****   /* Set the automatic wake-up mode */
 396:Drivers/STM32F4xx_HAL_Driver/Src/stm32f4xx_hal_can.c ****   if (hcan->Init.AutoWakeUp == ENABLE)
 208              		.loc 1 396 17
 209 0110 7B68     		ldr	r3, [r7, #4]
 210 0112 9B7E     		ldrb	r3, [r3, #26]	@ zero_extendqisi2
 211              		.loc 1 396 6
 212 0114 012B     		cmp	r3, #1
 213 0116 08D1     		bne	.L13
 397:Drivers/STM32F4xx_HAL_Driver/Src/stm32f4xx_hal_can.c ****   {
 398:Drivers/STM32F4xx_HAL_Driver/Src/stm32f4xx_hal_can.c ****     SET_BIT(hcan->Instance->MCR, CAN_MCR_AWUM);
 214              		.loc 1 398 5
 215 0118 7B68     		ldr	r3, [r7, #4]
 216 011a 1B68     		ldr	r3, [r3]
 217 011c 1A68     		ldr	r2, [r3]
 218 011e 7B68     		ldr	r3, [r7, #4]
 219 0120 1B68     		ldr	r3, [r3]
 220 0122 42F02002 		orr	r2, r2, #32
 221 0126 1A60     		str	r2, [r3]
 222 0128 07E0     		b	.L14
ARM GAS  /tmp/ccDSCK0d.s 			page 12


 223              	.L13:
 399:Drivers/STM32F4xx_HAL_Driver/Src/stm32f4xx_hal_can.c ****   }
 400:Drivers/STM32F4xx_HAL_Driver/Src/stm32f4xx_hal_can.c ****   else
 401:Drivers/STM32F4xx_HAL_Driver/Src/stm32f4xx_hal_can.c ****   {
 402:Drivers/STM32F4xx_HAL_Driver/Src/stm32f4xx_hal_can.c ****     CLEAR_BIT(hcan->Instance->MCR, CAN_MCR_AWUM);
 224              		.loc 1 402 5
 225 012a 7B68     		ldr	r3, [r7, #4]
 226 012c 1B68     		ldr	r3, [r3]
 227 012e 1A68     		ldr	r2, [r3]
 228 0130 7B68     		ldr	r3, [r7, #4]
 229 0132 1B68     		ldr	r3, [r3]
 230 0134 22F02002 		bic	r2, r2, #32
 231 0138 1A60     		str	r2, [r3]
 232              	.L14:
 403:Drivers/STM32F4xx_HAL_Driver/Src/stm32f4xx_hal_can.c ****   }
 404:Drivers/STM32F4xx_HAL_Driver/Src/stm32f4xx_hal_can.c **** 
 405:Drivers/STM32F4xx_HAL_Driver/Src/stm32f4xx_hal_can.c ****   /* Set the automatic retransmission */
 406:Drivers/STM32F4xx_HAL_Driver/Src/stm32f4xx_hal_can.c ****   if (hcan->Init.AutoRetransmission == ENABLE)
 233              		.loc 1 406 17
 234 013a 7B68     		ldr	r3, [r7, #4]
 235 013c DB7E     		ldrb	r3, [r3, #27]	@ zero_extendqisi2
 236              		.loc 1 406 6
 237 013e 012B     		cmp	r3, #1
 238 0140 08D1     		bne	.L15
 407:Drivers/STM32F4xx_HAL_Driver/Src/stm32f4xx_hal_can.c ****   {
 408:Drivers/STM32F4xx_HAL_Driver/Src/stm32f4xx_hal_can.c ****     CLEAR_BIT(hcan->Instance->MCR, CAN_MCR_NART);
 239              		.loc 1 408 5
 240 0142 7B68     		ldr	r3, [r7, #4]
 241 0144 1B68     		ldr	r3, [r3]
 242 0146 1A68     		ldr	r2, [r3]
 243 0148 7B68     		ldr	r3, [r7, #4]
 244 014a 1B68     		ldr	r3, [r3]
 245 014c 22F01002 		bic	r2, r2, #16
 246 0150 1A60     		str	r2, [r3]
 247 0152 07E0     		b	.L16
 248              	.L15:
 409:Drivers/STM32F4xx_HAL_Driver/Src/stm32f4xx_hal_can.c ****   }
 410:Drivers/STM32F4xx_HAL_Driver/Src/stm32f4xx_hal_can.c ****   else
 411:Drivers/STM32F4xx_HAL_Driver/Src/stm32f4xx_hal_can.c ****   {
 412:Drivers/STM32F4xx_HAL_Driver/Src/stm32f4xx_hal_can.c ****     SET_BIT(hcan->Instance->MCR, CAN_MCR_NART);
 249              		.loc 1 412 5
 250 0154 7B68     		ldr	r3, [r7, #4]
 251 0156 1B68     		ldr	r3, [r3]
 252 0158 1A68     		ldr	r2, [r3]
 253 015a 7B68     		ldr	r3, [r7, #4]
 254 015c 1B68     		ldr	r3, [r3]
 255 015e 42F01002 		orr	r2, r2, #16
 256 0162 1A60     		str	r2, [r3]
 257              	.L16:
 413:Drivers/STM32F4xx_HAL_Driver/Src/stm32f4xx_hal_can.c ****   }
 414:Drivers/STM32F4xx_HAL_Driver/Src/stm32f4xx_hal_can.c **** 
 415:Drivers/STM32F4xx_HAL_Driver/Src/stm32f4xx_hal_can.c ****   /* Set the receive FIFO locked mode */
 416:Drivers/STM32F4xx_HAL_Driver/Src/stm32f4xx_hal_can.c ****   if (hcan->Init.ReceiveFifoLocked == ENABLE)
 258              		.loc 1 416 17
 259 0164 7B68     		ldr	r3, [r7, #4]
 260 0166 1B7F     		ldrb	r3, [r3, #28]	@ zero_extendqisi2
 261              		.loc 1 416 6
ARM GAS  /tmp/ccDSCK0d.s 			page 13


 262 0168 012B     		cmp	r3, #1
 263 016a 08D1     		bne	.L17
 417:Drivers/STM32F4xx_HAL_Driver/Src/stm32f4xx_hal_can.c ****   {
 418:Drivers/STM32F4xx_HAL_Driver/Src/stm32f4xx_hal_can.c ****     SET_BIT(hcan->Instance->MCR, CAN_MCR_RFLM);
 264              		.loc 1 418 5
 265 016c 7B68     		ldr	r3, [r7, #4]
 266 016e 1B68     		ldr	r3, [r3]
 267 0170 1A68     		ldr	r2, [r3]
 268 0172 7B68     		ldr	r3, [r7, #4]
 269 0174 1B68     		ldr	r3, [r3]
 270 0176 42F00802 		orr	r2, r2, #8
 271 017a 1A60     		str	r2, [r3]
 272 017c 07E0     		b	.L18
 273              	.L17:
 419:Drivers/STM32F4xx_HAL_Driver/Src/stm32f4xx_hal_can.c ****   }
 420:Drivers/STM32F4xx_HAL_Driver/Src/stm32f4xx_hal_can.c ****   else
 421:Drivers/STM32F4xx_HAL_Driver/Src/stm32f4xx_hal_can.c ****   {
 422:Drivers/STM32F4xx_HAL_Driver/Src/stm32f4xx_hal_can.c ****     CLEAR_BIT(hcan->Instance->MCR, CAN_MCR_RFLM);
 274              		.loc 1 422 5
 275 017e 7B68     		ldr	r3, [r7, #4]
 276 0180 1B68     		ldr	r3, [r3]
 277 0182 1A68     		ldr	r2, [r3]
 278 0184 7B68     		ldr	r3, [r7, #4]
 279 0186 1B68     		ldr	r3, [r3]
 280 0188 22F00802 		bic	r2, r2, #8
 281 018c 1A60     		str	r2, [r3]
 282              	.L18:
 423:Drivers/STM32F4xx_HAL_Driver/Src/stm32f4xx_hal_can.c ****   }
 424:Drivers/STM32F4xx_HAL_Driver/Src/stm32f4xx_hal_can.c **** 
 425:Drivers/STM32F4xx_HAL_Driver/Src/stm32f4xx_hal_can.c ****   /* Set the transmit FIFO priority */
 426:Drivers/STM32F4xx_HAL_Driver/Src/stm32f4xx_hal_can.c ****   if (hcan->Init.TransmitFifoPriority == ENABLE)
 283              		.loc 1 426 17
 284 018e 7B68     		ldr	r3, [r7, #4]
 285 0190 5B7F     		ldrb	r3, [r3, #29]	@ zero_extendqisi2
 286              		.loc 1 426 6
 287 0192 012B     		cmp	r3, #1
 288 0194 08D1     		bne	.L19
 427:Drivers/STM32F4xx_HAL_Driver/Src/stm32f4xx_hal_can.c ****   {
 428:Drivers/STM32F4xx_HAL_Driver/Src/stm32f4xx_hal_can.c ****     SET_BIT(hcan->Instance->MCR, CAN_MCR_TXFP);
 289              		.loc 1 428 5
 290 0196 7B68     		ldr	r3, [r7, #4]
 291 0198 1B68     		ldr	r3, [r3]
 292 019a 1A68     		ldr	r2, [r3]
 293 019c 7B68     		ldr	r3, [r7, #4]
 294 019e 1B68     		ldr	r3, [r3]
 295 01a0 42F00402 		orr	r2, r2, #4
 296 01a4 1A60     		str	r2, [r3]
 297 01a6 07E0     		b	.L20
 298              	.L19:
 429:Drivers/STM32F4xx_HAL_Driver/Src/stm32f4xx_hal_can.c ****   }
 430:Drivers/STM32F4xx_HAL_Driver/Src/stm32f4xx_hal_can.c ****   else
 431:Drivers/STM32F4xx_HAL_Driver/Src/stm32f4xx_hal_can.c ****   {
 432:Drivers/STM32F4xx_HAL_Driver/Src/stm32f4xx_hal_can.c ****     CLEAR_BIT(hcan->Instance->MCR, CAN_MCR_TXFP);
 299              		.loc 1 432 5
 300 01a8 7B68     		ldr	r3, [r7, #4]
 301 01aa 1B68     		ldr	r3, [r3]
 302 01ac 1A68     		ldr	r2, [r3]
ARM GAS  /tmp/ccDSCK0d.s 			page 14


 303 01ae 7B68     		ldr	r3, [r7, #4]
 304 01b0 1B68     		ldr	r3, [r3]
 305 01b2 22F00402 		bic	r2, r2, #4
 306 01b6 1A60     		str	r2, [r3]
 307              	.L20:
 433:Drivers/STM32F4xx_HAL_Driver/Src/stm32f4xx_hal_can.c ****   }
 434:Drivers/STM32F4xx_HAL_Driver/Src/stm32f4xx_hal_can.c **** 
 435:Drivers/STM32F4xx_HAL_Driver/Src/stm32f4xx_hal_can.c ****   /* Set the bit timing register */
 436:Drivers/STM32F4xx_HAL_Driver/Src/stm32f4xx_hal_can.c ****   WRITE_REG(hcan->Instance->BTR, (uint32_t)(hcan->Init.Mode           |
 308              		.loc 1 436 3
 309 01b8 7B68     		ldr	r3, [r7, #4]
 310 01ba 9A68     		ldr	r2, [r3, #8]
 311 01bc 7B68     		ldr	r3, [r7, #4]
 312 01be DB68     		ldr	r3, [r3, #12]
 313 01c0 1A43     		orrs	r2, r2, r3
 314 01c2 7B68     		ldr	r3, [r7, #4]
 315 01c4 1B69     		ldr	r3, [r3, #16]
 316 01c6 1A43     		orrs	r2, r2, r3
 317 01c8 7B68     		ldr	r3, [r7, #4]
 318 01ca 5B69     		ldr	r3, [r3, #20]
 319 01cc 42EA0301 		orr	r1, r2, r3
 320 01d0 7B68     		ldr	r3, [r7, #4]
 321 01d2 5B68     		ldr	r3, [r3, #4]
 322 01d4 5A1E     		subs	r2, r3, #1
 323 01d6 7B68     		ldr	r3, [r7, #4]
 324 01d8 1B68     		ldr	r3, [r3]
 325 01da 0A43     		orrs	r2, r2, r1
 326 01dc DA61     		str	r2, [r3, #28]
 437:Drivers/STM32F4xx_HAL_Driver/Src/stm32f4xx_hal_can.c ****                                             hcan->Init.SyncJumpWidth  |
 438:Drivers/STM32F4xx_HAL_Driver/Src/stm32f4xx_hal_can.c ****                                             hcan->Init.TimeSeg1       |
 439:Drivers/STM32F4xx_HAL_Driver/Src/stm32f4xx_hal_can.c ****                                             hcan->Init.TimeSeg2       |
 440:Drivers/STM32F4xx_HAL_Driver/Src/stm32f4xx_hal_can.c ****                                             (hcan->Init.Prescaler - 1U)));
 441:Drivers/STM32F4xx_HAL_Driver/Src/stm32f4xx_hal_can.c **** 
 442:Drivers/STM32F4xx_HAL_Driver/Src/stm32f4xx_hal_can.c ****   /* Initialize the error code */
 443:Drivers/STM32F4xx_HAL_Driver/Src/stm32f4xx_hal_can.c ****   hcan->ErrorCode = HAL_CAN_ERROR_NONE;
 327              		.loc 1 443 19
 328 01de 7B68     		ldr	r3, [r7, #4]
 329 01e0 0022     		movs	r2, #0
 330 01e2 5A62     		str	r2, [r3, #36]
 444:Drivers/STM32F4xx_HAL_Driver/Src/stm32f4xx_hal_can.c **** 
 445:Drivers/STM32F4xx_HAL_Driver/Src/stm32f4xx_hal_can.c ****   /* Initialize the CAN state */
 446:Drivers/STM32F4xx_HAL_Driver/Src/stm32f4xx_hal_can.c ****   hcan->State = HAL_CAN_STATE_READY;
 331              		.loc 1 446 15
 332 01e4 7B68     		ldr	r3, [r7, #4]
 333 01e6 0122     		movs	r2, #1
 334 01e8 83F82020 		strb	r2, [r3, #32]
 447:Drivers/STM32F4xx_HAL_Driver/Src/stm32f4xx_hal_can.c **** 
 448:Drivers/STM32F4xx_HAL_Driver/Src/stm32f4xx_hal_can.c ****   /* Return function status */
 449:Drivers/STM32F4xx_HAL_Driver/Src/stm32f4xx_hal_can.c ****   return HAL_OK;
 335              		.loc 1 449 10
 336 01ec 0023     		movs	r3, #0
 337              	.L3:
 450:Drivers/STM32F4xx_HAL_Driver/Src/stm32f4xx_hal_can.c **** }
 338              		.loc 1 450 1
 339 01ee 1846     		mov	r0, r3
 340 01f0 1037     		adds	r7, r7, #16
 341              	.LCFI3:
ARM GAS  /tmp/ccDSCK0d.s 			page 15


 342              		.cfi_def_cfa_offset 8
 343 01f2 BD46     		mov	sp, r7
 344              	.LCFI4:
 345              		.cfi_def_cfa_register 13
 346              		@ sp needed
 347 01f4 80BD     		pop	{r7, pc}
 348              		.cfi_endproc
 349              	.LFE235:
 351              		.section	.text.HAL_CAN_DeInit,"ax",%progbits
 352              		.align	1
 353              		.global	HAL_CAN_DeInit
 354              		.syntax unified
 355              		.thumb
 356              		.thumb_func
 358              	HAL_CAN_DeInit:
 359              	.LFB236:
 451:Drivers/STM32F4xx_HAL_Driver/Src/stm32f4xx_hal_can.c **** 
 452:Drivers/STM32F4xx_HAL_Driver/Src/stm32f4xx_hal_can.c **** /**
 453:Drivers/STM32F4xx_HAL_Driver/Src/stm32f4xx_hal_can.c ****   * @brief  Deinitializes the CAN peripheral registers to their default
 454:Drivers/STM32F4xx_HAL_Driver/Src/stm32f4xx_hal_can.c ****   *         reset values.
 455:Drivers/STM32F4xx_HAL_Driver/Src/stm32f4xx_hal_can.c ****   * @param  hcan pointer to a CAN_HandleTypeDef structure that contains
 456:Drivers/STM32F4xx_HAL_Driver/Src/stm32f4xx_hal_can.c ****   *         the configuration information for the specified CAN.
 457:Drivers/STM32F4xx_HAL_Driver/Src/stm32f4xx_hal_can.c ****   * @retval HAL status
 458:Drivers/STM32F4xx_HAL_Driver/Src/stm32f4xx_hal_can.c ****   */
 459:Drivers/STM32F4xx_HAL_Driver/Src/stm32f4xx_hal_can.c **** HAL_StatusTypeDef HAL_CAN_DeInit(CAN_HandleTypeDef *hcan)
 460:Drivers/STM32F4xx_HAL_Driver/Src/stm32f4xx_hal_can.c **** {
 360              		.loc 1 460 1
 361              		.cfi_startproc
 362              		@ args = 0, pretend = 0, frame = 8
 363              		@ frame_needed = 1, uses_anonymous_args = 0
 364 0000 80B5     		push	{r7, lr}
 365              	.LCFI5:
 366              		.cfi_def_cfa_offset 8
 367              		.cfi_offset 7, -8
 368              		.cfi_offset 14, -4
 369 0002 82B0     		sub	sp, sp, #8
 370              	.LCFI6:
 371              		.cfi_def_cfa_offset 16
 372 0004 00AF     		add	r7, sp, #0
 373              	.LCFI7:
 374              		.cfi_def_cfa_register 7
 375 0006 7860     		str	r0, [r7, #4]
 461:Drivers/STM32F4xx_HAL_Driver/Src/stm32f4xx_hal_can.c ****   /* Check CAN handle */
 462:Drivers/STM32F4xx_HAL_Driver/Src/stm32f4xx_hal_can.c ****   if (hcan == NULL)
 376              		.loc 1 462 6
 377 0008 7B68     		ldr	r3, [r7, #4]
 378 000a 002B     		cmp	r3, #0
 379 000c 01D1     		bne	.L22
 463:Drivers/STM32F4xx_HAL_Driver/Src/stm32f4xx_hal_can.c ****   {
 464:Drivers/STM32F4xx_HAL_Driver/Src/stm32f4xx_hal_can.c ****     return HAL_ERROR;
 380              		.loc 1 464 12
 381 000e 0123     		movs	r3, #1
 382 0010 15E0     		b	.L23
 383              	.L22:
 465:Drivers/STM32F4xx_HAL_Driver/Src/stm32f4xx_hal_can.c ****   }
 466:Drivers/STM32F4xx_HAL_Driver/Src/stm32f4xx_hal_can.c **** 
 467:Drivers/STM32F4xx_HAL_Driver/Src/stm32f4xx_hal_can.c ****   /* Check the parameters */
ARM GAS  /tmp/ccDSCK0d.s 			page 16


 468:Drivers/STM32F4xx_HAL_Driver/Src/stm32f4xx_hal_can.c ****   assert_param(IS_CAN_ALL_INSTANCE(hcan->Instance));
 469:Drivers/STM32F4xx_HAL_Driver/Src/stm32f4xx_hal_can.c **** 
 470:Drivers/STM32F4xx_HAL_Driver/Src/stm32f4xx_hal_can.c ****   /* Stop the CAN module */
 471:Drivers/STM32F4xx_HAL_Driver/Src/stm32f4xx_hal_can.c ****   (void)HAL_CAN_Stop(hcan);
 384              		.loc 1 471 9
 385 0012 7868     		ldr	r0, [r7, #4]
 386 0014 FFF7FEFF 		bl	HAL_CAN_Stop
 472:Drivers/STM32F4xx_HAL_Driver/Src/stm32f4xx_hal_can.c **** 
 473:Drivers/STM32F4xx_HAL_Driver/Src/stm32f4xx_hal_can.c **** #if USE_HAL_CAN_REGISTER_CALLBACKS == 1
 474:Drivers/STM32F4xx_HAL_Driver/Src/stm32f4xx_hal_can.c ****   if (hcan->MspDeInitCallback == NULL)
 475:Drivers/STM32F4xx_HAL_Driver/Src/stm32f4xx_hal_can.c ****   {
 476:Drivers/STM32F4xx_HAL_Driver/Src/stm32f4xx_hal_can.c ****     hcan->MspDeInitCallback = HAL_CAN_MspDeInit; /* Legacy weak MspDeInit */
 477:Drivers/STM32F4xx_HAL_Driver/Src/stm32f4xx_hal_can.c ****   }
 478:Drivers/STM32F4xx_HAL_Driver/Src/stm32f4xx_hal_can.c **** 
 479:Drivers/STM32F4xx_HAL_Driver/Src/stm32f4xx_hal_can.c ****   /* DeInit the low level hardware: CLOCK, NVIC */
 480:Drivers/STM32F4xx_HAL_Driver/Src/stm32f4xx_hal_can.c ****   hcan->MspDeInitCallback(hcan);
 481:Drivers/STM32F4xx_HAL_Driver/Src/stm32f4xx_hal_can.c **** 
 482:Drivers/STM32F4xx_HAL_Driver/Src/stm32f4xx_hal_can.c **** #else
 483:Drivers/STM32F4xx_HAL_Driver/Src/stm32f4xx_hal_can.c ****   /* DeInit the low level hardware: CLOCK, NVIC */
 484:Drivers/STM32F4xx_HAL_Driver/Src/stm32f4xx_hal_can.c ****   HAL_CAN_MspDeInit(hcan);
 387              		.loc 1 484 3
 388 0018 7868     		ldr	r0, [r7, #4]
 389 001a FFF7FEFF 		bl	HAL_CAN_MspDeInit
 485:Drivers/STM32F4xx_HAL_Driver/Src/stm32f4xx_hal_can.c **** #endif /* (USE_HAL_CAN_REGISTER_CALLBACKS) */
 486:Drivers/STM32F4xx_HAL_Driver/Src/stm32f4xx_hal_can.c **** 
 487:Drivers/STM32F4xx_HAL_Driver/Src/stm32f4xx_hal_can.c ****   /* Reset the CAN peripheral */
 488:Drivers/STM32F4xx_HAL_Driver/Src/stm32f4xx_hal_can.c ****   SET_BIT(hcan->Instance->MCR, CAN_MCR_RESET);
 390              		.loc 1 488 3
 391 001e 7B68     		ldr	r3, [r7, #4]
 392 0020 1B68     		ldr	r3, [r3]
 393 0022 1A68     		ldr	r2, [r3]
 394 0024 7B68     		ldr	r3, [r7, #4]
 395 0026 1B68     		ldr	r3, [r3]
 396 0028 42F40042 		orr	r2, r2, #32768
 397 002c 1A60     		str	r2, [r3]
 489:Drivers/STM32F4xx_HAL_Driver/Src/stm32f4xx_hal_can.c **** 
 490:Drivers/STM32F4xx_HAL_Driver/Src/stm32f4xx_hal_can.c ****   /* Reset the CAN ErrorCode */
 491:Drivers/STM32F4xx_HAL_Driver/Src/stm32f4xx_hal_can.c ****   hcan->ErrorCode = HAL_CAN_ERROR_NONE;
 398              		.loc 1 491 19
 399 002e 7B68     		ldr	r3, [r7, #4]
 400 0030 0022     		movs	r2, #0
 401 0032 5A62     		str	r2, [r3, #36]
 492:Drivers/STM32F4xx_HAL_Driver/Src/stm32f4xx_hal_can.c **** 
 493:Drivers/STM32F4xx_HAL_Driver/Src/stm32f4xx_hal_can.c ****   /* Change CAN state */
 494:Drivers/STM32F4xx_HAL_Driver/Src/stm32f4xx_hal_can.c ****   hcan->State = HAL_CAN_STATE_RESET;
 402              		.loc 1 494 15
 403 0034 7B68     		ldr	r3, [r7, #4]
 404 0036 0022     		movs	r2, #0
 405 0038 83F82020 		strb	r2, [r3, #32]
 495:Drivers/STM32F4xx_HAL_Driver/Src/stm32f4xx_hal_can.c **** 
 496:Drivers/STM32F4xx_HAL_Driver/Src/stm32f4xx_hal_can.c ****   /* Return function status */
 497:Drivers/STM32F4xx_HAL_Driver/Src/stm32f4xx_hal_can.c ****   return HAL_OK;
 406              		.loc 1 497 10
 407 003c 0023     		movs	r3, #0
 408              	.L23:
 498:Drivers/STM32F4xx_HAL_Driver/Src/stm32f4xx_hal_can.c **** }
 409              		.loc 1 498 1
ARM GAS  /tmp/ccDSCK0d.s 			page 17


 410 003e 1846     		mov	r0, r3
 411 0040 0837     		adds	r7, r7, #8
 412              	.LCFI8:
 413              		.cfi_def_cfa_offset 8
 414 0042 BD46     		mov	sp, r7
 415              	.LCFI9:
 416              		.cfi_def_cfa_register 13
 417              		@ sp needed
 418 0044 80BD     		pop	{r7, pc}
 419              		.cfi_endproc
 420              	.LFE236:
 422              		.section	.text.HAL_CAN_MspInit,"ax",%progbits
 423              		.align	1
 424              		.weak	HAL_CAN_MspInit
 425              		.syntax unified
 426              		.thumb
 427              		.thumb_func
 429              	HAL_CAN_MspInit:
 430              	.LFB237:
 499:Drivers/STM32F4xx_HAL_Driver/Src/stm32f4xx_hal_can.c **** 
 500:Drivers/STM32F4xx_HAL_Driver/Src/stm32f4xx_hal_can.c **** /**
 501:Drivers/STM32F4xx_HAL_Driver/Src/stm32f4xx_hal_can.c ****   * @brief  Initializes the CAN MSP.
 502:Drivers/STM32F4xx_HAL_Driver/Src/stm32f4xx_hal_can.c ****   * @param  hcan pointer to a CAN_HandleTypeDef structure that contains
 503:Drivers/STM32F4xx_HAL_Driver/Src/stm32f4xx_hal_can.c ****   *         the configuration information for the specified CAN.
 504:Drivers/STM32F4xx_HAL_Driver/Src/stm32f4xx_hal_can.c ****   * @retval None
 505:Drivers/STM32F4xx_HAL_Driver/Src/stm32f4xx_hal_can.c ****   */
 506:Drivers/STM32F4xx_HAL_Driver/Src/stm32f4xx_hal_can.c **** __weak void HAL_CAN_MspInit(CAN_HandleTypeDef *hcan)
 507:Drivers/STM32F4xx_HAL_Driver/Src/stm32f4xx_hal_can.c **** {
 431              		.loc 1 507 1
 432              		.cfi_startproc
 433              		@ args = 0, pretend = 0, frame = 8
 434              		@ frame_needed = 1, uses_anonymous_args = 0
 435              		@ link register save eliminated.
 436 0000 80B4     		push	{r7}
 437              	.LCFI10:
 438              		.cfi_def_cfa_offset 4
 439              		.cfi_offset 7, -4
 440 0002 83B0     		sub	sp, sp, #12
 441              	.LCFI11:
 442              		.cfi_def_cfa_offset 16
 443 0004 00AF     		add	r7, sp, #0
 444              	.LCFI12:
 445              		.cfi_def_cfa_register 7
 446 0006 7860     		str	r0, [r7, #4]
 508:Drivers/STM32F4xx_HAL_Driver/Src/stm32f4xx_hal_can.c ****   /* Prevent unused argument(s) compilation warning */
 509:Drivers/STM32F4xx_HAL_Driver/Src/stm32f4xx_hal_can.c ****   UNUSED(hcan);
 510:Drivers/STM32F4xx_HAL_Driver/Src/stm32f4xx_hal_can.c **** 
 511:Drivers/STM32F4xx_HAL_Driver/Src/stm32f4xx_hal_can.c ****   /* NOTE : This function Should not be modified, when the callback is needed,
 512:Drivers/STM32F4xx_HAL_Driver/Src/stm32f4xx_hal_can.c ****             the HAL_CAN_MspInit could be implemented in the user file
 513:Drivers/STM32F4xx_HAL_Driver/Src/stm32f4xx_hal_can.c ****    */
 514:Drivers/STM32F4xx_HAL_Driver/Src/stm32f4xx_hal_can.c **** }
 447              		.loc 1 514 1
 448 0008 00BF     		nop
 449 000a 0C37     		adds	r7, r7, #12
 450              	.LCFI13:
 451              		.cfi_def_cfa_offset 4
 452 000c BD46     		mov	sp, r7
ARM GAS  /tmp/ccDSCK0d.s 			page 18


 453              	.LCFI14:
 454              		.cfi_def_cfa_register 13
 455              		@ sp needed
 456 000e 5DF8047B 		ldr	r7, [sp], #4
 457              	.LCFI15:
 458              		.cfi_restore 7
 459              		.cfi_def_cfa_offset 0
 460 0012 7047     		bx	lr
 461              		.cfi_endproc
 462              	.LFE237:
 464              		.section	.text.HAL_CAN_MspDeInit,"ax",%progbits
 465              		.align	1
 466              		.weak	HAL_CAN_MspDeInit
 467              		.syntax unified
 468              		.thumb
 469              		.thumb_func
 471              	HAL_CAN_MspDeInit:
 472              	.LFB238:
 515:Drivers/STM32F4xx_HAL_Driver/Src/stm32f4xx_hal_can.c **** 
 516:Drivers/STM32F4xx_HAL_Driver/Src/stm32f4xx_hal_can.c **** /**
 517:Drivers/STM32F4xx_HAL_Driver/Src/stm32f4xx_hal_can.c ****   * @brief  DeInitializes the CAN MSP.
 518:Drivers/STM32F4xx_HAL_Driver/Src/stm32f4xx_hal_can.c ****   * @param  hcan pointer to a CAN_HandleTypeDef structure that contains
 519:Drivers/STM32F4xx_HAL_Driver/Src/stm32f4xx_hal_can.c ****   *         the configuration information for the specified CAN.
 520:Drivers/STM32F4xx_HAL_Driver/Src/stm32f4xx_hal_can.c ****   * @retval None
 521:Drivers/STM32F4xx_HAL_Driver/Src/stm32f4xx_hal_can.c ****   */
 522:Drivers/STM32F4xx_HAL_Driver/Src/stm32f4xx_hal_can.c **** __weak void HAL_CAN_MspDeInit(CAN_HandleTypeDef *hcan)
 523:Drivers/STM32F4xx_HAL_Driver/Src/stm32f4xx_hal_can.c **** {
 473              		.loc 1 523 1
 474              		.cfi_startproc
 475              		@ args = 0, pretend = 0, frame = 8
 476              		@ frame_needed = 1, uses_anonymous_args = 0
 477              		@ link register save eliminated.
 478 0000 80B4     		push	{r7}
 479              	.LCFI16:
 480              		.cfi_def_cfa_offset 4
 481              		.cfi_offset 7, -4
 482 0002 83B0     		sub	sp, sp, #12
 483              	.LCFI17:
 484              		.cfi_def_cfa_offset 16
 485 0004 00AF     		add	r7, sp, #0
 486              	.LCFI18:
 487              		.cfi_def_cfa_register 7
 488 0006 7860     		str	r0, [r7, #4]
 524:Drivers/STM32F4xx_HAL_Driver/Src/stm32f4xx_hal_can.c ****   /* Prevent unused argument(s) compilation warning */
 525:Drivers/STM32F4xx_HAL_Driver/Src/stm32f4xx_hal_can.c ****   UNUSED(hcan);
 526:Drivers/STM32F4xx_HAL_Driver/Src/stm32f4xx_hal_can.c **** 
 527:Drivers/STM32F4xx_HAL_Driver/Src/stm32f4xx_hal_can.c ****   /* NOTE : This function Should not be modified, when the callback is needed,
 528:Drivers/STM32F4xx_HAL_Driver/Src/stm32f4xx_hal_can.c ****             the HAL_CAN_MspDeInit could be implemented in the user file
 529:Drivers/STM32F4xx_HAL_Driver/Src/stm32f4xx_hal_can.c ****    */
 530:Drivers/STM32F4xx_HAL_Driver/Src/stm32f4xx_hal_can.c **** }
 489              		.loc 1 530 1
 490 0008 00BF     		nop
 491 000a 0C37     		adds	r7, r7, #12
 492              	.LCFI19:
 493              		.cfi_def_cfa_offset 4
 494 000c BD46     		mov	sp, r7
 495              	.LCFI20:
ARM GAS  /tmp/ccDSCK0d.s 			page 19


 496              		.cfi_def_cfa_register 13
 497              		@ sp needed
 498 000e 5DF8047B 		ldr	r7, [sp], #4
 499              	.LCFI21:
 500              		.cfi_restore 7
 501              		.cfi_def_cfa_offset 0
 502 0012 7047     		bx	lr
 503              		.cfi_endproc
 504              	.LFE238:
 506              		.section	.text.HAL_CAN_ConfigFilter,"ax",%progbits
 507              		.align	1
 508              		.global	HAL_CAN_ConfigFilter
 509              		.syntax unified
 510              		.thumb
 511              		.thumb_func
 513              	HAL_CAN_ConfigFilter:
 514              	.LFB239:
 531:Drivers/STM32F4xx_HAL_Driver/Src/stm32f4xx_hal_can.c **** 
 532:Drivers/STM32F4xx_HAL_Driver/Src/stm32f4xx_hal_can.c **** #if USE_HAL_CAN_REGISTER_CALLBACKS == 1
 533:Drivers/STM32F4xx_HAL_Driver/Src/stm32f4xx_hal_can.c **** /**
 534:Drivers/STM32F4xx_HAL_Driver/Src/stm32f4xx_hal_can.c ****   * @brief  Register a CAN CallBack.
 535:Drivers/STM32F4xx_HAL_Driver/Src/stm32f4xx_hal_can.c ****   *         To be used instead of the weak predefined callback
 536:Drivers/STM32F4xx_HAL_Driver/Src/stm32f4xx_hal_can.c ****   * @param  hcan pointer to a CAN_HandleTypeDef structure that contains
 537:Drivers/STM32F4xx_HAL_Driver/Src/stm32f4xx_hal_can.c ****   *         the configuration information for CAN module
 538:Drivers/STM32F4xx_HAL_Driver/Src/stm32f4xx_hal_can.c ****   * @param  CallbackID ID of the callback to be registered
 539:Drivers/STM32F4xx_HAL_Driver/Src/stm32f4xx_hal_can.c ****   *         This parameter can be one of the following values:
 540:Drivers/STM32F4xx_HAL_Driver/Src/stm32f4xx_hal_can.c ****   *           @arg @ref HAL_CAN_TX_MAILBOX0_COMPLETE_CB_ID Tx Mailbox 0 Complete callback ID
 541:Drivers/STM32F4xx_HAL_Driver/Src/stm32f4xx_hal_can.c ****   *           @arg @ref HAL_CAN_TX_MAILBOX1_COMPLETE_CB_ID Tx Mailbox 1 Complete callback ID
 542:Drivers/STM32F4xx_HAL_Driver/Src/stm32f4xx_hal_can.c ****   *           @arg @ref HAL_CAN_TX_MAILBOX2_COMPLETE_CB_ID Tx Mailbox 2 Complete callback ID
 543:Drivers/STM32F4xx_HAL_Driver/Src/stm32f4xx_hal_can.c ****   *           @arg @ref HAL_CAN_TX_MAILBOX0_ABORT_CB_ID Tx Mailbox 0 Abort callback ID
 544:Drivers/STM32F4xx_HAL_Driver/Src/stm32f4xx_hal_can.c ****   *           @arg @ref HAL_CAN_TX_MAILBOX1_ABORT_CB_ID Tx Mailbox 1 Abort callback ID
 545:Drivers/STM32F4xx_HAL_Driver/Src/stm32f4xx_hal_can.c ****   *           @arg @ref HAL_CAN_TX_MAILBOX2_ABORT_CB_ID Tx Mailbox 2 Abort callback ID
 546:Drivers/STM32F4xx_HAL_Driver/Src/stm32f4xx_hal_can.c ****   *           @arg @ref HAL_CAN_RX_FIFO0_MSG_PENDING_CB_ID Rx Fifo 0 message pending callback ID
 547:Drivers/STM32F4xx_HAL_Driver/Src/stm32f4xx_hal_can.c ****   *           @arg @ref HAL_CAN_RX_FIFO0_FULL_CB_ID Rx Fifo 0 full callback ID
 548:Drivers/STM32F4xx_HAL_Driver/Src/stm32f4xx_hal_can.c ****   *           @arg @ref HAL_CAN_RX_FIFO1_MSG_PENDING_CB_ID Rx Fifo 1 message pending callback ID
 549:Drivers/STM32F4xx_HAL_Driver/Src/stm32f4xx_hal_can.c ****   *           @arg @ref HAL_CAN_RX_FIFO1_FULL_CB_ID Rx Fifo 1 full callback ID
 550:Drivers/STM32F4xx_HAL_Driver/Src/stm32f4xx_hal_can.c ****   *           @arg @ref HAL_CAN_SLEEP_CB_ID Sleep callback ID
 551:Drivers/STM32F4xx_HAL_Driver/Src/stm32f4xx_hal_can.c ****   *           @arg @ref HAL_CAN_WAKEUP_FROM_RX_MSG_CB_ID Wake Up from Rx message callback ID
 552:Drivers/STM32F4xx_HAL_Driver/Src/stm32f4xx_hal_can.c ****   *           @arg @ref HAL_CAN_ERROR_CB_ID Error callback ID
 553:Drivers/STM32F4xx_HAL_Driver/Src/stm32f4xx_hal_can.c ****   *           @arg @ref HAL_CAN_MSPINIT_CB_ID MspInit callback ID
 554:Drivers/STM32F4xx_HAL_Driver/Src/stm32f4xx_hal_can.c ****   *           @arg @ref HAL_CAN_MSPDEINIT_CB_ID MspDeInit callback ID
 555:Drivers/STM32F4xx_HAL_Driver/Src/stm32f4xx_hal_can.c ****   * @param  pCallback pointer to the Callback function
 556:Drivers/STM32F4xx_HAL_Driver/Src/stm32f4xx_hal_can.c ****   * @retval HAL status
 557:Drivers/STM32F4xx_HAL_Driver/Src/stm32f4xx_hal_can.c ****   */
 558:Drivers/STM32F4xx_HAL_Driver/Src/stm32f4xx_hal_can.c **** HAL_StatusTypeDef HAL_CAN_RegisterCallback(CAN_HandleTypeDef *hcan, HAL_CAN_CallbackIDTypeDef Callb
 559:Drivers/STM32F4xx_HAL_Driver/Src/stm32f4xx_hal_can.c **** {
 560:Drivers/STM32F4xx_HAL_Driver/Src/stm32f4xx_hal_can.c ****   HAL_StatusTypeDef status = HAL_OK;
 561:Drivers/STM32F4xx_HAL_Driver/Src/stm32f4xx_hal_can.c **** 
 562:Drivers/STM32F4xx_HAL_Driver/Src/stm32f4xx_hal_can.c ****   if (pCallback == NULL)
 563:Drivers/STM32F4xx_HAL_Driver/Src/stm32f4xx_hal_can.c ****   {
 564:Drivers/STM32F4xx_HAL_Driver/Src/stm32f4xx_hal_can.c ****     /* Update the error code */
 565:Drivers/STM32F4xx_HAL_Driver/Src/stm32f4xx_hal_can.c ****     hcan->ErrorCode |= HAL_CAN_ERROR_INVALID_CALLBACK;
 566:Drivers/STM32F4xx_HAL_Driver/Src/stm32f4xx_hal_can.c **** 
 567:Drivers/STM32F4xx_HAL_Driver/Src/stm32f4xx_hal_can.c ****     return HAL_ERROR;
 568:Drivers/STM32F4xx_HAL_Driver/Src/stm32f4xx_hal_can.c ****   }
 569:Drivers/STM32F4xx_HAL_Driver/Src/stm32f4xx_hal_can.c **** 
 570:Drivers/STM32F4xx_HAL_Driver/Src/stm32f4xx_hal_can.c ****   if (hcan->State == HAL_CAN_STATE_READY)
ARM GAS  /tmp/ccDSCK0d.s 			page 20


 571:Drivers/STM32F4xx_HAL_Driver/Src/stm32f4xx_hal_can.c ****   {
 572:Drivers/STM32F4xx_HAL_Driver/Src/stm32f4xx_hal_can.c ****     switch (CallbackID)
 573:Drivers/STM32F4xx_HAL_Driver/Src/stm32f4xx_hal_can.c ****     {
 574:Drivers/STM32F4xx_HAL_Driver/Src/stm32f4xx_hal_can.c ****       case HAL_CAN_TX_MAILBOX0_COMPLETE_CB_ID :
 575:Drivers/STM32F4xx_HAL_Driver/Src/stm32f4xx_hal_can.c ****         hcan->TxMailbox0CompleteCallback = pCallback;
 576:Drivers/STM32F4xx_HAL_Driver/Src/stm32f4xx_hal_can.c ****         break;
 577:Drivers/STM32F4xx_HAL_Driver/Src/stm32f4xx_hal_can.c **** 
 578:Drivers/STM32F4xx_HAL_Driver/Src/stm32f4xx_hal_can.c ****       case HAL_CAN_TX_MAILBOX1_COMPLETE_CB_ID :
 579:Drivers/STM32F4xx_HAL_Driver/Src/stm32f4xx_hal_can.c ****         hcan->TxMailbox1CompleteCallback = pCallback;
 580:Drivers/STM32F4xx_HAL_Driver/Src/stm32f4xx_hal_can.c ****         break;
 581:Drivers/STM32F4xx_HAL_Driver/Src/stm32f4xx_hal_can.c **** 
 582:Drivers/STM32F4xx_HAL_Driver/Src/stm32f4xx_hal_can.c ****       case HAL_CAN_TX_MAILBOX2_COMPLETE_CB_ID :
 583:Drivers/STM32F4xx_HAL_Driver/Src/stm32f4xx_hal_can.c ****         hcan->TxMailbox2CompleteCallback = pCallback;
 584:Drivers/STM32F4xx_HAL_Driver/Src/stm32f4xx_hal_can.c ****         break;
 585:Drivers/STM32F4xx_HAL_Driver/Src/stm32f4xx_hal_can.c **** 
 586:Drivers/STM32F4xx_HAL_Driver/Src/stm32f4xx_hal_can.c ****       case HAL_CAN_TX_MAILBOX0_ABORT_CB_ID :
 587:Drivers/STM32F4xx_HAL_Driver/Src/stm32f4xx_hal_can.c ****         hcan->TxMailbox0AbortCallback = pCallback;
 588:Drivers/STM32F4xx_HAL_Driver/Src/stm32f4xx_hal_can.c ****         break;
 589:Drivers/STM32F4xx_HAL_Driver/Src/stm32f4xx_hal_can.c **** 
 590:Drivers/STM32F4xx_HAL_Driver/Src/stm32f4xx_hal_can.c ****       case HAL_CAN_TX_MAILBOX1_ABORT_CB_ID :
 591:Drivers/STM32F4xx_HAL_Driver/Src/stm32f4xx_hal_can.c ****         hcan->TxMailbox1AbortCallback = pCallback;
 592:Drivers/STM32F4xx_HAL_Driver/Src/stm32f4xx_hal_can.c ****         break;
 593:Drivers/STM32F4xx_HAL_Driver/Src/stm32f4xx_hal_can.c **** 
 594:Drivers/STM32F4xx_HAL_Driver/Src/stm32f4xx_hal_can.c ****       case HAL_CAN_TX_MAILBOX2_ABORT_CB_ID :
 595:Drivers/STM32F4xx_HAL_Driver/Src/stm32f4xx_hal_can.c ****         hcan->TxMailbox2AbortCallback = pCallback;
 596:Drivers/STM32F4xx_HAL_Driver/Src/stm32f4xx_hal_can.c ****         break;
 597:Drivers/STM32F4xx_HAL_Driver/Src/stm32f4xx_hal_can.c **** 
 598:Drivers/STM32F4xx_HAL_Driver/Src/stm32f4xx_hal_can.c ****       case HAL_CAN_RX_FIFO0_MSG_PENDING_CB_ID :
 599:Drivers/STM32F4xx_HAL_Driver/Src/stm32f4xx_hal_can.c ****         hcan->RxFifo0MsgPendingCallback = pCallback;
 600:Drivers/STM32F4xx_HAL_Driver/Src/stm32f4xx_hal_can.c ****         break;
 601:Drivers/STM32F4xx_HAL_Driver/Src/stm32f4xx_hal_can.c **** 
 602:Drivers/STM32F4xx_HAL_Driver/Src/stm32f4xx_hal_can.c ****       case HAL_CAN_RX_FIFO0_FULL_CB_ID :
 603:Drivers/STM32F4xx_HAL_Driver/Src/stm32f4xx_hal_can.c ****         hcan->RxFifo0FullCallback = pCallback;
 604:Drivers/STM32F4xx_HAL_Driver/Src/stm32f4xx_hal_can.c ****         break;
 605:Drivers/STM32F4xx_HAL_Driver/Src/stm32f4xx_hal_can.c **** 
 606:Drivers/STM32F4xx_HAL_Driver/Src/stm32f4xx_hal_can.c ****       case HAL_CAN_RX_FIFO1_MSG_PENDING_CB_ID :
 607:Drivers/STM32F4xx_HAL_Driver/Src/stm32f4xx_hal_can.c ****         hcan->RxFifo1MsgPendingCallback = pCallback;
 608:Drivers/STM32F4xx_HAL_Driver/Src/stm32f4xx_hal_can.c ****         break;
 609:Drivers/STM32F4xx_HAL_Driver/Src/stm32f4xx_hal_can.c **** 
 610:Drivers/STM32F4xx_HAL_Driver/Src/stm32f4xx_hal_can.c ****       case HAL_CAN_RX_FIFO1_FULL_CB_ID :
 611:Drivers/STM32F4xx_HAL_Driver/Src/stm32f4xx_hal_can.c ****         hcan->RxFifo1FullCallback = pCallback;
 612:Drivers/STM32F4xx_HAL_Driver/Src/stm32f4xx_hal_can.c ****         break;
 613:Drivers/STM32F4xx_HAL_Driver/Src/stm32f4xx_hal_can.c **** 
 614:Drivers/STM32F4xx_HAL_Driver/Src/stm32f4xx_hal_can.c ****       case HAL_CAN_SLEEP_CB_ID :
 615:Drivers/STM32F4xx_HAL_Driver/Src/stm32f4xx_hal_can.c ****         hcan->SleepCallback = pCallback;
 616:Drivers/STM32F4xx_HAL_Driver/Src/stm32f4xx_hal_can.c ****         break;
 617:Drivers/STM32F4xx_HAL_Driver/Src/stm32f4xx_hal_can.c **** 
 618:Drivers/STM32F4xx_HAL_Driver/Src/stm32f4xx_hal_can.c ****       case HAL_CAN_WAKEUP_FROM_RX_MSG_CB_ID :
 619:Drivers/STM32F4xx_HAL_Driver/Src/stm32f4xx_hal_can.c ****         hcan->WakeUpFromRxMsgCallback = pCallback;
 620:Drivers/STM32F4xx_HAL_Driver/Src/stm32f4xx_hal_can.c ****         break;
 621:Drivers/STM32F4xx_HAL_Driver/Src/stm32f4xx_hal_can.c **** 
 622:Drivers/STM32F4xx_HAL_Driver/Src/stm32f4xx_hal_can.c ****       case HAL_CAN_ERROR_CB_ID :
 623:Drivers/STM32F4xx_HAL_Driver/Src/stm32f4xx_hal_can.c ****         hcan->ErrorCallback = pCallback;
 624:Drivers/STM32F4xx_HAL_Driver/Src/stm32f4xx_hal_can.c ****         break;
 625:Drivers/STM32F4xx_HAL_Driver/Src/stm32f4xx_hal_can.c **** 
 626:Drivers/STM32F4xx_HAL_Driver/Src/stm32f4xx_hal_can.c ****       case HAL_CAN_MSPINIT_CB_ID :
 627:Drivers/STM32F4xx_HAL_Driver/Src/stm32f4xx_hal_can.c ****         hcan->MspInitCallback = pCallback;
ARM GAS  /tmp/ccDSCK0d.s 			page 21


 628:Drivers/STM32F4xx_HAL_Driver/Src/stm32f4xx_hal_can.c ****         break;
 629:Drivers/STM32F4xx_HAL_Driver/Src/stm32f4xx_hal_can.c **** 
 630:Drivers/STM32F4xx_HAL_Driver/Src/stm32f4xx_hal_can.c ****       case HAL_CAN_MSPDEINIT_CB_ID :
 631:Drivers/STM32F4xx_HAL_Driver/Src/stm32f4xx_hal_can.c ****         hcan->MspDeInitCallback = pCallback;
 632:Drivers/STM32F4xx_HAL_Driver/Src/stm32f4xx_hal_can.c ****         break;
 633:Drivers/STM32F4xx_HAL_Driver/Src/stm32f4xx_hal_can.c **** 
 634:Drivers/STM32F4xx_HAL_Driver/Src/stm32f4xx_hal_can.c ****       default :
 635:Drivers/STM32F4xx_HAL_Driver/Src/stm32f4xx_hal_can.c ****         /* Update the error code */
 636:Drivers/STM32F4xx_HAL_Driver/Src/stm32f4xx_hal_can.c ****         hcan->ErrorCode |= HAL_CAN_ERROR_INVALID_CALLBACK;
 637:Drivers/STM32F4xx_HAL_Driver/Src/stm32f4xx_hal_can.c **** 
 638:Drivers/STM32F4xx_HAL_Driver/Src/stm32f4xx_hal_can.c ****         /* Return error status */
 639:Drivers/STM32F4xx_HAL_Driver/Src/stm32f4xx_hal_can.c ****         status =  HAL_ERROR;
 640:Drivers/STM32F4xx_HAL_Driver/Src/stm32f4xx_hal_can.c ****         break;
 641:Drivers/STM32F4xx_HAL_Driver/Src/stm32f4xx_hal_can.c ****     }
 642:Drivers/STM32F4xx_HAL_Driver/Src/stm32f4xx_hal_can.c ****   }
 643:Drivers/STM32F4xx_HAL_Driver/Src/stm32f4xx_hal_can.c ****   else if (hcan->State == HAL_CAN_STATE_RESET)
 644:Drivers/STM32F4xx_HAL_Driver/Src/stm32f4xx_hal_can.c ****   {
 645:Drivers/STM32F4xx_HAL_Driver/Src/stm32f4xx_hal_can.c ****     switch (CallbackID)
 646:Drivers/STM32F4xx_HAL_Driver/Src/stm32f4xx_hal_can.c ****     {
 647:Drivers/STM32F4xx_HAL_Driver/Src/stm32f4xx_hal_can.c ****       case HAL_CAN_MSPINIT_CB_ID :
 648:Drivers/STM32F4xx_HAL_Driver/Src/stm32f4xx_hal_can.c ****         hcan->MspInitCallback = pCallback;
 649:Drivers/STM32F4xx_HAL_Driver/Src/stm32f4xx_hal_can.c ****         break;
 650:Drivers/STM32F4xx_HAL_Driver/Src/stm32f4xx_hal_can.c **** 
 651:Drivers/STM32F4xx_HAL_Driver/Src/stm32f4xx_hal_can.c ****       case HAL_CAN_MSPDEINIT_CB_ID :
 652:Drivers/STM32F4xx_HAL_Driver/Src/stm32f4xx_hal_can.c ****         hcan->MspDeInitCallback = pCallback;
 653:Drivers/STM32F4xx_HAL_Driver/Src/stm32f4xx_hal_can.c ****         break;
 654:Drivers/STM32F4xx_HAL_Driver/Src/stm32f4xx_hal_can.c **** 
 655:Drivers/STM32F4xx_HAL_Driver/Src/stm32f4xx_hal_can.c ****       default :
 656:Drivers/STM32F4xx_HAL_Driver/Src/stm32f4xx_hal_can.c ****         /* Update the error code */
 657:Drivers/STM32F4xx_HAL_Driver/Src/stm32f4xx_hal_can.c ****         hcan->ErrorCode |= HAL_CAN_ERROR_INVALID_CALLBACK;
 658:Drivers/STM32F4xx_HAL_Driver/Src/stm32f4xx_hal_can.c **** 
 659:Drivers/STM32F4xx_HAL_Driver/Src/stm32f4xx_hal_can.c ****         /* Return error status */
 660:Drivers/STM32F4xx_HAL_Driver/Src/stm32f4xx_hal_can.c ****         status =  HAL_ERROR;
 661:Drivers/STM32F4xx_HAL_Driver/Src/stm32f4xx_hal_can.c ****         break;
 662:Drivers/STM32F4xx_HAL_Driver/Src/stm32f4xx_hal_can.c ****     }
 663:Drivers/STM32F4xx_HAL_Driver/Src/stm32f4xx_hal_can.c ****   }
 664:Drivers/STM32F4xx_HAL_Driver/Src/stm32f4xx_hal_can.c ****   else
 665:Drivers/STM32F4xx_HAL_Driver/Src/stm32f4xx_hal_can.c ****   {
 666:Drivers/STM32F4xx_HAL_Driver/Src/stm32f4xx_hal_can.c ****     /* Update the error code */
 667:Drivers/STM32F4xx_HAL_Driver/Src/stm32f4xx_hal_can.c ****     hcan->ErrorCode |= HAL_CAN_ERROR_INVALID_CALLBACK;
 668:Drivers/STM32F4xx_HAL_Driver/Src/stm32f4xx_hal_can.c **** 
 669:Drivers/STM32F4xx_HAL_Driver/Src/stm32f4xx_hal_can.c ****     /* Return error status */
 670:Drivers/STM32F4xx_HAL_Driver/Src/stm32f4xx_hal_can.c ****     status =  HAL_ERROR;
 671:Drivers/STM32F4xx_HAL_Driver/Src/stm32f4xx_hal_can.c ****   }
 672:Drivers/STM32F4xx_HAL_Driver/Src/stm32f4xx_hal_can.c **** 
 673:Drivers/STM32F4xx_HAL_Driver/Src/stm32f4xx_hal_can.c ****   return status;
 674:Drivers/STM32F4xx_HAL_Driver/Src/stm32f4xx_hal_can.c **** }
 675:Drivers/STM32F4xx_HAL_Driver/Src/stm32f4xx_hal_can.c **** 
 676:Drivers/STM32F4xx_HAL_Driver/Src/stm32f4xx_hal_can.c **** /**
 677:Drivers/STM32F4xx_HAL_Driver/Src/stm32f4xx_hal_can.c ****   * @brief  Unregister a CAN CallBack.
 678:Drivers/STM32F4xx_HAL_Driver/Src/stm32f4xx_hal_can.c ****   *         CAN callback is redirected to the weak predefined callback
 679:Drivers/STM32F4xx_HAL_Driver/Src/stm32f4xx_hal_can.c ****   * @param  hcan pointer to a CAN_HandleTypeDef structure that contains
 680:Drivers/STM32F4xx_HAL_Driver/Src/stm32f4xx_hal_can.c ****   *         the configuration information for CAN module
 681:Drivers/STM32F4xx_HAL_Driver/Src/stm32f4xx_hal_can.c ****   * @param  CallbackID ID of the callback to be unregistered
 682:Drivers/STM32F4xx_HAL_Driver/Src/stm32f4xx_hal_can.c ****   *         This parameter can be one of the following values:
 683:Drivers/STM32F4xx_HAL_Driver/Src/stm32f4xx_hal_can.c ****   *           @arg @ref HAL_CAN_TX_MAILBOX0_COMPLETE_CB_ID Tx Mailbox 0 Complete callback ID
 684:Drivers/STM32F4xx_HAL_Driver/Src/stm32f4xx_hal_can.c ****   *           @arg @ref HAL_CAN_TX_MAILBOX1_COMPLETE_CB_ID Tx Mailbox 1 Complete callback ID
ARM GAS  /tmp/ccDSCK0d.s 			page 22


 685:Drivers/STM32F4xx_HAL_Driver/Src/stm32f4xx_hal_can.c ****   *           @arg @ref HAL_CAN_TX_MAILBOX2_COMPLETE_CB_ID Tx Mailbox 2 Complete callback ID
 686:Drivers/STM32F4xx_HAL_Driver/Src/stm32f4xx_hal_can.c ****   *           @arg @ref HAL_CAN_TX_MAILBOX0_ABORT_CB_ID Tx Mailbox 0 Abort callback ID
 687:Drivers/STM32F4xx_HAL_Driver/Src/stm32f4xx_hal_can.c ****   *           @arg @ref HAL_CAN_TX_MAILBOX1_ABORT_CB_ID Tx Mailbox 1 Abort callback ID
 688:Drivers/STM32F4xx_HAL_Driver/Src/stm32f4xx_hal_can.c ****   *           @arg @ref HAL_CAN_TX_MAILBOX2_ABORT_CB_ID Tx Mailbox 2 Abort callback ID
 689:Drivers/STM32F4xx_HAL_Driver/Src/stm32f4xx_hal_can.c ****   *           @arg @ref HAL_CAN_RX_FIFO0_MSG_PENDING_CB_ID Rx Fifo 0 message pending callback ID
 690:Drivers/STM32F4xx_HAL_Driver/Src/stm32f4xx_hal_can.c ****   *           @arg @ref HAL_CAN_RX_FIFO0_FULL_CB_ID Rx Fifo 0 full callback ID
 691:Drivers/STM32F4xx_HAL_Driver/Src/stm32f4xx_hal_can.c ****   *           @arg @ref HAL_CAN_RX_FIFO1_MSG_PENDING_CB_ID Rx Fifo 1 message pending callback ID
 692:Drivers/STM32F4xx_HAL_Driver/Src/stm32f4xx_hal_can.c ****   *           @arg @ref HAL_CAN_RX_FIFO1_FULL_CB_ID Rx Fifo 1 full callback ID
 693:Drivers/STM32F4xx_HAL_Driver/Src/stm32f4xx_hal_can.c ****   *           @arg @ref HAL_CAN_SLEEP_CB_ID Sleep callback ID
 694:Drivers/STM32F4xx_HAL_Driver/Src/stm32f4xx_hal_can.c ****   *           @arg @ref HAL_CAN_WAKEUP_FROM_RX_MSG_CB_ID Wake Up from Rx message callback ID
 695:Drivers/STM32F4xx_HAL_Driver/Src/stm32f4xx_hal_can.c ****   *           @arg @ref HAL_CAN_ERROR_CB_ID Error callback ID
 696:Drivers/STM32F4xx_HAL_Driver/Src/stm32f4xx_hal_can.c ****   *           @arg @ref HAL_CAN_MSPINIT_CB_ID MspInit callback ID
 697:Drivers/STM32F4xx_HAL_Driver/Src/stm32f4xx_hal_can.c ****   *           @arg @ref HAL_CAN_MSPDEINIT_CB_ID MspDeInit callback ID
 698:Drivers/STM32F4xx_HAL_Driver/Src/stm32f4xx_hal_can.c ****   * @retval HAL status
 699:Drivers/STM32F4xx_HAL_Driver/Src/stm32f4xx_hal_can.c ****   */
 700:Drivers/STM32F4xx_HAL_Driver/Src/stm32f4xx_hal_can.c **** HAL_StatusTypeDef HAL_CAN_UnRegisterCallback(CAN_HandleTypeDef *hcan, HAL_CAN_CallbackIDTypeDef Cal
 701:Drivers/STM32F4xx_HAL_Driver/Src/stm32f4xx_hal_can.c **** {
 702:Drivers/STM32F4xx_HAL_Driver/Src/stm32f4xx_hal_can.c ****   HAL_StatusTypeDef status = HAL_OK;
 703:Drivers/STM32F4xx_HAL_Driver/Src/stm32f4xx_hal_can.c **** 
 704:Drivers/STM32F4xx_HAL_Driver/Src/stm32f4xx_hal_can.c ****   if (hcan->State == HAL_CAN_STATE_READY)
 705:Drivers/STM32F4xx_HAL_Driver/Src/stm32f4xx_hal_can.c ****   {
 706:Drivers/STM32F4xx_HAL_Driver/Src/stm32f4xx_hal_can.c ****     switch (CallbackID)
 707:Drivers/STM32F4xx_HAL_Driver/Src/stm32f4xx_hal_can.c ****     {
 708:Drivers/STM32F4xx_HAL_Driver/Src/stm32f4xx_hal_can.c ****       case HAL_CAN_TX_MAILBOX0_COMPLETE_CB_ID :
 709:Drivers/STM32F4xx_HAL_Driver/Src/stm32f4xx_hal_can.c ****         hcan->TxMailbox0CompleteCallback = HAL_CAN_TxMailbox0CompleteCallback;
 710:Drivers/STM32F4xx_HAL_Driver/Src/stm32f4xx_hal_can.c ****         break;
 711:Drivers/STM32F4xx_HAL_Driver/Src/stm32f4xx_hal_can.c **** 
 712:Drivers/STM32F4xx_HAL_Driver/Src/stm32f4xx_hal_can.c ****       case HAL_CAN_TX_MAILBOX1_COMPLETE_CB_ID :
 713:Drivers/STM32F4xx_HAL_Driver/Src/stm32f4xx_hal_can.c ****         hcan->TxMailbox1CompleteCallback = HAL_CAN_TxMailbox1CompleteCallback;
 714:Drivers/STM32F4xx_HAL_Driver/Src/stm32f4xx_hal_can.c ****         break;
 715:Drivers/STM32F4xx_HAL_Driver/Src/stm32f4xx_hal_can.c **** 
 716:Drivers/STM32F4xx_HAL_Driver/Src/stm32f4xx_hal_can.c ****       case HAL_CAN_TX_MAILBOX2_COMPLETE_CB_ID :
 717:Drivers/STM32F4xx_HAL_Driver/Src/stm32f4xx_hal_can.c ****         hcan->TxMailbox2CompleteCallback = HAL_CAN_TxMailbox2CompleteCallback;
 718:Drivers/STM32F4xx_HAL_Driver/Src/stm32f4xx_hal_can.c ****         break;
 719:Drivers/STM32F4xx_HAL_Driver/Src/stm32f4xx_hal_can.c **** 
 720:Drivers/STM32F4xx_HAL_Driver/Src/stm32f4xx_hal_can.c ****       case HAL_CAN_TX_MAILBOX0_ABORT_CB_ID :
 721:Drivers/STM32F4xx_HAL_Driver/Src/stm32f4xx_hal_can.c ****         hcan->TxMailbox0AbortCallback = HAL_CAN_TxMailbox0AbortCallback;
 722:Drivers/STM32F4xx_HAL_Driver/Src/stm32f4xx_hal_can.c ****         break;
 723:Drivers/STM32F4xx_HAL_Driver/Src/stm32f4xx_hal_can.c **** 
 724:Drivers/STM32F4xx_HAL_Driver/Src/stm32f4xx_hal_can.c ****       case HAL_CAN_TX_MAILBOX1_ABORT_CB_ID :
 725:Drivers/STM32F4xx_HAL_Driver/Src/stm32f4xx_hal_can.c ****         hcan->TxMailbox1AbortCallback = HAL_CAN_TxMailbox1AbortCallback;
 726:Drivers/STM32F4xx_HAL_Driver/Src/stm32f4xx_hal_can.c ****         break;
 727:Drivers/STM32F4xx_HAL_Driver/Src/stm32f4xx_hal_can.c **** 
 728:Drivers/STM32F4xx_HAL_Driver/Src/stm32f4xx_hal_can.c ****       case HAL_CAN_TX_MAILBOX2_ABORT_CB_ID :
 729:Drivers/STM32F4xx_HAL_Driver/Src/stm32f4xx_hal_can.c ****         hcan->TxMailbox2AbortCallback = HAL_CAN_TxMailbox2AbortCallback;
 730:Drivers/STM32F4xx_HAL_Driver/Src/stm32f4xx_hal_can.c ****         break;
 731:Drivers/STM32F4xx_HAL_Driver/Src/stm32f4xx_hal_can.c **** 
 732:Drivers/STM32F4xx_HAL_Driver/Src/stm32f4xx_hal_can.c ****       case HAL_CAN_RX_FIFO0_MSG_PENDING_CB_ID :
 733:Drivers/STM32F4xx_HAL_Driver/Src/stm32f4xx_hal_can.c ****         hcan->RxFifo0MsgPendingCallback = HAL_CAN_RxFifo0MsgPendingCallback;
 734:Drivers/STM32F4xx_HAL_Driver/Src/stm32f4xx_hal_can.c ****         break;
 735:Drivers/STM32F4xx_HAL_Driver/Src/stm32f4xx_hal_can.c **** 
 736:Drivers/STM32F4xx_HAL_Driver/Src/stm32f4xx_hal_can.c ****       case HAL_CAN_RX_FIFO0_FULL_CB_ID :
 737:Drivers/STM32F4xx_HAL_Driver/Src/stm32f4xx_hal_can.c ****         hcan->RxFifo0FullCallback = HAL_CAN_RxFifo0FullCallback;
 738:Drivers/STM32F4xx_HAL_Driver/Src/stm32f4xx_hal_can.c ****         break;
 739:Drivers/STM32F4xx_HAL_Driver/Src/stm32f4xx_hal_can.c **** 
 740:Drivers/STM32F4xx_HAL_Driver/Src/stm32f4xx_hal_can.c ****       case HAL_CAN_RX_FIFO1_MSG_PENDING_CB_ID :
 741:Drivers/STM32F4xx_HAL_Driver/Src/stm32f4xx_hal_can.c ****         hcan->RxFifo1MsgPendingCallback = HAL_CAN_RxFifo1MsgPendingCallback;
ARM GAS  /tmp/ccDSCK0d.s 			page 23


 742:Drivers/STM32F4xx_HAL_Driver/Src/stm32f4xx_hal_can.c ****         break;
 743:Drivers/STM32F4xx_HAL_Driver/Src/stm32f4xx_hal_can.c **** 
 744:Drivers/STM32F4xx_HAL_Driver/Src/stm32f4xx_hal_can.c ****       case HAL_CAN_RX_FIFO1_FULL_CB_ID :
 745:Drivers/STM32F4xx_HAL_Driver/Src/stm32f4xx_hal_can.c ****         hcan->RxFifo1FullCallback = HAL_CAN_RxFifo1FullCallback;
 746:Drivers/STM32F4xx_HAL_Driver/Src/stm32f4xx_hal_can.c ****         break;
 747:Drivers/STM32F4xx_HAL_Driver/Src/stm32f4xx_hal_can.c **** 
 748:Drivers/STM32F4xx_HAL_Driver/Src/stm32f4xx_hal_can.c ****       case HAL_CAN_SLEEP_CB_ID :
 749:Drivers/STM32F4xx_HAL_Driver/Src/stm32f4xx_hal_can.c ****         hcan->SleepCallback = HAL_CAN_SleepCallback;
 750:Drivers/STM32F4xx_HAL_Driver/Src/stm32f4xx_hal_can.c ****         break;
 751:Drivers/STM32F4xx_HAL_Driver/Src/stm32f4xx_hal_can.c **** 
 752:Drivers/STM32F4xx_HAL_Driver/Src/stm32f4xx_hal_can.c ****       case HAL_CAN_WAKEUP_FROM_RX_MSG_CB_ID :
 753:Drivers/STM32F4xx_HAL_Driver/Src/stm32f4xx_hal_can.c ****         hcan->WakeUpFromRxMsgCallback = HAL_CAN_WakeUpFromRxMsgCallback;
 754:Drivers/STM32F4xx_HAL_Driver/Src/stm32f4xx_hal_can.c ****         break;
 755:Drivers/STM32F4xx_HAL_Driver/Src/stm32f4xx_hal_can.c **** 
 756:Drivers/STM32F4xx_HAL_Driver/Src/stm32f4xx_hal_can.c ****       case HAL_CAN_ERROR_CB_ID :
 757:Drivers/STM32F4xx_HAL_Driver/Src/stm32f4xx_hal_can.c ****         hcan->ErrorCallback = HAL_CAN_ErrorCallback;
 758:Drivers/STM32F4xx_HAL_Driver/Src/stm32f4xx_hal_can.c ****         break;
 759:Drivers/STM32F4xx_HAL_Driver/Src/stm32f4xx_hal_can.c **** 
 760:Drivers/STM32F4xx_HAL_Driver/Src/stm32f4xx_hal_can.c ****       case HAL_CAN_MSPINIT_CB_ID :
 761:Drivers/STM32F4xx_HAL_Driver/Src/stm32f4xx_hal_can.c ****         hcan->MspInitCallback = HAL_CAN_MspInit;
 762:Drivers/STM32F4xx_HAL_Driver/Src/stm32f4xx_hal_can.c ****         break;
 763:Drivers/STM32F4xx_HAL_Driver/Src/stm32f4xx_hal_can.c **** 
 764:Drivers/STM32F4xx_HAL_Driver/Src/stm32f4xx_hal_can.c ****       case HAL_CAN_MSPDEINIT_CB_ID :
 765:Drivers/STM32F4xx_HAL_Driver/Src/stm32f4xx_hal_can.c ****         hcan->MspDeInitCallback = HAL_CAN_MspDeInit;
 766:Drivers/STM32F4xx_HAL_Driver/Src/stm32f4xx_hal_can.c ****         break;
 767:Drivers/STM32F4xx_HAL_Driver/Src/stm32f4xx_hal_can.c **** 
 768:Drivers/STM32F4xx_HAL_Driver/Src/stm32f4xx_hal_can.c ****       default :
 769:Drivers/STM32F4xx_HAL_Driver/Src/stm32f4xx_hal_can.c ****         /* Update the error code */
 770:Drivers/STM32F4xx_HAL_Driver/Src/stm32f4xx_hal_can.c ****         hcan->ErrorCode |= HAL_CAN_ERROR_INVALID_CALLBACK;
 771:Drivers/STM32F4xx_HAL_Driver/Src/stm32f4xx_hal_can.c **** 
 772:Drivers/STM32F4xx_HAL_Driver/Src/stm32f4xx_hal_can.c ****         /* Return error status */
 773:Drivers/STM32F4xx_HAL_Driver/Src/stm32f4xx_hal_can.c ****         status =  HAL_ERROR;
 774:Drivers/STM32F4xx_HAL_Driver/Src/stm32f4xx_hal_can.c ****         break;
 775:Drivers/STM32F4xx_HAL_Driver/Src/stm32f4xx_hal_can.c ****     }
 776:Drivers/STM32F4xx_HAL_Driver/Src/stm32f4xx_hal_can.c ****   }
 777:Drivers/STM32F4xx_HAL_Driver/Src/stm32f4xx_hal_can.c ****   else if (hcan->State == HAL_CAN_STATE_RESET)
 778:Drivers/STM32F4xx_HAL_Driver/Src/stm32f4xx_hal_can.c ****   {
 779:Drivers/STM32F4xx_HAL_Driver/Src/stm32f4xx_hal_can.c ****     switch (CallbackID)
 780:Drivers/STM32F4xx_HAL_Driver/Src/stm32f4xx_hal_can.c ****     {
 781:Drivers/STM32F4xx_HAL_Driver/Src/stm32f4xx_hal_can.c ****       case HAL_CAN_MSPINIT_CB_ID :
 782:Drivers/STM32F4xx_HAL_Driver/Src/stm32f4xx_hal_can.c ****         hcan->MspInitCallback = HAL_CAN_MspInit;
 783:Drivers/STM32F4xx_HAL_Driver/Src/stm32f4xx_hal_can.c ****         break;
 784:Drivers/STM32F4xx_HAL_Driver/Src/stm32f4xx_hal_can.c **** 
 785:Drivers/STM32F4xx_HAL_Driver/Src/stm32f4xx_hal_can.c ****       case HAL_CAN_MSPDEINIT_CB_ID :
 786:Drivers/STM32F4xx_HAL_Driver/Src/stm32f4xx_hal_can.c ****         hcan->MspDeInitCallback = HAL_CAN_MspDeInit;
 787:Drivers/STM32F4xx_HAL_Driver/Src/stm32f4xx_hal_can.c ****         break;
 788:Drivers/STM32F4xx_HAL_Driver/Src/stm32f4xx_hal_can.c **** 
 789:Drivers/STM32F4xx_HAL_Driver/Src/stm32f4xx_hal_can.c ****       default :
 790:Drivers/STM32F4xx_HAL_Driver/Src/stm32f4xx_hal_can.c ****         /* Update the error code */
 791:Drivers/STM32F4xx_HAL_Driver/Src/stm32f4xx_hal_can.c ****         hcan->ErrorCode |= HAL_CAN_ERROR_INVALID_CALLBACK;
 792:Drivers/STM32F4xx_HAL_Driver/Src/stm32f4xx_hal_can.c **** 
 793:Drivers/STM32F4xx_HAL_Driver/Src/stm32f4xx_hal_can.c ****         /* Return error status */
 794:Drivers/STM32F4xx_HAL_Driver/Src/stm32f4xx_hal_can.c ****         status =  HAL_ERROR;
 795:Drivers/STM32F4xx_HAL_Driver/Src/stm32f4xx_hal_can.c ****         break;
 796:Drivers/STM32F4xx_HAL_Driver/Src/stm32f4xx_hal_can.c ****     }
 797:Drivers/STM32F4xx_HAL_Driver/Src/stm32f4xx_hal_can.c ****   }
 798:Drivers/STM32F4xx_HAL_Driver/Src/stm32f4xx_hal_can.c ****   else
ARM GAS  /tmp/ccDSCK0d.s 			page 24


 799:Drivers/STM32F4xx_HAL_Driver/Src/stm32f4xx_hal_can.c ****   {
 800:Drivers/STM32F4xx_HAL_Driver/Src/stm32f4xx_hal_can.c ****     /* Update the error code */
 801:Drivers/STM32F4xx_HAL_Driver/Src/stm32f4xx_hal_can.c ****     hcan->ErrorCode |= HAL_CAN_ERROR_INVALID_CALLBACK;
 802:Drivers/STM32F4xx_HAL_Driver/Src/stm32f4xx_hal_can.c **** 
 803:Drivers/STM32F4xx_HAL_Driver/Src/stm32f4xx_hal_can.c ****     /* Return error status */
 804:Drivers/STM32F4xx_HAL_Driver/Src/stm32f4xx_hal_can.c ****     status =  HAL_ERROR;
 805:Drivers/STM32F4xx_HAL_Driver/Src/stm32f4xx_hal_can.c ****   }
 806:Drivers/STM32F4xx_HAL_Driver/Src/stm32f4xx_hal_can.c **** 
 807:Drivers/STM32F4xx_HAL_Driver/Src/stm32f4xx_hal_can.c ****   return status;
 808:Drivers/STM32F4xx_HAL_Driver/Src/stm32f4xx_hal_can.c **** }
 809:Drivers/STM32F4xx_HAL_Driver/Src/stm32f4xx_hal_can.c **** #endif /* USE_HAL_CAN_REGISTER_CALLBACKS */
 810:Drivers/STM32F4xx_HAL_Driver/Src/stm32f4xx_hal_can.c **** 
 811:Drivers/STM32F4xx_HAL_Driver/Src/stm32f4xx_hal_can.c **** /**
 812:Drivers/STM32F4xx_HAL_Driver/Src/stm32f4xx_hal_can.c ****   * @}
 813:Drivers/STM32F4xx_HAL_Driver/Src/stm32f4xx_hal_can.c ****   */
 814:Drivers/STM32F4xx_HAL_Driver/Src/stm32f4xx_hal_can.c **** 
 815:Drivers/STM32F4xx_HAL_Driver/Src/stm32f4xx_hal_can.c **** /** @defgroup CAN_Exported_Functions_Group2 Configuration functions
 816:Drivers/STM32F4xx_HAL_Driver/Src/stm32f4xx_hal_can.c ****  *  @brief    Configuration functions.
 817:Drivers/STM32F4xx_HAL_Driver/Src/stm32f4xx_hal_can.c ****  *
 818:Drivers/STM32F4xx_HAL_Driver/Src/stm32f4xx_hal_can.c **** @verbatim
 819:Drivers/STM32F4xx_HAL_Driver/Src/stm32f4xx_hal_can.c ****   ==============================================================================
 820:Drivers/STM32F4xx_HAL_Driver/Src/stm32f4xx_hal_can.c ****               ##### Configuration functions #####
 821:Drivers/STM32F4xx_HAL_Driver/Src/stm32f4xx_hal_can.c ****   ==============================================================================
 822:Drivers/STM32F4xx_HAL_Driver/Src/stm32f4xx_hal_can.c ****     [..]  This section provides functions allowing to:
 823:Drivers/STM32F4xx_HAL_Driver/Src/stm32f4xx_hal_can.c ****       (+) HAL_CAN_ConfigFilter            : Configure the CAN reception filters
 824:Drivers/STM32F4xx_HAL_Driver/Src/stm32f4xx_hal_can.c **** 
 825:Drivers/STM32F4xx_HAL_Driver/Src/stm32f4xx_hal_can.c **** @endverbatim
 826:Drivers/STM32F4xx_HAL_Driver/Src/stm32f4xx_hal_can.c ****   * @{
 827:Drivers/STM32F4xx_HAL_Driver/Src/stm32f4xx_hal_can.c ****   */
 828:Drivers/STM32F4xx_HAL_Driver/Src/stm32f4xx_hal_can.c **** 
 829:Drivers/STM32F4xx_HAL_Driver/Src/stm32f4xx_hal_can.c **** /**
 830:Drivers/STM32F4xx_HAL_Driver/Src/stm32f4xx_hal_can.c ****   * @brief  Configures the CAN reception filter according to the specified
 831:Drivers/STM32F4xx_HAL_Driver/Src/stm32f4xx_hal_can.c ****   *         parameters in the CAN_FilterInitStruct.
 832:Drivers/STM32F4xx_HAL_Driver/Src/stm32f4xx_hal_can.c ****   * @param  hcan pointer to a CAN_HandleTypeDef structure that contains
 833:Drivers/STM32F4xx_HAL_Driver/Src/stm32f4xx_hal_can.c ****   *         the configuration information for the specified CAN.
 834:Drivers/STM32F4xx_HAL_Driver/Src/stm32f4xx_hal_can.c ****   * @param  sFilterConfig pointer to a CAN_FilterTypeDef structure that
 835:Drivers/STM32F4xx_HAL_Driver/Src/stm32f4xx_hal_can.c ****   *         contains the filter configuration information.
 836:Drivers/STM32F4xx_HAL_Driver/Src/stm32f4xx_hal_can.c ****   * @retval None
 837:Drivers/STM32F4xx_HAL_Driver/Src/stm32f4xx_hal_can.c ****   */
 838:Drivers/STM32F4xx_HAL_Driver/Src/stm32f4xx_hal_can.c **** HAL_StatusTypeDef HAL_CAN_ConfigFilter(CAN_HandleTypeDef *hcan, CAN_FilterTypeDef *sFilterConfig)
 839:Drivers/STM32F4xx_HAL_Driver/Src/stm32f4xx_hal_can.c **** {
 515              		.loc 1 839 1
 516              		.cfi_startproc
 517              		@ args = 0, pretend = 0, frame = 24
 518              		@ frame_needed = 1, uses_anonymous_args = 0
 519              		@ link register save eliminated.
 520 0000 80B4     		push	{r7}
 521              	.LCFI22:
 522              		.cfi_def_cfa_offset 4
 523              		.cfi_offset 7, -4
 524 0002 87B0     		sub	sp, sp, #28
 525              	.LCFI23:
 526              		.cfi_def_cfa_offset 32
 527 0004 00AF     		add	r7, sp, #0
 528              	.LCFI24:
 529              		.cfi_def_cfa_register 7
 530 0006 7860     		str	r0, [r7, #4]
ARM GAS  /tmp/ccDSCK0d.s 			page 25


 531 0008 3960     		str	r1, [r7]
 840:Drivers/STM32F4xx_HAL_Driver/Src/stm32f4xx_hal_can.c ****   uint32_t filternbrbitpos;
 841:Drivers/STM32F4xx_HAL_Driver/Src/stm32f4xx_hal_can.c ****   CAN_TypeDef *can_ip = hcan->Instance;
 532              		.loc 1 841 16
 533 000a 7B68     		ldr	r3, [r7, #4]
 534 000c 1B68     		ldr	r3, [r3]
 535 000e 7B61     		str	r3, [r7, #20]
 842:Drivers/STM32F4xx_HAL_Driver/Src/stm32f4xx_hal_can.c ****   HAL_CAN_StateTypeDef state = hcan->State;
 536              		.loc 1 842 24
 537 0010 7B68     		ldr	r3, [r7, #4]
 538 0012 93F82030 		ldrb	r3, [r3, #32]
 539 0016 FB74     		strb	r3, [r7, #19]
 843:Drivers/STM32F4xx_HAL_Driver/Src/stm32f4xx_hal_can.c **** 
 844:Drivers/STM32F4xx_HAL_Driver/Src/stm32f4xx_hal_can.c ****   if ((state == HAL_CAN_STATE_READY) ||
 540              		.loc 1 844 6
 541 0018 FB7C     		ldrb	r3, [r7, #19]	@ zero_extendqisi2
 542 001a 012B     		cmp	r3, #1
 543 001c 03D0     		beq	.L27
 544              		.loc 1 844 38 discriminator 1
 545 001e FB7C     		ldrb	r3, [r7, #19]	@ zero_extendqisi2
 546 0020 022B     		cmp	r3, #2
 547 0022 40F0BE80 		bne	.L28
 548              	.L27:
 845:Drivers/STM32F4xx_HAL_Driver/Src/stm32f4xx_hal_can.c ****       (state == HAL_CAN_STATE_LISTENING))
 846:Drivers/STM32F4xx_HAL_Driver/Src/stm32f4xx_hal_can.c ****   {
 847:Drivers/STM32F4xx_HAL_Driver/Src/stm32f4xx_hal_can.c ****     /* Check the parameters */
 848:Drivers/STM32F4xx_HAL_Driver/Src/stm32f4xx_hal_can.c ****     assert_param(IS_CAN_FILTER_ID_HALFWORD(sFilterConfig->FilterIdHigh));
 849:Drivers/STM32F4xx_HAL_Driver/Src/stm32f4xx_hal_can.c ****     assert_param(IS_CAN_FILTER_ID_HALFWORD(sFilterConfig->FilterIdLow));
 850:Drivers/STM32F4xx_HAL_Driver/Src/stm32f4xx_hal_can.c ****     assert_param(IS_CAN_FILTER_ID_HALFWORD(sFilterConfig->FilterMaskIdHigh));
 851:Drivers/STM32F4xx_HAL_Driver/Src/stm32f4xx_hal_can.c ****     assert_param(IS_CAN_FILTER_ID_HALFWORD(sFilterConfig->FilterMaskIdLow));
 852:Drivers/STM32F4xx_HAL_Driver/Src/stm32f4xx_hal_can.c ****     assert_param(IS_CAN_FILTER_MODE(sFilterConfig->FilterMode));
 853:Drivers/STM32F4xx_HAL_Driver/Src/stm32f4xx_hal_can.c ****     assert_param(IS_CAN_FILTER_SCALE(sFilterConfig->FilterScale));
 854:Drivers/STM32F4xx_HAL_Driver/Src/stm32f4xx_hal_can.c ****     assert_param(IS_CAN_FILTER_FIFO(sFilterConfig->FilterFIFOAssignment));
 855:Drivers/STM32F4xx_HAL_Driver/Src/stm32f4xx_hal_can.c ****     assert_param(IS_CAN_FILTER_ACTIVATION(sFilterConfig->FilterActivation));
 856:Drivers/STM32F4xx_HAL_Driver/Src/stm32f4xx_hal_can.c **** 
 857:Drivers/STM32F4xx_HAL_Driver/Src/stm32f4xx_hal_can.c **** #if defined(CAN3)
 858:Drivers/STM32F4xx_HAL_Driver/Src/stm32f4xx_hal_can.c ****     /* Check the CAN instance */
 859:Drivers/STM32F4xx_HAL_Driver/Src/stm32f4xx_hal_can.c ****     if (hcan->Instance == CAN3)
 860:Drivers/STM32F4xx_HAL_Driver/Src/stm32f4xx_hal_can.c ****     {
 861:Drivers/STM32F4xx_HAL_Driver/Src/stm32f4xx_hal_can.c ****       /* CAN3 is single instance with 14 dedicated filters banks */
 862:Drivers/STM32F4xx_HAL_Driver/Src/stm32f4xx_hal_can.c **** 
 863:Drivers/STM32F4xx_HAL_Driver/Src/stm32f4xx_hal_can.c ****       /* Check the parameters */
 864:Drivers/STM32F4xx_HAL_Driver/Src/stm32f4xx_hal_can.c ****       assert_param(IS_CAN_FILTER_BANK_SINGLE(sFilterConfig->FilterBank));
 865:Drivers/STM32F4xx_HAL_Driver/Src/stm32f4xx_hal_can.c ****     }
 866:Drivers/STM32F4xx_HAL_Driver/Src/stm32f4xx_hal_can.c ****     else
 867:Drivers/STM32F4xx_HAL_Driver/Src/stm32f4xx_hal_can.c ****     {
 868:Drivers/STM32F4xx_HAL_Driver/Src/stm32f4xx_hal_can.c ****       /* CAN1 and CAN2 are dual instances with 28 common filters banks */
 869:Drivers/STM32F4xx_HAL_Driver/Src/stm32f4xx_hal_can.c ****       /* Select master instance to access the filter banks */
 870:Drivers/STM32F4xx_HAL_Driver/Src/stm32f4xx_hal_can.c ****       can_ip = CAN1;
 871:Drivers/STM32F4xx_HAL_Driver/Src/stm32f4xx_hal_can.c **** 
 872:Drivers/STM32F4xx_HAL_Driver/Src/stm32f4xx_hal_can.c ****       /* Check the parameters */
 873:Drivers/STM32F4xx_HAL_Driver/Src/stm32f4xx_hal_can.c ****       assert_param(IS_CAN_FILTER_BANK_DUAL(sFilterConfig->FilterBank));
 874:Drivers/STM32F4xx_HAL_Driver/Src/stm32f4xx_hal_can.c ****       assert_param(IS_CAN_FILTER_BANK_DUAL(sFilterConfig->SlaveStartFilterBank));
 875:Drivers/STM32F4xx_HAL_Driver/Src/stm32f4xx_hal_can.c ****     }
 876:Drivers/STM32F4xx_HAL_Driver/Src/stm32f4xx_hal_can.c **** #elif defined(CAN2)
 877:Drivers/STM32F4xx_HAL_Driver/Src/stm32f4xx_hal_can.c ****     /* CAN1 and CAN2 are dual instances with 28 common filters banks */
 878:Drivers/STM32F4xx_HAL_Driver/Src/stm32f4xx_hal_can.c ****     /* Select master instance to access the filter banks */
ARM GAS  /tmp/ccDSCK0d.s 			page 26


 879:Drivers/STM32F4xx_HAL_Driver/Src/stm32f4xx_hal_can.c ****     can_ip = CAN1;
 549              		.loc 1 879 12
 550 0026 654B     		ldr	r3, .L37
 551 0028 7B61     		str	r3, [r7, #20]
 880:Drivers/STM32F4xx_HAL_Driver/Src/stm32f4xx_hal_can.c **** 
 881:Drivers/STM32F4xx_HAL_Driver/Src/stm32f4xx_hal_can.c ****     /* Check the parameters */
 882:Drivers/STM32F4xx_HAL_Driver/Src/stm32f4xx_hal_can.c ****     assert_param(IS_CAN_FILTER_BANK_DUAL(sFilterConfig->FilterBank));
 883:Drivers/STM32F4xx_HAL_Driver/Src/stm32f4xx_hal_can.c ****     assert_param(IS_CAN_FILTER_BANK_DUAL(sFilterConfig->SlaveStartFilterBank));
 884:Drivers/STM32F4xx_HAL_Driver/Src/stm32f4xx_hal_can.c **** #else
 885:Drivers/STM32F4xx_HAL_Driver/Src/stm32f4xx_hal_can.c ****     /* CAN1 is single instance with 14 dedicated filters banks */
 886:Drivers/STM32F4xx_HAL_Driver/Src/stm32f4xx_hal_can.c **** 
 887:Drivers/STM32F4xx_HAL_Driver/Src/stm32f4xx_hal_can.c ****     /* Check the parameters */
 888:Drivers/STM32F4xx_HAL_Driver/Src/stm32f4xx_hal_can.c ****     assert_param(IS_CAN_FILTER_BANK_SINGLE(sFilterConfig->FilterBank));
 889:Drivers/STM32F4xx_HAL_Driver/Src/stm32f4xx_hal_can.c **** #endif
 890:Drivers/STM32F4xx_HAL_Driver/Src/stm32f4xx_hal_can.c **** 
 891:Drivers/STM32F4xx_HAL_Driver/Src/stm32f4xx_hal_can.c ****     /* Initialisation mode for the filter */
 892:Drivers/STM32F4xx_HAL_Driver/Src/stm32f4xx_hal_can.c ****     SET_BIT(can_ip->FMR, CAN_FMR_FINIT);
 552              		.loc 1 892 5
 553 002a 7B69     		ldr	r3, [r7, #20]
 554 002c D3F80032 		ldr	r3, [r3, #512]
 555 0030 43F00102 		orr	r2, r3, #1
 556 0034 7B69     		ldr	r3, [r7, #20]
 557 0036 C3F80022 		str	r2, [r3, #512]
 893:Drivers/STM32F4xx_HAL_Driver/Src/stm32f4xx_hal_can.c **** 
 894:Drivers/STM32F4xx_HAL_Driver/Src/stm32f4xx_hal_can.c **** #if defined(CAN3)
 895:Drivers/STM32F4xx_HAL_Driver/Src/stm32f4xx_hal_can.c ****     /* Check the CAN instance */
 896:Drivers/STM32F4xx_HAL_Driver/Src/stm32f4xx_hal_can.c ****     if (can_ip == CAN1)
 897:Drivers/STM32F4xx_HAL_Driver/Src/stm32f4xx_hal_can.c ****     {
 898:Drivers/STM32F4xx_HAL_Driver/Src/stm32f4xx_hal_can.c ****       /* Select the start filter number of CAN2 slave instance */
 899:Drivers/STM32F4xx_HAL_Driver/Src/stm32f4xx_hal_can.c ****       CLEAR_BIT(can_ip->FMR, CAN_FMR_CAN2SB);
 900:Drivers/STM32F4xx_HAL_Driver/Src/stm32f4xx_hal_can.c ****       SET_BIT(can_ip->FMR, sFilterConfig->SlaveStartFilterBank << CAN_FMR_CAN2SB_Pos);
 901:Drivers/STM32F4xx_HAL_Driver/Src/stm32f4xx_hal_can.c ****     }
 902:Drivers/STM32F4xx_HAL_Driver/Src/stm32f4xx_hal_can.c **** 
 903:Drivers/STM32F4xx_HAL_Driver/Src/stm32f4xx_hal_can.c **** #elif defined(CAN2)
 904:Drivers/STM32F4xx_HAL_Driver/Src/stm32f4xx_hal_can.c ****     /* Select the start filter number of CAN2 slave instance */
 905:Drivers/STM32F4xx_HAL_Driver/Src/stm32f4xx_hal_can.c ****     CLEAR_BIT(can_ip->FMR, CAN_FMR_CAN2SB);
 558              		.loc 1 905 5
 559 003a 7B69     		ldr	r3, [r7, #20]
 560 003c D3F80032 		ldr	r3, [r3, #512]
 561 0040 23F47C52 		bic	r2, r3, #16128
 562 0044 7B69     		ldr	r3, [r7, #20]
 563 0046 C3F80022 		str	r2, [r3, #512]
 906:Drivers/STM32F4xx_HAL_Driver/Src/stm32f4xx_hal_can.c ****     SET_BIT(can_ip->FMR, sFilterConfig->SlaveStartFilterBank << CAN_FMR_CAN2SB_Pos);
 564              		.loc 1 906 5
 565 004a 7B69     		ldr	r3, [r7, #20]
 566 004c D3F80022 		ldr	r2, [r3, #512]
 567 0050 3B68     		ldr	r3, [r7]
 568 0052 5B6A     		ldr	r3, [r3, #36]
 569 0054 1B02     		lsls	r3, r3, #8
 570 0056 1A43     		orrs	r2, r2, r3
 571 0058 7B69     		ldr	r3, [r7, #20]
 572 005a C3F80022 		str	r2, [r3, #512]
 907:Drivers/STM32F4xx_HAL_Driver/Src/stm32f4xx_hal_can.c **** 
 908:Drivers/STM32F4xx_HAL_Driver/Src/stm32f4xx_hal_can.c **** #endif
 909:Drivers/STM32F4xx_HAL_Driver/Src/stm32f4xx_hal_can.c ****     /* Convert filter number into bit position */
 910:Drivers/STM32F4xx_HAL_Driver/Src/stm32f4xx_hal_can.c ****     filternbrbitpos = (uint32_t)1 << (sFilterConfig->FilterBank & 0x1FU);
 573              		.loc 1 910 52
ARM GAS  /tmp/ccDSCK0d.s 			page 27


 574 005e 3B68     		ldr	r3, [r7]
 575 0060 5B69     		ldr	r3, [r3, #20]
 576              		.loc 1 910 65
 577 0062 03F01F03 		and	r3, r3, #31
 578              		.loc 1 910 21
 579 0066 0122     		movs	r2, #1
 580 0068 02FA03F3 		lsl	r3, r2, r3
 581 006c FB60     		str	r3, [r7, #12]
 911:Drivers/STM32F4xx_HAL_Driver/Src/stm32f4xx_hal_can.c **** 
 912:Drivers/STM32F4xx_HAL_Driver/Src/stm32f4xx_hal_can.c ****     /* Filter Deactivation */
 913:Drivers/STM32F4xx_HAL_Driver/Src/stm32f4xx_hal_can.c ****     CLEAR_BIT(can_ip->FA1R, filternbrbitpos);
 582              		.loc 1 913 5
 583 006e 7B69     		ldr	r3, [r7, #20]
 584 0070 D3F81C22 		ldr	r2, [r3, #540]
 585 0074 FB68     		ldr	r3, [r7, #12]
 586 0076 DB43     		mvns	r3, r3
 587 0078 1A40     		ands	r2, r2, r3
 588 007a 7B69     		ldr	r3, [r7, #20]
 589 007c C3F81C22 		str	r2, [r3, #540]
 914:Drivers/STM32F4xx_HAL_Driver/Src/stm32f4xx_hal_can.c **** 
 915:Drivers/STM32F4xx_HAL_Driver/Src/stm32f4xx_hal_can.c ****     /* Filter Scale */
 916:Drivers/STM32F4xx_HAL_Driver/Src/stm32f4xx_hal_can.c ****     if (sFilterConfig->FilterScale == CAN_FILTERSCALE_16BIT)
 590              		.loc 1 916 22
 591 0080 3B68     		ldr	r3, [r7]
 592 0082 DB69     		ldr	r3, [r3, #28]
 593              		.loc 1 916 8
 594 0084 002B     		cmp	r3, #0
 595 0086 23D1     		bne	.L29
 917:Drivers/STM32F4xx_HAL_Driver/Src/stm32f4xx_hal_can.c ****     {
 918:Drivers/STM32F4xx_HAL_Driver/Src/stm32f4xx_hal_can.c ****       /* 16-bit scale for the filter */
 919:Drivers/STM32F4xx_HAL_Driver/Src/stm32f4xx_hal_can.c ****       CLEAR_BIT(can_ip->FS1R, filternbrbitpos);
 596              		.loc 1 919 7
 597 0088 7B69     		ldr	r3, [r7, #20]
 598 008a D3F80C22 		ldr	r2, [r3, #524]
 599 008e FB68     		ldr	r3, [r7, #12]
 600 0090 DB43     		mvns	r3, r3
 601 0092 1A40     		ands	r2, r2, r3
 602 0094 7B69     		ldr	r3, [r7, #20]
 603 0096 C3F80C22 		str	r2, [r3, #524]
 920:Drivers/STM32F4xx_HAL_Driver/Src/stm32f4xx_hal_can.c **** 
 921:Drivers/STM32F4xx_HAL_Driver/Src/stm32f4xx_hal_can.c ****       /* First 16-bit identifier and First 16-bit mask */
 922:Drivers/STM32F4xx_HAL_Driver/Src/stm32f4xx_hal_can.c ****       /* Or First 16-bit identifier and Second 16-bit identifier */
 923:Drivers/STM32F4xx_HAL_Driver/Src/stm32f4xx_hal_can.c ****       can_ip->sFilterRegister[sFilterConfig->FilterBank].FR1 =
 924:Drivers/STM32F4xx_HAL_Driver/Src/stm32f4xx_hal_can.c ****         ((0x0000FFFFU & (uint32_t)sFilterConfig->FilterMaskIdLow) << 16U) |
 604              		.loc 1 924 48
 605 009a 3B68     		ldr	r3, [r7]
 606 009c DB68     		ldr	r3, [r3, #12]
 607              		.loc 1 924 67
 608 009e 1904     		lsls	r1, r3, #16
 925:Drivers/STM32F4xx_HAL_Driver/Src/stm32f4xx_hal_can.c ****         (0x0000FFFFU & (uint32_t)sFilterConfig->FilterIdLow);
 609              		.loc 1 925 47
 610 00a0 3B68     		ldr	r3, [r7]
 611 00a2 5B68     		ldr	r3, [r3, #4]
 612              		.loc 1 925 22
 613 00a4 9BB2     		uxth	r3, r3
 923:Drivers/STM32F4xx_HAL_Driver/Src/stm32f4xx_hal_can.c ****         ((0x0000FFFFU & (uint32_t)sFilterConfig->FilterMaskIdLow) << 16U) |
 614              		.loc 1 923 44
ARM GAS  /tmp/ccDSCK0d.s 			page 28


 615 00a6 3A68     		ldr	r2, [r7]
 616 00a8 5269     		ldr	r2, [r2, #20]
 924:Drivers/STM32F4xx_HAL_Driver/Src/stm32f4xx_hal_can.c ****         (0x0000FFFFU & (uint32_t)sFilterConfig->FilterIdLow);
 617              		.loc 1 924 75
 618 00aa 1943     		orrs	r1, r1, r3
 923:Drivers/STM32F4xx_HAL_Driver/Src/stm32f4xx_hal_can.c ****         ((0x0000FFFFU & (uint32_t)sFilterConfig->FilterMaskIdLow) << 16U) |
 619              		.loc 1 923 62
 620 00ac 7B69     		ldr	r3, [r7, #20]
 621 00ae 4832     		adds	r2, r2, #72
 622 00b0 43F83210 		str	r1, [r3, r2, lsl #3]
 926:Drivers/STM32F4xx_HAL_Driver/Src/stm32f4xx_hal_can.c **** 
 927:Drivers/STM32F4xx_HAL_Driver/Src/stm32f4xx_hal_can.c ****       /* Second 16-bit identifier and Second 16-bit mask */
 928:Drivers/STM32F4xx_HAL_Driver/Src/stm32f4xx_hal_can.c ****       /* Or Third 16-bit identifier and Fourth 16-bit identifier */
 929:Drivers/STM32F4xx_HAL_Driver/Src/stm32f4xx_hal_can.c ****       can_ip->sFilterRegister[sFilterConfig->FilterBank].FR2 =
 930:Drivers/STM32F4xx_HAL_Driver/Src/stm32f4xx_hal_can.c ****         ((0x0000FFFFU & (uint32_t)sFilterConfig->FilterMaskIdHigh) << 16U) |
 623              		.loc 1 930 48
 624 00b4 3B68     		ldr	r3, [r7]
 625 00b6 9B68     		ldr	r3, [r3, #8]
 626              		.loc 1 930 68
 627 00b8 1904     		lsls	r1, r3, #16
 931:Drivers/STM32F4xx_HAL_Driver/Src/stm32f4xx_hal_can.c ****         (0x0000FFFFU & (uint32_t)sFilterConfig->FilterIdHigh);
 628              		.loc 1 931 47
 629 00ba 3B68     		ldr	r3, [r7]
 630 00bc 1B68     		ldr	r3, [r3]
 631              		.loc 1 931 22
 632 00be 9AB2     		uxth	r2, r3
 929:Drivers/STM32F4xx_HAL_Driver/Src/stm32f4xx_hal_can.c ****         ((0x0000FFFFU & (uint32_t)sFilterConfig->FilterMaskIdHigh) << 16U) |
 633              		.loc 1 929 44
 634 00c0 3B68     		ldr	r3, [r7]
 635 00c2 5B69     		ldr	r3, [r3, #20]
 930:Drivers/STM32F4xx_HAL_Driver/Src/stm32f4xx_hal_can.c ****         (0x0000FFFFU & (uint32_t)sFilterConfig->FilterIdHigh);
 636              		.loc 1 930 76
 637 00c4 0A43     		orrs	r2, r2, r1
 929:Drivers/STM32F4xx_HAL_Driver/Src/stm32f4xx_hal_can.c ****         ((0x0000FFFFU & (uint32_t)sFilterConfig->FilterMaskIdHigh) << 16U) |
 638              		.loc 1 929 62
 639 00c6 7969     		ldr	r1, [r7, #20]
 640 00c8 4833     		adds	r3, r3, #72
 641 00ca DB00     		lsls	r3, r3, #3
 642 00cc 0B44     		add	r3, r3, r1
 643 00ce 5A60     		str	r2, [r3, #4]
 644              	.L29:
 932:Drivers/STM32F4xx_HAL_Driver/Src/stm32f4xx_hal_can.c ****     }
 933:Drivers/STM32F4xx_HAL_Driver/Src/stm32f4xx_hal_can.c **** 
 934:Drivers/STM32F4xx_HAL_Driver/Src/stm32f4xx_hal_can.c ****     if (sFilterConfig->FilterScale == CAN_FILTERSCALE_32BIT)
 645              		.loc 1 934 22
 646 00d0 3B68     		ldr	r3, [r7]
 647 00d2 DB69     		ldr	r3, [r3, #28]
 648              		.loc 1 934 8
 649 00d4 012B     		cmp	r3, #1
 650 00d6 22D1     		bne	.L30
 935:Drivers/STM32F4xx_HAL_Driver/Src/stm32f4xx_hal_can.c ****     {
 936:Drivers/STM32F4xx_HAL_Driver/Src/stm32f4xx_hal_can.c ****       /* 32-bit scale for the filter */
 937:Drivers/STM32F4xx_HAL_Driver/Src/stm32f4xx_hal_can.c ****       SET_BIT(can_ip->FS1R, filternbrbitpos);
 651              		.loc 1 937 7
 652 00d8 7B69     		ldr	r3, [r7, #20]
 653 00da D3F80C22 		ldr	r2, [r3, #524]
 654 00de FB68     		ldr	r3, [r7, #12]
ARM GAS  /tmp/ccDSCK0d.s 			page 29


 655 00e0 1A43     		orrs	r2, r2, r3
 656 00e2 7B69     		ldr	r3, [r7, #20]
 657 00e4 C3F80C22 		str	r2, [r3, #524]
 938:Drivers/STM32F4xx_HAL_Driver/Src/stm32f4xx_hal_can.c **** 
 939:Drivers/STM32F4xx_HAL_Driver/Src/stm32f4xx_hal_can.c ****       /* 32-bit identifier or First 32-bit identifier */
 940:Drivers/STM32F4xx_HAL_Driver/Src/stm32f4xx_hal_can.c ****       can_ip->sFilterRegister[sFilterConfig->FilterBank].FR1 =
 941:Drivers/STM32F4xx_HAL_Driver/Src/stm32f4xx_hal_can.c ****         ((0x0000FFFFU & (uint32_t)sFilterConfig->FilterIdHigh) << 16U) |
 658              		.loc 1 941 48
 659 00e8 3B68     		ldr	r3, [r7]
 660 00ea 1B68     		ldr	r3, [r3]
 661              		.loc 1 941 64
 662 00ec 1904     		lsls	r1, r3, #16
 942:Drivers/STM32F4xx_HAL_Driver/Src/stm32f4xx_hal_can.c ****         (0x0000FFFFU & (uint32_t)sFilterConfig->FilterIdLow);
 663              		.loc 1 942 47
 664 00ee 3B68     		ldr	r3, [r7]
 665 00f0 5B68     		ldr	r3, [r3, #4]
 666              		.loc 1 942 22
 667 00f2 9BB2     		uxth	r3, r3
 940:Drivers/STM32F4xx_HAL_Driver/Src/stm32f4xx_hal_can.c ****         ((0x0000FFFFU & (uint32_t)sFilterConfig->FilterIdHigh) << 16U) |
 668              		.loc 1 940 44
 669 00f4 3A68     		ldr	r2, [r7]
 670 00f6 5269     		ldr	r2, [r2, #20]
 941:Drivers/STM32F4xx_HAL_Driver/Src/stm32f4xx_hal_can.c ****         (0x0000FFFFU & (uint32_t)sFilterConfig->FilterIdLow);
 671              		.loc 1 941 72
 672 00f8 1943     		orrs	r1, r1, r3
 940:Drivers/STM32F4xx_HAL_Driver/Src/stm32f4xx_hal_can.c ****         ((0x0000FFFFU & (uint32_t)sFilterConfig->FilterIdHigh) << 16U) |
 673              		.loc 1 940 62
 674 00fa 7B69     		ldr	r3, [r7, #20]
 675 00fc 4832     		adds	r2, r2, #72
 676 00fe 43F83210 		str	r1, [r3, r2, lsl #3]
 943:Drivers/STM32F4xx_HAL_Driver/Src/stm32f4xx_hal_can.c **** 
 944:Drivers/STM32F4xx_HAL_Driver/Src/stm32f4xx_hal_can.c ****       /* 32-bit mask or Second 32-bit identifier */
 945:Drivers/STM32F4xx_HAL_Driver/Src/stm32f4xx_hal_can.c ****       can_ip->sFilterRegister[sFilterConfig->FilterBank].FR2 =
 946:Drivers/STM32F4xx_HAL_Driver/Src/stm32f4xx_hal_can.c ****         ((0x0000FFFFU & (uint32_t)sFilterConfig->FilterMaskIdHigh) << 16U) |
 677              		.loc 1 946 48
 678 0102 3B68     		ldr	r3, [r7]
 679 0104 9B68     		ldr	r3, [r3, #8]
 680              		.loc 1 946 68
 681 0106 1904     		lsls	r1, r3, #16
 947:Drivers/STM32F4xx_HAL_Driver/Src/stm32f4xx_hal_can.c ****         (0x0000FFFFU & (uint32_t)sFilterConfig->FilterMaskIdLow);
 682              		.loc 1 947 47
 683 0108 3B68     		ldr	r3, [r7]
 684 010a DB68     		ldr	r3, [r3, #12]
 685              		.loc 1 947 22
 686 010c 9AB2     		uxth	r2, r3
 945:Drivers/STM32F4xx_HAL_Driver/Src/stm32f4xx_hal_can.c ****         ((0x0000FFFFU & (uint32_t)sFilterConfig->FilterMaskIdHigh) << 16U) |
 687              		.loc 1 945 44
 688 010e 3B68     		ldr	r3, [r7]
 689 0110 5B69     		ldr	r3, [r3, #20]
 946:Drivers/STM32F4xx_HAL_Driver/Src/stm32f4xx_hal_can.c ****         (0x0000FFFFU & (uint32_t)sFilterConfig->FilterMaskIdLow);
 690              		.loc 1 946 76
 691 0112 0A43     		orrs	r2, r2, r1
 945:Drivers/STM32F4xx_HAL_Driver/Src/stm32f4xx_hal_can.c ****         ((0x0000FFFFU & (uint32_t)sFilterConfig->FilterMaskIdHigh) << 16U) |
 692              		.loc 1 945 62
 693 0114 7969     		ldr	r1, [r7, #20]
 694 0116 4833     		adds	r3, r3, #72
 695 0118 DB00     		lsls	r3, r3, #3
ARM GAS  /tmp/ccDSCK0d.s 			page 30


 696 011a 0B44     		add	r3, r3, r1
 697 011c 5A60     		str	r2, [r3, #4]
 698              	.L30:
 948:Drivers/STM32F4xx_HAL_Driver/Src/stm32f4xx_hal_can.c ****     }
 949:Drivers/STM32F4xx_HAL_Driver/Src/stm32f4xx_hal_can.c **** 
 950:Drivers/STM32F4xx_HAL_Driver/Src/stm32f4xx_hal_can.c ****     /* Filter Mode */
 951:Drivers/STM32F4xx_HAL_Driver/Src/stm32f4xx_hal_can.c ****     if (sFilterConfig->FilterMode == CAN_FILTERMODE_IDMASK)
 699              		.loc 1 951 22
 700 011e 3B68     		ldr	r3, [r7]
 701 0120 9B69     		ldr	r3, [r3, #24]
 702              		.loc 1 951 8
 703 0122 002B     		cmp	r3, #0
 704 0124 09D1     		bne	.L31
 952:Drivers/STM32F4xx_HAL_Driver/Src/stm32f4xx_hal_can.c ****     {
 953:Drivers/STM32F4xx_HAL_Driver/Src/stm32f4xx_hal_can.c ****       /* Id/Mask mode for the filter*/
 954:Drivers/STM32F4xx_HAL_Driver/Src/stm32f4xx_hal_can.c ****       CLEAR_BIT(can_ip->FM1R, filternbrbitpos);
 705              		.loc 1 954 7
 706 0126 7B69     		ldr	r3, [r7, #20]
 707 0128 D3F80422 		ldr	r2, [r3, #516]
 708 012c FB68     		ldr	r3, [r7, #12]
 709 012e DB43     		mvns	r3, r3
 710 0130 1A40     		ands	r2, r2, r3
 711 0132 7B69     		ldr	r3, [r7, #20]
 712 0134 C3F80422 		str	r2, [r3, #516]
 713 0138 07E0     		b	.L32
 714              	.L31:
 955:Drivers/STM32F4xx_HAL_Driver/Src/stm32f4xx_hal_can.c ****     }
 956:Drivers/STM32F4xx_HAL_Driver/Src/stm32f4xx_hal_can.c ****     else /* CAN_FilterInitStruct->CAN_FilterMode == CAN_FilterMode_IdList */
 957:Drivers/STM32F4xx_HAL_Driver/Src/stm32f4xx_hal_can.c ****     {
 958:Drivers/STM32F4xx_HAL_Driver/Src/stm32f4xx_hal_can.c ****       /* Identifier list mode for the filter*/
 959:Drivers/STM32F4xx_HAL_Driver/Src/stm32f4xx_hal_can.c ****       SET_BIT(can_ip->FM1R, filternbrbitpos);
 715              		.loc 1 959 7
 716 013a 7B69     		ldr	r3, [r7, #20]
 717 013c D3F80422 		ldr	r2, [r3, #516]
 718 0140 FB68     		ldr	r3, [r7, #12]
 719 0142 1A43     		orrs	r2, r2, r3
 720 0144 7B69     		ldr	r3, [r7, #20]
 721 0146 C3F80422 		str	r2, [r3, #516]
 722              	.L32:
 960:Drivers/STM32F4xx_HAL_Driver/Src/stm32f4xx_hal_can.c ****     }
 961:Drivers/STM32F4xx_HAL_Driver/Src/stm32f4xx_hal_can.c **** 
 962:Drivers/STM32F4xx_HAL_Driver/Src/stm32f4xx_hal_can.c ****     /* Filter FIFO assignment */
 963:Drivers/STM32F4xx_HAL_Driver/Src/stm32f4xx_hal_can.c ****     if (sFilterConfig->FilterFIFOAssignment == CAN_FILTER_FIFO0)
 723              		.loc 1 963 22
 724 014a 3B68     		ldr	r3, [r7]
 725 014c 1B69     		ldr	r3, [r3, #16]
 726              		.loc 1 963 8
 727 014e 002B     		cmp	r3, #0
 728 0150 09D1     		bne	.L33
 964:Drivers/STM32F4xx_HAL_Driver/Src/stm32f4xx_hal_can.c ****     {
 965:Drivers/STM32F4xx_HAL_Driver/Src/stm32f4xx_hal_can.c ****       /* FIFO 0 assignation for the filter */
 966:Drivers/STM32F4xx_HAL_Driver/Src/stm32f4xx_hal_can.c ****       CLEAR_BIT(can_ip->FFA1R, filternbrbitpos);
 729              		.loc 1 966 7
 730 0152 7B69     		ldr	r3, [r7, #20]
 731 0154 D3F81422 		ldr	r2, [r3, #532]
 732 0158 FB68     		ldr	r3, [r7, #12]
 733 015a DB43     		mvns	r3, r3
ARM GAS  /tmp/ccDSCK0d.s 			page 31


 734 015c 1A40     		ands	r2, r2, r3
 735 015e 7B69     		ldr	r3, [r7, #20]
 736 0160 C3F81422 		str	r2, [r3, #532]
 737 0164 07E0     		b	.L34
 738              	.L33:
 967:Drivers/STM32F4xx_HAL_Driver/Src/stm32f4xx_hal_can.c ****     }
 968:Drivers/STM32F4xx_HAL_Driver/Src/stm32f4xx_hal_can.c ****     else
 969:Drivers/STM32F4xx_HAL_Driver/Src/stm32f4xx_hal_can.c ****     {
 970:Drivers/STM32F4xx_HAL_Driver/Src/stm32f4xx_hal_can.c ****       /* FIFO 1 assignation for the filter */
 971:Drivers/STM32F4xx_HAL_Driver/Src/stm32f4xx_hal_can.c ****       SET_BIT(can_ip->FFA1R, filternbrbitpos);
 739              		.loc 1 971 7
 740 0166 7B69     		ldr	r3, [r7, #20]
 741 0168 D3F81422 		ldr	r2, [r3, #532]
 742 016c FB68     		ldr	r3, [r7, #12]
 743 016e 1A43     		orrs	r2, r2, r3
 744 0170 7B69     		ldr	r3, [r7, #20]
 745 0172 C3F81422 		str	r2, [r3, #532]
 746              	.L34:
 972:Drivers/STM32F4xx_HAL_Driver/Src/stm32f4xx_hal_can.c ****     }
 973:Drivers/STM32F4xx_HAL_Driver/Src/stm32f4xx_hal_can.c **** 
 974:Drivers/STM32F4xx_HAL_Driver/Src/stm32f4xx_hal_can.c ****     /* Filter activation */
 975:Drivers/STM32F4xx_HAL_Driver/Src/stm32f4xx_hal_can.c ****     if (sFilterConfig->FilterActivation == CAN_FILTER_ENABLE)
 747              		.loc 1 975 22
 748 0176 3B68     		ldr	r3, [r7]
 749 0178 1B6A     		ldr	r3, [r3, #32]
 750              		.loc 1 975 8
 751 017a 012B     		cmp	r3, #1
 752 017c 07D1     		bne	.L35
 976:Drivers/STM32F4xx_HAL_Driver/Src/stm32f4xx_hal_can.c ****     {
 977:Drivers/STM32F4xx_HAL_Driver/Src/stm32f4xx_hal_can.c ****       SET_BIT(can_ip->FA1R, filternbrbitpos);
 753              		.loc 1 977 7
 754 017e 7B69     		ldr	r3, [r7, #20]
 755 0180 D3F81C22 		ldr	r2, [r3, #540]
 756 0184 FB68     		ldr	r3, [r7, #12]
 757 0186 1A43     		orrs	r2, r2, r3
 758 0188 7B69     		ldr	r3, [r7, #20]
 759 018a C3F81C22 		str	r2, [r3, #540]
 760              	.L35:
 978:Drivers/STM32F4xx_HAL_Driver/Src/stm32f4xx_hal_can.c ****     }
 979:Drivers/STM32F4xx_HAL_Driver/Src/stm32f4xx_hal_can.c **** 
 980:Drivers/STM32F4xx_HAL_Driver/Src/stm32f4xx_hal_can.c ****     /* Leave the initialisation mode for the filter */
 981:Drivers/STM32F4xx_HAL_Driver/Src/stm32f4xx_hal_can.c ****     CLEAR_BIT(can_ip->FMR, CAN_FMR_FINIT);
 761              		.loc 1 981 5
 762 018e 7B69     		ldr	r3, [r7, #20]
 763 0190 D3F80032 		ldr	r3, [r3, #512]
 764 0194 23F00102 		bic	r2, r3, #1
 765 0198 7B69     		ldr	r3, [r7, #20]
 766 019a C3F80022 		str	r2, [r3, #512]
 982:Drivers/STM32F4xx_HAL_Driver/Src/stm32f4xx_hal_can.c **** 
 983:Drivers/STM32F4xx_HAL_Driver/Src/stm32f4xx_hal_can.c ****     /* Return function status */
 984:Drivers/STM32F4xx_HAL_Driver/Src/stm32f4xx_hal_can.c ****     return HAL_OK;
 767              		.loc 1 984 12
 768 019e 0023     		movs	r3, #0
 769 01a0 06E0     		b	.L36
 770              	.L28:
 985:Drivers/STM32F4xx_HAL_Driver/Src/stm32f4xx_hal_can.c ****   }
 986:Drivers/STM32F4xx_HAL_Driver/Src/stm32f4xx_hal_can.c ****   else
ARM GAS  /tmp/ccDSCK0d.s 			page 32


 987:Drivers/STM32F4xx_HAL_Driver/Src/stm32f4xx_hal_can.c ****   {
 988:Drivers/STM32F4xx_HAL_Driver/Src/stm32f4xx_hal_can.c ****     /* Update error code */
 989:Drivers/STM32F4xx_HAL_Driver/Src/stm32f4xx_hal_can.c ****     hcan->ErrorCode |= HAL_CAN_ERROR_NOT_INITIALIZED;
 771              		.loc 1 989 21
 772 01a2 7B68     		ldr	r3, [r7, #4]
 773 01a4 5B6A     		ldr	r3, [r3, #36]
 774 01a6 43F48022 		orr	r2, r3, #262144
 775 01aa 7B68     		ldr	r3, [r7, #4]
 776 01ac 5A62     		str	r2, [r3, #36]
 990:Drivers/STM32F4xx_HAL_Driver/Src/stm32f4xx_hal_can.c **** 
 991:Drivers/STM32F4xx_HAL_Driver/Src/stm32f4xx_hal_can.c ****     return HAL_ERROR;
 777              		.loc 1 991 12
 778 01ae 0123     		movs	r3, #1
 779              	.L36:
 992:Drivers/STM32F4xx_HAL_Driver/Src/stm32f4xx_hal_can.c ****   }
 993:Drivers/STM32F4xx_HAL_Driver/Src/stm32f4xx_hal_can.c **** }
 780              		.loc 1 993 1
 781 01b0 1846     		mov	r0, r3
 782 01b2 1C37     		adds	r7, r7, #28
 783              	.LCFI25:
 784              		.cfi_def_cfa_offset 4
 785 01b4 BD46     		mov	sp, r7
 786              	.LCFI26:
 787              		.cfi_def_cfa_register 13
 788              		@ sp needed
 789 01b6 5DF8047B 		ldr	r7, [sp], #4
 790              	.LCFI27:
 791              		.cfi_restore 7
 792              		.cfi_def_cfa_offset 0
 793 01ba 7047     		bx	lr
 794              	.L38:
 795              		.align	2
 796              	.L37:
 797 01bc 00640040 		.word	1073767424
 798              		.cfi_endproc
 799              	.LFE239:
 801              		.section	.text.HAL_CAN_Start,"ax",%progbits
 802              		.align	1
 803              		.global	HAL_CAN_Start
 804              		.syntax unified
 805              		.thumb
 806              		.thumb_func
 808              	HAL_CAN_Start:
 809              	.LFB240:
 994:Drivers/STM32F4xx_HAL_Driver/Src/stm32f4xx_hal_can.c **** 
 995:Drivers/STM32F4xx_HAL_Driver/Src/stm32f4xx_hal_can.c **** /**
 996:Drivers/STM32F4xx_HAL_Driver/Src/stm32f4xx_hal_can.c ****   * @}
 997:Drivers/STM32F4xx_HAL_Driver/Src/stm32f4xx_hal_can.c ****   */
 998:Drivers/STM32F4xx_HAL_Driver/Src/stm32f4xx_hal_can.c **** 
 999:Drivers/STM32F4xx_HAL_Driver/Src/stm32f4xx_hal_can.c **** /** @defgroup CAN_Exported_Functions_Group3 Control functions
1000:Drivers/STM32F4xx_HAL_Driver/Src/stm32f4xx_hal_can.c ****  *  @brief    Control functions
1001:Drivers/STM32F4xx_HAL_Driver/Src/stm32f4xx_hal_can.c ****  *
1002:Drivers/STM32F4xx_HAL_Driver/Src/stm32f4xx_hal_can.c **** @verbatim
1003:Drivers/STM32F4xx_HAL_Driver/Src/stm32f4xx_hal_can.c ****   ==============================================================================
1004:Drivers/STM32F4xx_HAL_Driver/Src/stm32f4xx_hal_can.c ****                       ##### Control functions #####
1005:Drivers/STM32F4xx_HAL_Driver/Src/stm32f4xx_hal_can.c ****   ==============================================================================
1006:Drivers/STM32F4xx_HAL_Driver/Src/stm32f4xx_hal_can.c ****     [..]  This section provides functions allowing to:
ARM GAS  /tmp/ccDSCK0d.s 			page 33


1007:Drivers/STM32F4xx_HAL_Driver/Src/stm32f4xx_hal_can.c ****       (+) HAL_CAN_Start                    : Start the CAN module
1008:Drivers/STM32F4xx_HAL_Driver/Src/stm32f4xx_hal_can.c ****       (+) HAL_CAN_Stop                     : Stop the CAN module
1009:Drivers/STM32F4xx_HAL_Driver/Src/stm32f4xx_hal_can.c ****       (+) HAL_CAN_RequestSleep             : Request sleep mode entry.
1010:Drivers/STM32F4xx_HAL_Driver/Src/stm32f4xx_hal_can.c ****       (+) HAL_CAN_WakeUp                   : Wake up from sleep mode.
1011:Drivers/STM32F4xx_HAL_Driver/Src/stm32f4xx_hal_can.c ****       (+) HAL_CAN_IsSleepActive            : Check is sleep mode is active.
1012:Drivers/STM32F4xx_HAL_Driver/Src/stm32f4xx_hal_can.c ****       (+) HAL_CAN_AddTxMessage             : Add a message to the Tx mailboxes
1013:Drivers/STM32F4xx_HAL_Driver/Src/stm32f4xx_hal_can.c ****                                              and activate the corresponding
1014:Drivers/STM32F4xx_HAL_Driver/Src/stm32f4xx_hal_can.c ****                                              transmission request
1015:Drivers/STM32F4xx_HAL_Driver/Src/stm32f4xx_hal_can.c ****       (+) HAL_CAN_AbortTxRequest           : Abort transmission request
1016:Drivers/STM32F4xx_HAL_Driver/Src/stm32f4xx_hal_can.c ****       (+) HAL_CAN_GetTxMailboxesFreeLevel  : Return Tx mailboxes free level
1017:Drivers/STM32F4xx_HAL_Driver/Src/stm32f4xx_hal_can.c ****       (+) HAL_CAN_IsTxMessagePending       : Check if a transmission request is
1018:Drivers/STM32F4xx_HAL_Driver/Src/stm32f4xx_hal_can.c ****                                              pending on the selected Tx mailbox
1019:Drivers/STM32F4xx_HAL_Driver/Src/stm32f4xx_hal_can.c ****       (+) HAL_CAN_GetRxMessage             : Get a CAN frame from the Rx FIFO
1020:Drivers/STM32F4xx_HAL_Driver/Src/stm32f4xx_hal_can.c ****       (+) HAL_CAN_GetRxFifoFillLevel       : Return Rx FIFO fill level
1021:Drivers/STM32F4xx_HAL_Driver/Src/stm32f4xx_hal_can.c **** 
1022:Drivers/STM32F4xx_HAL_Driver/Src/stm32f4xx_hal_can.c **** @endverbatim
1023:Drivers/STM32F4xx_HAL_Driver/Src/stm32f4xx_hal_can.c ****   * @{
1024:Drivers/STM32F4xx_HAL_Driver/Src/stm32f4xx_hal_can.c ****   */
1025:Drivers/STM32F4xx_HAL_Driver/Src/stm32f4xx_hal_can.c **** 
1026:Drivers/STM32F4xx_HAL_Driver/Src/stm32f4xx_hal_can.c **** /**
1027:Drivers/STM32F4xx_HAL_Driver/Src/stm32f4xx_hal_can.c ****   * @brief  Start the CAN module.
1028:Drivers/STM32F4xx_HAL_Driver/Src/stm32f4xx_hal_can.c ****   * @param  hcan pointer to an CAN_HandleTypeDef structure that contains
1029:Drivers/STM32F4xx_HAL_Driver/Src/stm32f4xx_hal_can.c ****   *         the configuration information for the specified CAN.
1030:Drivers/STM32F4xx_HAL_Driver/Src/stm32f4xx_hal_can.c ****   * @retval HAL status
1031:Drivers/STM32F4xx_HAL_Driver/Src/stm32f4xx_hal_can.c ****   */
1032:Drivers/STM32F4xx_HAL_Driver/Src/stm32f4xx_hal_can.c **** HAL_StatusTypeDef HAL_CAN_Start(CAN_HandleTypeDef *hcan)
1033:Drivers/STM32F4xx_HAL_Driver/Src/stm32f4xx_hal_can.c **** {
 810              		.loc 1 1033 1
 811              		.cfi_startproc
 812              		@ args = 0, pretend = 0, frame = 16
 813              		@ frame_needed = 1, uses_anonymous_args = 0
 814 0000 80B5     		push	{r7, lr}
 815              	.LCFI28:
 816              		.cfi_def_cfa_offset 8
 817              		.cfi_offset 7, -8
 818              		.cfi_offset 14, -4
 819 0002 84B0     		sub	sp, sp, #16
 820              	.LCFI29:
 821              		.cfi_def_cfa_offset 24
 822 0004 00AF     		add	r7, sp, #0
 823              	.LCFI30:
 824              		.cfi_def_cfa_register 7
 825 0006 7860     		str	r0, [r7, #4]
1034:Drivers/STM32F4xx_HAL_Driver/Src/stm32f4xx_hal_can.c ****   uint32_t tickstart;
1035:Drivers/STM32F4xx_HAL_Driver/Src/stm32f4xx_hal_can.c **** 
1036:Drivers/STM32F4xx_HAL_Driver/Src/stm32f4xx_hal_can.c ****   if (hcan->State == HAL_CAN_STATE_READY)
 826              		.loc 1 1036 11
 827 0008 7B68     		ldr	r3, [r7, #4]
 828 000a 93F82030 		ldrb	r3, [r3, #32]
 829 000e DBB2     		uxtb	r3, r3
 830              		.loc 1 1036 6
 831 0010 012B     		cmp	r3, #1
 832 0012 2ED1     		bne	.L40
1037:Drivers/STM32F4xx_HAL_Driver/Src/stm32f4xx_hal_can.c ****   {
1038:Drivers/STM32F4xx_HAL_Driver/Src/stm32f4xx_hal_can.c ****     /* Change CAN peripheral state */
1039:Drivers/STM32F4xx_HAL_Driver/Src/stm32f4xx_hal_can.c ****     hcan->State = HAL_CAN_STATE_LISTENING;
 833              		.loc 1 1039 17
ARM GAS  /tmp/ccDSCK0d.s 			page 34


 834 0014 7B68     		ldr	r3, [r7, #4]
 835 0016 0222     		movs	r2, #2
 836 0018 83F82020 		strb	r2, [r3, #32]
1040:Drivers/STM32F4xx_HAL_Driver/Src/stm32f4xx_hal_can.c **** 
1041:Drivers/STM32F4xx_HAL_Driver/Src/stm32f4xx_hal_can.c ****     /* Request leave initialisation */
1042:Drivers/STM32F4xx_HAL_Driver/Src/stm32f4xx_hal_can.c ****     CLEAR_BIT(hcan->Instance->MCR, CAN_MCR_INRQ);
 837              		.loc 1 1042 5
 838 001c 7B68     		ldr	r3, [r7, #4]
 839 001e 1B68     		ldr	r3, [r3]
 840 0020 1A68     		ldr	r2, [r3]
 841 0022 7B68     		ldr	r3, [r7, #4]
 842 0024 1B68     		ldr	r3, [r3]
 843 0026 22F00102 		bic	r2, r2, #1
 844 002a 1A60     		str	r2, [r3]
1043:Drivers/STM32F4xx_HAL_Driver/Src/stm32f4xx_hal_can.c **** 
1044:Drivers/STM32F4xx_HAL_Driver/Src/stm32f4xx_hal_can.c ****     /* Get tick */
1045:Drivers/STM32F4xx_HAL_Driver/Src/stm32f4xx_hal_can.c ****     tickstart = HAL_GetTick();
 845              		.loc 1 1045 17
 846 002c FFF7FEFF 		bl	HAL_GetTick
 847 0030 F860     		str	r0, [r7, #12]
1046:Drivers/STM32F4xx_HAL_Driver/Src/stm32f4xx_hal_can.c **** 
1047:Drivers/STM32F4xx_HAL_Driver/Src/stm32f4xx_hal_can.c ****     /* Wait the acknowledge */
1048:Drivers/STM32F4xx_HAL_Driver/Src/stm32f4xx_hal_can.c ****     while ((hcan->Instance->MSR & CAN_MSR_INAK) != 0U)
 848              		.loc 1 1048 11
 849 0032 12E0     		b	.L41
 850              	.L43:
1049:Drivers/STM32F4xx_HAL_Driver/Src/stm32f4xx_hal_can.c ****     {
1050:Drivers/STM32F4xx_HAL_Driver/Src/stm32f4xx_hal_can.c ****       /* Check for the Timeout */
1051:Drivers/STM32F4xx_HAL_Driver/Src/stm32f4xx_hal_can.c ****       if ((HAL_GetTick() - tickstart) > CAN_TIMEOUT_VALUE)
 851              		.loc 1 1051 12
 852 0034 FFF7FEFF 		bl	HAL_GetTick
 853 0038 0246     		mov	r2, r0
 854              		.loc 1 1051 26
 855 003a FB68     		ldr	r3, [r7, #12]
 856 003c D31A     		subs	r3, r2, r3
 857              		.loc 1 1051 10
 858 003e 0A2B     		cmp	r3, #10
 859 0040 0BD9     		bls	.L41
1052:Drivers/STM32F4xx_HAL_Driver/Src/stm32f4xx_hal_can.c ****       {
1053:Drivers/STM32F4xx_HAL_Driver/Src/stm32f4xx_hal_can.c ****         /* Update error code */
1054:Drivers/STM32F4xx_HAL_Driver/Src/stm32f4xx_hal_can.c ****         hcan->ErrorCode |= HAL_CAN_ERROR_TIMEOUT;
 860              		.loc 1 1054 25
 861 0042 7B68     		ldr	r3, [r7, #4]
 862 0044 5B6A     		ldr	r3, [r3, #36]
 863 0046 43F40032 		orr	r2, r3, #131072
 864 004a 7B68     		ldr	r3, [r7, #4]
 865 004c 5A62     		str	r2, [r3, #36]
1055:Drivers/STM32F4xx_HAL_Driver/Src/stm32f4xx_hal_can.c **** 
1056:Drivers/STM32F4xx_HAL_Driver/Src/stm32f4xx_hal_can.c ****         /* Change CAN state */
1057:Drivers/STM32F4xx_HAL_Driver/Src/stm32f4xx_hal_can.c ****         hcan->State = HAL_CAN_STATE_ERROR;
 866              		.loc 1 1057 21
 867 004e 7B68     		ldr	r3, [r7, #4]
 868 0050 0522     		movs	r2, #5
 869 0052 83F82020 		strb	r2, [r3, #32]
1058:Drivers/STM32F4xx_HAL_Driver/Src/stm32f4xx_hal_can.c **** 
1059:Drivers/STM32F4xx_HAL_Driver/Src/stm32f4xx_hal_can.c ****         return HAL_ERROR;
 870              		.loc 1 1059 16
ARM GAS  /tmp/ccDSCK0d.s 			page 35


 871 0056 0123     		movs	r3, #1
 872 0058 12E0     		b	.L42
 873              	.L41:
1048:Drivers/STM32F4xx_HAL_Driver/Src/stm32f4xx_hal_can.c ****     {
 874              		.loc 1 1048 17
 875 005a 7B68     		ldr	r3, [r7, #4]
 876 005c 1B68     		ldr	r3, [r3]
1048:Drivers/STM32F4xx_HAL_Driver/Src/stm32f4xx_hal_can.c ****     {
 877              		.loc 1 1048 27
 878 005e 5B68     		ldr	r3, [r3, #4]
1048:Drivers/STM32F4xx_HAL_Driver/Src/stm32f4xx_hal_can.c ****     {
 879              		.loc 1 1048 33
 880 0060 03F00103 		and	r3, r3, #1
1048:Drivers/STM32F4xx_HAL_Driver/Src/stm32f4xx_hal_can.c ****     {
 881              		.loc 1 1048 11
 882 0064 002B     		cmp	r3, #0
 883 0066 E5D1     		bne	.L43
1060:Drivers/STM32F4xx_HAL_Driver/Src/stm32f4xx_hal_can.c ****       }
1061:Drivers/STM32F4xx_HAL_Driver/Src/stm32f4xx_hal_can.c ****     }
1062:Drivers/STM32F4xx_HAL_Driver/Src/stm32f4xx_hal_can.c **** 
1063:Drivers/STM32F4xx_HAL_Driver/Src/stm32f4xx_hal_can.c ****     /* Reset the CAN ErrorCode */
1064:Drivers/STM32F4xx_HAL_Driver/Src/stm32f4xx_hal_can.c ****     hcan->ErrorCode = HAL_CAN_ERROR_NONE;
 884              		.loc 1 1064 21
 885 0068 7B68     		ldr	r3, [r7, #4]
 886 006a 0022     		movs	r2, #0
 887 006c 5A62     		str	r2, [r3, #36]
1065:Drivers/STM32F4xx_HAL_Driver/Src/stm32f4xx_hal_can.c **** 
1066:Drivers/STM32F4xx_HAL_Driver/Src/stm32f4xx_hal_can.c ****     /* Return function status */
1067:Drivers/STM32F4xx_HAL_Driver/Src/stm32f4xx_hal_can.c ****     return HAL_OK;
 888              		.loc 1 1067 12
 889 006e 0023     		movs	r3, #0
 890 0070 06E0     		b	.L42
 891              	.L40:
1068:Drivers/STM32F4xx_HAL_Driver/Src/stm32f4xx_hal_can.c ****   }
1069:Drivers/STM32F4xx_HAL_Driver/Src/stm32f4xx_hal_can.c ****   else
1070:Drivers/STM32F4xx_HAL_Driver/Src/stm32f4xx_hal_can.c ****   {
1071:Drivers/STM32F4xx_HAL_Driver/Src/stm32f4xx_hal_can.c ****     /* Update error code */
1072:Drivers/STM32F4xx_HAL_Driver/Src/stm32f4xx_hal_can.c ****     hcan->ErrorCode |= HAL_CAN_ERROR_NOT_READY;
 892              		.loc 1 1072 21
 893 0072 7B68     		ldr	r3, [r7, #4]
 894 0074 5B6A     		ldr	r3, [r3, #36]
 895 0076 43F40022 		orr	r2, r3, #524288
 896 007a 7B68     		ldr	r3, [r7, #4]
 897 007c 5A62     		str	r2, [r3, #36]
1073:Drivers/STM32F4xx_HAL_Driver/Src/stm32f4xx_hal_can.c **** 
1074:Drivers/STM32F4xx_HAL_Driver/Src/stm32f4xx_hal_can.c ****     return HAL_ERROR;
 898              		.loc 1 1074 12
 899 007e 0123     		movs	r3, #1
 900              	.L42:
1075:Drivers/STM32F4xx_HAL_Driver/Src/stm32f4xx_hal_can.c ****   }
1076:Drivers/STM32F4xx_HAL_Driver/Src/stm32f4xx_hal_can.c **** }
 901              		.loc 1 1076 1
 902 0080 1846     		mov	r0, r3
 903 0082 1037     		adds	r7, r7, #16
 904              	.LCFI31:
 905              		.cfi_def_cfa_offset 8
 906 0084 BD46     		mov	sp, r7
ARM GAS  /tmp/ccDSCK0d.s 			page 36


 907              	.LCFI32:
 908              		.cfi_def_cfa_register 13
 909              		@ sp needed
 910 0086 80BD     		pop	{r7, pc}
 911              		.cfi_endproc
 912              	.LFE240:
 914              		.section	.text.HAL_CAN_Stop,"ax",%progbits
 915              		.align	1
 916              		.global	HAL_CAN_Stop
 917              		.syntax unified
 918              		.thumb
 919              		.thumb_func
 921              	HAL_CAN_Stop:
 922              	.LFB241:
1077:Drivers/STM32F4xx_HAL_Driver/Src/stm32f4xx_hal_can.c **** 
1078:Drivers/STM32F4xx_HAL_Driver/Src/stm32f4xx_hal_can.c **** /**
1079:Drivers/STM32F4xx_HAL_Driver/Src/stm32f4xx_hal_can.c ****   * @brief  Stop the CAN module and enable access to configuration registers.
1080:Drivers/STM32F4xx_HAL_Driver/Src/stm32f4xx_hal_can.c ****   * @param  hcan pointer to an CAN_HandleTypeDef structure that contains
1081:Drivers/STM32F4xx_HAL_Driver/Src/stm32f4xx_hal_can.c ****   *         the configuration information for the specified CAN.
1082:Drivers/STM32F4xx_HAL_Driver/Src/stm32f4xx_hal_can.c ****   * @retval HAL status
1083:Drivers/STM32F4xx_HAL_Driver/Src/stm32f4xx_hal_can.c ****   */
1084:Drivers/STM32F4xx_HAL_Driver/Src/stm32f4xx_hal_can.c **** HAL_StatusTypeDef HAL_CAN_Stop(CAN_HandleTypeDef *hcan)
1085:Drivers/STM32F4xx_HAL_Driver/Src/stm32f4xx_hal_can.c **** {
 923              		.loc 1 1085 1
 924              		.cfi_startproc
 925              		@ args = 0, pretend = 0, frame = 16
 926              		@ frame_needed = 1, uses_anonymous_args = 0
 927 0000 80B5     		push	{r7, lr}
 928              	.LCFI33:
 929              		.cfi_def_cfa_offset 8
 930              		.cfi_offset 7, -8
 931              		.cfi_offset 14, -4
 932 0002 84B0     		sub	sp, sp, #16
 933              	.LCFI34:
 934              		.cfi_def_cfa_offset 24
 935 0004 00AF     		add	r7, sp, #0
 936              	.LCFI35:
 937              		.cfi_def_cfa_register 7
 938 0006 7860     		str	r0, [r7, #4]
1086:Drivers/STM32F4xx_HAL_Driver/Src/stm32f4xx_hal_can.c ****   uint32_t tickstart;
1087:Drivers/STM32F4xx_HAL_Driver/Src/stm32f4xx_hal_can.c **** 
1088:Drivers/STM32F4xx_HAL_Driver/Src/stm32f4xx_hal_can.c ****   if (hcan->State == HAL_CAN_STATE_LISTENING)
 939              		.loc 1 1088 11
 940 0008 7B68     		ldr	r3, [r7, #4]
 941 000a 93F82030 		ldrb	r3, [r3, #32]
 942 000e DBB2     		uxtb	r3, r3
 943              		.loc 1 1088 6
 944 0010 022B     		cmp	r3, #2
 945 0012 33D1     		bne	.L45
1089:Drivers/STM32F4xx_HAL_Driver/Src/stm32f4xx_hal_can.c ****   {
1090:Drivers/STM32F4xx_HAL_Driver/Src/stm32f4xx_hal_can.c ****     /* Request initialisation */
1091:Drivers/STM32F4xx_HAL_Driver/Src/stm32f4xx_hal_can.c ****     SET_BIT(hcan->Instance->MCR, CAN_MCR_INRQ);
 946              		.loc 1 1091 5
 947 0014 7B68     		ldr	r3, [r7, #4]
 948 0016 1B68     		ldr	r3, [r3]
 949 0018 1A68     		ldr	r2, [r3]
 950 001a 7B68     		ldr	r3, [r7, #4]
ARM GAS  /tmp/ccDSCK0d.s 			page 37


 951 001c 1B68     		ldr	r3, [r3]
 952 001e 42F00102 		orr	r2, r2, #1
 953 0022 1A60     		str	r2, [r3]
1092:Drivers/STM32F4xx_HAL_Driver/Src/stm32f4xx_hal_can.c **** 
1093:Drivers/STM32F4xx_HAL_Driver/Src/stm32f4xx_hal_can.c ****     /* Get tick */
1094:Drivers/STM32F4xx_HAL_Driver/Src/stm32f4xx_hal_can.c ****     tickstart = HAL_GetTick();
 954              		.loc 1 1094 17
 955 0024 FFF7FEFF 		bl	HAL_GetTick
 956 0028 F860     		str	r0, [r7, #12]
1095:Drivers/STM32F4xx_HAL_Driver/Src/stm32f4xx_hal_can.c **** 
1096:Drivers/STM32F4xx_HAL_Driver/Src/stm32f4xx_hal_can.c ****     /* Wait the acknowledge */
1097:Drivers/STM32F4xx_HAL_Driver/Src/stm32f4xx_hal_can.c ****     while ((hcan->Instance->MSR & CAN_MSR_INAK) == 0U)
 957              		.loc 1 1097 11
 958 002a 12E0     		b	.L46
 959              	.L48:
1098:Drivers/STM32F4xx_HAL_Driver/Src/stm32f4xx_hal_can.c ****     {
1099:Drivers/STM32F4xx_HAL_Driver/Src/stm32f4xx_hal_can.c ****       /* Check for the Timeout */
1100:Drivers/STM32F4xx_HAL_Driver/Src/stm32f4xx_hal_can.c ****       if ((HAL_GetTick() - tickstart) > CAN_TIMEOUT_VALUE)
 960              		.loc 1 1100 12
 961 002c FFF7FEFF 		bl	HAL_GetTick
 962 0030 0246     		mov	r2, r0
 963              		.loc 1 1100 26
 964 0032 FB68     		ldr	r3, [r7, #12]
 965 0034 D31A     		subs	r3, r2, r3
 966              		.loc 1 1100 10
 967 0036 0A2B     		cmp	r3, #10
 968 0038 0BD9     		bls	.L46
1101:Drivers/STM32F4xx_HAL_Driver/Src/stm32f4xx_hal_can.c ****       {
1102:Drivers/STM32F4xx_HAL_Driver/Src/stm32f4xx_hal_can.c ****         /* Update error code */
1103:Drivers/STM32F4xx_HAL_Driver/Src/stm32f4xx_hal_can.c ****         hcan->ErrorCode |= HAL_CAN_ERROR_TIMEOUT;
 969              		.loc 1 1103 25
 970 003a 7B68     		ldr	r3, [r7, #4]
 971 003c 5B6A     		ldr	r3, [r3, #36]
 972 003e 43F40032 		orr	r2, r3, #131072
 973 0042 7B68     		ldr	r3, [r7, #4]
 974 0044 5A62     		str	r2, [r3, #36]
1104:Drivers/STM32F4xx_HAL_Driver/Src/stm32f4xx_hal_can.c **** 
1105:Drivers/STM32F4xx_HAL_Driver/Src/stm32f4xx_hal_can.c ****         /* Change CAN state */
1106:Drivers/STM32F4xx_HAL_Driver/Src/stm32f4xx_hal_can.c ****         hcan->State = HAL_CAN_STATE_ERROR;
 975              		.loc 1 1106 21
 976 0046 7B68     		ldr	r3, [r7, #4]
 977 0048 0522     		movs	r2, #5
 978 004a 83F82020 		strb	r2, [r3, #32]
1107:Drivers/STM32F4xx_HAL_Driver/Src/stm32f4xx_hal_can.c **** 
1108:Drivers/STM32F4xx_HAL_Driver/Src/stm32f4xx_hal_can.c ****         return HAL_ERROR;
 979              		.loc 1 1108 16
 980 004e 0123     		movs	r3, #1
 981 0050 1BE0     		b	.L47
 982              	.L46:
1097:Drivers/STM32F4xx_HAL_Driver/Src/stm32f4xx_hal_can.c ****     {
 983              		.loc 1 1097 17
 984 0052 7B68     		ldr	r3, [r7, #4]
 985 0054 1B68     		ldr	r3, [r3]
1097:Drivers/STM32F4xx_HAL_Driver/Src/stm32f4xx_hal_can.c ****     {
 986              		.loc 1 1097 27
 987 0056 5B68     		ldr	r3, [r3, #4]
1097:Drivers/STM32F4xx_HAL_Driver/Src/stm32f4xx_hal_can.c ****     {
ARM GAS  /tmp/ccDSCK0d.s 			page 38


 988              		.loc 1 1097 33
 989 0058 03F00103 		and	r3, r3, #1
1097:Drivers/STM32F4xx_HAL_Driver/Src/stm32f4xx_hal_can.c ****     {
 990              		.loc 1 1097 11
 991 005c 002B     		cmp	r3, #0
 992 005e E5D0     		beq	.L48
1109:Drivers/STM32F4xx_HAL_Driver/Src/stm32f4xx_hal_can.c ****       }
1110:Drivers/STM32F4xx_HAL_Driver/Src/stm32f4xx_hal_can.c ****     }
1111:Drivers/STM32F4xx_HAL_Driver/Src/stm32f4xx_hal_can.c **** 
1112:Drivers/STM32F4xx_HAL_Driver/Src/stm32f4xx_hal_can.c ****     /* Exit from sleep mode */
1113:Drivers/STM32F4xx_HAL_Driver/Src/stm32f4xx_hal_can.c ****     CLEAR_BIT(hcan->Instance->MCR, CAN_MCR_SLEEP);
 993              		.loc 1 1113 5
 994 0060 7B68     		ldr	r3, [r7, #4]
 995 0062 1B68     		ldr	r3, [r3]
 996 0064 1A68     		ldr	r2, [r3]
 997 0066 7B68     		ldr	r3, [r7, #4]
 998 0068 1B68     		ldr	r3, [r3]
 999 006a 22F00202 		bic	r2, r2, #2
 1000 006e 1A60     		str	r2, [r3]
1114:Drivers/STM32F4xx_HAL_Driver/Src/stm32f4xx_hal_can.c **** 
1115:Drivers/STM32F4xx_HAL_Driver/Src/stm32f4xx_hal_can.c ****     /* Change CAN peripheral state */
1116:Drivers/STM32F4xx_HAL_Driver/Src/stm32f4xx_hal_can.c ****     hcan->State = HAL_CAN_STATE_READY;
 1001              		.loc 1 1116 17
 1002 0070 7B68     		ldr	r3, [r7, #4]
 1003 0072 0122     		movs	r2, #1
 1004 0074 83F82020 		strb	r2, [r3, #32]
1117:Drivers/STM32F4xx_HAL_Driver/Src/stm32f4xx_hal_can.c **** 
1118:Drivers/STM32F4xx_HAL_Driver/Src/stm32f4xx_hal_can.c ****     /* Return function status */
1119:Drivers/STM32F4xx_HAL_Driver/Src/stm32f4xx_hal_can.c ****     return HAL_OK;
 1005              		.loc 1 1119 12
 1006 0078 0023     		movs	r3, #0
 1007 007a 06E0     		b	.L47
 1008              	.L45:
1120:Drivers/STM32F4xx_HAL_Driver/Src/stm32f4xx_hal_can.c ****   }
1121:Drivers/STM32F4xx_HAL_Driver/Src/stm32f4xx_hal_can.c ****   else
1122:Drivers/STM32F4xx_HAL_Driver/Src/stm32f4xx_hal_can.c ****   {
1123:Drivers/STM32F4xx_HAL_Driver/Src/stm32f4xx_hal_can.c ****     /* Update error code */
1124:Drivers/STM32F4xx_HAL_Driver/Src/stm32f4xx_hal_can.c ****     hcan->ErrorCode |= HAL_CAN_ERROR_NOT_STARTED;
 1009              		.loc 1 1124 21
 1010 007c 7B68     		ldr	r3, [r7, #4]
 1011 007e 5B6A     		ldr	r3, [r3, #36]
 1012 0080 43F48012 		orr	r2, r3, #1048576
 1013 0084 7B68     		ldr	r3, [r7, #4]
 1014 0086 5A62     		str	r2, [r3, #36]
1125:Drivers/STM32F4xx_HAL_Driver/Src/stm32f4xx_hal_can.c **** 
1126:Drivers/STM32F4xx_HAL_Driver/Src/stm32f4xx_hal_can.c ****     return HAL_ERROR;
 1015              		.loc 1 1126 12
 1016 0088 0123     		movs	r3, #1
 1017              	.L47:
1127:Drivers/STM32F4xx_HAL_Driver/Src/stm32f4xx_hal_can.c ****   }
1128:Drivers/STM32F4xx_HAL_Driver/Src/stm32f4xx_hal_can.c **** }
 1018              		.loc 1 1128 1
 1019 008a 1846     		mov	r0, r3
 1020 008c 1037     		adds	r7, r7, #16
 1021              	.LCFI36:
 1022              		.cfi_def_cfa_offset 8
 1023 008e BD46     		mov	sp, r7
ARM GAS  /tmp/ccDSCK0d.s 			page 39


 1024              	.LCFI37:
 1025              		.cfi_def_cfa_register 13
 1026              		@ sp needed
 1027 0090 80BD     		pop	{r7, pc}
 1028              		.cfi_endproc
 1029              	.LFE241:
 1031              		.section	.text.HAL_CAN_RequestSleep,"ax",%progbits
 1032              		.align	1
 1033              		.global	HAL_CAN_RequestSleep
 1034              		.syntax unified
 1035              		.thumb
 1036              		.thumb_func
 1038              	HAL_CAN_RequestSleep:
 1039              	.LFB242:
1129:Drivers/STM32F4xx_HAL_Driver/Src/stm32f4xx_hal_can.c **** 
1130:Drivers/STM32F4xx_HAL_Driver/Src/stm32f4xx_hal_can.c **** /**
1131:Drivers/STM32F4xx_HAL_Driver/Src/stm32f4xx_hal_can.c ****   * @brief  Request the sleep mode (low power) entry.
1132:Drivers/STM32F4xx_HAL_Driver/Src/stm32f4xx_hal_can.c ****   *         When returning from this function, Sleep mode will be entered
1133:Drivers/STM32F4xx_HAL_Driver/Src/stm32f4xx_hal_can.c ****   *         as soon as the current CAN activity (transmission or reception
1134:Drivers/STM32F4xx_HAL_Driver/Src/stm32f4xx_hal_can.c ****   *         of a CAN frame) has been completed.
1135:Drivers/STM32F4xx_HAL_Driver/Src/stm32f4xx_hal_can.c ****   * @param  hcan pointer to a CAN_HandleTypeDef structure that contains
1136:Drivers/STM32F4xx_HAL_Driver/Src/stm32f4xx_hal_can.c ****   *         the configuration information for the specified CAN.
1137:Drivers/STM32F4xx_HAL_Driver/Src/stm32f4xx_hal_can.c ****   * @retval HAL status.
1138:Drivers/STM32F4xx_HAL_Driver/Src/stm32f4xx_hal_can.c ****   */
1139:Drivers/STM32F4xx_HAL_Driver/Src/stm32f4xx_hal_can.c **** HAL_StatusTypeDef HAL_CAN_RequestSleep(CAN_HandleTypeDef *hcan)
1140:Drivers/STM32F4xx_HAL_Driver/Src/stm32f4xx_hal_can.c **** {
 1040              		.loc 1 1140 1
 1041              		.cfi_startproc
 1042              		@ args = 0, pretend = 0, frame = 16
 1043              		@ frame_needed = 1, uses_anonymous_args = 0
 1044              		@ link register save eliminated.
 1045 0000 80B4     		push	{r7}
 1046              	.LCFI38:
 1047              		.cfi_def_cfa_offset 4
 1048              		.cfi_offset 7, -4
 1049 0002 85B0     		sub	sp, sp, #20
 1050              	.LCFI39:
 1051              		.cfi_def_cfa_offset 24
 1052 0004 00AF     		add	r7, sp, #0
 1053              	.LCFI40:
 1054              		.cfi_def_cfa_register 7
 1055 0006 7860     		str	r0, [r7, #4]
1141:Drivers/STM32F4xx_HAL_Driver/Src/stm32f4xx_hal_can.c ****   HAL_CAN_StateTypeDef state = hcan->State;
 1056              		.loc 1 1141 24
 1057 0008 7B68     		ldr	r3, [r7, #4]
 1058 000a 93F82030 		ldrb	r3, [r3, #32]
 1059 000e FB73     		strb	r3, [r7, #15]
1142:Drivers/STM32F4xx_HAL_Driver/Src/stm32f4xx_hal_can.c **** 
1143:Drivers/STM32F4xx_HAL_Driver/Src/stm32f4xx_hal_can.c ****   if ((state == HAL_CAN_STATE_READY) ||
 1060              		.loc 1 1143 6
 1061 0010 FB7B     		ldrb	r3, [r7, #15]	@ zero_extendqisi2
 1062 0012 012B     		cmp	r3, #1
 1063 0014 02D0     		beq	.L50
 1064              		.loc 1 1143 38 discriminator 1
 1065 0016 FB7B     		ldrb	r3, [r7, #15]	@ zero_extendqisi2
 1066 0018 022B     		cmp	r3, #2
 1067 001a 09D1     		bne	.L51
ARM GAS  /tmp/ccDSCK0d.s 			page 40


 1068              	.L50:
1144:Drivers/STM32F4xx_HAL_Driver/Src/stm32f4xx_hal_can.c ****       (state == HAL_CAN_STATE_LISTENING))
1145:Drivers/STM32F4xx_HAL_Driver/Src/stm32f4xx_hal_can.c ****   {
1146:Drivers/STM32F4xx_HAL_Driver/Src/stm32f4xx_hal_can.c ****     /* Request Sleep mode */
1147:Drivers/STM32F4xx_HAL_Driver/Src/stm32f4xx_hal_can.c ****     SET_BIT(hcan->Instance->MCR, CAN_MCR_SLEEP);
 1069              		.loc 1 1147 5
 1070 001c 7B68     		ldr	r3, [r7, #4]
 1071 001e 1B68     		ldr	r3, [r3]
 1072 0020 1A68     		ldr	r2, [r3]
 1073 0022 7B68     		ldr	r3, [r7, #4]
 1074 0024 1B68     		ldr	r3, [r3]
 1075 0026 42F00202 		orr	r2, r2, #2
 1076 002a 1A60     		str	r2, [r3]
1148:Drivers/STM32F4xx_HAL_Driver/Src/stm32f4xx_hal_can.c **** 
1149:Drivers/STM32F4xx_HAL_Driver/Src/stm32f4xx_hal_can.c ****     /* Return function status */
1150:Drivers/STM32F4xx_HAL_Driver/Src/stm32f4xx_hal_can.c ****     return HAL_OK;
 1077              		.loc 1 1150 12
 1078 002c 0023     		movs	r3, #0
 1079 002e 06E0     		b	.L52
 1080              	.L51:
1151:Drivers/STM32F4xx_HAL_Driver/Src/stm32f4xx_hal_can.c ****   }
1152:Drivers/STM32F4xx_HAL_Driver/Src/stm32f4xx_hal_can.c ****   else
1153:Drivers/STM32F4xx_HAL_Driver/Src/stm32f4xx_hal_can.c ****   {
1154:Drivers/STM32F4xx_HAL_Driver/Src/stm32f4xx_hal_can.c ****     /* Update error code */
1155:Drivers/STM32F4xx_HAL_Driver/Src/stm32f4xx_hal_can.c ****     hcan->ErrorCode |= HAL_CAN_ERROR_NOT_INITIALIZED;
 1081              		.loc 1 1155 21
 1082 0030 7B68     		ldr	r3, [r7, #4]
 1083 0032 5B6A     		ldr	r3, [r3, #36]
 1084 0034 43F48022 		orr	r2, r3, #262144
 1085 0038 7B68     		ldr	r3, [r7, #4]
 1086 003a 5A62     		str	r2, [r3, #36]
1156:Drivers/STM32F4xx_HAL_Driver/Src/stm32f4xx_hal_can.c **** 
1157:Drivers/STM32F4xx_HAL_Driver/Src/stm32f4xx_hal_can.c ****     /* Return function status */
1158:Drivers/STM32F4xx_HAL_Driver/Src/stm32f4xx_hal_can.c ****     return HAL_ERROR;
 1087              		.loc 1 1158 12
 1088 003c 0123     		movs	r3, #1
 1089              	.L52:
1159:Drivers/STM32F4xx_HAL_Driver/Src/stm32f4xx_hal_can.c ****   }
1160:Drivers/STM32F4xx_HAL_Driver/Src/stm32f4xx_hal_can.c **** }
 1090              		.loc 1 1160 1
 1091 003e 1846     		mov	r0, r3
 1092 0040 1437     		adds	r7, r7, #20
 1093              	.LCFI41:
 1094              		.cfi_def_cfa_offset 4
 1095 0042 BD46     		mov	sp, r7
 1096              	.LCFI42:
 1097              		.cfi_def_cfa_register 13
 1098              		@ sp needed
 1099 0044 5DF8047B 		ldr	r7, [sp], #4
 1100              	.LCFI43:
 1101              		.cfi_restore 7
 1102              		.cfi_def_cfa_offset 0
 1103 0048 7047     		bx	lr
 1104              		.cfi_endproc
 1105              	.LFE242:
 1107              		.section	.text.HAL_CAN_WakeUp,"ax",%progbits
 1108              		.align	1
ARM GAS  /tmp/ccDSCK0d.s 			page 41


 1109              		.global	HAL_CAN_WakeUp
 1110              		.syntax unified
 1111              		.thumb
 1112              		.thumb_func
 1114              	HAL_CAN_WakeUp:
 1115              	.LFB243:
1161:Drivers/STM32F4xx_HAL_Driver/Src/stm32f4xx_hal_can.c **** 
1162:Drivers/STM32F4xx_HAL_Driver/Src/stm32f4xx_hal_can.c **** /**
1163:Drivers/STM32F4xx_HAL_Driver/Src/stm32f4xx_hal_can.c ****   * @brief  Wake up from sleep mode.
1164:Drivers/STM32F4xx_HAL_Driver/Src/stm32f4xx_hal_can.c ****   *         When returning with HAL_OK status from this function, Sleep mode
1165:Drivers/STM32F4xx_HAL_Driver/Src/stm32f4xx_hal_can.c ****   *         is exited.
1166:Drivers/STM32F4xx_HAL_Driver/Src/stm32f4xx_hal_can.c ****   * @param  hcan pointer to a CAN_HandleTypeDef structure that contains
1167:Drivers/STM32F4xx_HAL_Driver/Src/stm32f4xx_hal_can.c ****   *         the configuration information for the specified CAN.
1168:Drivers/STM32F4xx_HAL_Driver/Src/stm32f4xx_hal_can.c ****   * @retval HAL status.
1169:Drivers/STM32F4xx_HAL_Driver/Src/stm32f4xx_hal_can.c ****   */
1170:Drivers/STM32F4xx_HAL_Driver/Src/stm32f4xx_hal_can.c **** HAL_StatusTypeDef HAL_CAN_WakeUp(CAN_HandleTypeDef *hcan)
1171:Drivers/STM32F4xx_HAL_Driver/Src/stm32f4xx_hal_can.c **** {
 1116              		.loc 1 1171 1
 1117              		.cfi_startproc
 1118              		@ args = 0, pretend = 0, frame = 24
 1119              		@ frame_needed = 1, uses_anonymous_args = 0
 1120              		@ link register save eliminated.
 1121 0000 80B4     		push	{r7}
 1122              	.LCFI44:
 1123              		.cfi_def_cfa_offset 4
 1124              		.cfi_offset 7, -4
 1125 0002 87B0     		sub	sp, sp, #28
 1126              	.LCFI45:
 1127              		.cfi_def_cfa_offset 32
 1128 0004 00AF     		add	r7, sp, #0
 1129              	.LCFI46:
 1130              		.cfi_def_cfa_register 7
 1131 0006 7860     		str	r0, [r7, #4]
1172:Drivers/STM32F4xx_HAL_Driver/Src/stm32f4xx_hal_can.c ****   __IO uint32_t count = 0;
 1132              		.loc 1 1172 17
 1133 0008 0023     		movs	r3, #0
 1134 000a FB60     		str	r3, [r7, #12]
1173:Drivers/STM32F4xx_HAL_Driver/Src/stm32f4xx_hal_can.c ****   uint32_t timeout = 1000000U;
 1135              		.loc 1 1173 12
 1136 000c 1C4B     		ldr	r3, .L59
 1137 000e 7B61     		str	r3, [r7, #20]
1174:Drivers/STM32F4xx_HAL_Driver/Src/stm32f4xx_hal_can.c ****   HAL_CAN_StateTypeDef state = hcan->State;
 1138              		.loc 1 1174 24
 1139 0010 7B68     		ldr	r3, [r7, #4]
 1140 0012 93F82030 		ldrb	r3, [r3, #32]
 1141 0016 FB74     		strb	r3, [r7, #19]
1175:Drivers/STM32F4xx_HAL_Driver/Src/stm32f4xx_hal_can.c **** 
1176:Drivers/STM32F4xx_HAL_Driver/Src/stm32f4xx_hal_can.c ****   if ((state == HAL_CAN_STATE_READY) ||
 1142              		.loc 1 1176 6
 1143 0018 FB7C     		ldrb	r3, [r7, #19]	@ zero_extendqisi2
 1144 001a 012B     		cmp	r3, #1
 1145 001c 02D0     		beq	.L54
 1146              		.loc 1 1176 38 discriminator 1
 1147 001e FB7C     		ldrb	r3, [r7, #19]	@ zero_extendqisi2
 1148 0020 022B     		cmp	r3, #2
 1149 0022 1FD1     		bne	.L55
 1150              	.L54:
ARM GAS  /tmp/ccDSCK0d.s 			page 42


1177:Drivers/STM32F4xx_HAL_Driver/Src/stm32f4xx_hal_can.c ****       (state == HAL_CAN_STATE_LISTENING))
1178:Drivers/STM32F4xx_HAL_Driver/Src/stm32f4xx_hal_can.c ****   {
1179:Drivers/STM32F4xx_HAL_Driver/Src/stm32f4xx_hal_can.c ****     /* Wake up request */
1180:Drivers/STM32F4xx_HAL_Driver/Src/stm32f4xx_hal_can.c ****     CLEAR_BIT(hcan->Instance->MCR, CAN_MCR_SLEEP);
 1151              		.loc 1 1180 5
 1152 0024 7B68     		ldr	r3, [r7, #4]
 1153 0026 1B68     		ldr	r3, [r3]
 1154 0028 1A68     		ldr	r2, [r3]
 1155 002a 7B68     		ldr	r3, [r7, #4]
 1156 002c 1B68     		ldr	r3, [r3]
 1157 002e 22F00202 		bic	r2, r2, #2
 1158 0032 1A60     		str	r2, [r3]
 1159              	.L58:
1181:Drivers/STM32F4xx_HAL_Driver/Src/stm32f4xx_hal_can.c **** 
1182:Drivers/STM32F4xx_HAL_Driver/Src/stm32f4xx_hal_can.c ****     /* Wait sleep mode is exited */
1183:Drivers/STM32F4xx_HAL_Driver/Src/stm32f4xx_hal_can.c ****     do
1184:Drivers/STM32F4xx_HAL_Driver/Src/stm32f4xx_hal_can.c ****     {
1185:Drivers/STM32F4xx_HAL_Driver/Src/stm32f4xx_hal_can.c ****       /* Increment counter */
1186:Drivers/STM32F4xx_HAL_Driver/Src/stm32f4xx_hal_can.c ****       count++;
 1160              		.loc 1 1186 12
 1161 0034 FB68     		ldr	r3, [r7, #12]
 1162 0036 0133     		adds	r3, r3, #1
 1163 0038 FB60     		str	r3, [r7, #12]
1187:Drivers/STM32F4xx_HAL_Driver/Src/stm32f4xx_hal_can.c **** 
1188:Drivers/STM32F4xx_HAL_Driver/Src/stm32f4xx_hal_can.c ****       /* Check if timeout is reached */
1189:Drivers/STM32F4xx_HAL_Driver/Src/stm32f4xx_hal_can.c ****       if (count > timeout)
 1164              		.loc 1 1189 17
 1165 003a FB68     		ldr	r3, [r7, #12]
 1166              		.loc 1 1189 10
 1167 003c 7A69     		ldr	r2, [r7, #20]
 1168 003e 9A42     		cmp	r2, r3
 1169 0040 07D2     		bcs	.L56
1190:Drivers/STM32F4xx_HAL_Driver/Src/stm32f4xx_hal_can.c ****       {
1191:Drivers/STM32F4xx_HAL_Driver/Src/stm32f4xx_hal_can.c ****         /* Update error code */
1192:Drivers/STM32F4xx_HAL_Driver/Src/stm32f4xx_hal_can.c ****         hcan->ErrorCode |= HAL_CAN_ERROR_TIMEOUT;
 1170              		.loc 1 1192 25
 1171 0042 7B68     		ldr	r3, [r7, #4]
 1172 0044 5B6A     		ldr	r3, [r3, #36]
 1173 0046 43F40032 		orr	r2, r3, #131072
 1174 004a 7B68     		ldr	r3, [r7, #4]
 1175 004c 5A62     		str	r2, [r3, #36]
1193:Drivers/STM32F4xx_HAL_Driver/Src/stm32f4xx_hal_can.c **** 
1194:Drivers/STM32F4xx_HAL_Driver/Src/stm32f4xx_hal_can.c ****         return HAL_ERROR;
 1176              		.loc 1 1194 16
 1177 004e 0123     		movs	r3, #1
 1178 0050 0FE0     		b	.L57
 1179              	.L56:
1195:Drivers/STM32F4xx_HAL_Driver/Src/stm32f4xx_hal_can.c ****       }
1196:Drivers/STM32F4xx_HAL_Driver/Src/stm32f4xx_hal_can.c ****     }
1197:Drivers/STM32F4xx_HAL_Driver/Src/stm32f4xx_hal_can.c ****     while ((hcan->Instance->MSR & CAN_MSR_SLAK) != 0U);
 1180              		.loc 1 1197 17
 1181 0052 7B68     		ldr	r3, [r7, #4]
 1182 0054 1B68     		ldr	r3, [r3]
 1183              		.loc 1 1197 27
 1184 0056 5B68     		ldr	r3, [r3, #4]
 1185              		.loc 1 1197 33
 1186 0058 03F00203 		and	r3, r3, #2
ARM GAS  /tmp/ccDSCK0d.s 			page 43


 1187              		.loc 1 1197 5
 1188 005c 002B     		cmp	r3, #0
 1189 005e E9D1     		bne	.L58
1198:Drivers/STM32F4xx_HAL_Driver/Src/stm32f4xx_hal_can.c **** 
1199:Drivers/STM32F4xx_HAL_Driver/Src/stm32f4xx_hal_can.c ****     /* Return function status */
1200:Drivers/STM32F4xx_HAL_Driver/Src/stm32f4xx_hal_can.c ****     return HAL_OK;
 1190              		.loc 1 1200 12
 1191 0060 0023     		movs	r3, #0
 1192 0062 06E0     		b	.L57
 1193              	.L55:
1201:Drivers/STM32F4xx_HAL_Driver/Src/stm32f4xx_hal_can.c ****   }
1202:Drivers/STM32F4xx_HAL_Driver/Src/stm32f4xx_hal_can.c ****   else
1203:Drivers/STM32F4xx_HAL_Driver/Src/stm32f4xx_hal_can.c ****   {
1204:Drivers/STM32F4xx_HAL_Driver/Src/stm32f4xx_hal_can.c ****     /* Update error code */
1205:Drivers/STM32F4xx_HAL_Driver/Src/stm32f4xx_hal_can.c ****     hcan->ErrorCode |= HAL_CAN_ERROR_NOT_INITIALIZED;
 1194              		.loc 1 1205 21
 1195 0064 7B68     		ldr	r3, [r7, #4]
 1196 0066 5B6A     		ldr	r3, [r3, #36]
 1197 0068 43F48022 		orr	r2, r3, #262144
 1198 006c 7B68     		ldr	r3, [r7, #4]
 1199 006e 5A62     		str	r2, [r3, #36]
1206:Drivers/STM32F4xx_HAL_Driver/Src/stm32f4xx_hal_can.c **** 
1207:Drivers/STM32F4xx_HAL_Driver/Src/stm32f4xx_hal_can.c ****     return HAL_ERROR;
 1200              		.loc 1 1207 12
 1201 0070 0123     		movs	r3, #1
 1202              	.L57:
1208:Drivers/STM32F4xx_HAL_Driver/Src/stm32f4xx_hal_can.c ****   }
1209:Drivers/STM32F4xx_HAL_Driver/Src/stm32f4xx_hal_can.c **** }
 1203              		.loc 1 1209 1
 1204 0072 1846     		mov	r0, r3
 1205 0074 1C37     		adds	r7, r7, #28
 1206              	.LCFI47:
 1207              		.cfi_def_cfa_offset 4
 1208 0076 BD46     		mov	sp, r7
 1209              	.LCFI48:
 1210              		.cfi_def_cfa_register 13
 1211              		@ sp needed
 1212 0078 5DF8047B 		ldr	r7, [sp], #4
 1213              	.LCFI49:
 1214              		.cfi_restore 7
 1215              		.cfi_def_cfa_offset 0
 1216 007c 7047     		bx	lr
 1217              	.L60:
 1218 007e 00BF     		.align	2
 1219              	.L59:
 1220 0080 40420F00 		.word	1000000
 1221              		.cfi_endproc
 1222              	.LFE243:
 1224              		.section	.text.HAL_CAN_IsSleepActive,"ax",%progbits
 1225              		.align	1
 1226              		.global	HAL_CAN_IsSleepActive
 1227              		.syntax unified
 1228              		.thumb
 1229              		.thumb_func
 1231              	HAL_CAN_IsSleepActive:
 1232              	.LFB244:
1210:Drivers/STM32F4xx_HAL_Driver/Src/stm32f4xx_hal_can.c **** 
ARM GAS  /tmp/ccDSCK0d.s 			page 44


1211:Drivers/STM32F4xx_HAL_Driver/Src/stm32f4xx_hal_can.c **** /**
1212:Drivers/STM32F4xx_HAL_Driver/Src/stm32f4xx_hal_can.c ****   * @brief  Check is sleep mode is active.
1213:Drivers/STM32F4xx_HAL_Driver/Src/stm32f4xx_hal_can.c ****   * @param  hcan pointer to a CAN_HandleTypeDef structure that contains
1214:Drivers/STM32F4xx_HAL_Driver/Src/stm32f4xx_hal_can.c ****   *         the configuration information for the specified CAN.
1215:Drivers/STM32F4xx_HAL_Driver/Src/stm32f4xx_hal_can.c ****   * @retval Status
1216:Drivers/STM32F4xx_HAL_Driver/Src/stm32f4xx_hal_can.c ****   *          - 0 : Sleep mode is not active.
1217:Drivers/STM32F4xx_HAL_Driver/Src/stm32f4xx_hal_can.c ****   *          - 1 : Sleep mode is active.
1218:Drivers/STM32F4xx_HAL_Driver/Src/stm32f4xx_hal_can.c ****   */
1219:Drivers/STM32F4xx_HAL_Driver/Src/stm32f4xx_hal_can.c **** uint32_t HAL_CAN_IsSleepActive(CAN_HandleTypeDef *hcan)
1220:Drivers/STM32F4xx_HAL_Driver/Src/stm32f4xx_hal_can.c **** {
 1233              		.loc 1 1220 1
 1234              		.cfi_startproc
 1235              		@ args = 0, pretend = 0, frame = 16
 1236              		@ frame_needed = 1, uses_anonymous_args = 0
 1237              		@ link register save eliminated.
 1238 0000 80B4     		push	{r7}
 1239              	.LCFI50:
 1240              		.cfi_def_cfa_offset 4
 1241              		.cfi_offset 7, -4
 1242 0002 85B0     		sub	sp, sp, #20
 1243              	.LCFI51:
 1244              		.cfi_def_cfa_offset 24
 1245 0004 00AF     		add	r7, sp, #0
 1246              	.LCFI52:
 1247              		.cfi_def_cfa_register 7
 1248 0006 7860     		str	r0, [r7, #4]
1221:Drivers/STM32F4xx_HAL_Driver/Src/stm32f4xx_hal_can.c ****   uint32_t status = 0U;
 1249              		.loc 1 1221 12
 1250 0008 0023     		movs	r3, #0
 1251 000a FB60     		str	r3, [r7, #12]
1222:Drivers/STM32F4xx_HAL_Driver/Src/stm32f4xx_hal_can.c ****   HAL_CAN_StateTypeDef state = hcan->State;
 1252              		.loc 1 1222 24
 1253 000c 7B68     		ldr	r3, [r7, #4]
 1254 000e 93F82030 		ldrb	r3, [r3, #32]
 1255 0012 FB72     		strb	r3, [r7, #11]
1223:Drivers/STM32F4xx_HAL_Driver/Src/stm32f4xx_hal_can.c **** 
1224:Drivers/STM32F4xx_HAL_Driver/Src/stm32f4xx_hal_can.c ****   if ((state == HAL_CAN_STATE_READY) ||
 1256              		.loc 1 1224 6
 1257 0014 FB7A     		ldrb	r3, [r7, #11]	@ zero_extendqisi2
 1258 0016 012B     		cmp	r3, #1
 1259 0018 02D0     		beq	.L62
 1260              		.loc 1 1224 38 discriminator 1
 1261 001a FB7A     		ldrb	r3, [r7, #11]	@ zero_extendqisi2
 1262 001c 022B     		cmp	r3, #2
 1263 001e 08D1     		bne	.L63
 1264              	.L62:
1225:Drivers/STM32F4xx_HAL_Driver/Src/stm32f4xx_hal_can.c ****       (state == HAL_CAN_STATE_LISTENING))
1226:Drivers/STM32F4xx_HAL_Driver/Src/stm32f4xx_hal_can.c ****   {
1227:Drivers/STM32F4xx_HAL_Driver/Src/stm32f4xx_hal_can.c ****     /* Check Sleep mode */
1228:Drivers/STM32F4xx_HAL_Driver/Src/stm32f4xx_hal_can.c ****     if ((hcan->Instance->MSR & CAN_MSR_SLAK) != 0U)
 1265              		.loc 1 1228 14
 1266 0020 7B68     		ldr	r3, [r7, #4]
 1267 0022 1B68     		ldr	r3, [r3]
 1268              		.loc 1 1228 24
 1269 0024 5B68     		ldr	r3, [r3, #4]
 1270              		.loc 1 1228 30
 1271 0026 03F00203 		and	r3, r3, #2
ARM GAS  /tmp/ccDSCK0d.s 			page 45


 1272              		.loc 1 1228 8
 1273 002a 002B     		cmp	r3, #0
 1274 002c 01D0     		beq	.L63
1229:Drivers/STM32F4xx_HAL_Driver/Src/stm32f4xx_hal_can.c ****     {
1230:Drivers/STM32F4xx_HAL_Driver/Src/stm32f4xx_hal_can.c ****       status = 1U;
 1275              		.loc 1 1230 14
 1276 002e 0123     		movs	r3, #1
 1277 0030 FB60     		str	r3, [r7, #12]
 1278              	.L63:
1231:Drivers/STM32F4xx_HAL_Driver/Src/stm32f4xx_hal_can.c ****     }
1232:Drivers/STM32F4xx_HAL_Driver/Src/stm32f4xx_hal_can.c ****   }
1233:Drivers/STM32F4xx_HAL_Driver/Src/stm32f4xx_hal_can.c **** 
1234:Drivers/STM32F4xx_HAL_Driver/Src/stm32f4xx_hal_can.c ****   /* Return function status */
1235:Drivers/STM32F4xx_HAL_Driver/Src/stm32f4xx_hal_can.c ****   return status;
 1279              		.loc 1 1235 10
 1280 0032 FB68     		ldr	r3, [r7, #12]
1236:Drivers/STM32F4xx_HAL_Driver/Src/stm32f4xx_hal_can.c **** }
 1281              		.loc 1 1236 1
 1282 0034 1846     		mov	r0, r3
 1283 0036 1437     		adds	r7, r7, #20
 1284              	.LCFI53:
 1285              		.cfi_def_cfa_offset 4
 1286 0038 BD46     		mov	sp, r7
 1287              	.LCFI54:
 1288              		.cfi_def_cfa_register 13
 1289              		@ sp needed
 1290 003a 5DF8047B 		ldr	r7, [sp], #4
 1291              	.LCFI55:
 1292              		.cfi_restore 7
 1293              		.cfi_def_cfa_offset 0
 1294 003e 7047     		bx	lr
 1295              		.cfi_endproc
 1296              	.LFE244:
 1298              		.section	.text.HAL_CAN_AddTxMessage,"ax",%progbits
 1299              		.align	1
 1300              		.global	HAL_CAN_AddTxMessage
 1301              		.syntax unified
 1302              		.thumb
 1303              		.thumb_func
 1305              	HAL_CAN_AddTxMessage:
 1306              	.LFB245:
1237:Drivers/STM32F4xx_HAL_Driver/Src/stm32f4xx_hal_can.c **** 
1238:Drivers/STM32F4xx_HAL_Driver/Src/stm32f4xx_hal_can.c **** /**
1239:Drivers/STM32F4xx_HAL_Driver/Src/stm32f4xx_hal_can.c ****   * @brief  Add a message to the first free Tx mailbox and activate the
1240:Drivers/STM32F4xx_HAL_Driver/Src/stm32f4xx_hal_can.c ****   *         corresponding transmission request.
1241:Drivers/STM32F4xx_HAL_Driver/Src/stm32f4xx_hal_can.c ****   * @param  hcan pointer to a CAN_HandleTypeDef structure that contains
1242:Drivers/STM32F4xx_HAL_Driver/Src/stm32f4xx_hal_can.c ****   *         the configuration information for the specified CAN.
1243:Drivers/STM32F4xx_HAL_Driver/Src/stm32f4xx_hal_can.c ****   * @param  pHeader pointer to a CAN_TxHeaderTypeDef structure.
1244:Drivers/STM32F4xx_HAL_Driver/Src/stm32f4xx_hal_can.c ****   * @param  aData array containing the payload of the Tx frame.
1245:Drivers/STM32F4xx_HAL_Driver/Src/stm32f4xx_hal_can.c ****   * @param  pTxMailbox pointer to a variable where the function will return
1246:Drivers/STM32F4xx_HAL_Driver/Src/stm32f4xx_hal_can.c ****   *         the TxMailbox used to store the Tx message.
1247:Drivers/STM32F4xx_HAL_Driver/Src/stm32f4xx_hal_can.c ****   *         This parameter can be a value of @arg CAN_Tx_Mailboxes.
1248:Drivers/STM32F4xx_HAL_Driver/Src/stm32f4xx_hal_can.c ****   * @retval HAL status
1249:Drivers/STM32F4xx_HAL_Driver/Src/stm32f4xx_hal_can.c ****   */
1250:Drivers/STM32F4xx_HAL_Driver/Src/stm32f4xx_hal_can.c **** HAL_StatusTypeDef HAL_CAN_AddTxMessage(CAN_HandleTypeDef *hcan, CAN_TxHeaderTypeDef *pHeader, uint8
1251:Drivers/STM32F4xx_HAL_Driver/Src/stm32f4xx_hal_can.c **** {
 1307              		.loc 1 1251 1
ARM GAS  /tmp/ccDSCK0d.s 			page 46


 1308              		.cfi_startproc
 1309              		@ args = 0, pretend = 0, frame = 32
 1310              		@ frame_needed = 1, uses_anonymous_args = 0
 1311              		@ link register save eliminated.
 1312 0000 80B4     		push	{r7}
 1313              	.LCFI56:
 1314              		.cfi_def_cfa_offset 4
 1315              		.cfi_offset 7, -4
 1316 0002 89B0     		sub	sp, sp, #36
 1317              	.LCFI57:
 1318              		.cfi_def_cfa_offset 40
 1319 0004 00AF     		add	r7, sp, #0
 1320              	.LCFI58:
 1321              		.cfi_def_cfa_register 7
 1322 0006 F860     		str	r0, [r7, #12]
 1323 0008 B960     		str	r1, [r7, #8]
 1324 000a 7A60     		str	r2, [r7, #4]
 1325 000c 3B60     		str	r3, [r7]
1252:Drivers/STM32F4xx_HAL_Driver/Src/stm32f4xx_hal_can.c ****   uint32_t transmitmailbox;
1253:Drivers/STM32F4xx_HAL_Driver/Src/stm32f4xx_hal_can.c ****   HAL_CAN_StateTypeDef state = hcan->State;
 1326              		.loc 1 1253 24
 1327 000e FB68     		ldr	r3, [r7, #12]
 1328 0010 93F82030 		ldrb	r3, [r3, #32]
 1329 0014 FB77     		strb	r3, [r7, #31]
1254:Drivers/STM32F4xx_HAL_Driver/Src/stm32f4xx_hal_can.c ****   uint32_t tsr = READ_REG(hcan->Instance->TSR);
 1330              		.loc 1 1254 18
 1331 0016 FB68     		ldr	r3, [r7, #12]
 1332 0018 1B68     		ldr	r3, [r3]
 1333              		.loc 1 1254 12
 1334 001a 9B68     		ldr	r3, [r3, #8]
 1335 001c BB61     		str	r3, [r7, #24]
1255:Drivers/STM32F4xx_HAL_Driver/Src/stm32f4xx_hal_can.c **** 
1256:Drivers/STM32F4xx_HAL_Driver/Src/stm32f4xx_hal_can.c ****   /* Check the parameters */
1257:Drivers/STM32F4xx_HAL_Driver/Src/stm32f4xx_hal_can.c ****   assert_param(IS_CAN_IDTYPE(pHeader->IDE));
1258:Drivers/STM32F4xx_HAL_Driver/Src/stm32f4xx_hal_can.c ****   assert_param(IS_CAN_RTR(pHeader->RTR));
1259:Drivers/STM32F4xx_HAL_Driver/Src/stm32f4xx_hal_can.c ****   assert_param(IS_CAN_DLC(pHeader->DLC));
1260:Drivers/STM32F4xx_HAL_Driver/Src/stm32f4xx_hal_can.c ****   if (pHeader->IDE == CAN_ID_STD)
1261:Drivers/STM32F4xx_HAL_Driver/Src/stm32f4xx_hal_can.c ****   {
1262:Drivers/STM32F4xx_HAL_Driver/Src/stm32f4xx_hal_can.c ****     assert_param(IS_CAN_STDID(pHeader->StdId));
1263:Drivers/STM32F4xx_HAL_Driver/Src/stm32f4xx_hal_can.c ****   }
1264:Drivers/STM32F4xx_HAL_Driver/Src/stm32f4xx_hal_can.c ****   else
1265:Drivers/STM32F4xx_HAL_Driver/Src/stm32f4xx_hal_can.c ****   {
1266:Drivers/STM32F4xx_HAL_Driver/Src/stm32f4xx_hal_can.c ****     assert_param(IS_CAN_EXTID(pHeader->ExtId));
1267:Drivers/STM32F4xx_HAL_Driver/Src/stm32f4xx_hal_can.c ****   }
1268:Drivers/STM32F4xx_HAL_Driver/Src/stm32f4xx_hal_can.c ****   assert_param(IS_FUNCTIONAL_STATE(pHeader->TransmitGlobalTime));
1269:Drivers/STM32F4xx_HAL_Driver/Src/stm32f4xx_hal_can.c **** 
1270:Drivers/STM32F4xx_HAL_Driver/Src/stm32f4xx_hal_can.c ****   if ((state == HAL_CAN_STATE_READY) ||
 1336              		.loc 1 1270 6
 1337 001e FB7F     		ldrb	r3, [r7, #31]	@ zero_extendqisi2
 1338 0020 012B     		cmp	r3, #1
 1339 0022 03D0     		beq	.L66
 1340              		.loc 1 1270 38 discriminator 1
 1341 0024 FB7F     		ldrb	r3, [r7, #31]	@ zero_extendqisi2
 1342 0026 022B     		cmp	r3, #2
 1343 0028 40F0B880 		bne	.L67
 1344              	.L66:
1271:Drivers/STM32F4xx_HAL_Driver/Src/stm32f4xx_hal_can.c ****       (state == HAL_CAN_STATE_LISTENING))
ARM GAS  /tmp/ccDSCK0d.s 			page 47


1272:Drivers/STM32F4xx_HAL_Driver/Src/stm32f4xx_hal_can.c ****   {
1273:Drivers/STM32F4xx_HAL_Driver/Src/stm32f4xx_hal_can.c ****     /* Check that all the Tx mailboxes are not full */
1274:Drivers/STM32F4xx_HAL_Driver/Src/stm32f4xx_hal_can.c ****     if (((tsr & CAN_TSR_TME0) != 0U) ||
 1345              		.loc 1 1274 15
 1346 002c BB69     		ldr	r3, [r7, #24]
 1347 002e 03F08063 		and	r3, r3, #67108864
 1348              		.loc 1 1274 8
 1349 0032 002B     		cmp	r3, #0
 1350 0034 0AD1     		bne	.L68
1275:Drivers/STM32F4xx_HAL_Driver/Src/stm32f4xx_hal_can.c ****         ((tsr & CAN_TSR_TME1) != 0U) ||
 1351              		.loc 1 1275 15 discriminator 1
 1352 0036 BB69     		ldr	r3, [r7, #24]
 1353 0038 03F00063 		and	r3, r3, #134217728
1274:Drivers/STM32F4xx_HAL_Driver/Src/stm32f4xx_hal_can.c ****         ((tsr & CAN_TSR_TME1) != 0U) ||
 1354              		.loc 1 1274 38 discriminator 1
 1355 003c 002B     		cmp	r3, #0
 1356 003e 05D1     		bne	.L68
1276:Drivers/STM32F4xx_HAL_Driver/Src/stm32f4xx_hal_can.c ****         ((tsr & CAN_TSR_TME2) != 0U))
 1357              		.loc 1 1276 15
 1358 0040 BB69     		ldr	r3, [r7, #24]
 1359 0042 03F08053 		and	r3, r3, #268435456
1275:Drivers/STM32F4xx_HAL_Driver/Src/stm32f4xx_hal_can.c ****         ((tsr & CAN_TSR_TME1) != 0U) ||
 1360              		.loc 1 1275 38
 1361 0046 002B     		cmp	r3, #0
 1362 0048 00F0A080 		beq	.L69
 1363              	.L68:
1277:Drivers/STM32F4xx_HAL_Driver/Src/stm32f4xx_hal_can.c ****     {
1278:Drivers/STM32F4xx_HAL_Driver/Src/stm32f4xx_hal_can.c ****       /* Select an empty transmit mailbox */
1279:Drivers/STM32F4xx_HAL_Driver/Src/stm32f4xx_hal_can.c ****       transmitmailbox = (tsr & CAN_TSR_CODE) >> CAN_TSR_CODE_Pos;
 1364              		.loc 1 1279 46
 1365 004c BB69     		ldr	r3, [r7, #24]
 1366 004e 1B0E     		lsrs	r3, r3, #24
 1367              		.loc 1 1279 23
 1368 0050 03F00303 		and	r3, r3, #3
 1369 0054 7B61     		str	r3, [r7, #20]
1280:Drivers/STM32F4xx_HAL_Driver/Src/stm32f4xx_hal_can.c **** 
1281:Drivers/STM32F4xx_HAL_Driver/Src/stm32f4xx_hal_can.c ****       /* Check transmit mailbox value */
1282:Drivers/STM32F4xx_HAL_Driver/Src/stm32f4xx_hal_can.c ****       if (transmitmailbox > 2U)
 1370              		.loc 1 1282 10
 1371 0056 7B69     		ldr	r3, [r7, #20]
 1372 0058 022B     		cmp	r3, #2
 1373 005a 07D9     		bls	.L70
1283:Drivers/STM32F4xx_HAL_Driver/Src/stm32f4xx_hal_can.c ****       {
1284:Drivers/STM32F4xx_HAL_Driver/Src/stm32f4xx_hal_can.c ****         /* Update error code */
1285:Drivers/STM32F4xx_HAL_Driver/Src/stm32f4xx_hal_can.c ****         hcan->ErrorCode |= HAL_CAN_ERROR_INTERNAL;
 1374              		.loc 1 1285 25
 1375 005c FB68     		ldr	r3, [r7, #12]
 1376 005e 5B6A     		ldr	r3, [r3, #36]
 1377 0060 43F40002 		orr	r2, r3, #8388608
 1378 0064 FB68     		ldr	r3, [r7, #12]
 1379 0066 5A62     		str	r2, [r3, #36]
1286:Drivers/STM32F4xx_HAL_Driver/Src/stm32f4xx_hal_can.c **** 
1287:Drivers/STM32F4xx_HAL_Driver/Src/stm32f4xx_hal_can.c ****         return HAL_ERROR;
 1380              		.loc 1 1287 16
 1381 0068 0123     		movs	r3, #1
 1382 006a 9EE0     		b	.L71
 1383              	.L70:
ARM GAS  /tmp/ccDSCK0d.s 			page 48


1288:Drivers/STM32F4xx_HAL_Driver/Src/stm32f4xx_hal_can.c ****       }
1289:Drivers/STM32F4xx_HAL_Driver/Src/stm32f4xx_hal_can.c **** 
1290:Drivers/STM32F4xx_HAL_Driver/Src/stm32f4xx_hal_can.c ****       /* Store the Tx mailbox */
1291:Drivers/STM32F4xx_HAL_Driver/Src/stm32f4xx_hal_can.c ****       *pTxMailbox = (uint32_t)1 << transmitmailbox;
 1384              		.loc 1 1291 33
 1385 006c 0122     		movs	r2, #1
 1386 006e 7B69     		ldr	r3, [r7, #20]
 1387 0070 9A40     		lsls	r2, r2, r3
 1388              		.loc 1 1291 19
 1389 0072 3B68     		ldr	r3, [r7]
 1390 0074 1A60     		str	r2, [r3]
1292:Drivers/STM32F4xx_HAL_Driver/Src/stm32f4xx_hal_can.c **** 
1293:Drivers/STM32F4xx_HAL_Driver/Src/stm32f4xx_hal_can.c ****       /* Set up the Id */
1294:Drivers/STM32F4xx_HAL_Driver/Src/stm32f4xx_hal_can.c ****       if (pHeader->IDE == CAN_ID_STD)
 1391              		.loc 1 1294 18
 1392 0076 BB68     		ldr	r3, [r7, #8]
 1393 0078 9B68     		ldr	r3, [r3, #8]
 1394              		.loc 1 1294 10
 1395 007a 002B     		cmp	r3, #0
 1396 007c 0DD1     		bne	.L72
1295:Drivers/STM32F4xx_HAL_Driver/Src/stm32f4xx_hal_can.c ****       {
1296:Drivers/STM32F4xx_HAL_Driver/Src/stm32f4xx_hal_can.c ****         hcan->Instance->sTxMailBox[transmitmailbox].TIR = ((pHeader->StdId << CAN_TI0R_STID_Pos) |
 1397              		.loc 1 1296 68
 1398 007e BB68     		ldr	r3, [r7, #8]
 1399 0080 1B68     		ldr	r3, [r3]
 1400              		.loc 1 1296 76
 1401 0082 5A05     		lsls	r2, r3, #21
1297:Drivers/STM32F4xx_HAL_Driver/Src/stm32f4xx_hal_can.c ****                                                            pHeader->RTR);
 1402              		.loc 1 1297 67
 1403 0084 BB68     		ldr	r3, [r7, #8]
 1404 0086 DB68     		ldr	r3, [r3, #12]
1296:Drivers/STM32F4xx_HAL_Driver/Src/stm32f4xx_hal_can.c ****                                                            pHeader->RTR);
 1405              		.loc 1 1296 13
 1406 0088 F968     		ldr	r1, [r7, #12]
 1407 008a 0968     		ldr	r1, [r1]
1296:Drivers/STM32F4xx_HAL_Driver/Src/stm32f4xx_hal_can.c ****                                                            pHeader->RTR);
 1408              		.loc 1 1296 98
 1409 008c 1A43     		orrs	r2, r2, r3
1296:Drivers/STM32F4xx_HAL_Driver/Src/stm32f4xx_hal_can.c ****                                                            pHeader->RTR);
 1410              		.loc 1 1296 57
 1411 008e 7B69     		ldr	r3, [r7, #20]
 1412 0090 1833     		adds	r3, r3, #24
 1413 0092 1B01     		lsls	r3, r3, #4
 1414 0094 0B44     		add	r3, r3, r1
 1415 0096 1A60     		str	r2, [r3]
 1416 0098 0FE0     		b	.L73
 1417              	.L72:
1298:Drivers/STM32F4xx_HAL_Driver/Src/stm32f4xx_hal_can.c ****       }
1299:Drivers/STM32F4xx_HAL_Driver/Src/stm32f4xx_hal_can.c ****       else
1300:Drivers/STM32F4xx_HAL_Driver/Src/stm32f4xx_hal_can.c ****       {
1301:Drivers/STM32F4xx_HAL_Driver/Src/stm32f4xx_hal_can.c ****         hcan->Instance->sTxMailBox[transmitmailbox].TIR = ((pHeader->ExtId << CAN_TI0R_EXID_Pos) |
 1418              		.loc 1 1301 68
 1419 009a BB68     		ldr	r3, [r7, #8]
 1420 009c 5B68     		ldr	r3, [r3, #4]
 1421              		.loc 1 1301 76
 1422 009e DA00     		lsls	r2, r3, #3
1302:Drivers/STM32F4xx_HAL_Driver/Src/stm32f4xx_hal_can.c ****                                                            pHeader->IDE |
ARM GAS  /tmp/ccDSCK0d.s 			page 49


 1423              		.loc 1 1302 67
 1424 00a0 BB68     		ldr	r3, [r7, #8]
 1425 00a2 9B68     		ldr	r3, [r3, #8]
1301:Drivers/STM32F4xx_HAL_Driver/Src/stm32f4xx_hal_can.c ****                                                            pHeader->IDE |
 1426              		.loc 1 1301 98
 1427 00a4 1A43     		orrs	r2, r2, r3
1303:Drivers/STM32F4xx_HAL_Driver/Src/stm32f4xx_hal_can.c ****                                                            pHeader->RTR);
 1428              		.loc 1 1303 67
 1429 00a6 BB68     		ldr	r3, [r7, #8]
 1430 00a8 DB68     		ldr	r3, [r3, #12]
1301:Drivers/STM32F4xx_HAL_Driver/Src/stm32f4xx_hal_can.c ****                                                            pHeader->IDE |
 1431              		.loc 1 1301 13
 1432 00aa F968     		ldr	r1, [r7, #12]
 1433 00ac 0968     		ldr	r1, [r1]
1302:Drivers/STM32F4xx_HAL_Driver/Src/stm32f4xx_hal_can.c ****                                                            pHeader->IDE |
 1434              		.loc 1 1302 73
 1435 00ae 1A43     		orrs	r2, r2, r3
1301:Drivers/STM32F4xx_HAL_Driver/Src/stm32f4xx_hal_can.c ****                                                            pHeader->IDE |
 1436              		.loc 1 1301 57
 1437 00b0 7B69     		ldr	r3, [r7, #20]
 1438 00b2 1833     		adds	r3, r3, #24
 1439 00b4 1B01     		lsls	r3, r3, #4
 1440 00b6 0B44     		add	r3, r3, r1
 1441 00b8 1A60     		str	r2, [r3]
 1442              	.L73:
1304:Drivers/STM32F4xx_HAL_Driver/Src/stm32f4xx_hal_can.c ****       }
1305:Drivers/STM32F4xx_HAL_Driver/Src/stm32f4xx_hal_can.c **** 
1306:Drivers/STM32F4xx_HAL_Driver/Src/stm32f4xx_hal_can.c ****       /* Set up the DLC */
1307:Drivers/STM32F4xx_HAL_Driver/Src/stm32f4xx_hal_can.c ****       hcan->Instance->sTxMailBox[transmitmailbox].TDTR = (pHeader->DLC);
 1443              		.loc 1 1307 11
 1444 00ba FB68     		ldr	r3, [r7, #12]
 1445 00bc 1968     		ldr	r1, [r3]
 1446              		.loc 1 1307 66
 1447 00be BB68     		ldr	r3, [r7, #8]
 1448 00c0 1A69     		ldr	r2, [r3, #16]
 1449              		.loc 1 1307 56
 1450 00c2 7B69     		ldr	r3, [r7, #20]
 1451 00c4 1833     		adds	r3, r3, #24
 1452 00c6 1B01     		lsls	r3, r3, #4
 1453 00c8 0B44     		add	r3, r3, r1
 1454 00ca 0433     		adds	r3, r3, #4
 1455 00cc 1A60     		str	r2, [r3]
1308:Drivers/STM32F4xx_HAL_Driver/Src/stm32f4xx_hal_can.c **** 
1309:Drivers/STM32F4xx_HAL_Driver/Src/stm32f4xx_hal_can.c ****       /* Set up the Transmit Global Time mode */
1310:Drivers/STM32F4xx_HAL_Driver/Src/stm32f4xx_hal_can.c ****       if (pHeader->TransmitGlobalTime == ENABLE)
 1456              		.loc 1 1310 18
 1457 00ce BB68     		ldr	r3, [r7, #8]
 1458 00d0 1B7D     		ldrb	r3, [r3, #20]	@ zero_extendqisi2
 1459              		.loc 1 1310 10
 1460 00d2 012B     		cmp	r3, #1
 1461 00d4 11D1     		bne	.L74
1311:Drivers/STM32F4xx_HAL_Driver/Src/stm32f4xx_hal_can.c ****       {
1312:Drivers/STM32F4xx_HAL_Driver/Src/stm32f4xx_hal_can.c ****         SET_BIT(hcan->Instance->sTxMailBox[transmitmailbox].TDTR, CAN_TDT0R_TGT);
 1462              		.loc 1 1312 9
 1463 00d6 FB68     		ldr	r3, [r7, #12]
 1464 00d8 1A68     		ldr	r2, [r3]
 1465 00da 7B69     		ldr	r3, [r7, #20]
ARM GAS  /tmp/ccDSCK0d.s 			page 50


 1466 00dc 1833     		adds	r3, r3, #24
 1467 00de 1B01     		lsls	r3, r3, #4
 1468 00e0 1344     		add	r3, r3, r2
 1469 00e2 0433     		adds	r3, r3, #4
 1470 00e4 1B68     		ldr	r3, [r3]
 1471 00e6 FA68     		ldr	r2, [r7, #12]
 1472 00e8 1168     		ldr	r1, [r2]
 1473 00ea 43F48072 		orr	r2, r3, #256
 1474 00ee 7B69     		ldr	r3, [r7, #20]
 1475 00f0 1833     		adds	r3, r3, #24
 1476 00f2 1B01     		lsls	r3, r3, #4
 1477 00f4 0B44     		add	r3, r3, r1
 1478 00f6 0433     		adds	r3, r3, #4
 1479 00f8 1A60     		str	r2, [r3]
 1480              	.L74:
1313:Drivers/STM32F4xx_HAL_Driver/Src/stm32f4xx_hal_can.c ****       }
1314:Drivers/STM32F4xx_HAL_Driver/Src/stm32f4xx_hal_can.c **** 
1315:Drivers/STM32F4xx_HAL_Driver/Src/stm32f4xx_hal_can.c ****       /* Set up the data field */
1316:Drivers/STM32F4xx_HAL_Driver/Src/stm32f4xx_hal_can.c ****       WRITE_REG(hcan->Instance->sTxMailBox[transmitmailbox].TDHR,
 1481              		.loc 1 1316 7
 1482 00fa 7B68     		ldr	r3, [r7, #4]
 1483 00fc 0733     		adds	r3, r3, #7
 1484 00fe 1B78     		ldrb	r3, [r3]	@ zero_extendqisi2
 1485 0100 1A06     		lsls	r2, r3, #24
 1486 0102 7B68     		ldr	r3, [r7, #4]
 1487 0104 0633     		adds	r3, r3, #6
 1488 0106 1B78     		ldrb	r3, [r3]	@ zero_extendqisi2
 1489 0108 1B04     		lsls	r3, r3, #16
 1490 010a 1A43     		orrs	r2, r2, r3
 1491 010c 7B68     		ldr	r3, [r7, #4]
 1492 010e 0533     		adds	r3, r3, #5
 1493 0110 1B78     		ldrb	r3, [r3]	@ zero_extendqisi2
 1494 0112 1B02     		lsls	r3, r3, #8
 1495 0114 1343     		orrs	r3, r3, r2
 1496 0116 7A68     		ldr	r2, [r7, #4]
 1497 0118 0432     		adds	r2, r2, #4
 1498 011a 1278     		ldrb	r2, [r2]	@ zero_extendqisi2
 1499 011c 1046     		mov	r0, r2
 1500 011e FA68     		ldr	r2, [r7, #12]
 1501 0120 1168     		ldr	r1, [r2]
 1502 0122 43EA0002 		orr	r2, r3, r0
 1503 0126 7B69     		ldr	r3, [r7, #20]
 1504 0128 1B01     		lsls	r3, r3, #4
 1505 012a 0B44     		add	r3, r3, r1
 1506 012c 03F5C673 		add	r3, r3, #396
 1507 0130 1A60     		str	r2, [r3]
1317:Drivers/STM32F4xx_HAL_Driver/Src/stm32f4xx_hal_can.c ****                 ((uint32_t)aData[7] << CAN_TDH0R_DATA7_Pos) |
1318:Drivers/STM32F4xx_HAL_Driver/Src/stm32f4xx_hal_can.c ****                 ((uint32_t)aData[6] << CAN_TDH0R_DATA6_Pos) |
1319:Drivers/STM32F4xx_HAL_Driver/Src/stm32f4xx_hal_can.c ****                 ((uint32_t)aData[5] << CAN_TDH0R_DATA5_Pos) |
1320:Drivers/STM32F4xx_HAL_Driver/Src/stm32f4xx_hal_can.c ****                 ((uint32_t)aData[4] << CAN_TDH0R_DATA4_Pos));
1321:Drivers/STM32F4xx_HAL_Driver/Src/stm32f4xx_hal_can.c ****       WRITE_REG(hcan->Instance->sTxMailBox[transmitmailbox].TDLR,
 1508              		.loc 1 1321 7
 1509 0132 7B68     		ldr	r3, [r7, #4]
 1510 0134 0333     		adds	r3, r3, #3
 1511 0136 1B78     		ldrb	r3, [r3]	@ zero_extendqisi2
 1512 0138 1A06     		lsls	r2, r3, #24
 1513 013a 7B68     		ldr	r3, [r7, #4]
ARM GAS  /tmp/ccDSCK0d.s 			page 51


 1514 013c 0233     		adds	r3, r3, #2
 1515 013e 1B78     		ldrb	r3, [r3]	@ zero_extendqisi2
 1516 0140 1B04     		lsls	r3, r3, #16
 1517 0142 1A43     		orrs	r2, r2, r3
 1518 0144 7B68     		ldr	r3, [r7, #4]
 1519 0146 0133     		adds	r3, r3, #1
 1520 0148 1B78     		ldrb	r3, [r3]	@ zero_extendqisi2
 1521 014a 1B02     		lsls	r3, r3, #8
 1522 014c 1343     		orrs	r3, r3, r2
 1523 014e 7A68     		ldr	r2, [r7, #4]
 1524 0150 1278     		ldrb	r2, [r2]	@ zero_extendqisi2
 1525 0152 1046     		mov	r0, r2
 1526 0154 FA68     		ldr	r2, [r7, #12]
 1527 0156 1168     		ldr	r1, [r2]
 1528 0158 43EA0002 		orr	r2, r3, r0
 1529 015c 7B69     		ldr	r3, [r7, #20]
 1530 015e 1B01     		lsls	r3, r3, #4
 1531 0160 0B44     		add	r3, r3, r1
 1532 0162 03F5C473 		add	r3, r3, #392
 1533 0166 1A60     		str	r2, [r3]
1322:Drivers/STM32F4xx_HAL_Driver/Src/stm32f4xx_hal_can.c ****                 ((uint32_t)aData[3] << CAN_TDL0R_DATA3_Pos) |
1323:Drivers/STM32F4xx_HAL_Driver/Src/stm32f4xx_hal_can.c ****                 ((uint32_t)aData[2] << CAN_TDL0R_DATA2_Pos) |
1324:Drivers/STM32F4xx_HAL_Driver/Src/stm32f4xx_hal_can.c ****                 ((uint32_t)aData[1] << CAN_TDL0R_DATA1_Pos) |
1325:Drivers/STM32F4xx_HAL_Driver/Src/stm32f4xx_hal_can.c ****                 ((uint32_t)aData[0] << CAN_TDL0R_DATA0_Pos));
1326:Drivers/STM32F4xx_HAL_Driver/Src/stm32f4xx_hal_can.c **** 
1327:Drivers/STM32F4xx_HAL_Driver/Src/stm32f4xx_hal_can.c ****       /* Request transmission */
1328:Drivers/STM32F4xx_HAL_Driver/Src/stm32f4xx_hal_can.c ****       SET_BIT(hcan->Instance->sTxMailBox[transmitmailbox].TIR, CAN_TI0R_TXRQ);
 1534              		.loc 1 1328 7
 1535 0168 FB68     		ldr	r3, [r7, #12]
 1536 016a 1A68     		ldr	r2, [r3]
 1537 016c 7B69     		ldr	r3, [r7, #20]
 1538 016e 1833     		adds	r3, r3, #24
 1539 0170 1B01     		lsls	r3, r3, #4
 1540 0172 1344     		add	r3, r3, r2
 1541 0174 1B68     		ldr	r3, [r3]
 1542 0176 FA68     		ldr	r2, [r7, #12]
 1543 0178 1168     		ldr	r1, [r2]
 1544 017a 43F00102 		orr	r2, r3, #1
 1545 017e 7B69     		ldr	r3, [r7, #20]
 1546 0180 1833     		adds	r3, r3, #24
 1547 0182 1B01     		lsls	r3, r3, #4
 1548 0184 0B44     		add	r3, r3, r1
 1549 0186 1A60     		str	r2, [r3]
1329:Drivers/STM32F4xx_HAL_Driver/Src/stm32f4xx_hal_can.c **** 
1330:Drivers/STM32F4xx_HAL_Driver/Src/stm32f4xx_hal_can.c ****       /* Return function status */
1331:Drivers/STM32F4xx_HAL_Driver/Src/stm32f4xx_hal_can.c ****       return HAL_OK;
 1550              		.loc 1 1331 14
 1551 0188 0023     		movs	r3, #0
 1552 018a 0EE0     		b	.L71
 1553              	.L69:
1332:Drivers/STM32F4xx_HAL_Driver/Src/stm32f4xx_hal_can.c ****     }
1333:Drivers/STM32F4xx_HAL_Driver/Src/stm32f4xx_hal_can.c ****     else
1334:Drivers/STM32F4xx_HAL_Driver/Src/stm32f4xx_hal_can.c ****     {
1335:Drivers/STM32F4xx_HAL_Driver/Src/stm32f4xx_hal_can.c ****       /* Update error code */
1336:Drivers/STM32F4xx_HAL_Driver/Src/stm32f4xx_hal_can.c ****       hcan->ErrorCode |= HAL_CAN_ERROR_PARAM;
 1554              		.loc 1 1336 23
 1555 018c FB68     		ldr	r3, [r7, #12]
ARM GAS  /tmp/ccDSCK0d.s 			page 52


 1556 018e 5B6A     		ldr	r3, [r3, #36]
 1557 0190 43F40012 		orr	r2, r3, #2097152
 1558 0194 FB68     		ldr	r3, [r7, #12]
 1559 0196 5A62     		str	r2, [r3, #36]
1337:Drivers/STM32F4xx_HAL_Driver/Src/stm32f4xx_hal_can.c **** 
1338:Drivers/STM32F4xx_HAL_Driver/Src/stm32f4xx_hal_can.c ****       return HAL_ERROR;
 1560              		.loc 1 1338 14
 1561 0198 0123     		movs	r3, #1
 1562 019a 06E0     		b	.L71
 1563              	.L67:
1339:Drivers/STM32F4xx_HAL_Driver/Src/stm32f4xx_hal_can.c ****     }
1340:Drivers/STM32F4xx_HAL_Driver/Src/stm32f4xx_hal_can.c ****   }
1341:Drivers/STM32F4xx_HAL_Driver/Src/stm32f4xx_hal_can.c ****   else
1342:Drivers/STM32F4xx_HAL_Driver/Src/stm32f4xx_hal_can.c ****   {
1343:Drivers/STM32F4xx_HAL_Driver/Src/stm32f4xx_hal_can.c ****     /* Update error code */
1344:Drivers/STM32F4xx_HAL_Driver/Src/stm32f4xx_hal_can.c ****     hcan->ErrorCode |= HAL_CAN_ERROR_NOT_INITIALIZED;
 1564              		.loc 1 1344 21
 1565 019c FB68     		ldr	r3, [r7, #12]
 1566 019e 5B6A     		ldr	r3, [r3, #36]
 1567 01a0 43F48022 		orr	r2, r3, #262144
 1568 01a4 FB68     		ldr	r3, [r7, #12]
 1569 01a6 5A62     		str	r2, [r3, #36]
1345:Drivers/STM32F4xx_HAL_Driver/Src/stm32f4xx_hal_can.c **** 
1346:Drivers/STM32F4xx_HAL_Driver/Src/stm32f4xx_hal_can.c ****     return HAL_ERROR;
 1570              		.loc 1 1346 12
 1571 01a8 0123     		movs	r3, #1
 1572              	.L71:
1347:Drivers/STM32F4xx_HAL_Driver/Src/stm32f4xx_hal_can.c ****   }
1348:Drivers/STM32F4xx_HAL_Driver/Src/stm32f4xx_hal_can.c **** }
 1573              		.loc 1 1348 1
 1574 01aa 1846     		mov	r0, r3
 1575 01ac 2437     		adds	r7, r7, #36
 1576              	.LCFI59:
 1577              		.cfi_def_cfa_offset 4
 1578 01ae BD46     		mov	sp, r7
 1579              	.LCFI60:
 1580              		.cfi_def_cfa_register 13
 1581              		@ sp needed
 1582 01b0 5DF8047B 		ldr	r7, [sp], #4
 1583              	.LCFI61:
 1584              		.cfi_restore 7
 1585              		.cfi_def_cfa_offset 0
 1586 01b4 7047     		bx	lr
 1587              		.cfi_endproc
 1588              	.LFE245:
 1590              		.section	.text.HAL_CAN_AbortTxRequest,"ax",%progbits
 1591              		.align	1
 1592              		.global	HAL_CAN_AbortTxRequest
 1593              		.syntax unified
 1594              		.thumb
 1595              		.thumb_func
 1597              	HAL_CAN_AbortTxRequest:
 1598              	.LFB246:
1349:Drivers/STM32F4xx_HAL_Driver/Src/stm32f4xx_hal_can.c **** 
1350:Drivers/STM32F4xx_HAL_Driver/Src/stm32f4xx_hal_can.c **** /**
1351:Drivers/STM32F4xx_HAL_Driver/Src/stm32f4xx_hal_can.c ****   * @brief  Abort transmission requests
1352:Drivers/STM32F4xx_HAL_Driver/Src/stm32f4xx_hal_can.c ****   * @param  hcan pointer to an CAN_HandleTypeDef structure that contains
ARM GAS  /tmp/ccDSCK0d.s 			page 53


1353:Drivers/STM32F4xx_HAL_Driver/Src/stm32f4xx_hal_can.c ****   *         the configuration information for the specified CAN.
1354:Drivers/STM32F4xx_HAL_Driver/Src/stm32f4xx_hal_can.c ****   * @param  TxMailboxes List of the Tx Mailboxes to abort.
1355:Drivers/STM32F4xx_HAL_Driver/Src/stm32f4xx_hal_can.c ****   *         This parameter can be any combination of @arg CAN_Tx_Mailboxes.
1356:Drivers/STM32F4xx_HAL_Driver/Src/stm32f4xx_hal_can.c ****   * @retval HAL status
1357:Drivers/STM32F4xx_HAL_Driver/Src/stm32f4xx_hal_can.c ****   */
1358:Drivers/STM32F4xx_HAL_Driver/Src/stm32f4xx_hal_can.c **** HAL_StatusTypeDef HAL_CAN_AbortTxRequest(CAN_HandleTypeDef *hcan, uint32_t TxMailboxes)
1359:Drivers/STM32F4xx_HAL_Driver/Src/stm32f4xx_hal_can.c **** {
 1599              		.loc 1 1359 1
 1600              		.cfi_startproc
 1601              		@ args = 0, pretend = 0, frame = 16
 1602              		@ frame_needed = 1, uses_anonymous_args = 0
 1603              		@ link register save eliminated.
 1604 0000 80B4     		push	{r7}
 1605              	.LCFI62:
 1606              		.cfi_def_cfa_offset 4
 1607              		.cfi_offset 7, -4
 1608 0002 85B0     		sub	sp, sp, #20
 1609              	.LCFI63:
 1610              		.cfi_def_cfa_offset 24
 1611 0004 00AF     		add	r7, sp, #0
 1612              	.LCFI64:
 1613              		.cfi_def_cfa_register 7
 1614 0006 7860     		str	r0, [r7, #4]
 1615 0008 3960     		str	r1, [r7]
1360:Drivers/STM32F4xx_HAL_Driver/Src/stm32f4xx_hal_can.c ****   HAL_CAN_StateTypeDef state = hcan->State;
 1616              		.loc 1 1360 24
 1617 000a 7B68     		ldr	r3, [r7, #4]
 1618 000c 93F82030 		ldrb	r3, [r3, #32]
 1619 0010 FB73     		strb	r3, [r7, #15]
1361:Drivers/STM32F4xx_HAL_Driver/Src/stm32f4xx_hal_can.c **** 
1362:Drivers/STM32F4xx_HAL_Driver/Src/stm32f4xx_hal_can.c ****   /* Check function parameters */
1363:Drivers/STM32F4xx_HAL_Driver/Src/stm32f4xx_hal_can.c ****   assert_param(IS_CAN_TX_MAILBOX_LIST(TxMailboxes));
1364:Drivers/STM32F4xx_HAL_Driver/Src/stm32f4xx_hal_can.c **** 
1365:Drivers/STM32F4xx_HAL_Driver/Src/stm32f4xx_hal_can.c ****   if ((state == HAL_CAN_STATE_READY) ||
 1620              		.loc 1 1365 6
 1621 0012 FB7B     		ldrb	r3, [r7, #15]	@ zero_extendqisi2
 1622 0014 012B     		cmp	r3, #1
 1623 0016 02D0     		beq	.L76
 1624              		.loc 1 1365 38 discriminator 1
 1625 0018 FB7B     		ldrb	r3, [r7, #15]	@ zero_extendqisi2
 1626 001a 022B     		cmp	r3, #2
 1627 001c 28D1     		bne	.L77
 1628              	.L76:
1366:Drivers/STM32F4xx_HAL_Driver/Src/stm32f4xx_hal_can.c ****       (state == HAL_CAN_STATE_LISTENING))
1367:Drivers/STM32F4xx_HAL_Driver/Src/stm32f4xx_hal_can.c ****   {
1368:Drivers/STM32F4xx_HAL_Driver/Src/stm32f4xx_hal_can.c ****     /* Check Tx Mailbox 0 */
1369:Drivers/STM32F4xx_HAL_Driver/Src/stm32f4xx_hal_can.c ****     if ((TxMailboxes & CAN_TX_MAILBOX0) != 0U)
 1629              		.loc 1 1369 22
 1630 001e 3B68     		ldr	r3, [r7]
 1631 0020 03F00103 		and	r3, r3, #1
 1632              		.loc 1 1369 8
 1633 0024 002B     		cmp	r3, #0
 1634 0026 07D0     		beq	.L78
1370:Drivers/STM32F4xx_HAL_Driver/Src/stm32f4xx_hal_can.c ****     {
1371:Drivers/STM32F4xx_HAL_Driver/Src/stm32f4xx_hal_can.c ****       /* Add cancellation request for Tx Mailbox 0 */
1372:Drivers/STM32F4xx_HAL_Driver/Src/stm32f4xx_hal_can.c ****       SET_BIT(hcan->Instance->TSR, CAN_TSR_ABRQ0);
 1635              		.loc 1 1372 7
ARM GAS  /tmp/ccDSCK0d.s 			page 54


 1636 0028 7B68     		ldr	r3, [r7, #4]
 1637 002a 1B68     		ldr	r3, [r3]
 1638 002c 9A68     		ldr	r2, [r3, #8]
 1639 002e 7B68     		ldr	r3, [r7, #4]
 1640 0030 1B68     		ldr	r3, [r3]
 1641 0032 42F08002 		orr	r2, r2, #128
 1642 0036 9A60     		str	r2, [r3, #8]
 1643              	.L78:
1373:Drivers/STM32F4xx_HAL_Driver/Src/stm32f4xx_hal_can.c ****     }
1374:Drivers/STM32F4xx_HAL_Driver/Src/stm32f4xx_hal_can.c **** 
1375:Drivers/STM32F4xx_HAL_Driver/Src/stm32f4xx_hal_can.c ****     /* Check Tx Mailbox 1 */
1376:Drivers/STM32F4xx_HAL_Driver/Src/stm32f4xx_hal_can.c ****     if ((TxMailboxes & CAN_TX_MAILBOX1) != 0U)
 1644              		.loc 1 1376 22
 1645 0038 3B68     		ldr	r3, [r7]
 1646 003a 03F00203 		and	r3, r3, #2
 1647              		.loc 1 1376 8
 1648 003e 002B     		cmp	r3, #0
 1649 0040 07D0     		beq	.L79
1377:Drivers/STM32F4xx_HAL_Driver/Src/stm32f4xx_hal_can.c ****     {
1378:Drivers/STM32F4xx_HAL_Driver/Src/stm32f4xx_hal_can.c ****       /* Add cancellation request for Tx Mailbox 1 */
1379:Drivers/STM32F4xx_HAL_Driver/Src/stm32f4xx_hal_can.c ****       SET_BIT(hcan->Instance->TSR, CAN_TSR_ABRQ1);
 1650              		.loc 1 1379 7
 1651 0042 7B68     		ldr	r3, [r7, #4]
 1652 0044 1B68     		ldr	r3, [r3]
 1653 0046 9A68     		ldr	r2, [r3, #8]
 1654 0048 7B68     		ldr	r3, [r7, #4]
 1655 004a 1B68     		ldr	r3, [r3]
 1656 004c 42F40042 		orr	r2, r2, #32768
 1657 0050 9A60     		str	r2, [r3, #8]
 1658              	.L79:
1380:Drivers/STM32F4xx_HAL_Driver/Src/stm32f4xx_hal_can.c ****     }
1381:Drivers/STM32F4xx_HAL_Driver/Src/stm32f4xx_hal_can.c **** 
1382:Drivers/STM32F4xx_HAL_Driver/Src/stm32f4xx_hal_can.c ****     /* Check Tx Mailbox 2 */
1383:Drivers/STM32F4xx_HAL_Driver/Src/stm32f4xx_hal_can.c ****     if ((TxMailboxes & CAN_TX_MAILBOX2) != 0U)
 1659              		.loc 1 1383 22
 1660 0052 3B68     		ldr	r3, [r7]
 1661 0054 03F00403 		and	r3, r3, #4
 1662              		.loc 1 1383 8
 1663 0058 002B     		cmp	r3, #0
 1664 005a 07D0     		beq	.L80
1384:Drivers/STM32F4xx_HAL_Driver/Src/stm32f4xx_hal_can.c ****     {
1385:Drivers/STM32F4xx_HAL_Driver/Src/stm32f4xx_hal_can.c ****       /* Add cancellation request for Tx Mailbox 2 */
1386:Drivers/STM32F4xx_HAL_Driver/Src/stm32f4xx_hal_can.c ****       SET_BIT(hcan->Instance->TSR, CAN_TSR_ABRQ2);
 1665              		.loc 1 1386 7
 1666 005c 7B68     		ldr	r3, [r7, #4]
 1667 005e 1B68     		ldr	r3, [r3]
 1668 0060 9A68     		ldr	r2, [r3, #8]
 1669 0062 7B68     		ldr	r3, [r7, #4]
 1670 0064 1B68     		ldr	r3, [r3]
 1671 0066 42F40002 		orr	r2, r2, #8388608
 1672 006a 9A60     		str	r2, [r3, #8]
 1673              	.L80:
1387:Drivers/STM32F4xx_HAL_Driver/Src/stm32f4xx_hal_can.c ****     }
1388:Drivers/STM32F4xx_HAL_Driver/Src/stm32f4xx_hal_can.c **** 
1389:Drivers/STM32F4xx_HAL_Driver/Src/stm32f4xx_hal_can.c ****     /* Return function status */
1390:Drivers/STM32F4xx_HAL_Driver/Src/stm32f4xx_hal_can.c ****     return HAL_OK;
 1674              		.loc 1 1390 12
ARM GAS  /tmp/ccDSCK0d.s 			page 55


 1675 006c 0023     		movs	r3, #0
 1676 006e 06E0     		b	.L81
 1677              	.L77:
1391:Drivers/STM32F4xx_HAL_Driver/Src/stm32f4xx_hal_can.c ****   }
1392:Drivers/STM32F4xx_HAL_Driver/Src/stm32f4xx_hal_can.c ****   else
1393:Drivers/STM32F4xx_HAL_Driver/Src/stm32f4xx_hal_can.c ****   {
1394:Drivers/STM32F4xx_HAL_Driver/Src/stm32f4xx_hal_can.c ****     /* Update error code */
1395:Drivers/STM32F4xx_HAL_Driver/Src/stm32f4xx_hal_can.c ****     hcan->ErrorCode |= HAL_CAN_ERROR_NOT_INITIALIZED;
 1678              		.loc 1 1395 21
 1679 0070 7B68     		ldr	r3, [r7, #4]
 1680 0072 5B6A     		ldr	r3, [r3, #36]
 1681 0074 43F48022 		orr	r2, r3, #262144
 1682 0078 7B68     		ldr	r3, [r7, #4]
 1683 007a 5A62     		str	r2, [r3, #36]
1396:Drivers/STM32F4xx_HAL_Driver/Src/stm32f4xx_hal_can.c **** 
1397:Drivers/STM32F4xx_HAL_Driver/Src/stm32f4xx_hal_can.c ****     return HAL_ERROR;
 1684              		.loc 1 1397 12
 1685 007c 0123     		movs	r3, #1
 1686              	.L81:
1398:Drivers/STM32F4xx_HAL_Driver/Src/stm32f4xx_hal_can.c ****   }
1399:Drivers/STM32F4xx_HAL_Driver/Src/stm32f4xx_hal_can.c **** }
 1687              		.loc 1 1399 1
 1688 007e 1846     		mov	r0, r3
 1689 0080 1437     		adds	r7, r7, #20
 1690              	.LCFI65:
 1691              		.cfi_def_cfa_offset 4
 1692 0082 BD46     		mov	sp, r7
 1693              	.LCFI66:
 1694              		.cfi_def_cfa_register 13
 1695              		@ sp needed
 1696 0084 5DF8047B 		ldr	r7, [sp], #4
 1697              	.LCFI67:
 1698              		.cfi_restore 7
 1699              		.cfi_def_cfa_offset 0
 1700 0088 7047     		bx	lr
 1701              		.cfi_endproc
 1702              	.LFE246:
 1704              		.section	.text.HAL_CAN_GetTxMailboxesFreeLevel,"ax",%progbits
 1705              		.align	1
 1706              		.global	HAL_CAN_GetTxMailboxesFreeLevel
 1707              		.syntax unified
 1708              		.thumb
 1709              		.thumb_func
 1711              	HAL_CAN_GetTxMailboxesFreeLevel:
 1712              	.LFB247:
1400:Drivers/STM32F4xx_HAL_Driver/Src/stm32f4xx_hal_can.c **** 
1401:Drivers/STM32F4xx_HAL_Driver/Src/stm32f4xx_hal_can.c **** /**
1402:Drivers/STM32F4xx_HAL_Driver/Src/stm32f4xx_hal_can.c ****   * @brief  Return Tx Mailboxes free level: number of free Tx Mailboxes.
1403:Drivers/STM32F4xx_HAL_Driver/Src/stm32f4xx_hal_can.c ****   * @param  hcan pointer to a CAN_HandleTypeDef structure that contains
1404:Drivers/STM32F4xx_HAL_Driver/Src/stm32f4xx_hal_can.c ****   *         the configuration information for the specified CAN.
1405:Drivers/STM32F4xx_HAL_Driver/Src/stm32f4xx_hal_can.c ****   * @retval Number of free Tx Mailboxes.
1406:Drivers/STM32F4xx_HAL_Driver/Src/stm32f4xx_hal_can.c ****   */
1407:Drivers/STM32F4xx_HAL_Driver/Src/stm32f4xx_hal_can.c **** uint32_t HAL_CAN_GetTxMailboxesFreeLevel(CAN_HandleTypeDef *hcan)
1408:Drivers/STM32F4xx_HAL_Driver/Src/stm32f4xx_hal_can.c **** {
 1713              		.loc 1 1408 1
 1714              		.cfi_startproc
 1715              		@ args = 0, pretend = 0, frame = 16
ARM GAS  /tmp/ccDSCK0d.s 			page 56


 1716              		@ frame_needed = 1, uses_anonymous_args = 0
 1717              		@ link register save eliminated.
 1718 0000 80B4     		push	{r7}
 1719              	.LCFI68:
 1720              		.cfi_def_cfa_offset 4
 1721              		.cfi_offset 7, -4
 1722 0002 85B0     		sub	sp, sp, #20
 1723              	.LCFI69:
 1724              		.cfi_def_cfa_offset 24
 1725 0004 00AF     		add	r7, sp, #0
 1726              	.LCFI70:
 1727              		.cfi_def_cfa_register 7
 1728 0006 7860     		str	r0, [r7, #4]
1409:Drivers/STM32F4xx_HAL_Driver/Src/stm32f4xx_hal_can.c ****   uint32_t freelevel = 0U;
 1729              		.loc 1 1409 12
 1730 0008 0023     		movs	r3, #0
 1731 000a FB60     		str	r3, [r7, #12]
1410:Drivers/STM32F4xx_HAL_Driver/Src/stm32f4xx_hal_can.c ****   HAL_CAN_StateTypeDef state = hcan->State;
 1732              		.loc 1 1410 24
 1733 000c 7B68     		ldr	r3, [r7, #4]
 1734 000e 93F82030 		ldrb	r3, [r3, #32]
 1735 0012 FB72     		strb	r3, [r7, #11]
1411:Drivers/STM32F4xx_HAL_Driver/Src/stm32f4xx_hal_can.c **** 
1412:Drivers/STM32F4xx_HAL_Driver/Src/stm32f4xx_hal_can.c ****   if ((state == HAL_CAN_STATE_READY) ||
 1736              		.loc 1 1412 6
 1737 0014 FB7A     		ldrb	r3, [r7, #11]	@ zero_extendqisi2
 1738 0016 012B     		cmp	r3, #1
 1739 0018 02D0     		beq	.L83
 1740              		.loc 1 1412 38 discriminator 1
 1741 001a FB7A     		ldrb	r3, [r7, #11]	@ zero_extendqisi2
 1742 001c 022B     		cmp	r3, #2
 1743 001e 1DD1     		bne	.L84
 1744              	.L83:
1413:Drivers/STM32F4xx_HAL_Driver/Src/stm32f4xx_hal_can.c ****       (state == HAL_CAN_STATE_LISTENING))
1414:Drivers/STM32F4xx_HAL_Driver/Src/stm32f4xx_hal_can.c ****   {
1415:Drivers/STM32F4xx_HAL_Driver/Src/stm32f4xx_hal_can.c ****     /* Check Tx Mailbox 0 status */
1416:Drivers/STM32F4xx_HAL_Driver/Src/stm32f4xx_hal_can.c ****     if ((hcan->Instance->TSR & CAN_TSR_TME0) != 0U)
 1745              		.loc 1 1416 14
 1746 0020 7B68     		ldr	r3, [r7, #4]
 1747 0022 1B68     		ldr	r3, [r3]
 1748              		.loc 1 1416 24
 1749 0024 9B68     		ldr	r3, [r3, #8]
 1750              		.loc 1 1416 30
 1751 0026 03F08063 		and	r3, r3, #67108864
 1752              		.loc 1 1416 8
 1753 002a 002B     		cmp	r3, #0
 1754 002c 02D0     		beq	.L85
1417:Drivers/STM32F4xx_HAL_Driver/Src/stm32f4xx_hal_can.c ****     {
1418:Drivers/STM32F4xx_HAL_Driver/Src/stm32f4xx_hal_can.c ****       freelevel++;
 1755              		.loc 1 1418 16
 1756 002e FB68     		ldr	r3, [r7, #12]
 1757 0030 0133     		adds	r3, r3, #1
 1758 0032 FB60     		str	r3, [r7, #12]
 1759              	.L85:
1419:Drivers/STM32F4xx_HAL_Driver/Src/stm32f4xx_hal_can.c ****     }
1420:Drivers/STM32F4xx_HAL_Driver/Src/stm32f4xx_hal_can.c **** 
1421:Drivers/STM32F4xx_HAL_Driver/Src/stm32f4xx_hal_can.c ****     /* Check Tx Mailbox 1 status */
ARM GAS  /tmp/ccDSCK0d.s 			page 57


1422:Drivers/STM32F4xx_HAL_Driver/Src/stm32f4xx_hal_can.c ****     if ((hcan->Instance->TSR & CAN_TSR_TME1) != 0U)
 1760              		.loc 1 1422 14
 1761 0034 7B68     		ldr	r3, [r7, #4]
 1762 0036 1B68     		ldr	r3, [r3]
 1763              		.loc 1 1422 24
 1764 0038 9B68     		ldr	r3, [r3, #8]
 1765              		.loc 1 1422 30
 1766 003a 03F00063 		and	r3, r3, #134217728
 1767              		.loc 1 1422 8
 1768 003e 002B     		cmp	r3, #0
 1769 0040 02D0     		beq	.L86
1423:Drivers/STM32F4xx_HAL_Driver/Src/stm32f4xx_hal_can.c ****     {
1424:Drivers/STM32F4xx_HAL_Driver/Src/stm32f4xx_hal_can.c ****       freelevel++;
 1770              		.loc 1 1424 16
 1771 0042 FB68     		ldr	r3, [r7, #12]
 1772 0044 0133     		adds	r3, r3, #1
 1773 0046 FB60     		str	r3, [r7, #12]
 1774              	.L86:
1425:Drivers/STM32F4xx_HAL_Driver/Src/stm32f4xx_hal_can.c ****     }
1426:Drivers/STM32F4xx_HAL_Driver/Src/stm32f4xx_hal_can.c **** 
1427:Drivers/STM32F4xx_HAL_Driver/Src/stm32f4xx_hal_can.c ****     /* Check Tx Mailbox 2 status */
1428:Drivers/STM32F4xx_HAL_Driver/Src/stm32f4xx_hal_can.c ****     if ((hcan->Instance->TSR & CAN_TSR_TME2) != 0U)
 1775              		.loc 1 1428 14
 1776 0048 7B68     		ldr	r3, [r7, #4]
 1777 004a 1B68     		ldr	r3, [r3]
 1778              		.loc 1 1428 24
 1779 004c 9B68     		ldr	r3, [r3, #8]
 1780              		.loc 1 1428 30
 1781 004e 03F08053 		and	r3, r3, #268435456
 1782              		.loc 1 1428 8
 1783 0052 002B     		cmp	r3, #0
 1784 0054 02D0     		beq	.L84
1429:Drivers/STM32F4xx_HAL_Driver/Src/stm32f4xx_hal_can.c ****     {
1430:Drivers/STM32F4xx_HAL_Driver/Src/stm32f4xx_hal_can.c ****       freelevel++;
 1785              		.loc 1 1430 16
 1786 0056 FB68     		ldr	r3, [r7, #12]
 1787 0058 0133     		adds	r3, r3, #1
 1788 005a FB60     		str	r3, [r7, #12]
 1789              	.L84:
1431:Drivers/STM32F4xx_HAL_Driver/Src/stm32f4xx_hal_can.c ****     }
1432:Drivers/STM32F4xx_HAL_Driver/Src/stm32f4xx_hal_can.c ****   }
1433:Drivers/STM32F4xx_HAL_Driver/Src/stm32f4xx_hal_can.c **** 
1434:Drivers/STM32F4xx_HAL_Driver/Src/stm32f4xx_hal_can.c ****   /* Return Tx Mailboxes free level */
1435:Drivers/STM32F4xx_HAL_Driver/Src/stm32f4xx_hal_can.c ****   return freelevel;
 1790              		.loc 1 1435 10
 1791 005c FB68     		ldr	r3, [r7, #12]
1436:Drivers/STM32F4xx_HAL_Driver/Src/stm32f4xx_hal_can.c **** }
 1792              		.loc 1 1436 1
 1793 005e 1846     		mov	r0, r3
 1794 0060 1437     		adds	r7, r7, #20
 1795              	.LCFI71:
 1796              		.cfi_def_cfa_offset 4
 1797 0062 BD46     		mov	sp, r7
 1798              	.LCFI72:
 1799              		.cfi_def_cfa_register 13
 1800              		@ sp needed
 1801 0064 5DF8047B 		ldr	r7, [sp], #4
ARM GAS  /tmp/ccDSCK0d.s 			page 58


 1802              	.LCFI73:
 1803              		.cfi_restore 7
 1804              		.cfi_def_cfa_offset 0
 1805 0068 7047     		bx	lr
 1806              		.cfi_endproc
 1807              	.LFE247:
 1809              		.section	.text.HAL_CAN_IsTxMessagePending,"ax",%progbits
 1810              		.align	1
 1811              		.global	HAL_CAN_IsTxMessagePending
 1812              		.syntax unified
 1813              		.thumb
 1814              		.thumb_func
 1816              	HAL_CAN_IsTxMessagePending:
 1817              	.LFB248:
1437:Drivers/STM32F4xx_HAL_Driver/Src/stm32f4xx_hal_can.c **** 
1438:Drivers/STM32F4xx_HAL_Driver/Src/stm32f4xx_hal_can.c **** /**
1439:Drivers/STM32F4xx_HAL_Driver/Src/stm32f4xx_hal_can.c ****   * @brief  Check if a transmission request is pending on the selected Tx
1440:Drivers/STM32F4xx_HAL_Driver/Src/stm32f4xx_hal_can.c ****   *         Mailboxes.
1441:Drivers/STM32F4xx_HAL_Driver/Src/stm32f4xx_hal_can.c ****   * @param  hcan pointer to an CAN_HandleTypeDef structure that contains
1442:Drivers/STM32F4xx_HAL_Driver/Src/stm32f4xx_hal_can.c ****   *         the configuration information for the specified CAN.
1443:Drivers/STM32F4xx_HAL_Driver/Src/stm32f4xx_hal_can.c ****   * @param  TxMailboxes List of Tx Mailboxes to check.
1444:Drivers/STM32F4xx_HAL_Driver/Src/stm32f4xx_hal_can.c ****   *         This parameter can be any combination of @arg CAN_Tx_Mailboxes.
1445:Drivers/STM32F4xx_HAL_Driver/Src/stm32f4xx_hal_can.c ****   * @retval Status
1446:Drivers/STM32F4xx_HAL_Driver/Src/stm32f4xx_hal_can.c ****   *          - 0 : No pending transmission request on any selected Tx Mailboxes.
1447:Drivers/STM32F4xx_HAL_Driver/Src/stm32f4xx_hal_can.c ****   *          - 1 : Pending transmission request on at least one of the selected
1448:Drivers/STM32F4xx_HAL_Driver/Src/stm32f4xx_hal_can.c ****   *                Tx Mailbox.
1449:Drivers/STM32F4xx_HAL_Driver/Src/stm32f4xx_hal_can.c ****   */
1450:Drivers/STM32F4xx_HAL_Driver/Src/stm32f4xx_hal_can.c **** uint32_t HAL_CAN_IsTxMessagePending(CAN_HandleTypeDef *hcan, uint32_t TxMailboxes)
1451:Drivers/STM32F4xx_HAL_Driver/Src/stm32f4xx_hal_can.c **** {
 1818              		.loc 1 1451 1
 1819              		.cfi_startproc
 1820              		@ args = 0, pretend = 0, frame = 16
 1821              		@ frame_needed = 1, uses_anonymous_args = 0
 1822              		@ link register save eliminated.
 1823 0000 80B4     		push	{r7}
 1824              	.LCFI74:
 1825              		.cfi_def_cfa_offset 4
 1826              		.cfi_offset 7, -4
 1827 0002 85B0     		sub	sp, sp, #20
 1828              	.LCFI75:
 1829              		.cfi_def_cfa_offset 24
 1830 0004 00AF     		add	r7, sp, #0
 1831              	.LCFI76:
 1832              		.cfi_def_cfa_register 7
 1833 0006 7860     		str	r0, [r7, #4]
 1834 0008 3960     		str	r1, [r7]
1452:Drivers/STM32F4xx_HAL_Driver/Src/stm32f4xx_hal_can.c ****   uint32_t status = 0U;
 1835              		.loc 1 1452 12
 1836 000a 0023     		movs	r3, #0
 1837 000c FB60     		str	r3, [r7, #12]
1453:Drivers/STM32F4xx_HAL_Driver/Src/stm32f4xx_hal_can.c ****   HAL_CAN_StateTypeDef state = hcan->State;
 1838              		.loc 1 1453 24
 1839 000e 7B68     		ldr	r3, [r7, #4]
 1840 0010 93F82030 		ldrb	r3, [r3, #32]
 1841 0014 FB72     		strb	r3, [r7, #11]
1454:Drivers/STM32F4xx_HAL_Driver/Src/stm32f4xx_hal_can.c **** 
1455:Drivers/STM32F4xx_HAL_Driver/Src/stm32f4xx_hal_can.c ****   /* Check function parameters */
ARM GAS  /tmp/ccDSCK0d.s 			page 59


1456:Drivers/STM32F4xx_HAL_Driver/Src/stm32f4xx_hal_can.c ****   assert_param(IS_CAN_TX_MAILBOX_LIST(TxMailboxes));
1457:Drivers/STM32F4xx_HAL_Driver/Src/stm32f4xx_hal_can.c **** 
1458:Drivers/STM32F4xx_HAL_Driver/Src/stm32f4xx_hal_can.c ****   if ((state == HAL_CAN_STATE_READY) ||
 1842              		.loc 1 1458 6
 1843 0016 FB7A     		ldrb	r3, [r7, #11]	@ zero_extendqisi2
 1844 0018 012B     		cmp	r3, #1
 1845 001a 02D0     		beq	.L89
 1846              		.loc 1 1458 38 discriminator 1
 1847 001c FB7A     		ldrb	r3, [r7, #11]	@ zero_extendqisi2
 1848 001e 022B     		cmp	r3, #2
 1849 0020 0BD1     		bne	.L90
 1850              	.L89:
1459:Drivers/STM32F4xx_HAL_Driver/Src/stm32f4xx_hal_can.c ****       (state == HAL_CAN_STATE_LISTENING))
1460:Drivers/STM32F4xx_HAL_Driver/Src/stm32f4xx_hal_can.c ****   {
1461:Drivers/STM32F4xx_HAL_Driver/Src/stm32f4xx_hal_can.c ****     /* Check pending transmission request on the selected Tx Mailboxes */
1462:Drivers/STM32F4xx_HAL_Driver/Src/stm32f4xx_hal_can.c ****     if ((hcan->Instance->TSR & (TxMailboxes << CAN_TSR_TME0_Pos)) != (TxMailboxes << CAN_TSR_TME0_P
 1851              		.loc 1 1462 14
 1852 0022 7B68     		ldr	r3, [r7, #4]
 1853 0024 1B68     		ldr	r3, [r3]
 1854              		.loc 1 1462 24
 1855 0026 9A68     		ldr	r2, [r3, #8]
 1856              		.loc 1 1462 45
 1857 0028 3B68     		ldr	r3, [r7]
 1858 002a 9B06     		lsls	r3, r3, #26
 1859              		.loc 1 1462 30
 1860 002c 1A40     		ands	r2, r2, r3
 1861              		.loc 1 1462 83
 1862 002e 3B68     		ldr	r3, [r7]
 1863 0030 9B06     		lsls	r3, r3, #26
 1864              		.loc 1 1462 8
 1865 0032 9A42     		cmp	r2, r3
 1866 0034 01D0     		beq	.L90
1463:Drivers/STM32F4xx_HAL_Driver/Src/stm32f4xx_hal_can.c ****     {
1464:Drivers/STM32F4xx_HAL_Driver/Src/stm32f4xx_hal_can.c ****       status = 1U;
 1867              		.loc 1 1464 14
 1868 0036 0123     		movs	r3, #1
 1869 0038 FB60     		str	r3, [r7, #12]
 1870              	.L90:
1465:Drivers/STM32F4xx_HAL_Driver/Src/stm32f4xx_hal_can.c ****     }
1466:Drivers/STM32F4xx_HAL_Driver/Src/stm32f4xx_hal_can.c ****   }
1467:Drivers/STM32F4xx_HAL_Driver/Src/stm32f4xx_hal_can.c **** 
1468:Drivers/STM32F4xx_HAL_Driver/Src/stm32f4xx_hal_can.c ****   /* Return status */
1469:Drivers/STM32F4xx_HAL_Driver/Src/stm32f4xx_hal_can.c ****   return status;
 1871              		.loc 1 1469 10
 1872 003a FB68     		ldr	r3, [r7, #12]
1470:Drivers/STM32F4xx_HAL_Driver/Src/stm32f4xx_hal_can.c **** }
 1873              		.loc 1 1470 1
 1874 003c 1846     		mov	r0, r3
 1875 003e 1437     		adds	r7, r7, #20
 1876              	.LCFI77:
 1877              		.cfi_def_cfa_offset 4
 1878 0040 BD46     		mov	sp, r7
 1879              	.LCFI78:
 1880              		.cfi_def_cfa_register 13
 1881              		@ sp needed
 1882 0042 5DF8047B 		ldr	r7, [sp], #4
 1883              	.LCFI79:
ARM GAS  /tmp/ccDSCK0d.s 			page 60


 1884              		.cfi_restore 7
 1885              		.cfi_def_cfa_offset 0
 1886 0046 7047     		bx	lr
 1887              		.cfi_endproc
 1888              	.LFE248:
 1890              		.section	.text.HAL_CAN_GetTxTimestamp,"ax",%progbits
 1891              		.align	1
 1892              		.global	HAL_CAN_GetTxTimestamp
 1893              		.syntax unified
 1894              		.thumb
 1895              		.thumb_func
 1897              	HAL_CAN_GetTxTimestamp:
 1898              	.LFB249:
1471:Drivers/STM32F4xx_HAL_Driver/Src/stm32f4xx_hal_can.c **** 
1472:Drivers/STM32F4xx_HAL_Driver/Src/stm32f4xx_hal_can.c **** /**
1473:Drivers/STM32F4xx_HAL_Driver/Src/stm32f4xx_hal_can.c ****   * @brief  Return timestamp of Tx message sent, if time triggered communication
1474:Drivers/STM32F4xx_HAL_Driver/Src/stm32f4xx_hal_can.c ****             mode is enabled.
1475:Drivers/STM32F4xx_HAL_Driver/Src/stm32f4xx_hal_can.c ****   * @param  hcan pointer to a CAN_HandleTypeDef structure that contains
1476:Drivers/STM32F4xx_HAL_Driver/Src/stm32f4xx_hal_can.c ****   *         the configuration information for the specified CAN.
1477:Drivers/STM32F4xx_HAL_Driver/Src/stm32f4xx_hal_can.c ****   * @param  TxMailbox Tx Mailbox where the timestamp of message sent will be
1478:Drivers/STM32F4xx_HAL_Driver/Src/stm32f4xx_hal_can.c ****   *         read.
1479:Drivers/STM32F4xx_HAL_Driver/Src/stm32f4xx_hal_can.c ****   *         This parameter can be one value of @arg CAN_Tx_Mailboxes.
1480:Drivers/STM32F4xx_HAL_Driver/Src/stm32f4xx_hal_can.c ****   * @retval Timestamp of message sent from Tx Mailbox.
1481:Drivers/STM32F4xx_HAL_Driver/Src/stm32f4xx_hal_can.c ****   */
1482:Drivers/STM32F4xx_HAL_Driver/Src/stm32f4xx_hal_can.c **** uint32_t HAL_CAN_GetTxTimestamp(CAN_HandleTypeDef *hcan, uint32_t TxMailbox)
1483:Drivers/STM32F4xx_HAL_Driver/Src/stm32f4xx_hal_can.c **** {
 1899              		.loc 1 1483 1
 1900              		.cfi_startproc
 1901              		@ args = 0, pretend = 0, frame = 32
 1902              		@ frame_needed = 1, uses_anonymous_args = 0
 1903              		@ link register save eliminated.
 1904 0000 80B4     		push	{r7}
 1905              	.LCFI80:
 1906              		.cfi_def_cfa_offset 4
 1907              		.cfi_offset 7, -4
 1908 0002 89B0     		sub	sp, sp, #36
 1909              	.LCFI81:
 1910              		.cfi_def_cfa_offset 40
 1911 0004 00AF     		add	r7, sp, #0
 1912              	.LCFI82:
 1913              		.cfi_def_cfa_register 7
 1914 0006 7860     		str	r0, [r7, #4]
 1915 0008 3960     		str	r1, [r7]
1484:Drivers/STM32F4xx_HAL_Driver/Src/stm32f4xx_hal_can.c ****   uint32_t timestamp = 0U;
 1916              		.loc 1 1484 12
 1917 000a 0023     		movs	r3, #0
 1918 000c FB61     		str	r3, [r7, #28]
1485:Drivers/STM32F4xx_HAL_Driver/Src/stm32f4xx_hal_can.c ****   uint32_t transmitmailbox;
1486:Drivers/STM32F4xx_HAL_Driver/Src/stm32f4xx_hal_can.c ****   HAL_CAN_StateTypeDef state = hcan->State;
 1919              		.loc 1 1486 24
 1920 000e 7B68     		ldr	r3, [r7, #4]
 1921 0010 93F82030 		ldrb	r3, [r3, #32]
 1922 0014 FB76     		strb	r3, [r7, #27]
1487:Drivers/STM32F4xx_HAL_Driver/Src/stm32f4xx_hal_can.c **** 
1488:Drivers/STM32F4xx_HAL_Driver/Src/stm32f4xx_hal_can.c ****   /* Check function parameters */
1489:Drivers/STM32F4xx_HAL_Driver/Src/stm32f4xx_hal_can.c ****   assert_param(IS_CAN_TX_MAILBOX(TxMailbox));
1490:Drivers/STM32F4xx_HAL_Driver/Src/stm32f4xx_hal_can.c **** 
ARM GAS  /tmp/ccDSCK0d.s 			page 61


1491:Drivers/STM32F4xx_HAL_Driver/Src/stm32f4xx_hal_can.c ****   if ((state == HAL_CAN_STATE_READY) ||
 1923              		.loc 1 1491 6
 1924 0016 FB7E     		ldrb	r3, [r7, #27]	@ zero_extendqisi2
 1925 0018 012B     		cmp	r3, #1
 1926 001a 02D0     		beq	.L93
 1927              		.loc 1 1491 38 discriminator 1
 1928 001c FB7E     		ldrb	r3, [r7, #27]	@ zero_extendqisi2
 1929 001e 022B     		cmp	r3, #2
 1930 0020 15D1     		bne	.L94
 1931              	.L93:
 1932 0022 3B68     		ldr	r3, [r7]
 1933 0024 3B61     		str	r3, [r7, #16]
 1934              	.LBB4:
 1935              	.LBB5:
 1936              		.file 2 "Drivers/CMSIS/Include/cmsis_gcc.h"
   1:Drivers/CMSIS/Include/cmsis_gcc.h **** /**************************************************************************//**
   2:Drivers/CMSIS/Include/cmsis_gcc.h ****  * @file     cmsis_gcc.h
   3:Drivers/CMSIS/Include/cmsis_gcc.h ****  * @brief    CMSIS compiler GCC header file
   4:Drivers/CMSIS/Include/cmsis_gcc.h ****  * @version  V5.0.4
   5:Drivers/CMSIS/Include/cmsis_gcc.h ****  * @date     09. April 2018
   6:Drivers/CMSIS/Include/cmsis_gcc.h ****  ******************************************************************************/
   7:Drivers/CMSIS/Include/cmsis_gcc.h **** /*
   8:Drivers/CMSIS/Include/cmsis_gcc.h ****  * Copyright (c) 2009-2018 Arm Limited. All rights reserved.
   9:Drivers/CMSIS/Include/cmsis_gcc.h ****  *
  10:Drivers/CMSIS/Include/cmsis_gcc.h ****  * SPDX-License-Identifier: Apache-2.0
  11:Drivers/CMSIS/Include/cmsis_gcc.h ****  *
  12:Drivers/CMSIS/Include/cmsis_gcc.h ****  * Licensed under the Apache License, Version 2.0 (the License); you may
  13:Drivers/CMSIS/Include/cmsis_gcc.h ****  * not use this file except in compliance with the License.
  14:Drivers/CMSIS/Include/cmsis_gcc.h ****  * You may obtain a copy of the License at
  15:Drivers/CMSIS/Include/cmsis_gcc.h ****  *
  16:Drivers/CMSIS/Include/cmsis_gcc.h ****  * www.apache.org/licenses/LICENSE-2.0
  17:Drivers/CMSIS/Include/cmsis_gcc.h ****  *
  18:Drivers/CMSIS/Include/cmsis_gcc.h ****  * Unless required by applicable law or agreed to in writing, software
  19:Drivers/CMSIS/Include/cmsis_gcc.h ****  * distributed under the License is distributed on an AS IS BASIS, WITHOUT
  20:Drivers/CMSIS/Include/cmsis_gcc.h ****  * WARRANTIES OR CONDITIONS OF ANY KIND, either express or implied.
  21:Drivers/CMSIS/Include/cmsis_gcc.h ****  * See the License for the specific language governing permissions and
  22:Drivers/CMSIS/Include/cmsis_gcc.h ****  * limitations under the License.
  23:Drivers/CMSIS/Include/cmsis_gcc.h ****  */
  24:Drivers/CMSIS/Include/cmsis_gcc.h **** 
  25:Drivers/CMSIS/Include/cmsis_gcc.h **** #ifndef __CMSIS_GCC_H
  26:Drivers/CMSIS/Include/cmsis_gcc.h **** #define __CMSIS_GCC_H
  27:Drivers/CMSIS/Include/cmsis_gcc.h **** 
  28:Drivers/CMSIS/Include/cmsis_gcc.h **** /* ignore some GCC warnings */
  29:Drivers/CMSIS/Include/cmsis_gcc.h **** #pragma GCC diagnostic push
  30:Drivers/CMSIS/Include/cmsis_gcc.h **** #pragma GCC diagnostic ignored "-Wsign-conversion"
  31:Drivers/CMSIS/Include/cmsis_gcc.h **** #pragma GCC diagnostic ignored "-Wconversion"
  32:Drivers/CMSIS/Include/cmsis_gcc.h **** #pragma GCC diagnostic ignored "-Wunused-parameter"
  33:Drivers/CMSIS/Include/cmsis_gcc.h **** 
  34:Drivers/CMSIS/Include/cmsis_gcc.h **** /* Fallback for __has_builtin */
  35:Drivers/CMSIS/Include/cmsis_gcc.h **** #ifndef __has_builtin
  36:Drivers/CMSIS/Include/cmsis_gcc.h ****   #define __has_builtin(x) (0)
  37:Drivers/CMSIS/Include/cmsis_gcc.h **** #endif
  38:Drivers/CMSIS/Include/cmsis_gcc.h **** 
  39:Drivers/CMSIS/Include/cmsis_gcc.h **** /* CMSIS compiler specific defines */
  40:Drivers/CMSIS/Include/cmsis_gcc.h **** #ifndef   __ASM
  41:Drivers/CMSIS/Include/cmsis_gcc.h ****   #define __ASM                                  __asm
  42:Drivers/CMSIS/Include/cmsis_gcc.h **** #endif
ARM GAS  /tmp/ccDSCK0d.s 			page 62


  43:Drivers/CMSIS/Include/cmsis_gcc.h **** #ifndef   __INLINE
  44:Drivers/CMSIS/Include/cmsis_gcc.h ****   #define __INLINE                               inline
  45:Drivers/CMSIS/Include/cmsis_gcc.h **** #endif
  46:Drivers/CMSIS/Include/cmsis_gcc.h **** #ifndef   __STATIC_INLINE
  47:Drivers/CMSIS/Include/cmsis_gcc.h ****   #define __STATIC_INLINE                        static inline
  48:Drivers/CMSIS/Include/cmsis_gcc.h **** #endif
  49:Drivers/CMSIS/Include/cmsis_gcc.h **** #ifndef   __STATIC_FORCEINLINE                 
  50:Drivers/CMSIS/Include/cmsis_gcc.h ****   #define __STATIC_FORCEINLINE                   __attribute__((always_inline)) static inline
  51:Drivers/CMSIS/Include/cmsis_gcc.h **** #endif                                           
  52:Drivers/CMSIS/Include/cmsis_gcc.h **** #ifndef   __NO_RETURN
  53:Drivers/CMSIS/Include/cmsis_gcc.h ****   #define __NO_RETURN                            __attribute__((__noreturn__))
  54:Drivers/CMSIS/Include/cmsis_gcc.h **** #endif
  55:Drivers/CMSIS/Include/cmsis_gcc.h **** #ifndef   __USED
  56:Drivers/CMSIS/Include/cmsis_gcc.h ****   #define __USED                                 __attribute__((used))
  57:Drivers/CMSIS/Include/cmsis_gcc.h **** #endif
  58:Drivers/CMSIS/Include/cmsis_gcc.h **** #ifndef   __WEAK
  59:Drivers/CMSIS/Include/cmsis_gcc.h ****   #define __WEAK                                 __attribute__((weak))
  60:Drivers/CMSIS/Include/cmsis_gcc.h **** #endif
  61:Drivers/CMSIS/Include/cmsis_gcc.h **** #ifndef   __PACKED
  62:Drivers/CMSIS/Include/cmsis_gcc.h ****   #define __PACKED                               __attribute__((packed, aligned(1)))
  63:Drivers/CMSIS/Include/cmsis_gcc.h **** #endif
  64:Drivers/CMSIS/Include/cmsis_gcc.h **** #ifndef   __PACKED_STRUCT
  65:Drivers/CMSIS/Include/cmsis_gcc.h ****   #define __PACKED_STRUCT                        struct __attribute__((packed, aligned(1)))
  66:Drivers/CMSIS/Include/cmsis_gcc.h **** #endif
  67:Drivers/CMSIS/Include/cmsis_gcc.h **** #ifndef   __PACKED_UNION
  68:Drivers/CMSIS/Include/cmsis_gcc.h ****   #define __PACKED_UNION                         union __attribute__((packed, aligned(1)))
  69:Drivers/CMSIS/Include/cmsis_gcc.h **** #endif
  70:Drivers/CMSIS/Include/cmsis_gcc.h **** #ifndef   __UNALIGNED_UINT32        /* deprecated */
  71:Drivers/CMSIS/Include/cmsis_gcc.h ****   #pragma GCC diagnostic push
  72:Drivers/CMSIS/Include/cmsis_gcc.h ****   #pragma GCC diagnostic ignored "-Wpacked"
  73:Drivers/CMSIS/Include/cmsis_gcc.h ****   #pragma GCC diagnostic ignored "-Wattributes"
  74:Drivers/CMSIS/Include/cmsis_gcc.h ****   struct __attribute__((packed)) T_UINT32 { uint32_t v; };
  75:Drivers/CMSIS/Include/cmsis_gcc.h ****   #pragma GCC diagnostic pop
  76:Drivers/CMSIS/Include/cmsis_gcc.h ****   #define __UNALIGNED_UINT32(x)                  (((struct T_UINT32 *)(x))->v)
  77:Drivers/CMSIS/Include/cmsis_gcc.h **** #endif
  78:Drivers/CMSIS/Include/cmsis_gcc.h **** #ifndef   __UNALIGNED_UINT16_WRITE
  79:Drivers/CMSIS/Include/cmsis_gcc.h ****   #pragma GCC diagnostic push
  80:Drivers/CMSIS/Include/cmsis_gcc.h ****   #pragma GCC diagnostic ignored "-Wpacked"
  81:Drivers/CMSIS/Include/cmsis_gcc.h ****   #pragma GCC diagnostic ignored "-Wattributes"
  82:Drivers/CMSIS/Include/cmsis_gcc.h ****   __PACKED_STRUCT T_UINT16_WRITE { uint16_t v; };
  83:Drivers/CMSIS/Include/cmsis_gcc.h ****   #pragma GCC diagnostic pop
  84:Drivers/CMSIS/Include/cmsis_gcc.h ****   #define __UNALIGNED_UINT16_WRITE(addr, val)    (void)((((struct T_UINT16_WRITE *)(void *)(addr))-
  85:Drivers/CMSIS/Include/cmsis_gcc.h **** #endif
  86:Drivers/CMSIS/Include/cmsis_gcc.h **** #ifndef   __UNALIGNED_UINT16_READ
  87:Drivers/CMSIS/Include/cmsis_gcc.h ****   #pragma GCC diagnostic push
  88:Drivers/CMSIS/Include/cmsis_gcc.h ****   #pragma GCC diagnostic ignored "-Wpacked"
  89:Drivers/CMSIS/Include/cmsis_gcc.h ****   #pragma GCC diagnostic ignored "-Wattributes"
  90:Drivers/CMSIS/Include/cmsis_gcc.h ****   __PACKED_STRUCT T_UINT16_READ { uint16_t v; };
  91:Drivers/CMSIS/Include/cmsis_gcc.h ****   #pragma GCC diagnostic pop
  92:Drivers/CMSIS/Include/cmsis_gcc.h ****   #define __UNALIGNED_UINT16_READ(addr)          (((const struct T_UINT16_READ *)(const void *)(add
  93:Drivers/CMSIS/Include/cmsis_gcc.h **** #endif
  94:Drivers/CMSIS/Include/cmsis_gcc.h **** #ifndef   __UNALIGNED_UINT32_WRITE
  95:Drivers/CMSIS/Include/cmsis_gcc.h ****   #pragma GCC diagnostic push
  96:Drivers/CMSIS/Include/cmsis_gcc.h ****   #pragma GCC diagnostic ignored "-Wpacked"
  97:Drivers/CMSIS/Include/cmsis_gcc.h ****   #pragma GCC diagnostic ignored "-Wattributes"
  98:Drivers/CMSIS/Include/cmsis_gcc.h ****   __PACKED_STRUCT T_UINT32_WRITE { uint32_t v; };
  99:Drivers/CMSIS/Include/cmsis_gcc.h ****   #pragma GCC diagnostic pop
ARM GAS  /tmp/ccDSCK0d.s 			page 63


 100:Drivers/CMSIS/Include/cmsis_gcc.h ****   #define __UNALIGNED_UINT32_WRITE(addr, val)    (void)((((struct T_UINT32_WRITE *)(void *)(addr))-
 101:Drivers/CMSIS/Include/cmsis_gcc.h **** #endif
 102:Drivers/CMSIS/Include/cmsis_gcc.h **** #ifndef   __UNALIGNED_UINT32_READ
 103:Drivers/CMSIS/Include/cmsis_gcc.h ****   #pragma GCC diagnostic push
 104:Drivers/CMSIS/Include/cmsis_gcc.h ****   #pragma GCC diagnostic ignored "-Wpacked"
 105:Drivers/CMSIS/Include/cmsis_gcc.h ****   #pragma GCC diagnostic ignored "-Wattributes"
 106:Drivers/CMSIS/Include/cmsis_gcc.h ****   __PACKED_STRUCT T_UINT32_READ { uint32_t v; };
 107:Drivers/CMSIS/Include/cmsis_gcc.h ****   #pragma GCC diagnostic pop
 108:Drivers/CMSIS/Include/cmsis_gcc.h ****   #define __UNALIGNED_UINT32_READ(addr)          (((const struct T_UINT32_READ *)(const void *)(add
 109:Drivers/CMSIS/Include/cmsis_gcc.h **** #endif
 110:Drivers/CMSIS/Include/cmsis_gcc.h **** #ifndef   __ALIGNED
 111:Drivers/CMSIS/Include/cmsis_gcc.h ****   #define __ALIGNED(x)                           __attribute__((aligned(x)))
 112:Drivers/CMSIS/Include/cmsis_gcc.h **** #endif
 113:Drivers/CMSIS/Include/cmsis_gcc.h **** #ifndef   __RESTRICT
 114:Drivers/CMSIS/Include/cmsis_gcc.h ****   #define __RESTRICT                             __restrict
 115:Drivers/CMSIS/Include/cmsis_gcc.h **** #endif
 116:Drivers/CMSIS/Include/cmsis_gcc.h **** 
 117:Drivers/CMSIS/Include/cmsis_gcc.h **** 
 118:Drivers/CMSIS/Include/cmsis_gcc.h **** /* ###########################  Core Function Access  ########################### */
 119:Drivers/CMSIS/Include/cmsis_gcc.h **** /** \ingroup  CMSIS_Core_FunctionInterface
 120:Drivers/CMSIS/Include/cmsis_gcc.h ****     \defgroup CMSIS_Core_RegAccFunctions CMSIS Core Register Access Functions
 121:Drivers/CMSIS/Include/cmsis_gcc.h ****   @{
 122:Drivers/CMSIS/Include/cmsis_gcc.h ****  */
 123:Drivers/CMSIS/Include/cmsis_gcc.h **** 
 124:Drivers/CMSIS/Include/cmsis_gcc.h **** /**
 125:Drivers/CMSIS/Include/cmsis_gcc.h ****   \brief   Enable IRQ Interrupts
 126:Drivers/CMSIS/Include/cmsis_gcc.h ****   \details Enables IRQ interrupts by clearing the I-bit in the CPSR.
 127:Drivers/CMSIS/Include/cmsis_gcc.h ****            Can only be executed in Privileged modes.
 128:Drivers/CMSIS/Include/cmsis_gcc.h ****  */
 129:Drivers/CMSIS/Include/cmsis_gcc.h **** __STATIC_FORCEINLINE void __enable_irq(void)
 130:Drivers/CMSIS/Include/cmsis_gcc.h **** {
 131:Drivers/CMSIS/Include/cmsis_gcc.h ****   __ASM volatile ("cpsie i" : : : "memory");
 132:Drivers/CMSIS/Include/cmsis_gcc.h **** }
 133:Drivers/CMSIS/Include/cmsis_gcc.h **** 
 134:Drivers/CMSIS/Include/cmsis_gcc.h **** 
 135:Drivers/CMSIS/Include/cmsis_gcc.h **** /**
 136:Drivers/CMSIS/Include/cmsis_gcc.h ****   \brief   Disable IRQ Interrupts
 137:Drivers/CMSIS/Include/cmsis_gcc.h ****   \details Disables IRQ interrupts by setting the I-bit in the CPSR.
 138:Drivers/CMSIS/Include/cmsis_gcc.h ****            Can only be executed in Privileged modes.
 139:Drivers/CMSIS/Include/cmsis_gcc.h ****  */
 140:Drivers/CMSIS/Include/cmsis_gcc.h **** __STATIC_FORCEINLINE void __disable_irq(void)
 141:Drivers/CMSIS/Include/cmsis_gcc.h **** {
 142:Drivers/CMSIS/Include/cmsis_gcc.h ****   __ASM volatile ("cpsid i" : : : "memory");
 143:Drivers/CMSIS/Include/cmsis_gcc.h **** }
 144:Drivers/CMSIS/Include/cmsis_gcc.h **** 
 145:Drivers/CMSIS/Include/cmsis_gcc.h **** 
 146:Drivers/CMSIS/Include/cmsis_gcc.h **** /**
 147:Drivers/CMSIS/Include/cmsis_gcc.h ****   \brief   Get Control Register
 148:Drivers/CMSIS/Include/cmsis_gcc.h ****   \details Returns the content of the Control Register.
 149:Drivers/CMSIS/Include/cmsis_gcc.h ****   \return               Control Register value
 150:Drivers/CMSIS/Include/cmsis_gcc.h ****  */
 151:Drivers/CMSIS/Include/cmsis_gcc.h **** __STATIC_FORCEINLINE uint32_t __get_CONTROL(void)
 152:Drivers/CMSIS/Include/cmsis_gcc.h **** {
 153:Drivers/CMSIS/Include/cmsis_gcc.h ****   uint32_t result;
 154:Drivers/CMSIS/Include/cmsis_gcc.h **** 
 155:Drivers/CMSIS/Include/cmsis_gcc.h ****   __ASM volatile ("MRS %0, control" : "=r" (result) );
 156:Drivers/CMSIS/Include/cmsis_gcc.h ****   return(result);
ARM GAS  /tmp/ccDSCK0d.s 			page 64


 157:Drivers/CMSIS/Include/cmsis_gcc.h **** }
 158:Drivers/CMSIS/Include/cmsis_gcc.h **** 
 159:Drivers/CMSIS/Include/cmsis_gcc.h **** 
 160:Drivers/CMSIS/Include/cmsis_gcc.h **** #if (defined (__ARM_FEATURE_CMSE ) && (__ARM_FEATURE_CMSE == 3))
 161:Drivers/CMSIS/Include/cmsis_gcc.h **** /**
 162:Drivers/CMSIS/Include/cmsis_gcc.h ****   \brief   Get Control Register (non-secure)
 163:Drivers/CMSIS/Include/cmsis_gcc.h ****   \details Returns the content of the non-secure Control Register when in secure mode.
 164:Drivers/CMSIS/Include/cmsis_gcc.h ****   \return               non-secure Control Register value
 165:Drivers/CMSIS/Include/cmsis_gcc.h ****  */
 166:Drivers/CMSIS/Include/cmsis_gcc.h **** __STATIC_FORCEINLINE uint32_t __TZ_get_CONTROL_NS(void)
 167:Drivers/CMSIS/Include/cmsis_gcc.h **** {
 168:Drivers/CMSIS/Include/cmsis_gcc.h ****   uint32_t result;
 169:Drivers/CMSIS/Include/cmsis_gcc.h **** 
 170:Drivers/CMSIS/Include/cmsis_gcc.h ****   __ASM volatile ("MRS %0, control_ns" : "=r" (result) );
 171:Drivers/CMSIS/Include/cmsis_gcc.h ****   return(result);
 172:Drivers/CMSIS/Include/cmsis_gcc.h **** }
 173:Drivers/CMSIS/Include/cmsis_gcc.h **** #endif
 174:Drivers/CMSIS/Include/cmsis_gcc.h **** 
 175:Drivers/CMSIS/Include/cmsis_gcc.h **** 
 176:Drivers/CMSIS/Include/cmsis_gcc.h **** /**
 177:Drivers/CMSIS/Include/cmsis_gcc.h ****   \brief   Set Control Register
 178:Drivers/CMSIS/Include/cmsis_gcc.h ****   \details Writes the given value to the Control Register.
 179:Drivers/CMSIS/Include/cmsis_gcc.h ****   \param [in]    control  Control Register value to set
 180:Drivers/CMSIS/Include/cmsis_gcc.h ****  */
 181:Drivers/CMSIS/Include/cmsis_gcc.h **** __STATIC_FORCEINLINE void __set_CONTROL(uint32_t control)
 182:Drivers/CMSIS/Include/cmsis_gcc.h **** {
 183:Drivers/CMSIS/Include/cmsis_gcc.h ****   __ASM volatile ("MSR control, %0" : : "r" (control) : "memory");
 184:Drivers/CMSIS/Include/cmsis_gcc.h **** }
 185:Drivers/CMSIS/Include/cmsis_gcc.h **** 
 186:Drivers/CMSIS/Include/cmsis_gcc.h **** 
 187:Drivers/CMSIS/Include/cmsis_gcc.h **** #if (defined (__ARM_FEATURE_CMSE ) && (__ARM_FEATURE_CMSE == 3))
 188:Drivers/CMSIS/Include/cmsis_gcc.h **** /**
 189:Drivers/CMSIS/Include/cmsis_gcc.h ****   \brief   Set Control Register (non-secure)
 190:Drivers/CMSIS/Include/cmsis_gcc.h ****   \details Writes the given value to the non-secure Control Register when in secure state.
 191:Drivers/CMSIS/Include/cmsis_gcc.h ****   \param [in]    control  Control Register value to set
 192:Drivers/CMSIS/Include/cmsis_gcc.h ****  */
 193:Drivers/CMSIS/Include/cmsis_gcc.h **** __STATIC_FORCEINLINE void __TZ_set_CONTROL_NS(uint32_t control)
 194:Drivers/CMSIS/Include/cmsis_gcc.h **** {
 195:Drivers/CMSIS/Include/cmsis_gcc.h ****   __ASM volatile ("MSR control_ns, %0" : : "r" (control) : "memory");
 196:Drivers/CMSIS/Include/cmsis_gcc.h **** }
 197:Drivers/CMSIS/Include/cmsis_gcc.h **** #endif
 198:Drivers/CMSIS/Include/cmsis_gcc.h **** 
 199:Drivers/CMSIS/Include/cmsis_gcc.h **** 
 200:Drivers/CMSIS/Include/cmsis_gcc.h **** /**
 201:Drivers/CMSIS/Include/cmsis_gcc.h ****   \brief   Get IPSR Register
 202:Drivers/CMSIS/Include/cmsis_gcc.h ****   \details Returns the content of the IPSR Register.
 203:Drivers/CMSIS/Include/cmsis_gcc.h ****   \return               IPSR Register value
 204:Drivers/CMSIS/Include/cmsis_gcc.h ****  */
 205:Drivers/CMSIS/Include/cmsis_gcc.h **** __STATIC_FORCEINLINE uint32_t __get_IPSR(void)
 206:Drivers/CMSIS/Include/cmsis_gcc.h **** {
 207:Drivers/CMSIS/Include/cmsis_gcc.h ****   uint32_t result;
 208:Drivers/CMSIS/Include/cmsis_gcc.h **** 
 209:Drivers/CMSIS/Include/cmsis_gcc.h ****   __ASM volatile ("MRS %0, ipsr" : "=r" (result) );
 210:Drivers/CMSIS/Include/cmsis_gcc.h ****   return(result);
 211:Drivers/CMSIS/Include/cmsis_gcc.h **** }
 212:Drivers/CMSIS/Include/cmsis_gcc.h **** 
 213:Drivers/CMSIS/Include/cmsis_gcc.h **** 
ARM GAS  /tmp/ccDSCK0d.s 			page 65


 214:Drivers/CMSIS/Include/cmsis_gcc.h **** /**
 215:Drivers/CMSIS/Include/cmsis_gcc.h ****   \brief   Get APSR Register
 216:Drivers/CMSIS/Include/cmsis_gcc.h ****   \details Returns the content of the APSR Register.
 217:Drivers/CMSIS/Include/cmsis_gcc.h ****   \return               APSR Register value
 218:Drivers/CMSIS/Include/cmsis_gcc.h ****  */
 219:Drivers/CMSIS/Include/cmsis_gcc.h **** __STATIC_FORCEINLINE uint32_t __get_APSR(void)
 220:Drivers/CMSIS/Include/cmsis_gcc.h **** {
 221:Drivers/CMSIS/Include/cmsis_gcc.h ****   uint32_t result;
 222:Drivers/CMSIS/Include/cmsis_gcc.h **** 
 223:Drivers/CMSIS/Include/cmsis_gcc.h ****   __ASM volatile ("MRS %0, apsr" : "=r" (result) );
 224:Drivers/CMSIS/Include/cmsis_gcc.h ****   return(result);
 225:Drivers/CMSIS/Include/cmsis_gcc.h **** }
 226:Drivers/CMSIS/Include/cmsis_gcc.h **** 
 227:Drivers/CMSIS/Include/cmsis_gcc.h **** 
 228:Drivers/CMSIS/Include/cmsis_gcc.h **** /**
 229:Drivers/CMSIS/Include/cmsis_gcc.h ****   \brief   Get xPSR Register
 230:Drivers/CMSIS/Include/cmsis_gcc.h ****   \details Returns the content of the xPSR Register.
 231:Drivers/CMSIS/Include/cmsis_gcc.h ****   \return               xPSR Register value
 232:Drivers/CMSIS/Include/cmsis_gcc.h ****  */
 233:Drivers/CMSIS/Include/cmsis_gcc.h **** __STATIC_FORCEINLINE uint32_t __get_xPSR(void)
 234:Drivers/CMSIS/Include/cmsis_gcc.h **** {
 235:Drivers/CMSIS/Include/cmsis_gcc.h ****   uint32_t result;
 236:Drivers/CMSIS/Include/cmsis_gcc.h **** 
 237:Drivers/CMSIS/Include/cmsis_gcc.h ****   __ASM volatile ("MRS %0, xpsr" : "=r" (result) );
 238:Drivers/CMSIS/Include/cmsis_gcc.h ****   return(result);
 239:Drivers/CMSIS/Include/cmsis_gcc.h **** }
 240:Drivers/CMSIS/Include/cmsis_gcc.h **** 
 241:Drivers/CMSIS/Include/cmsis_gcc.h **** 
 242:Drivers/CMSIS/Include/cmsis_gcc.h **** /**
 243:Drivers/CMSIS/Include/cmsis_gcc.h ****   \brief   Get Process Stack Pointer
 244:Drivers/CMSIS/Include/cmsis_gcc.h ****   \details Returns the current value of the Process Stack Pointer (PSP).
 245:Drivers/CMSIS/Include/cmsis_gcc.h ****   \return               PSP Register value
 246:Drivers/CMSIS/Include/cmsis_gcc.h ****  */
 247:Drivers/CMSIS/Include/cmsis_gcc.h **** __STATIC_FORCEINLINE uint32_t __get_PSP(void)
 248:Drivers/CMSIS/Include/cmsis_gcc.h **** {
 249:Drivers/CMSIS/Include/cmsis_gcc.h ****   uint32_t result;
 250:Drivers/CMSIS/Include/cmsis_gcc.h **** 
 251:Drivers/CMSIS/Include/cmsis_gcc.h ****   __ASM volatile ("MRS %0, psp"  : "=r" (result) );
 252:Drivers/CMSIS/Include/cmsis_gcc.h ****   return(result);
 253:Drivers/CMSIS/Include/cmsis_gcc.h **** }
 254:Drivers/CMSIS/Include/cmsis_gcc.h **** 
 255:Drivers/CMSIS/Include/cmsis_gcc.h **** 
 256:Drivers/CMSIS/Include/cmsis_gcc.h **** #if (defined (__ARM_FEATURE_CMSE ) && (__ARM_FEATURE_CMSE == 3))
 257:Drivers/CMSIS/Include/cmsis_gcc.h **** /**
 258:Drivers/CMSIS/Include/cmsis_gcc.h ****   \brief   Get Process Stack Pointer (non-secure)
 259:Drivers/CMSIS/Include/cmsis_gcc.h ****   \details Returns the current value of the non-secure Process Stack Pointer (PSP) when in secure s
 260:Drivers/CMSIS/Include/cmsis_gcc.h ****   \return               PSP Register value
 261:Drivers/CMSIS/Include/cmsis_gcc.h ****  */
 262:Drivers/CMSIS/Include/cmsis_gcc.h **** __STATIC_FORCEINLINE uint32_t __TZ_get_PSP_NS(void)
 263:Drivers/CMSIS/Include/cmsis_gcc.h **** {
 264:Drivers/CMSIS/Include/cmsis_gcc.h ****   uint32_t result;
 265:Drivers/CMSIS/Include/cmsis_gcc.h **** 
 266:Drivers/CMSIS/Include/cmsis_gcc.h ****   __ASM volatile ("MRS %0, psp_ns"  : "=r" (result) );
 267:Drivers/CMSIS/Include/cmsis_gcc.h ****   return(result);
 268:Drivers/CMSIS/Include/cmsis_gcc.h **** }
 269:Drivers/CMSIS/Include/cmsis_gcc.h **** #endif
 270:Drivers/CMSIS/Include/cmsis_gcc.h **** 
ARM GAS  /tmp/ccDSCK0d.s 			page 66


 271:Drivers/CMSIS/Include/cmsis_gcc.h **** 
 272:Drivers/CMSIS/Include/cmsis_gcc.h **** /**
 273:Drivers/CMSIS/Include/cmsis_gcc.h ****   \brief   Set Process Stack Pointer
 274:Drivers/CMSIS/Include/cmsis_gcc.h ****   \details Assigns the given value to the Process Stack Pointer (PSP).
 275:Drivers/CMSIS/Include/cmsis_gcc.h ****   \param [in]    topOfProcStack  Process Stack Pointer value to set
 276:Drivers/CMSIS/Include/cmsis_gcc.h ****  */
 277:Drivers/CMSIS/Include/cmsis_gcc.h **** __STATIC_FORCEINLINE void __set_PSP(uint32_t topOfProcStack)
 278:Drivers/CMSIS/Include/cmsis_gcc.h **** {
 279:Drivers/CMSIS/Include/cmsis_gcc.h ****   __ASM volatile ("MSR psp, %0" : : "r" (topOfProcStack) : );
 280:Drivers/CMSIS/Include/cmsis_gcc.h **** }
 281:Drivers/CMSIS/Include/cmsis_gcc.h **** 
 282:Drivers/CMSIS/Include/cmsis_gcc.h **** 
 283:Drivers/CMSIS/Include/cmsis_gcc.h **** #if (defined (__ARM_FEATURE_CMSE ) && (__ARM_FEATURE_CMSE == 3))
 284:Drivers/CMSIS/Include/cmsis_gcc.h **** /**
 285:Drivers/CMSIS/Include/cmsis_gcc.h ****   \brief   Set Process Stack Pointer (non-secure)
 286:Drivers/CMSIS/Include/cmsis_gcc.h ****   \details Assigns the given value to the non-secure Process Stack Pointer (PSP) when in secure sta
 287:Drivers/CMSIS/Include/cmsis_gcc.h ****   \param [in]    topOfProcStack  Process Stack Pointer value to set
 288:Drivers/CMSIS/Include/cmsis_gcc.h ****  */
 289:Drivers/CMSIS/Include/cmsis_gcc.h **** __STATIC_FORCEINLINE void __TZ_set_PSP_NS(uint32_t topOfProcStack)
 290:Drivers/CMSIS/Include/cmsis_gcc.h **** {
 291:Drivers/CMSIS/Include/cmsis_gcc.h ****   __ASM volatile ("MSR psp_ns, %0" : : "r" (topOfProcStack) : );
 292:Drivers/CMSIS/Include/cmsis_gcc.h **** }
 293:Drivers/CMSIS/Include/cmsis_gcc.h **** #endif
 294:Drivers/CMSIS/Include/cmsis_gcc.h **** 
 295:Drivers/CMSIS/Include/cmsis_gcc.h **** 
 296:Drivers/CMSIS/Include/cmsis_gcc.h **** /**
 297:Drivers/CMSIS/Include/cmsis_gcc.h ****   \brief   Get Main Stack Pointer
 298:Drivers/CMSIS/Include/cmsis_gcc.h ****   \details Returns the current value of the Main Stack Pointer (MSP).
 299:Drivers/CMSIS/Include/cmsis_gcc.h ****   \return               MSP Register value
 300:Drivers/CMSIS/Include/cmsis_gcc.h ****  */
 301:Drivers/CMSIS/Include/cmsis_gcc.h **** __STATIC_FORCEINLINE uint32_t __get_MSP(void)
 302:Drivers/CMSIS/Include/cmsis_gcc.h **** {
 303:Drivers/CMSIS/Include/cmsis_gcc.h ****   uint32_t result;
 304:Drivers/CMSIS/Include/cmsis_gcc.h **** 
 305:Drivers/CMSIS/Include/cmsis_gcc.h ****   __ASM volatile ("MRS %0, msp" : "=r" (result) );
 306:Drivers/CMSIS/Include/cmsis_gcc.h ****   return(result);
 307:Drivers/CMSIS/Include/cmsis_gcc.h **** }
 308:Drivers/CMSIS/Include/cmsis_gcc.h **** 
 309:Drivers/CMSIS/Include/cmsis_gcc.h **** 
 310:Drivers/CMSIS/Include/cmsis_gcc.h **** #if (defined (__ARM_FEATURE_CMSE ) && (__ARM_FEATURE_CMSE == 3))
 311:Drivers/CMSIS/Include/cmsis_gcc.h **** /**
 312:Drivers/CMSIS/Include/cmsis_gcc.h ****   \brief   Get Main Stack Pointer (non-secure)
 313:Drivers/CMSIS/Include/cmsis_gcc.h ****   \details Returns the current value of the non-secure Main Stack Pointer (MSP) when in secure stat
 314:Drivers/CMSIS/Include/cmsis_gcc.h ****   \return               MSP Register value
 315:Drivers/CMSIS/Include/cmsis_gcc.h ****  */
 316:Drivers/CMSIS/Include/cmsis_gcc.h **** __STATIC_FORCEINLINE uint32_t __TZ_get_MSP_NS(void)
 317:Drivers/CMSIS/Include/cmsis_gcc.h **** {
 318:Drivers/CMSIS/Include/cmsis_gcc.h ****   uint32_t result;
 319:Drivers/CMSIS/Include/cmsis_gcc.h **** 
 320:Drivers/CMSIS/Include/cmsis_gcc.h ****   __ASM volatile ("MRS %0, msp_ns" : "=r" (result) );
 321:Drivers/CMSIS/Include/cmsis_gcc.h ****   return(result);
 322:Drivers/CMSIS/Include/cmsis_gcc.h **** }
 323:Drivers/CMSIS/Include/cmsis_gcc.h **** #endif
 324:Drivers/CMSIS/Include/cmsis_gcc.h **** 
 325:Drivers/CMSIS/Include/cmsis_gcc.h **** 
 326:Drivers/CMSIS/Include/cmsis_gcc.h **** /**
 327:Drivers/CMSIS/Include/cmsis_gcc.h ****   \brief   Set Main Stack Pointer
ARM GAS  /tmp/ccDSCK0d.s 			page 67


 328:Drivers/CMSIS/Include/cmsis_gcc.h ****   \details Assigns the given value to the Main Stack Pointer (MSP).
 329:Drivers/CMSIS/Include/cmsis_gcc.h ****   \param [in]    topOfMainStack  Main Stack Pointer value to set
 330:Drivers/CMSIS/Include/cmsis_gcc.h ****  */
 331:Drivers/CMSIS/Include/cmsis_gcc.h **** __STATIC_FORCEINLINE void __set_MSP(uint32_t topOfMainStack)
 332:Drivers/CMSIS/Include/cmsis_gcc.h **** {
 333:Drivers/CMSIS/Include/cmsis_gcc.h ****   __ASM volatile ("MSR msp, %0" : : "r" (topOfMainStack) : );
 334:Drivers/CMSIS/Include/cmsis_gcc.h **** }
 335:Drivers/CMSIS/Include/cmsis_gcc.h **** 
 336:Drivers/CMSIS/Include/cmsis_gcc.h **** 
 337:Drivers/CMSIS/Include/cmsis_gcc.h **** #if (defined (__ARM_FEATURE_CMSE ) && (__ARM_FEATURE_CMSE == 3))
 338:Drivers/CMSIS/Include/cmsis_gcc.h **** /**
 339:Drivers/CMSIS/Include/cmsis_gcc.h ****   \brief   Set Main Stack Pointer (non-secure)
 340:Drivers/CMSIS/Include/cmsis_gcc.h ****   \details Assigns the given value to the non-secure Main Stack Pointer (MSP) when in secure state.
 341:Drivers/CMSIS/Include/cmsis_gcc.h ****   \param [in]    topOfMainStack  Main Stack Pointer value to set
 342:Drivers/CMSIS/Include/cmsis_gcc.h ****  */
 343:Drivers/CMSIS/Include/cmsis_gcc.h **** __STATIC_FORCEINLINE void __TZ_set_MSP_NS(uint32_t topOfMainStack)
 344:Drivers/CMSIS/Include/cmsis_gcc.h **** {
 345:Drivers/CMSIS/Include/cmsis_gcc.h ****   __ASM volatile ("MSR msp_ns, %0" : : "r" (topOfMainStack) : );
 346:Drivers/CMSIS/Include/cmsis_gcc.h **** }
 347:Drivers/CMSIS/Include/cmsis_gcc.h **** #endif
 348:Drivers/CMSIS/Include/cmsis_gcc.h **** 
 349:Drivers/CMSIS/Include/cmsis_gcc.h **** 
 350:Drivers/CMSIS/Include/cmsis_gcc.h **** #if (defined (__ARM_FEATURE_CMSE ) && (__ARM_FEATURE_CMSE == 3))
 351:Drivers/CMSIS/Include/cmsis_gcc.h **** /**
 352:Drivers/CMSIS/Include/cmsis_gcc.h ****   \brief   Get Stack Pointer (non-secure)
 353:Drivers/CMSIS/Include/cmsis_gcc.h ****   \details Returns the current value of the non-secure Stack Pointer (SP) when in secure state.
 354:Drivers/CMSIS/Include/cmsis_gcc.h ****   \return               SP Register value
 355:Drivers/CMSIS/Include/cmsis_gcc.h ****  */
 356:Drivers/CMSIS/Include/cmsis_gcc.h **** __STATIC_FORCEINLINE uint32_t __TZ_get_SP_NS(void)
 357:Drivers/CMSIS/Include/cmsis_gcc.h **** {
 358:Drivers/CMSIS/Include/cmsis_gcc.h ****   uint32_t result;
 359:Drivers/CMSIS/Include/cmsis_gcc.h **** 
 360:Drivers/CMSIS/Include/cmsis_gcc.h ****   __ASM volatile ("MRS %0, sp_ns" : "=r" (result) );
 361:Drivers/CMSIS/Include/cmsis_gcc.h ****   return(result);
 362:Drivers/CMSIS/Include/cmsis_gcc.h **** }
 363:Drivers/CMSIS/Include/cmsis_gcc.h **** 
 364:Drivers/CMSIS/Include/cmsis_gcc.h **** 
 365:Drivers/CMSIS/Include/cmsis_gcc.h **** /**
 366:Drivers/CMSIS/Include/cmsis_gcc.h ****   \brief   Set Stack Pointer (non-secure)
 367:Drivers/CMSIS/Include/cmsis_gcc.h ****   \details Assigns the given value to the non-secure Stack Pointer (SP) when in secure state.
 368:Drivers/CMSIS/Include/cmsis_gcc.h ****   \param [in]    topOfStack  Stack Pointer value to set
 369:Drivers/CMSIS/Include/cmsis_gcc.h ****  */
 370:Drivers/CMSIS/Include/cmsis_gcc.h **** __STATIC_FORCEINLINE void __TZ_set_SP_NS(uint32_t topOfStack)
 371:Drivers/CMSIS/Include/cmsis_gcc.h **** {
 372:Drivers/CMSIS/Include/cmsis_gcc.h ****   __ASM volatile ("MSR sp_ns, %0" : : "r" (topOfStack) : );
 373:Drivers/CMSIS/Include/cmsis_gcc.h **** }
 374:Drivers/CMSIS/Include/cmsis_gcc.h **** #endif
 375:Drivers/CMSIS/Include/cmsis_gcc.h **** 
 376:Drivers/CMSIS/Include/cmsis_gcc.h **** 
 377:Drivers/CMSIS/Include/cmsis_gcc.h **** /**
 378:Drivers/CMSIS/Include/cmsis_gcc.h ****   \brief   Get Priority Mask
 379:Drivers/CMSIS/Include/cmsis_gcc.h ****   \details Returns the current state of the priority mask bit from the Priority Mask Register.
 380:Drivers/CMSIS/Include/cmsis_gcc.h ****   \return               Priority Mask value
 381:Drivers/CMSIS/Include/cmsis_gcc.h ****  */
 382:Drivers/CMSIS/Include/cmsis_gcc.h **** __STATIC_FORCEINLINE uint32_t __get_PRIMASK(void)
 383:Drivers/CMSIS/Include/cmsis_gcc.h **** {
 384:Drivers/CMSIS/Include/cmsis_gcc.h ****   uint32_t result;
ARM GAS  /tmp/ccDSCK0d.s 			page 68


 385:Drivers/CMSIS/Include/cmsis_gcc.h **** 
 386:Drivers/CMSIS/Include/cmsis_gcc.h ****   __ASM volatile ("MRS %0, primask" : "=r" (result) :: "memory");
 387:Drivers/CMSIS/Include/cmsis_gcc.h ****   return(result);
 388:Drivers/CMSIS/Include/cmsis_gcc.h **** }
 389:Drivers/CMSIS/Include/cmsis_gcc.h **** 
 390:Drivers/CMSIS/Include/cmsis_gcc.h **** 
 391:Drivers/CMSIS/Include/cmsis_gcc.h **** #if (defined (__ARM_FEATURE_CMSE ) && (__ARM_FEATURE_CMSE == 3))
 392:Drivers/CMSIS/Include/cmsis_gcc.h **** /**
 393:Drivers/CMSIS/Include/cmsis_gcc.h ****   \brief   Get Priority Mask (non-secure)
 394:Drivers/CMSIS/Include/cmsis_gcc.h ****   \details Returns the current state of the non-secure priority mask bit from the Priority Mask Reg
 395:Drivers/CMSIS/Include/cmsis_gcc.h ****   \return               Priority Mask value
 396:Drivers/CMSIS/Include/cmsis_gcc.h ****  */
