ARM GAS  /tmp/ccQdZtFR.s 			page 1


   1              		.cpu cortex-m4
   2              		.arch armv7e-m
   3              		.fpu fpv4-sp-d16
   4              		.eabi_attribute 27, 1
   5              		.eabi_attribute 28, 1
   6              		.eabi_attribute 20, 1
   7              		.eabi_attribute 21, 1
   8              		.eabi_attribute 23, 3
   9              		.eabi_attribute 24, 1
  10              		.eabi_attribute 25, 1
  11              		.eabi_attribute 26, 1
  12              		.eabi_attribute 30, 6
  13              		.eabi_attribute 34, 1
  14              		.eabi_attribute 18, 4
  15              		.file	"stm32f4xx_hal_pcd.c"
  16              		.text
  17              	.Ltext0:
  18              		.cfi_sections	.debug_frame
  19              		.section	.text.HAL_PCD_Init,"ax",%progbits
  20              		.align	1
  21              		.global	HAL_PCD_Init
  22              		.syntax unified
  23              		.thumb
  24              		.thumb_func
  26              	HAL_PCD_Init:
  27              	.LFB235:
  28              		.file 1 "Drivers/STM32F4xx_HAL_Driver/Src/stm32f4xx_hal_pcd.c"
   1:Drivers/STM32F4xx_HAL_Driver/Src/stm32f4xx_hal_pcd.c **** /**
   2:Drivers/STM32F4xx_HAL_Driver/Src/stm32f4xx_hal_pcd.c ****   ******************************************************************************
   3:Drivers/STM32F4xx_HAL_Driver/Src/stm32f4xx_hal_pcd.c ****   * @file    stm32f4xx_hal_pcd.c
   4:Drivers/STM32F4xx_HAL_Driver/Src/stm32f4xx_hal_pcd.c ****   * @author  MCD Application Team
   5:Drivers/STM32F4xx_HAL_Driver/Src/stm32f4xx_hal_pcd.c ****   * @brief   PCD HAL module driver.
   6:Drivers/STM32F4xx_HAL_Driver/Src/stm32f4xx_hal_pcd.c ****   *          This file provides firmware functions to manage the following
   7:Drivers/STM32F4xx_HAL_Driver/Src/stm32f4xx_hal_pcd.c ****   *          functionalities of the USB Peripheral Controller:
   8:Drivers/STM32F4xx_HAL_Driver/Src/stm32f4xx_hal_pcd.c ****   *           + Initialization and de-initialization functions
   9:Drivers/STM32F4xx_HAL_Driver/Src/stm32f4xx_hal_pcd.c ****   *           + IO operation functions
  10:Drivers/STM32F4xx_HAL_Driver/Src/stm32f4xx_hal_pcd.c ****   *           + Peripheral Control functions
  11:Drivers/STM32F4xx_HAL_Driver/Src/stm32f4xx_hal_pcd.c ****   *           + Peripheral State functions
  12:Drivers/STM32F4xx_HAL_Driver/Src/stm32f4xx_hal_pcd.c ****   *
  13:Drivers/STM32F4xx_HAL_Driver/Src/stm32f4xx_hal_pcd.c ****   ******************************************************************************
  14:Drivers/STM32F4xx_HAL_Driver/Src/stm32f4xx_hal_pcd.c ****   * @attention
  15:Drivers/STM32F4xx_HAL_Driver/Src/stm32f4xx_hal_pcd.c ****   *
  16:Drivers/STM32F4xx_HAL_Driver/Src/stm32f4xx_hal_pcd.c ****   * Copyright (c) 2016 STMicroelectronics.
  17:Drivers/STM32F4xx_HAL_Driver/Src/stm32f4xx_hal_pcd.c ****   * All rights reserved.
  18:Drivers/STM32F4xx_HAL_Driver/Src/stm32f4xx_hal_pcd.c ****   *
  19:Drivers/STM32F4xx_HAL_Driver/Src/stm32f4xx_hal_pcd.c ****   * This software is licensed under terms that can be found in the LICENSE file
  20:Drivers/STM32F4xx_HAL_Driver/Src/stm32f4xx_hal_pcd.c ****   * in the root directory of this software component.
  21:Drivers/STM32F4xx_HAL_Driver/Src/stm32f4xx_hal_pcd.c ****   * If no LICENSE file comes with this software, it is provided AS-IS.
  22:Drivers/STM32F4xx_HAL_Driver/Src/stm32f4xx_hal_pcd.c ****   *
  23:Drivers/STM32F4xx_HAL_Driver/Src/stm32f4xx_hal_pcd.c ****   ******************************************************************************
  24:Drivers/STM32F4xx_HAL_Driver/Src/stm32f4xx_hal_pcd.c ****   @verbatim
  25:Drivers/STM32F4xx_HAL_Driver/Src/stm32f4xx_hal_pcd.c ****   ==============================================================================
  26:Drivers/STM32F4xx_HAL_Driver/Src/stm32f4xx_hal_pcd.c ****                     ##### How to use this driver #####
  27:Drivers/STM32F4xx_HAL_Driver/Src/stm32f4xx_hal_pcd.c ****   ==============================================================================
  28:Drivers/STM32F4xx_HAL_Driver/Src/stm32f4xx_hal_pcd.c ****     [..]
  29:Drivers/STM32F4xx_HAL_Driver/Src/stm32f4xx_hal_pcd.c ****       The PCD HAL driver can be used as follows:
  30:Drivers/STM32F4xx_HAL_Driver/Src/stm32f4xx_hal_pcd.c **** 
ARM GAS  /tmp/ccQdZtFR.s 			page 2


  31:Drivers/STM32F4xx_HAL_Driver/Src/stm32f4xx_hal_pcd.c ****      (#) Declare a PCD_HandleTypeDef handle structure, for example:
  32:Drivers/STM32F4xx_HAL_Driver/Src/stm32f4xx_hal_pcd.c ****          PCD_HandleTypeDef  hpcd;
  33:Drivers/STM32F4xx_HAL_Driver/Src/stm32f4xx_hal_pcd.c **** 
  34:Drivers/STM32F4xx_HAL_Driver/Src/stm32f4xx_hal_pcd.c ****      (#) Fill parameters of Init structure in HCD handle
  35:Drivers/STM32F4xx_HAL_Driver/Src/stm32f4xx_hal_pcd.c **** 
  36:Drivers/STM32F4xx_HAL_Driver/Src/stm32f4xx_hal_pcd.c ****      (#) Call HAL_PCD_Init() API to initialize the PCD peripheral (Core, Device core, ...)
  37:Drivers/STM32F4xx_HAL_Driver/Src/stm32f4xx_hal_pcd.c **** 
  38:Drivers/STM32F4xx_HAL_Driver/Src/stm32f4xx_hal_pcd.c ****      (#) Initialize the PCD low level resources through the HAL_PCD_MspInit() API:
  39:Drivers/STM32F4xx_HAL_Driver/Src/stm32f4xx_hal_pcd.c ****          (##) Enable the PCD/USB Low Level interface clock using
  40:Drivers/STM32F4xx_HAL_Driver/Src/stm32f4xx_hal_pcd.c ****               (+++) __HAL_RCC_USB_OTG_FS_CLK_ENABLE();
  41:Drivers/STM32F4xx_HAL_Driver/Src/stm32f4xx_hal_pcd.c ****               (+++) __HAL_RCC_USB_OTG_HS_CLK_ENABLE(); (For High Speed Mode)
  42:Drivers/STM32F4xx_HAL_Driver/Src/stm32f4xx_hal_pcd.c **** 
  43:Drivers/STM32F4xx_HAL_Driver/Src/stm32f4xx_hal_pcd.c ****          (##) Initialize the related GPIO clocks
  44:Drivers/STM32F4xx_HAL_Driver/Src/stm32f4xx_hal_pcd.c ****          (##) Configure PCD pin-out
  45:Drivers/STM32F4xx_HAL_Driver/Src/stm32f4xx_hal_pcd.c ****          (##) Configure PCD NVIC interrupt
  46:Drivers/STM32F4xx_HAL_Driver/Src/stm32f4xx_hal_pcd.c **** 
  47:Drivers/STM32F4xx_HAL_Driver/Src/stm32f4xx_hal_pcd.c ****      (#)Associate the Upper USB device stack to the HAL PCD Driver:
  48:Drivers/STM32F4xx_HAL_Driver/Src/stm32f4xx_hal_pcd.c ****          (##) hpcd.pData = pdev;
  49:Drivers/STM32F4xx_HAL_Driver/Src/stm32f4xx_hal_pcd.c **** 
  50:Drivers/STM32F4xx_HAL_Driver/Src/stm32f4xx_hal_pcd.c ****      (#)Enable PCD transmission and reception:
  51:Drivers/STM32F4xx_HAL_Driver/Src/stm32f4xx_hal_pcd.c ****          (##) HAL_PCD_Start();
  52:Drivers/STM32F4xx_HAL_Driver/Src/stm32f4xx_hal_pcd.c **** 
  53:Drivers/STM32F4xx_HAL_Driver/Src/stm32f4xx_hal_pcd.c ****   @endverbatim
  54:Drivers/STM32F4xx_HAL_Driver/Src/stm32f4xx_hal_pcd.c ****   ******************************************************************************
  55:Drivers/STM32F4xx_HAL_Driver/Src/stm32f4xx_hal_pcd.c ****   */
  56:Drivers/STM32F4xx_HAL_Driver/Src/stm32f4xx_hal_pcd.c **** 
  57:Drivers/STM32F4xx_HAL_Driver/Src/stm32f4xx_hal_pcd.c **** /* Includes ------------------------------------------------------------------*/
  58:Drivers/STM32F4xx_HAL_Driver/Src/stm32f4xx_hal_pcd.c **** #include "stm32f4xx_hal.h"
  59:Drivers/STM32F4xx_HAL_Driver/Src/stm32f4xx_hal_pcd.c **** 
  60:Drivers/STM32F4xx_HAL_Driver/Src/stm32f4xx_hal_pcd.c **** /** @addtogroup STM32F4xx_HAL_Driver
  61:Drivers/STM32F4xx_HAL_Driver/Src/stm32f4xx_hal_pcd.c ****   * @{
  62:Drivers/STM32F4xx_HAL_Driver/Src/stm32f4xx_hal_pcd.c ****   */
  63:Drivers/STM32F4xx_HAL_Driver/Src/stm32f4xx_hal_pcd.c **** 
  64:Drivers/STM32F4xx_HAL_Driver/Src/stm32f4xx_hal_pcd.c **** /** @defgroup PCD PCD
  65:Drivers/STM32F4xx_HAL_Driver/Src/stm32f4xx_hal_pcd.c ****   * @brief PCD HAL module driver
  66:Drivers/STM32F4xx_HAL_Driver/Src/stm32f4xx_hal_pcd.c ****   * @{
  67:Drivers/STM32F4xx_HAL_Driver/Src/stm32f4xx_hal_pcd.c ****   */
  68:Drivers/STM32F4xx_HAL_Driver/Src/stm32f4xx_hal_pcd.c **** 
  69:Drivers/STM32F4xx_HAL_Driver/Src/stm32f4xx_hal_pcd.c **** #ifdef HAL_PCD_MODULE_ENABLED
  70:Drivers/STM32F4xx_HAL_Driver/Src/stm32f4xx_hal_pcd.c **** 
  71:Drivers/STM32F4xx_HAL_Driver/Src/stm32f4xx_hal_pcd.c **** #if defined (USB_OTG_FS) || defined (USB_OTG_HS)
  72:Drivers/STM32F4xx_HAL_Driver/Src/stm32f4xx_hal_pcd.c **** 
  73:Drivers/STM32F4xx_HAL_Driver/Src/stm32f4xx_hal_pcd.c **** /* Private types -------------------------------------------------------------*/
  74:Drivers/STM32F4xx_HAL_Driver/Src/stm32f4xx_hal_pcd.c **** /* Private variables ---------------------------------------------------------*/
  75:Drivers/STM32F4xx_HAL_Driver/Src/stm32f4xx_hal_pcd.c **** /* Private constants ---------------------------------------------------------*/
  76:Drivers/STM32F4xx_HAL_Driver/Src/stm32f4xx_hal_pcd.c **** /* Private macros ------------------------------------------------------------*/
  77:Drivers/STM32F4xx_HAL_Driver/Src/stm32f4xx_hal_pcd.c **** /** @defgroup PCD_Private_Macros PCD Private Macros
  78:Drivers/STM32F4xx_HAL_Driver/Src/stm32f4xx_hal_pcd.c ****   * @{
  79:Drivers/STM32F4xx_HAL_Driver/Src/stm32f4xx_hal_pcd.c ****   */
  80:Drivers/STM32F4xx_HAL_Driver/Src/stm32f4xx_hal_pcd.c **** #define PCD_MIN(a, b)  (((a) < (b)) ? (a) : (b))
  81:Drivers/STM32F4xx_HAL_Driver/Src/stm32f4xx_hal_pcd.c **** #define PCD_MAX(a, b)  (((a) > (b)) ? (a) : (b))
  82:Drivers/STM32F4xx_HAL_Driver/Src/stm32f4xx_hal_pcd.c **** /**
  83:Drivers/STM32F4xx_HAL_Driver/Src/stm32f4xx_hal_pcd.c ****   * @}
  84:Drivers/STM32F4xx_HAL_Driver/Src/stm32f4xx_hal_pcd.c ****   */
  85:Drivers/STM32F4xx_HAL_Driver/Src/stm32f4xx_hal_pcd.c **** 
  86:Drivers/STM32F4xx_HAL_Driver/Src/stm32f4xx_hal_pcd.c **** /* Private functions prototypes ----------------------------------------------*/
  87:Drivers/STM32F4xx_HAL_Driver/Src/stm32f4xx_hal_pcd.c **** /** @defgroup PCD_Private_Functions PCD Private Functions
ARM GAS  /tmp/ccQdZtFR.s 			page 3


  88:Drivers/STM32F4xx_HAL_Driver/Src/stm32f4xx_hal_pcd.c ****   * @{
  89:Drivers/STM32F4xx_HAL_Driver/Src/stm32f4xx_hal_pcd.c ****   */
  90:Drivers/STM32F4xx_HAL_Driver/Src/stm32f4xx_hal_pcd.c **** #if defined (USB_OTG_FS) || defined (USB_OTG_HS)
  91:Drivers/STM32F4xx_HAL_Driver/Src/stm32f4xx_hal_pcd.c **** static HAL_StatusTypeDef PCD_WriteEmptyTxFifo(PCD_HandleTypeDef *hpcd, uint32_t epnum);
  92:Drivers/STM32F4xx_HAL_Driver/Src/stm32f4xx_hal_pcd.c **** static HAL_StatusTypeDef PCD_EP_OutXfrComplete_int(PCD_HandleTypeDef *hpcd, uint32_t epnum);
  93:Drivers/STM32F4xx_HAL_Driver/Src/stm32f4xx_hal_pcd.c **** static HAL_StatusTypeDef PCD_EP_OutSetupPacket_int(PCD_HandleTypeDef *hpcd, uint32_t epnum);
  94:Drivers/STM32F4xx_HAL_Driver/Src/stm32f4xx_hal_pcd.c **** #endif /* defined (USB_OTG_FS) || defined (USB_OTG_HS) */
  95:Drivers/STM32F4xx_HAL_Driver/Src/stm32f4xx_hal_pcd.c **** /**
  96:Drivers/STM32F4xx_HAL_Driver/Src/stm32f4xx_hal_pcd.c ****   * @}
  97:Drivers/STM32F4xx_HAL_Driver/Src/stm32f4xx_hal_pcd.c ****   */
  98:Drivers/STM32F4xx_HAL_Driver/Src/stm32f4xx_hal_pcd.c **** 
  99:Drivers/STM32F4xx_HAL_Driver/Src/stm32f4xx_hal_pcd.c **** /* Exported functions --------------------------------------------------------*/
 100:Drivers/STM32F4xx_HAL_Driver/Src/stm32f4xx_hal_pcd.c **** /** @defgroup PCD_Exported_Functions PCD Exported Functions
 101:Drivers/STM32F4xx_HAL_Driver/Src/stm32f4xx_hal_pcd.c ****   * @{
 102:Drivers/STM32F4xx_HAL_Driver/Src/stm32f4xx_hal_pcd.c ****   */
 103:Drivers/STM32F4xx_HAL_Driver/Src/stm32f4xx_hal_pcd.c **** 
 104:Drivers/STM32F4xx_HAL_Driver/Src/stm32f4xx_hal_pcd.c **** /** @defgroup PCD_Exported_Functions_Group1 Initialization and de-initialization functions
 105:Drivers/STM32F4xx_HAL_Driver/Src/stm32f4xx_hal_pcd.c ****   *  @brief    Initialization and Configuration functions
 106:Drivers/STM32F4xx_HAL_Driver/Src/stm32f4xx_hal_pcd.c ****   *
 107:Drivers/STM32F4xx_HAL_Driver/Src/stm32f4xx_hal_pcd.c **** @verbatim
 108:Drivers/STM32F4xx_HAL_Driver/Src/stm32f4xx_hal_pcd.c ****  ===============================================================================
 109:Drivers/STM32F4xx_HAL_Driver/Src/stm32f4xx_hal_pcd.c ****             ##### Initialization and de-initialization functions #####
 110:Drivers/STM32F4xx_HAL_Driver/Src/stm32f4xx_hal_pcd.c ****  ===============================================================================
 111:Drivers/STM32F4xx_HAL_Driver/Src/stm32f4xx_hal_pcd.c ****     [..]  This section provides functions allowing to:
 112:Drivers/STM32F4xx_HAL_Driver/Src/stm32f4xx_hal_pcd.c **** 
 113:Drivers/STM32F4xx_HAL_Driver/Src/stm32f4xx_hal_pcd.c **** @endverbatim
 114:Drivers/STM32F4xx_HAL_Driver/Src/stm32f4xx_hal_pcd.c ****   * @{
 115:Drivers/STM32F4xx_HAL_Driver/Src/stm32f4xx_hal_pcd.c ****   */
 116:Drivers/STM32F4xx_HAL_Driver/Src/stm32f4xx_hal_pcd.c **** 
 117:Drivers/STM32F4xx_HAL_Driver/Src/stm32f4xx_hal_pcd.c **** /**
 118:Drivers/STM32F4xx_HAL_Driver/Src/stm32f4xx_hal_pcd.c ****   * @brief  Initializes the PCD according to the specified
 119:Drivers/STM32F4xx_HAL_Driver/Src/stm32f4xx_hal_pcd.c ****   *         parameters in the PCD_InitTypeDef and initialize the associated handle.
 120:Drivers/STM32F4xx_HAL_Driver/Src/stm32f4xx_hal_pcd.c ****   * @param  hpcd PCD handle
 121:Drivers/STM32F4xx_HAL_Driver/Src/stm32f4xx_hal_pcd.c ****   * @retval HAL status
 122:Drivers/STM32F4xx_HAL_Driver/Src/stm32f4xx_hal_pcd.c ****   */
 123:Drivers/STM32F4xx_HAL_Driver/Src/stm32f4xx_hal_pcd.c **** HAL_StatusTypeDef HAL_PCD_Init(PCD_HandleTypeDef *hpcd)
 124:Drivers/STM32F4xx_HAL_Driver/Src/stm32f4xx_hal_pcd.c **** {
  29              		.loc 1 124 1
  30              		.cfi_startproc
  31              		@ args = 0, pretend = 0, frame = 16
  32              		@ frame_needed = 1, uses_anonymous_args = 0
  33 0000 F0B5     		push	{r4, r5, r6, r7, lr}
  34              	.LCFI0:
  35              		.cfi_def_cfa_offset 20
  36              		.cfi_offset 4, -20
  37              		.cfi_offset 5, -16
  38              		.cfi_offset 6, -12
  39              		.cfi_offset 7, -8
  40              		.cfi_offset 14, -4
  41 0002 8FB0     		sub	sp, sp, #60
  42              	.LCFI1:
  43              		.cfi_def_cfa_offset 80
  44 0004 0AAF     		add	r7, sp, #40
  45              	.LCFI2:
  46              		.cfi_def_cfa 7, 40
  47 0006 7860     		str	r0, [r7, #4]
 125:Drivers/STM32F4xx_HAL_Driver/Src/stm32f4xx_hal_pcd.c ****   USB_OTG_GlobalTypeDef *USBx;
ARM GAS  /tmp/ccQdZtFR.s 			page 4


 126:Drivers/STM32F4xx_HAL_Driver/Src/stm32f4xx_hal_pcd.c ****   uint8_t i;
 127:Drivers/STM32F4xx_HAL_Driver/Src/stm32f4xx_hal_pcd.c **** 
 128:Drivers/STM32F4xx_HAL_Driver/Src/stm32f4xx_hal_pcd.c ****   /* Check the PCD handle allocation */
 129:Drivers/STM32F4xx_HAL_Driver/Src/stm32f4xx_hal_pcd.c ****   if (hpcd == NULL)
  48              		.loc 1 129 6
  49 0008 7B68     		ldr	r3, [r7, #4]
  50 000a 002B     		cmp	r3, #0
  51 000c 01D1     		bne	.L2
 130:Drivers/STM32F4xx_HAL_Driver/Src/stm32f4xx_hal_pcd.c ****   {
 131:Drivers/STM32F4xx_HAL_Driver/Src/stm32f4xx_hal_pcd.c ****     return HAL_ERROR;
  52              		.loc 1 131 12
  53 000e 0123     		movs	r3, #1
  54 0010 16E1     		b	.L3
  55              	.L2:
 132:Drivers/STM32F4xx_HAL_Driver/Src/stm32f4xx_hal_pcd.c ****   }
 133:Drivers/STM32F4xx_HAL_Driver/Src/stm32f4xx_hal_pcd.c **** 
 134:Drivers/STM32F4xx_HAL_Driver/Src/stm32f4xx_hal_pcd.c ****   /* Check the parameters */
 135:Drivers/STM32F4xx_HAL_Driver/Src/stm32f4xx_hal_pcd.c ****   assert_param(IS_PCD_ALL_INSTANCE(hpcd->Instance));
 136:Drivers/STM32F4xx_HAL_Driver/Src/stm32f4xx_hal_pcd.c **** 
 137:Drivers/STM32F4xx_HAL_Driver/Src/stm32f4xx_hal_pcd.c ****   USBx = hpcd->Instance;
  56              		.loc 1 137 8
  57 0012 7B68     		ldr	r3, [r7, #4]
  58 0014 1B68     		ldr	r3, [r3]
  59 0016 BB60     		str	r3, [r7, #8]
 138:Drivers/STM32F4xx_HAL_Driver/Src/stm32f4xx_hal_pcd.c **** 
 139:Drivers/STM32F4xx_HAL_Driver/Src/stm32f4xx_hal_pcd.c ****   if (hpcd->State == HAL_PCD_STATE_RESET)
  60              		.loc 1 139 11
  61 0018 7B68     		ldr	r3, [r7, #4]
  62 001a 93F8BD34 		ldrb	r3, [r3, #1213]
  63 001e DBB2     		uxtb	r3, r3
  64              		.loc 1 139 6
  65 0020 002B     		cmp	r3, #0
  66 0022 06D1     		bne	.L4
 140:Drivers/STM32F4xx_HAL_Driver/Src/stm32f4xx_hal_pcd.c ****   {
 141:Drivers/STM32F4xx_HAL_Driver/Src/stm32f4xx_hal_pcd.c ****     /* Allocate lock resource and initialize it */
 142:Drivers/STM32F4xx_HAL_Driver/Src/stm32f4xx_hal_pcd.c ****     hpcd->Lock = HAL_UNLOCKED;
  67              		.loc 1 142 16
  68 0024 7B68     		ldr	r3, [r7, #4]
  69 0026 0022     		movs	r2, #0
  70 0028 83F8BC24 		strb	r2, [r3, #1212]
 143:Drivers/STM32F4xx_HAL_Driver/Src/stm32f4xx_hal_pcd.c **** 
 144:Drivers/STM32F4xx_HAL_Driver/Src/stm32f4xx_hal_pcd.c **** #if (USE_HAL_PCD_REGISTER_CALLBACKS == 1U)
 145:Drivers/STM32F4xx_HAL_Driver/Src/stm32f4xx_hal_pcd.c ****     hpcd->SOFCallback = HAL_PCD_SOFCallback;
 146:Drivers/STM32F4xx_HAL_Driver/Src/stm32f4xx_hal_pcd.c ****     hpcd->SetupStageCallback = HAL_PCD_SetupStageCallback;
 147:Drivers/STM32F4xx_HAL_Driver/Src/stm32f4xx_hal_pcd.c ****     hpcd->ResetCallback = HAL_PCD_ResetCallback;
 148:Drivers/STM32F4xx_HAL_Driver/Src/stm32f4xx_hal_pcd.c ****     hpcd->SuspendCallback = HAL_PCD_SuspendCallback;
 149:Drivers/STM32F4xx_HAL_Driver/Src/stm32f4xx_hal_pcd.c ****     hpcd->ResumeCallback = HAL_PCD_ResumeCallback;
 150:Drivers/STM32F4xx_HAL_Driver/Src/stm32f4xx_hal_pcd.c ****     hpcd->ConnectCallback = HAL_PCD_ConnectCallback;
 151:Drivers/STM32F4xx_HAL_Driver/Src/stm32f4xx_hal_pcd.c ****     hpcd->DisconnectCallback = HAL_PCD_DisconnectCallback;
 152:Drivers/STM32F4xx_HAL_Driver/Src/stm32f4xx_hal_pcd.c ****     hpcd->DataOutStageCallback = HAL_PCD_DataOutStageCallback;
 153:Drivers/STM32F4xx_HAL_Driver/Src/stm32f4xx_hal_pcd.c ****     hpcd->DataInStageCallback = HAL_PCD_DataInStageCallback;
 154:Drivers/STM32F4xx_HAL_Driver/Src/stm32f4xx_hal_pcd.c ****     hpcd->ISOOUTIncompleteCallback = HAL_PCD_ISOOUTIncompleteCallback;
 155:Drivers/STM32F4xx_HAL_Driver/Src/stm32f4xx_hal_pcd.c ****     hpcd->ISOINIncompleteCallback = HAL_PCD_ISOINIncompleteCallback;
 156:Drivers/STM32F4xx_HAL_Driver/Src/stm32f4xx_hal_pcd.c ****     hpcd->LPMCallback = HAL_PCDEx_LPM_Callback;
 157:Drivers/STM32F4xx_HAL_Driver/Src/stm32f4xx_hal_pcd.c ****     hpcd->BCDCallback = HAL_PCDEx_BCD_Callback;
 158:Drivers/STM32F4xx_HAL_Driver/Src/stm32f4xx_hal_pcd.c **** 
 159:Drivers/STM32F4xx_HAL_Driver/Src/stm32f4xx_hal_pcd.c ****     if (hpcd->MspInitCallback == NULL)
ARM GAS  /tmp/ccQdZtFR.s 			page 5


 160:Drivers/STM32F4xx_HAL_Driver/Src/stm32f4xx_hal_pcd.c ****     {
 161:Drivers/STM32F4xx_HAL_Driver/Src/stm32f4xx_hal_pcd.c ****       hpcd->MspInitCallback = HAL_PCD_MspInit;
 162:Drivers/STM32F4xx_HAL_Driver/Src/stm32f4xx_hal_pcd.c ****     }
 163:Drivers/STM32F4xx_HAL_Driver/Src/stm32f4xx_hal_pcd.c **** 
 164:Drivers/STM32F4xx_HAL_Driver/Src/stm32f4xx_hal_pcd.c ****     /* Init the low level hardware */
 165:Drivers/STM32F4xx_HAL_Driver/Src/stm32f4xx_hal_pcd.c ****     hpcd->MspInitCallback(hpcd);
 166:Drivers/STM32F4xx_HAL_Driver/Src/stm32f4xx_hal_pcd.c **** #else
 167:Drivers/STM32F4xx_HAL_Driver/Src/stm32f4xx_hal_pcd.c ****     /* Init the low level hardware : GPIO, CLOCK, NVIC... */
 168:Drivers/STM32F4xx_HAL_Driver/Src/stm32f4xx_hal_pcd.c ****     HAL_PCD_MspInit(hpcd);
  71              		.loc 1 168 5
  72 002c 7868     		ldr	r0, [r7, #4]
  73 002e FFF7FEFF 		bl	HAL_PCD_MspInit
  74              	.L4:
 169:Drivers/STM32F4xx_HAL_Driver/Src/stm32f4xx_hal_pcd.c **** #endif /* (USE_HAL_PCD_REGISTER_CALLBACKS) */
 170:Drivers/STM32F4xx_HAL_Driver/Src/stm32f4xx_hal_pcd.c ****   }
 171:Drivers/STM32F4xx_HAL_Driver/Src/stm32f4xx_hal_pcd.c **** 
 172:Drivers/STM32F4xx_HAL_Driver/Src/stm32f4xx_hal_pcd.c ****   hpcd->State = HAL_PCD_STATE_BUSY;
  75              		.loc 1 172 15
  76 0032 7B68     		ldr	r3, [r7, #4]
  77 0034 0322     		movs	r2, #3
  78 0036 83F8BD24 		strb	r2, [r3, #1213]
 173:Drivers/STM32F4xx_HAL_Driver/Src/stm32f4xx_hal_pcd.c **** 
 174:Drivers/STM32F4xx_HAL_Driver/Src/stm32f4xx_hal_pcd.c ****   /* Disable DMA mode for FS instance */
 175:Drivers/STM32F4xx_HAL_Driver/Src/stm32f4xx_hal_pcd.c ****   if ((USBx->CID & (0x1U << 8)) == 0U)
  79              		.loc 1 175 12
  80 003a BB68     		ldr	r3, [r7, #8]
  81 003c DB6B     		ldr	r3, [r3, #60]
  82              		.loc 1 175 18
  83 003e 03F48073 		and	r3, r3, #256
  84              		.loc 1 175 6
  85 0042 002B     		cmp	r3, #0
  86 0044 02D1     		bne	.L5
 176:Drivers/STM32F4xx_HAL_Driver/Src/stm32f4xx_hal_pcd.c ****   {
 177:Drivers/STM32F4xx_HAL_Driver/Src/stm32f4xx_hal_pcd.c ****     hpcd->Init.dma_enable = 0U;
  87              		.loc 1 177 27
  88 0046 7B68     		ldr	r3, [r7, #4]
  89 0048 0022     		movs	r2, #0
  90 004a 1A61     		str	r2, [r3, #16]
  91              	.L5:
 178:Drivers/STM32F4xx_HAL_Driver/Src/stm32f4xx_hal_pcd.c ****   }
 179:Drivers/STM32F4xx_HAL_Driver/Src/stm32f4xx_hal_pcd.c **** 
 180:Drivers/STM32F4xx_HAL_Driver/Src/stm32f4xx_hal_pcd.c ****   /* Disable the Interrupts */
 181:Drivers/STM32F4xx_HAL_Driver/Src/stm32f4xx_hal_pcd.c ****   __HAL_PCD_DISABLE(hpcd);
  92              		.loc 1 181 3
  93 004c 7B68     		ldr	r3, [r7, #4]
  94 004e 1B68     		ldr	r3, [r3]
  95 0050 1846     		mov	r0, r3
  96 0052 FFF7FEFF 		bl	USB_DisableGlobalInt
 182:Drivers/STM32F4xx_HAL_Driver/Src/stm32f4xx_hal_pcd.c **** 
 183:Drivers/STM32F4xx_HAL_Driver/Src/stm32f4xx_hal_pcd.c ****   /*Init the Core (common init.) */
 184:Drivers/STM32F4xx_HAL_Driver/Src/stm32f4xx_hal_pcd.c ****   if (USB_CoreInit(hpcd->Instance, hpcd->Init) != HAL_OK)
  97              		.loc 1 184 24
  98 0056 7B68     		ldr	r3, [r7, #4]
  99 0058 1B68     		ldr	r3, [r3]
 100 005a 3B60     		str	r3, [r7]
 101              		.loc 1 184 7
 102 005c 7E68     		ldr	r6, [r7, #4]
ARM GAS  /tmp/ccQdZtFR.s 			page 6


 103 005e 6D46     		mov	r5, sp
 104 0060 06F11004 		add	r4, r6, #16
 105 0064 0FCC     		ldmia	r4!, {r0, r1, r2, r3}
 106 0066 0FC5     		stmia	r5!, {r0, r1, r2, r3}
 107 0068 0FCC     		ldmia	r4!, {r0, r1, r2, r3}
 108 006a 0FC5     		stmia	r5!, {r0, r1, r2, r3}
 109 006c 94E80300 		ldm	r4, {r0, r1}
 110 0070 85E80300 		stm	r5, {r0, r1}
 111 0074 331D     		adds	r3, r6, #4
 112 0076 0ECB     		ldm	r3, {r1, r2, r3}
 113 0078 3868     		ldr	r0, [r7]
 114 007a FFF7FEFF 		bl	USB_CoreInit
 115 007e 0346     		mov	r3, r0
 116              		.loc 1 184 6
 117 0080 002B     		cmp	r3, #0
 118 0082 05D0     		beq	.L6
 185:Drivers/STM32F4xx_HAL_Driver/Src/stm32f4xx_hal_pcd.c ****   {
 186:Drivers/STM32F4xx_HAL_Driver/Src/stm32f4xx_hal_pcd.c ****     hpcd->State = HAL_PCD_STATE_ERROR;
 119              		.loc 1 186 17
 120 0084 7B68     		ldr	r3, [r7, #4]
 121 0086 0222     		movs	r2, #2
 122 0088 83F8BD24 		strb	r2, [r3, #1213]
 187:Drivers/STM32F4xx_HAL_Driver/Src/stm32f4xx_hal_pcd.c ****     return HAL_ERROR;
 123              		.loc 1 187 12
 124 008c 0123     		movs	r3, #1
 125 008e D7E0     		b	.L3
 126              	.L6:
 188:Drivers/STM32F4xx_HAL_Driver/Src/stm32f4xx_hal_pcd.c ****   }
 189:Drivers/STM32F4xx_HAL_Driver/Src/stm32f4xx_hal_pcd.c **** 
 190:Drivers/STM32F4xx_HAL_Driver/Src/stm32f4xx_hal_pcd.c ****   /* Force Device Mode*/
 191:Drivers/STM32F4xx_HAL_Driver/Src/stm32f4xx_hal_pcd.c ****   (void)USB_SetCurrentMode(hpcd->Instance, USB_DEVICE_MODE);
 127              		.loc 1 191 32
 128 0090 7B68     		ldr	r3, [r7, #4]
 129 0092 1B68     		ldr	r3, [r3]
 130              		.loc 1 191 9
 131 0094 0021     		movs	r1, #0
 132 0096 1846     		mov	r0, r3
 133 0098 FFF7FEFF 		bl	USB_SetCurrentMode
 192:Drivers/STM32F4xx_HAL_Driver/Src/stm32f4xx_hal_pcd.c **** 
 193:Drivers/STM32F4xx_HAL_Driver/Src/stm32f4xx_hal_pcd.c ****   /* Init endpoints structures */
 194:Drivers/STM32F4xx_HAL_Driver/Src/stm32f4xx_hal_pcd.c ****   for (i = 0U; i < hpcd->Init.dev_endpoints; i++)
 134              		.loc 1 194 10
 135 009c 0023     		movs	r3, #0
 136 009e FB73     		strb	r3, [r7, #15]
 137              		.loc 1 194 3
 138 00a0 4AE0     		b	.L7
 139              	.L8:
 195:Drivers/STM32F4xx_HAL_Driver/Src/stm32f4xx_hal_pcd.c ****   {
 196:Drivers/STM32F4xx_HAL_Driver/Src/stm32f4xx_hal_pcd.c ****     /* Init ep structure */
 197:Drivers/STM32F4xx_HAL_Driver/Src/stm32f4xx_hal_pcd.c ****     hpcd->IN_ep[i].is_in = 1U;
 140              		.loc 1 197 19 discriminator 3
 141 00a2 FA7B     		ldrb	r2, [r7, #15]	@ zero_extendqisi2
 142              		.loc 1 197 26 discriminator 3
 143 00a4 7968     		ldr	r1, [r7, #4]
 144 00a6 1346     		mov	r3, r2
 145 00a8 DB00     		lsls	r3, r3, #3
 146 00aa 1344     		add	r3, r3, r2
ARM GAS  /tmp/ccQdZtFR.s 			page 7


 147 00ac 9B00     		lsls	r3, r3, #2
 148 00ae 0B44     		add	r3, r3, r1
 149 00b0 3D33     		adds	r3, r3, #61
 150 00b2 0122     		movs	r2, #1
 151 00b4 1A70     		strb	r2, [r3]
 198:Drivers/STM32F4xx_HAL_Driver/Src/stm32f4xx_hal_pcd.c ****     hpcd->IN_ep[i].num = i;
 152              		.loc 1 198 19 discriminator 3
 153 00b6 FA7B     		ldrb	r2, [r7, #15]	@ zero_extendqisi2
 154              		.loc 1 198 24 discriminator 3
 155 00b8 7968     		ldr	r1, [r7, #4]
 156 00ba 1346     		mov	r3, r2
 157 00bc DB00     		lsls	r3, r3, #3
 158 00be 1344     		add	r3, r3, r2
 159 00c0 9B00     		lsls	r3, r3, #2
 160 00c2 0B44     		add	r3, r3, r1
 161 00c4 3C33     		adds	r3, r3, #60
 162 00c6 FA7B     		ldrb	r2, [r7, #15]
 163 00c8 1A70     		strb	r2, [r3]
 199:Drivers/STM32F4xx_HAL_Driver/Src/stm32f4xx_hal_pcd.c ****     hpcd->IN_ep[i].tx_fifo_num = i;
 164              		.loc 1 199 19 discriminator 3
 165 00ca FA7B     		ldrb	r2, [r7, #15]	@ zero_extendqisi2
 166              		.loc 1 199 32 discriminator 3
 167 00cc FB7B     		ldrb	r3, [r7, #15]	@ zero_extendqisi2
 168 00ce 98B2     		uxth	r0, r3
 169 00d0 7968     		ldr	r1, [r7, #4]
 170 00d2 1346     		mov	r3, r2
 171 00d4 DB00     		lsls	r3, r3, #3
 172 00d6 1344     		add	r3, r3, r2
 173 00d8 9B00     		lsls	r3, r3, #2
 174 00da 0B44     		add	r3, r3, r1
 175 00dc 4433     		adds	r3, r3, #68
 176 00de 0246     		mov	r2, r0	@ movhi
 177 00e0 1A80     		strh	r2, [r3]	@ movhi
 200:Drivers/STM32F4xx_HAL_Driver/Src/stm32f4xx_hal_pcd.c ****     /* Control until ep is activated */
 201:Drivers/STM32F4xx_HAL_Driver/Src/stm32f4xx_hal_pcd.c ****     hpcd->IN_ep[i].type = EP_TYPE_CTRL;
 178              		.loc 1 201 19 discriminator 3
 179 00e2 FA7B     		ldrb	r2, [r7, #15]	@ zero_extendqisi2
 180              		.loc 1 201 25 discriminator 3
 181 00e4 7968     		ldr	r1, [r7, #4]
 182 00e6 1346     		mov	r3, r2
 183 00e8 DB00     		lsls	r3, r3, #3
 184 00ea 1344     		add	r3, r3, r2
 185 00ec 9B00     		lsls	r3, r3, #2
 186 00ee 0B44     		add	r3, r3, r1
 187 00f0 4033     		adds	r3, r3, #64
 188 00f2 0022     		movs	r2, #0
 189 00f4 1A70     		strb	r2, [r3]
 202:Drivers/STM32F4xx_HAL_Driver/Src/stm32f4xx_hal_pcd.c ****     hpcd->IN_ep[i].maxpacket = 0U;
 190              		.loc 1 202 19 discriminator 3
 191 00f6 FA7B     		ldrb	r2, [r7, #15]	@ zero_extendqisi2
 192              		.loc 1 202 30 discriminator 3
 193 00f8 7968     		ldr	r1, [r7, #4]
 194 00fa 1346     		mov	r3, r2
 195 00fc DB00     		lsls	r3, r3, #3
 196 00fe 1344     		add	r3, r3, r2
 197 0100 9B00     		lsls	r3, r3, #2
 198 0102 0B44     		add	r3, r3, r1
ARM GAS  /tmp/ccQdZtFR.s 			page 8


 199 0104 4833     		adds	r3, r3, #72
 200 0106 0022     		movs	r2, #0
 201 0108 1A60     		str	r2, [r3]
 203:Drivers/STM32F4xx_HAL_Driver/Src/stm32f4xx_hal_pcd.c ****     hpcd->IN_ep[i].xfer_buff = 0U;
 202              		.loc 1 203 19 discriminator 3
 203 010a FA7B     		ldrb	r2, [r7, #15]	@ zero_extendqisi2
 204              		.loc 1 203 30 discriminator 3
 205 010c 7968     		ldr	r1, [r7, #4]
 206 010e 1346     		mov	r3, r2
 207 0110 DB00     		lsls	r3, r3, #3
 208 0112 1344     		add	r3, r3, r2
 209 0114 9B00     		lsls	r3, r3, #2
 210 0116 0B44     		add	r3, r3, r1
 211 0118 4C33     		adds	r3, r3, #76
 212 011a 0022     		movs	r2, #0
 213 011c 1A60     		str	r2, [r3]
 204:Drivers/STM32F4xx_HAL_Driver/Src/stm32f4xx_hal_pcd.c ****     hpcd->IN_ep[i].xfer_len = 0U;
 214              		.loc 1 204 19 discriminator 3
 215 011e FA7B     		ldrb	r2, [r7, #15]	@ zero_extendqisi2
 216              		.loc 1 204 29 discriminator 3
 217 0120 7968     		ldr	r1, [r7, #4]
 218 0122 1346     		mov	r3, r2
 219 0124 DB00     		lsls	r3, r3, #3
 220 0126 1344     		add	r3, r3, r2
 221 0128 9B00     		lsls	r3, r3, #2
 222 012a 0B44     		add	r3, r3, r1
 223 012c 5433     		adds	r3, r3, #84
 224 012e 0022     		movs	r2, #0
 225 0130 1A60     		str	r2, [r3]
 194:Drivers/STM32F4xx_HAL_Driver/Src/stm32f4xx_hal_pcd.c ****   {
 226              		.loc 1 194 47 discriminator 3
 227 0132 FB7B     		ldrb	r3, [r7, #15]	@ zero_extendqisi2
 228 0134 0133     		adds	r3, r3, #1
 229 0136 FB73     		strb	r3, [r7, #15]
 230              	.L7:
 194:Drivers/STM32F4xx_HAL_Driver/Src/stm32f4xx_hal_pcd.c ****   {
 231              		.loc 1 194 18 discriminator 1
 232 0138 FA7B     		ldrb	r2, [r7, #15]	@ zero_extendqisi2
 194:Drivers/STM32F4xx_HAL_Driver/Src/stm32f4xx_hal_pcd.c ****   {
 233              		.loc 1 194 30 discriminator 1
 234 013a 7B68     		ldr	r3, [r7, #4]
 235 013c 5B68     		ldr	r3, [r3, #4]
 194:Drivers/STM32F4xx_HAL_Driver/Src/stm32f4xx_hal_pcd.c ****   {
 236              		.loc 1 194 3 discriminator 1
 237 013e 9A42     		cmp	r2, r3
 238 0140 AFD3     		bcc	.L8
 205:Drivers/STM32F4xx_HAL_Driver/Src/stm32f4xx_hal_pcd.c ****   }
 206:Drivers/STM32F4xx_HAL_Driver/Src/stm32f4xx_hal_pcd.c **** 
 207:Drivers/STM32F4xx_HAL_Driver/Src/stm32f4xx_hal_pcd.c ****   for (i = 0U; i < hpcd->Init.dev_endpoints; i++)
 239              		.loc 1 207 10
 240 0142 0023     		movs	r3, #0
 241 0144 FB73     		strb	r3, [r7, #15]
 242              		.loc 1 207 3
 243 0146 44E0     		b	.L9
 244              	.L10:
 208:Drivers/STM32F4xx_HAL_Driver/Src/stm32f4xx_hal_pcd.c ****   {
 209:Drivers/STM32F4xx_HAL_Driver/Src/stm32f4xx_hal_pcd.c ****     hpcd->OUT_ep[i].is_in = 0U;
ARM GAS  /tmp/ccQdZtFR.s 			page 9


 245              		.loc 1 209 20 discriminator 3
 246 0148 FA7B     		ldrb	r2, [r7, #15]	@ zero_extendqisi2
 247              		.loc 1 209 27 discriminator 3
 248 014a 7968     		ldr	r1, [r7, #4]
 249 014c 1346     		mov	r3, r2
 250 014e DB00     		lsls	r3, r3, #3
 251 0150 1344     		add	r3, r3, r2
 252 0152 9B00     		lsls	r3, r3, #2
 253 0154 0B44     		add	r3, r3, r1
 254 0156 03F27D23 		addw	r3, r3, #637
 255 015a 0022     		movs	r2, #0
 256 015c 1A70     		strb	r2, [r3]
 210:Drivers/STM32F4xx_HAL_Driver/Src/stm32f4xx_hal_pcd.c ****     hpcd->OUT_ep[i].num = i;
 257              		.loc 1 210 20 discriminator 3
 258 015e FA7B     		ldrb	r2, [r7, #15]	@ zero_extendqisi2
 259              		.loc 1 210 25 discriminator 3
 260 0160 7968     		ldr	r1, [r7, #4]
 261 0162 1346     		mov	r3, r2
 262 0164 DB00     		lsls	r3, r3, #3
 263 0166 1344     		add	r3, r3, r2
 264 0168 9B00     		lsls	r3, r3, #2
 265 016a 0B44     		add	r3, r3, r1
 266 016c 03F51F73 		add	r3, r3, #636
 267 0170 FA7B     		ldrb	r2, [r7, #15]
 268 0172 1A70     		strb	r2, [r3]
 211:Drivers/STM32F4xx_HAL_Driver/Src/stm32f4xx_hal_pcd.c ****     /* Control until ep is activated */
 212:Drivers/STM32F4xx_HAL_Driver/Src/stm32f4xx_hal_pcd.c ****     hpcd->OUT_ep[i].type = EP_TYPE_CTRL;
 269              		.loc 1 212 20 discriminator 3
 270 0174 FA7B     		ldrb	r2, [r7, #15]	@ zero_extendqisi2
 271              		.loc 1 212 26 discriminator 3
 272 0176 7968     		ldr	r1, [r7, #4]
 273 0178 1346     		mov	r3, r2
 274 017a DB00     		lsls	r3, r3, #3
 275 017c 1344     		add	r3, r3, r2
 276 017e 9B00     		lsls	r3, r3, #2
 277 0180 0B44     		add	r3, r3, r1
 278 0182 03F52073 		add	r3, r3, #640
 279 0186 0022     		movs	r2, #0
 280 0188 1A70     		strb	r2, [r3]
 213:Drivers/STM32F4xx_HAL_Driver/Src/stm32f4xx_hal_pcd.c ****     hpcd->OUT_ep[i].maxpacket = 0U;
 281              		.loc 1 213 20 discriminator 3
 282 018a FA7B     		ldrb	r2, [r7, #15]	@ zero_extendqisi2
 283              		.loc 1 213 31 discriminator 3
 284 018c 7968     		ldr	r1, [r7, #4]
 285 018e 1346     		mov	r3, r2
 286 0190 DB00     		lsls	r3, r3, #3
 287 0192 1344     		add	r3, r3, r2
 288 0194 9B00     		lsls	r3, r3, #2
 289 0196 0B44     		add	r3, r3, r1
 290 0198 03F52273 		add	r3, r3, #648
 291 019c 0022     		movs	r2, #0
 292 019e 1A60     		str	r2, [r3]
 214:Drivers/STM32F4xx_HAL_Driver/Src/stm32f4xx_hal_pcd.c ****     hpcd->OUT_ep[i].xfer_buff = 0U;
 293              		.loc 1 214 20 discriminator 3
 294 01a0 FA7B     		ldrb	r2, [r7, #15]	@ zero_extendqisi2
 295              		.loc 1 214 31 discriminator 3
 296 01a2 7968     		ldr	r1, [r7, #4]
ARM GAS  /tmp/ccQdZtFR.s 			page 10


 297 01a4 1346     		mov	r3, r2
 298 01a6 DB00     		lsls	r3, r3, #3
 299 01a8 1344     		add	r3, r3, r2
 300 01aa 9B00     		lsls	r3, r3, #2
 301 01ac 0B44     		add	r3, r3, r1
 302 01ae 03F52373 		add	r3, r3, #652
 303 01b2 0022     		movs	r2, #0
 304 01b4 1A60     		str	r2, [r3]
 215:Drivers/STM32F4xx_HAL_Driver/Src/stm32f4xx_hal_pcd.c ****     hpcd->OUT_ep[i].xfer_len = 0U;
 305              		.loc 1 215 20 discriminator 3
 306 01b6 FA7B     		ldrb	r2, [r7, #15]	@ zero_extendqisi2
 307              		.loc 1 215 30 discriminator 3
 308 01b8 7968     		ldr	r1, [r7, #4]
 309 01ba 1346     		mov	r3, r2
 310 01bc DB00     		lsls	r3, r3, #3
 311 01be 1344     		add	r3, r3, r2
 312 01c0 9B00     		lsls	r3, r3, #2
 313 01c2 0B44     		add	r3, r3, r1
 314 01c4 03F52573 		add	r3, r3, #660
 315 01c8 0022     		movs	r2, #0
 316 01ca 1A60     		str	r2, [r3]
 207:Drivers/STM32F4xx_HAL_Driver/Src/stm32f4xx_hal_pcd.c ****   {
 317              		.loc 1 207 47 discriminator 3
 318 01cc FB7B     		ldrb	r3, [r7, #15]	@ zero_extendqisi2
 319 01ce 0133     		adds	r3, r3, #1
 320 01d0 FB73     		strb	r3, [r7, #15]
 321              	.L9:
 207:Drivers/STM32F4xx_HAL_Driver/Src/stm32f4xx_hal_pcd.c ****   {
 322              		.loc 1 207 18 discriminator 1
 323 01d2 FA7B     		ldrb	r2, [r7, #15]	@ zero_extendqisi2
 207:Drivers/STM32F4xx_HAL_Driver/Src/stm32f4xx_hal_pcd.c ****   {
 324              		.loc 1 207 30 discriminator 1
 325 01d4 7B68     		ldr	r3, [r7, #4]
 326 01d6 5B68     		ldr	r3, [r3, #4]
 207:Drivers/STM32F4xx_HAL_Driver/Src/stm32f4xx_hal_pcd.c ****   {
 327              		.loc 1 207 3 discriminator 1
 328 01d8 9A42     		cmp	r2, r3
 329 01da B5D3     		bcc	.L10
 216:Drivers/STM32F4xx_HAL_Driver/Src/stm32f4xx_hal_pcd.c ****   }
 217:Drivers/STM32F4xx_HAL_Driver/Src/stm32f4xx_hal_pcd.c **** 
 218:Drivers/STM32F4xx_HAL_Driver/Src/stm32f4xx_hal_pcd.c ****   /* Init Device */
 219:Drivers/STM32F4xx_HAL_Driver/Src/stm32f4xx_hal_pcd.c ****   if (USB_DevInit(hpcd->Instance, hpcd->Init) != HAL_OK)
 330              		.loc 1 219 23
 331 01dc 7B68     		ldr	r3, [r7, #4]
 332 01de 1B68     		ldr	r3, [r3]
 333 01e0 3B60     		str	r3, [r7]
 334              		.loc 1 219 7
 335 01e2 7E68     		ldr	r6, [r7, #4]
 336 01e4 6D46     		mov	r5, sp
 337 01e6 06F11004 		add	r4, r6, #16
 338 01ea 0FCC     		ldmia	r4!, {r0, r1, r2, r3}
 339 01ec 0FC5     		stmia	r5!, {r0, r1, r2, r3}
 340 01ee 0FCC     		ldmia	r4!, {r0, r1, r2, r3}
 341 01f0 0FC5     		stmia	r5!, {r0, r1, r2, r3}
 342 01f2 94E80300 		ldm	r4, {r0, r1}
 343 01f6 85E80300 		stm	r5, {r0, r1}
 344 01fa 331D     		adds	r3, r6, #4
ARM GAS  /tmp/ccQdZtFR.s 			page 11


 345 01fc 0ECB     		ldm	r3, {r1, r2, r3}
 346 01fe 3868     		ldr	r0, [r7]
 347 0200 FFF7FEFF 		bl	USB_DevInit
 348 0204 0346     		mov	r3, r0
 349              		.loc 1 219 6
 350 0206 002B     		cmp	r3, #0
 351 0208 05D0     		beq	.L11
 220:Drivers/STM32F4xx_HAL_Driver/Src/stm32f4xx_hal_pcd.c ****   {
 221:Drivers/STM32F4xx_HAL_Driver/Src/stm32f4xx_hal_pcd.c ****     hpcd->State = HAL_PCD_STATE_ERROR;
 352              		.loc 1 221 17
 353 020a 7B68     		ldr	r3, [r7, #4]
 354 020c 0222     		movs	r2, #2
 355 020e 83F8BD24 		strb	r2, [r3, #1213]
 222:Drivers/STM32F4xx_HAL_Driver/Src/stm32f4xx_hal_pcd.c ****     return HAL_ERROR;
 356              		.loc 1 222 12
 357 0212 0123     		movs	r3, #1
 358 0214 14E0     		b	.L3
 359              	.L11:
 223:Drivers/STM32F4xx_HAL_Driver/Src/stm32f4xx_hal_pcd.c ****   }
 224:Drivers/STM32F4xx_HAL_Driver/Src/stm32f4xx_hal_pcd.c **** 
 225:Drivers/STM32F4xx_HAL_Driver/Src/stm32f4xx_hal_pcd.c ****   hpcd->USB_Address = 0U;
 360              		.loc 1 225 21
 361 0216 7B68     		ldr	r3, [r7, #4]
 362 0218 0022     		movs	r2, #0
 363 021a 83F83820 		strb	r2, [r3, #56]
 226:Drivers/STM32F4xx_HAL_Driver/Src/stm32f4xx_hal_pcd.c ****   hpcd->State = HAL_PCD_STATE_READY;
 364              		.loc 1 226 15
 365 021e 7B68     		ldr	r3, [r7, #4]
 366 0220 0122     		movs	r2, #1
 367 0222 83F8BD24 		strb	r2, [r3, #1213]
 227:Drivers/STM32F4xx_HAL_Driver/Src/stm32f4xx_hal_pcd.c **** #if defined(STM32F446xx) || defined(STM32F469xx) || defined(STM32F479xx) || defined(STM32F412Zx) ||
 228:Drivers/STM32F4xx_HAL_Driver/Src/stm32f4xx_hal_pcd.c ****   /* Activate LPM */
 229:Drivers/STM32F4xx_HAL_Driver/Src/stm32f4xx_hal_pcd.c ****   if (hpcd->Init.lpm_enable == 1U)
 368              		.loc 1 229 17
 369 0226 7B68     		ldr	r3, [r7, #4]
 370 0228 5B6A     		ldr	r3, [r3, #36]
 371              		.loc 1 229 6
 372 022a 012B     		cmp	r3, #1
 373 022c 02D1     		bne	.L12
 230:Drivers/STM32F4xx_HAL_Driver/Src/stm32f4xx_hal_pcd.c ****   {
 231:Drivers/STM32F4xx_HAL_Driver/Src/stm32f4xx_hal_pcd.c ****     (void)HAL_PCDEx_ActivateLPM(hpcd);
 374              		.loc 1 231 11
 375 022e 7868     		ldr	r0, [r7, #4]
 376 0230 FFF7FEFF 		bl	HAL_PCDEx_ActivateLPM
 377              	.L12:
 232:Drivers/STM32F4xx_HAL_Driver/Src/stm32f4xx_hal_pcd.c ****   }
 233:Drivers/STM32F4xx_HAL_Driver/Src/stm32f4xx_hal_pcd.c **** #endif /* defined(STM32F446xx) || defined(STM32F469xx) || defined(STM32F479xx) || defined(STM32F412
 234:Drivers/STM32F4xx_HAL_Driver/Src/stm32f4xx_hal_pcd.c ****   (void)USB_DevDisconnect(hpcd->Instance);
 378              		.loc 1 234 31
 379 0234 7B68     		ldr	r3, [r7, #4]
 380 0236 1B68     		ldr	r3, [r3]
 381              		.loc 1 234 9
 382 0238 1846     		mov	r0, r3
 383 023a FFF7FEFF 		bl	USB_DevDisconnect
 235:Drivers/STM32F4xx_HAL_Driver/Src/stm32f4xx_hal_pcd.c **** 
 236:Drivers/STM32F4xx_HAL_Driver/Src/stm32f4xx_hal_pcd.c ****   return HAL_OK;
 384              		.loc 1 236 10
ARM GAS  /tmp/ccQdZtFR.s 			page 12


 385 023e 0023     		movs	r3, #0
 386              	.L3:
 237:Drivers/STM32F4xx_HAL_Driver/Src/stm32f4xx_hal_pcd.c **** }
 387              		.loc 1 237 1
 388 0240 1846     		mov	r0, r3
 389 0242 1437     		adds	r7, r7, #20
 390              	.LCFI3:
 391              		.cfi_def_cfa_offset 20
 392 0244 BD46     		mov	sp, r7
 393              	.LCFI4:
 394              		.cfi_def_cfa_register 13
 395              		@ sp needed
 396 0246 F0BD     		pop	{r4, r5, r6, r7, pc}
 397              		.cfi_endproc
 398              	.LFE235:
 400              		.section	.text.HAL_PCD_DeInit,"ax",%progbits
 401              		.align	1
 402              		.global	HAL_PCD_DeInit
 403              		.syntax unified
 404              		.thumb
 405              		.thumb_func
 407              	HAL_PCD_DeInit:
 408              	.LFB236:
 238:Drivers/STM32F4xx_HAL_Driver/Src/stm32f4xx_hal_pcd.c **** 
 239:Drivers/STM32F4xx_HAL_Driver/Src/stm32f4xx_hal_pcd.c **** /**
 240:Drivers/STM32F4xx_HAL_Driver/Src/stm32f4xx_hal_pcd.c ****   * @brief  DeInitializes the PCD peripheral.
 241:Drivers/STM32F4xx_HAL_Driver/Src/stm32f4xx_hal_pcd.c ****   * @param  hpcd PCD handle
 242:Drivers/STM32F4xx_HAL_Driver/Src/stm32f4xx_hal_pcd.c ****   * @retval HAL status
 243:Drivers/STM32F4xx_HAL_Driver/Src/stm32f4xx_hal_pcd.c ****   */
 244:Drivers/STM32F4xx_HAL_Driver/Src/stm32f4xx_hal_pcd.c **** HAL_StatusTypeDef HAL_PCD_DeInit(PCD_HandleTypeDef *hpcd)
 245:Drivers/STM32F4xx_HAL_Driver/Src/stm32f4xx_hal_pcd.c **** {
 409              		.loc 1 245 1
 410              		.cfi_startproc
 411              		@ args = 0, pretend = 0, frame = 8
 412              		@ frame_needed = 1, uses_anonymous_args = 0
 413 0000 80B5     		push	{r7, lr}
 414              	.LCFI5:
 415              		.cfi_def_cfa_offset 8
 416              		.cfi_offset 7, -8
 417              		.cfi_offset 14, -4
 418 0002 82B0     		sub	sp, sp, #8
 419              	.LCFI6:
 420              		.cfi_def_cfa_offset 16
 421 0004 00AF     		add	r7, sp, #0
 422              	.LCFI7:
 423              		.cfi_def_cfa_register 7
 424 0006 7860     		str	r0, [r7, #4]
 246:Drivers/STM32F4xx_HAL_Driver/Src/stm32f4xx_hal_pcd.c ****   /* Check the PCD handle allocation */
 247:Drivers/STM32F4xx_HAL_Driver/Src/stm32f4xx_hal_pcd.c ****   if (hpcd == NULL)
 425              		.loc 1 247 6
 426 0008 7B68     		ldr	r3, [r7, #4]
 427 000a 002B     		cmp	r3, #0
 428 000c 01D1     		bne	.L14
 248:Drivers/STM32F4xx_HAL_Driver/Src/stm32f4xx_hal_pcd.c ****   {
 249:Drivers/STM32F4xx_HAL_Driver/Src/stm32f4xx_hal_pcd.c ****     return HAL_ERROR;
 429              		.loc 1 249 12
 430 000e 0123     		movs	r3, #1
ARM GAS  /tmp/ccQdZtFR.s 			page 13


 431 0010 15E0     		b	.L15
 432              	.L14:
 250:Drivers/STM32F4xx_HAL_Driver/Src/stm32f4xx_hal_pcd.c ****   }
 251:Drivers/STM32F4xx_HAL_Driver/Src/stm32f4xx_hal_pcd.c **** 
 252:Drivers/STM32F4xx_HAL_Driver/Src/stm32f4xx_hal_pcd.c ****   hpcd->State = HAL_PCD_STATE_BUSY;
 433              		.loc 1 252 15
 434 0012 7B68     		ldr	r3, [r7, #4]
 435 0014 0322     		movs	r2, #3
 436 0016 83F8BD24 		strb	r2, [r3, #1213]
 253:Drivers/STM32F4xx_HAL_Driver/Src/stm32f4xx_hal_pcd.c **** 
 254:Drivers/STM32F4xx_HAL_Driver/Src/stm32f4xx_hal_pcd.c ****   /* Stop Device */
 255:Drivers/STM32F4xx_HAL_Driver/Src/stm32f4xx_hal_pcd.c ****   if (USB_StopDevice(hpcd->Instance) != HAL_OK)
 437              		.loc 1 255 26
 438 001a 7B68     		ldr	r3, [r7, #4]
 439 001c 1B68     		ldr	r3, [r3]
 440              		.loc 1 255 7
 441 001e 1846     		mov	r0, r3
 442 0020 FFF7FEFF 		bl	USB_StopDevice
 443 0024 0346     		mov	r3, r0
 444              		.loc 1 255 6
 445 0026 002B     		cmp	r3, #0
 446 0028 01D0     		beq	.L16
 256:Drivers/STM32F4xx_HAL_Driver/Src/stm32f4xx_hal_pcd.c ****   {
 257:Drivers/STM32F4xx_HAL_Driver/Src/stm32f4xx_hal_pcd.c ****     return HAL_ERROR;
 447              		.loc 1 257 12
 448 002a 0123     		movs	r3, #1
 449 002c 07E0     		b	.L15
 450              	.L16:
 258:Drivers/STM32F4xx_HAL_Driver/Src/stm32f4xx_hal_pcd.c ****   }
 259:Drivers/STM32F4xx_HAL_Driver/Src/stm32f4xx_hal_pcd.c **** 
 260:Drivers/STM32F4xx_HAL_Driver/Src/stm32f4xx_hal_pcd.c **** #if (USE_HAL_PCD_REGISTER_CALLBACKS == 1U)
 261:Drivers/STM32F4xx_HAL_Driver/Src/stm32f4xx_hal_pcd.c ****   if (hpcd->MspDeInitCallback == NULL)
 262:Drivers/STM32F4xx_HAL_Driver/Src/stm32f4xx_hal_pcd.c ****   {
 263:Drivers/STM32F4xx_HAL_Driver/Src/stm32f4xx_hal_pcd.c ****     hpcd->MspDeInitCallback = HAL_PCD_MspDeInit; /* Legacy weak MspDeInit  */
 264:Drivers/STM32F4xx_HAL_Driver/Src/stm32f4xx_hal_pcd.c ****   }
 265:Drivers/STM32F4xx_HAL_Driver/Src/stm32f4xx_hal_pcd.c **** 
 266:Drivers/STM32F4xx_HAL_Driver/Src/stm32f4xx_hal_pcd.c ****   /* DeInit the low level hardware */
 267:Drivers/STM32F4xx_HAL_Driver/Src/stm32f4xx_hal_pcd.c ****   hpcd->MspDeInitCallback(hpcd);
 268:Drivers/STM32F4xx_HAL_Driver/Src/stm32f4xx_hal_pcd.c **** #else
 269:Drivers/STM32F4xx_HAL_Driver/Src/stm32f4xx_hal_pcd.c ****   /* DeInit the low level hardware: CLOCK, NVIC.*/
 270:Drivers/STM32F4xx_HAL_Driver/Src/stm32f4xx_hal_pcd.c ****   HAL_PCD_MspDeInit(hpcd);
 451              		.loc 1 270 3
 452 002e 7868     		ldr	r0, [r7, #4]
 453 0030 FFF7FEFF 		bl	HAL_PCD_MspDeInit
 271:Drivers/STM32F4xx_HAL_Driver/Src/stm32f4xx_hal_pcd.c **** #endif /* USE_HAL_PCD_REGISTER_CALLBACKS */
 272:Drivers/STM32F4xx_HAL_Driver/Src/stm32f4xx_hal_pcd.c **** 
 273:Drivers/STM32F4xx_HAL_Driver/Src/stm32f4xx_hal_pcd.c ****   hpcd->State = HAL_PCD_STATE_RESET;
 454              		.loc 1 273 15
 455 0034 7B68     		ldr	r3, [r7, #4]
 456 0036 0022     		movs	r2, #0
 457 0038 83F8BD24 		strb	r2, [r3, #1213]
 274:Drivers/STM32F4xx_HAL_Driver/Src/stm32f4xx_hal_pcd.c **** 
 275:Drivers/STM32F4xx_HAL_Driver/Src/stm32f4xx_hal_pcd.c ****   return HAL_OK;
 458              		.loc 1 275 10
 459 003c 0023     		movs	r3, #0
 460              	.L15:
 276:Drivers/STM32F4xx_HAL_Driver/Src/stm32f4xx_hal_pcd.c **** }
ARM GAS  /tmp/ccQdZtFR.s 			page 14


 461              		.loc 1 276 1
 462 003e 1846     		mov	r0, r3
 463 0040 0837     		adds	r7, r7, #8
 464              	.LCFI8:
 465              		.cfi_def_cfa_offset 8
 466 0042 BD46     		mov	sp, r7
 467              	.LCFI9:
 468              		.cfi_def_cfa_register 13
 469              		@ sp needed
 470 0044 80BD     		pop	{r7, pc}
 471              		.cfi_endproc
 472              	.LFE236:
 474              		.section	.text.HAL_PCD_MspInit,"ax",%progbits
 475              		.align	1
 476              		.weak	HAL_PCD_MspInit
 477              		.syntax unified
 478              		.thumb
 479              		.thumb_func
 481              	HAL_PCD_MspInit:
 482              	.LFB237:
 277:Drivers/STM32F4xx_HAL_Driver/Src/stm32f4xx_hal_pcd.c **** 
 278:Drivers/STM32F4xx_HAL_Driver/Src/stm32f4xx_hal_pcd.c **** /**
 279:Drivers/STM32F4xx_HAL_Driver/Src/stm32f4xx_hal_pcd.c ****   * @brief  Initializes the PCD MSP.
 280:Drivers/STM32F4xx_HAL_Driver/Src/stm32f4xx_hal_pcd.c ****   * @param  hpcd PCD handle
 281:Drivers/STM32F4xx_HAL_Driver/Src/stm32f4xx_hal_pcd.c ****   * @retval None
 282:Drivers/STM32F4xx_HAL_Driver/Src/stm32f4xx_hal_pcd.c ****   */
 283:Drivers/STM32F4xx_HAL_Driver/Src/stm32f4xx_hal_pcd.c **** __weak void HAL_PCD_MspInit(PCD_HandleTypeDef *hpcd)
 284:Drivers/STM32F4xx_HAL_Driver/Src/stm32f4xx_hal_pcd.c **** {
 483              		.loc 1 284 1
 484              		.cfi_startproc
 485              		@ args = 0, pretend = 0, frame = 8
 486              		@ frame_needed = 1, uses_anonymous_args = 0
 487              		@ link register save eliminated.
 488 0000 80B4     		push	{r7}
 489              	.LCFI10:
 490              		.cfi_def_cfa_offset 4
 491              		.cfi_offset 7, -4
 492 0002 83B0     		sub	sp, sp, #12
 493              	.LCFI11:
 494              		.cfi_def_cfa_offset 16
 495 0004 00AF     		add	r7, sp, #0
 496              	.LCFI12:
 497              		.cfi_def_cfa_register 7
 498 0006 7860     		str	r0, [r7, #4]
 285:Drivers/STM32F4xx_HAL_Driver/Src/stm32f4xx_hal_pcd.c ****   /* Prevent unused argument(s) compilation warning */
 286:Drivers/STM32F4xx_HAL_Driver/Src/stm32f4xx_hal_pcd.c ****   UNUSED(hpcd);
 287:Drivers/STM32F4xx_HAL_Driver/Src/stm32f4xx_hal_pcd.c **** 
 288:Drivers/STM32F4xx_HAL_Driver/Src/stm32f4xx_hal_pcd.c ****   /* NOTE : This function should not be modified, when the callback is needed,
 289:Drivers/STM32F4xx_HAL_Driver/Src/stm32f4xx_hal_pcd.c ****             the HAL_PCD_MspInit could be implemented in the user file
 290:Drivers/STM32F4xx_HAL_Driver/Src/stm32f4xx_hal_pcd.c ****    */
 291:Drivers/STM32F4xx_HAL_Driver/Src/stm32f4xx_hal_pcd.c **** }
 499              		.loc 1 291 1
 500 0008 00BF     		nop
 501 000a 0C37     		adds	r7, r7, #12
 502              	.LCFI13:
 503              		.cfi_def_cfa_offset 4
 504 000c BD46     		mov	sp, r7
ARM GAS  /tmp/ccQdZtFR.s 			page 15


 505              	.LCFI14:
 506              		.cfi_def_cfa_register 13
 507              		@ sp needed
 508 000e 5DF8047B 		ldr	r7, [sp], #4
 509              	.LCFI15:
 510              		.cfi_restore 7
 511              		.cfi_def_cfa_offset 0
 512 0012 7047     		bx	lr
 513              		.cfi_endproc
 514              	.LFE237:
 516              		.section	.text.HAL_PCD_MspDeInit,"ax",%progbits
 517              		.align	1
 518              		.weak	HAL_PCD_MspDeInit
 519              		.syntax unified
 520              		.thumb
 521              		.thumb_func
 523              	HAL_PCD_MspDeInit:
 524              	.LFB238:
 292:Drivers/STM32F4xx_HAL_Driver/Src/stm32f4xx_hal_pcd.c **** 
 293:Drivers/STM32F4xx_HAL_Driver/Src/stm32f4xx_hal_pcd.c **** /**
 294:Drivers/STM32F4xx_HAL_Driver/Src/stm32f4xx_hal_pcd.c ****   * @brief  DeInitializes PCD MSP.
 295:Drivers/STM32F4xx_HAL_Driver/Src/stm32f4xx_hal_pcd.c ****   * @param  hpcd PCD handle
 296:Drivers/STM32F4xx_HAL_Driver/Src/stm32f4xx_hal_pcd.c ****   * @retval None
 297:Drivers/STM32F4xx_HAL_Driver/Src/stm32f4xx_hal_pcd.c ****   */
 298:Drivers/STM32F4xx_HAL_Driver/Src/stm32f4xx_hal_pcd.c **** __weak void HAL_PCD_MspDeInit(PCD_HandleTypeDef *hpcd)
 299:Drivers/STM32F4xx_HAL_Driver/Src/stm32f4xx_hal_pcd.c **** {
 525              		.loc 1 299 1
 526              		.cfi_startproc
 527              		@ args = 0, pretend = 0, frame = 8
 528              		@ frame_needed = 1, uses_anonymous_args = 0
 529              		@ link register save eliminated.
 530 0000 80B4     		push	{r7}
 531              	.LCFI16:
 532              		.cfi_def_cfa_offset 4
 533              		.cfi_offset 7, -4
 534 0002 83B0     		sub	sp, sp, #12
 535              	.LCFI17:
 536              		.cfi_def_cfa_offset 16
 537 0004 00AF     		add	r7, sp, #0
 538              	.LCFI18:
 539              		.cfi_def_cfa_register 7
 540 0006 7860     		str	r0, [r7, #4]
 300:Drivers/STM32F4xx_HAL_Driver/Src/stm32f4xx_hal_pcd.c ****   /* Prevent unused argument(s) compilation warning */
 301:Drivers/STM32F4xx_HAL_Driver/Src/stm32f4xx_hal_pcd.c ****   UNUSED(hpcd);
 302:Drivers/STM32F4xx_HAL_Driver/Src/stm32f4xx_hal_pcd.c **** 
 303:Drivers/STM32F4xx_HAL_Driver/Src/stm32f4xx_hal_pcd.c ****   /* NOTE : This function should not be modified, when the callback is needed,
 304:Drivers/STM32F4xx_HAL_Driver/Src/stm32f4xx_hal_pcd.c ****             the HAL_PCD_MspDeInit could be implemented in the user file
 305:Drivers/STM32F4xx_HAL_Driver/Src/stm32f4xx_hal_pcd.c ****    */
 306:Drivers/STM32F4xx_HAL_Driver/Src/stm32f4xx_hal_pcd.c **** }
 541              		.loc 1 306 1
 542 0008 00BF     		nop
 543 000a 0C37     		adds	r7, r7, #12
 544              	.LCFI19:
 545              		.cfi_def_cfa_offset 4
 546 000c BD46     		mov	sp, r7
 547              	.LCFI20:
 548              		.cfi_def_cfa_register 13
ARM GAS  /tmp/ccQdZtFR.s 			page 16


 549              		@ sp needed
 550 000e 5DF8047B 		ldr	r7, [sp], #4
 551              	.LCFI21:
 552              		.cfi_restore 7
 553              		.cfi_def_cfa_offset 0
 554 0012 7047     		bx	lr
 555              		.cfi_endproc
 556              	.LFE238:
 558              		.section	.text.HAL_PCD_Start,"ax",%progbits
 559              		.align	1
 560              		.global	HAL_PCD_Start
 561              		.syntax unified
 562              		.thumb
 563              		.thumb_func
 565              	HAL_PCD_Start:
 566              	.LFB239:
 307:Drivers/STM32F4xx_HAL_Driver/Src/stm32f4xx_hal_pcd.c **** 
 308:Drivers/STM32F4xx_HAL_Driver/Src/stm32f4xx_hal_pcd.c **** #if (USE_HAL_PCD_REGISTER_CALLBACKS == 1U)
 309:Drivers/STM32F4xx_HAL_Driver/Src/stm32f4xx_hal_pcd.c **** /**
 310:Drivers/STM32F4xx_HAL_Driver/Src/stm32f4xx_hal_pcd.c ****   * @brief  Register a User USB PCD Callback
 311:Drivers/STM32F4xx_HAL_Driver/Src/stm32f4xx_hal_pcd.c ****   *         To be used instead of the weak predefined callback
 312:Drivers/STM32F4xx_HAL_Driver/Src/stm32f4xx_hal_pcd.c ****   * @param  hpcd USB PCD handle
 313:Drivers/STM32F4xx_HAL_Driver/Src/stm32f4xx_hal_pcd.c ****   * @param  CallbackID ID of the callback to be registered
 314:Drivers/STM32F4xx_HAL_Driver/Src/stm32f4xx_hal_pcd.c ****   *         This parameter can be one of the following values:
 315:Drivers/STM32F4xx_HAL_Driver/Src/stm32f4xx_hal_pcd.c ****   *          @arg @ref HAL_PCD_SOF_CB_ID USB PCD SOF callback ID
 316:Drivers/STM32F4xx_HAL_Driver/Src/stm32f4xx_hal_pcd.c ****   *          @arg @ref HAL_PCD_SETUPSTAGE_CB_ID USB PCD Setup callback ID
 317:Drivers/STM32F4xx_HAL_Driver/Src/stm32f4xx_hal_pcd.c ****   *          @arg @ref HAL_PCD_RESET_CB_ID USB PCD Reset callback ID
 318:Drivers/STM32F4xx_HAL_Driver/Src/stm32f4xx_hal_pcd.c ****   *          @arg @ref HAL_PCD_SUSPEND_CB_ID USB PCD Suspend callback ID
 319:Drivers/STM32F4xx_HAL_Driver/Src/stm32f4xx_hal_pcd.c ****   *          @arg @ref HAL_PCD_RESUME_CB_ID USB PCD Resume callback ID
 320:Drivers/STM32F4xx_HAL_Driver/Src/stm32f4xx_hal_pcd.c ****   *          @arg @ref HAL_PCD_CONNECT_CB_ID USB PCD Connect callback ID
 321:Drivers/STM32F4xx_HAL_Driver/Src/stm32f4xx_hal_pcd.c ****   *          @arg @ref HAL_PCD_DISCONNECT_CB_ID OTG PCD Disconnect callback ID
 322:Drivers/STM32F4xx_HAL_Driver/Src/stm32f4xx_hal_pcd.c ****   *          @arg @ref HAL_PCD_MSPINIT_CB_ID MspDeInit callback ID
 323:Drivers/STM32F4xx_HAL_Driver/Src/stm32f4xx_hal_pcd.c ****   *          @arg @ref HAL_PCD_MSPDEINIT_CB_ID MspDeInit callback ID
 324:Drivers/STM32F4xx_HAL_Driver/Src/stm32f4xx_hal_pcd.c ****   * @param  pCallback pointer to the Callback function
 325:Drivers/STM32F4xx_HAL_Driver/Src/stm32f4xx_hal_pcd.c ****   * @retval HAL status
 326:Drivers/STM32F4xx_HAL_Driver/Src/stm32f4xx_hal_pcd.c ****   */
 327:Drivers/STM32F4xx_HAL_Driver/Src/stm32f4xx_hal_pcd.c **** HAL_StatusTypeDef HAL_PCD_RegisterCallback(PCD_HandleTypeDef *hpcd,
 328:Drivers/STM32F4xx_HAL_Driver/Src/stm32f4xx_hal_pcd.c ****                                            HAL_PCD_CallbackIDTypeDef CallbackID,
 329:Drivers/STM32F4xx_HAL_Driver/Src/stm32f4xx_hal_pcd.c ****                                            pPCD_CallbackTypeDef pCallback)
 330:Drivers/STM32F4xx_HAL_Driver/Src/stm32f4xx_hal_pcd.c **** {
 331:Drivers/STM32F4xx_HAL_Driver/Src/stm32f4xx_hal_pcd.c ****   HAL_StatusTypeDef status = HAL_OK;
 332:Drivers/STM32F4xx_HAL_Driver/Src/stm32f4xx_hal_pcd.c **** 
 333:Drivers/STM32F4xx_HAL_Driver/Src/stm32f4xx_hal_pcd.c ****   if (pCallback == NULL)
 334:Drivers/STM32F4xx_HAL_Driver/Src/stm32f4xx_hal_pcd.c ****   {
 335:Drivers/STM32F4xx_HAL_Driver/Src/stm32f4xx_hal_pcd.c ****     /* Update the error code */
 336:Drivers/STM32F4xx_HAL_Driver/Src/stm32f4xx_hal_pcd.c ****     hpcd->ErrorCode |= HAL_PCD_ERROR_INVALID_CALLBACK;
 337:Drivers/STM32F4xx_HAL_Driver/Src/stm32f4xx_hal_pcd.c ****     return HAL_ERROR;
 338:Drivers/STM32F4xx_HAL_Driver/Src/stm32f4xx_hal_pcd.c ****   }
 339:Drivers/STM32F4xx_HAL_Driver/Src/stm32f4xx_hal_pcd.c ****   /* Process locked */
 340:Drivers/STM32F4xx_HAL_Driver/Src/stm32f4xx_hal_pcd.c ****   __HAL_LOCK(hpcd);
 341:Drivers/STM32F4xx_HAL_Driver/Src/stm32f4xx_hal_pcd.c **** 
 342:Drivers/STM32F4xx_HAL_Driver/Src/stm32f4xx_hal_pcd.c ****   if (hpcd->State == HAL_PCD_STATE_READY)
 343:Drivers/STM32F4xx_HAL_Driver/Src/stm32f4xx_hal_pcd.c ****   {
 344:Drivers/STM32F4xx_HAL_Driver/Src/stm32f4xx_hal_pcd.c ****     switch (CallbackID)
 345:Drivers/STM32F4xx_HAL_Driver/Src/stm32f4xx_hal_pcd.c ****     {
 346:Drivers/STM32F4xx_HAL_Driver/Src/stm32f4xx_hal_pcd.c ****       case HAL_PCD_SOF_CB_ID :
 347:Drivers/STM32F4xx_HAL_Driver/Src/stm32f4xx_hal_pcd.c ****         hpcd->SOFCallback = pCallback;
ARM GAS  /tmp/ccQdZtFR.s 			page 17


 348:Drivers/STM32F4xx_HAL_Driver/Src/stm32f4xx_hal_pcd.c ****         break;
 349:Drivers/STM32F4xx_HAL_Driver/Src/stm32f4xx_hal_pcd.c **** 
 350:Drivers/STM32F4xx_HAL_Driver/Src/stm32f4xx_hal_pcd.c ****       case HAL_PCD_SETUPSTAGE_CB_ID :
 351:Drivers/STM32F4xx_HAL_Driver/Src/stm32f4xx_hal_pcd.c ****         hpcd->SetupStageCallback = pCallback;
 352:Drivers/STM32F4xx_HAL_Driver/Src/stm32f4xx_hal_pcd.c ****         break;
 353:Drivers/STM32F4xx_HAL_Driver/Src/stm32f4xx_hal_pcd.c **** 
 354:Drivers/STM32F4xx_HAL_Driver/Src/stm32f4xx_hal_pcd.c ****       case HAL_PCD_RESET_CB_ID :
 355:Drivers/STM32F4xx_HAL_Driver/Src/stm32f4xx_hal_pcd.c ****         hpcd->ResetCallback = pCallback;
 356:Drivers/STM32F4xx_HAL_Driver/Src/stm32f4xx_hal_pcd.c ****         break;
 357:Drivers/STM32F4xx_HAL_Driver/Src/stm32f4xx_hal_pcd.c **** 
 358:Drivers/STM32F4xx_HAL_Driver/Src/stm32f4xx_hal_pcd.c ****       case HAL_PCD_SUSPEND_CB_ID :
 359:Drivers/STM32F4xx_HAL_Driver/Src/stm32f4xx_hal_pcd.c ****         hpcd->SuspendCallback = pCallback;
 360:Drivers/STM32F4xx_HAL_Driver/Src/stm32f4xx_hal_pcd.c ****         break;
 361:Drivers/STM32F4xx_HAL_Driver/Src/stm32f4xx_hal_pcd.c **** 
 362:Drivers/STM32F4xx_HAL_Driver/Src/stm32f4xx_hal_pcd.c ****       case HAL_PCD_RESUME_CB_ID :
 363:Drivers/STM32F4xx_HAL_Driver/Src/stm32f4xx_hal_pcd.c ****         hpcd->ResumeCallback = pCallback;
 364:Drivers/STM32F4xx_HAL_Driver/Src/stm32f4xx_hal_pcd.c ****         break;
 365:Drivers/STM32F4xx_HAL_Driver/Src/stm32f4xx_hal_pcd.c **** 
 366:Drivers/STM32F4xx_HAL_Driver/Src/stm32f4xx_hal_pcd.c ****       case HAL_PCD_CONNECT_CB_ID :
 367:Drivers/STM32F4xx_HAL_Driver/Src/stm32f4xx_hal_pcd.c ****         hpcd->ConnectCallback = pCallback;
 368:Drivers/STM32F4xx_HAL_Driver/Src/stm32f4xx_hal_pcd.c ****         break;
 369:Drivers/STM32F4xx_HAL_Driver/Src/stm32f4xx_hal_pcd.c **** 
 370:Drivers/STM32F4xx_HAL_Driver/Src/stm32f4xx_hal_pcd.c ****       case HAL_PCD_DISCONNECT_CB_ID :
 371:Drivers/STM32F4xx_HAL_Driver/Src/stm32f4xx_hal_pcd.c ****         hpcd->DisconnectCallback = pCallback;
 372:Drivers/STM32F4xx_HAL_Driver/Src/stm32f4xx_hal_pcd.c ****         break;
 373:Drivers/STM32F4xx_HAL_Driver/Src/stm32f4xx_hal_pcd.c **** 
 374:Drivers/STM32F4xx_HAL_Driver/Src/stm32f4xx_hal_pcd.c ****       case HAL_PCD_MSPINIT_CB_ID :
 375:Drivers/STM32F4xx_HAL_Driver/Src/stm32f4xx_hal_pcd.c ****         hpcd->MspInitCallback = pCallback;
 376:Drivers/STM32F4xx_HAL_Driver/Src/stm32f4xx_hal_pcd.c ****         break;
 377:Drivers/STM32F4xx_HAL_Driver/Src/stm32f4xx_hal_pcd.c **** 
 378:Drivers/STM32F4xx_HAL_Driver/Src/stm32f4xx_hal_pcd.c ****       case HAL_PCD_MSPDEINIT_CB_ID :
 379:Drivers/STM32F4xx_HAL_Driver/Src/stm32f4xx_hal_pcd.c ****         hpcd->MspDeInitCallback = pCallback;
 380:Drivers/STM32F4xx_HAL_Driver/Src/stm32f4xx_hal_pcd.c ****         break;
 381:Drivers/STM32F4xx_HAL_Driver/Src/stm32f4xx_hal_pcd.c **** 
 382:Drivers/STM32F4xx_HAL_Driver/Src/stm32f4xx_hal_pcd.c ****       default :
 383:Drivers/STM32F4xx_HAL_Driver/Src/stm32f4xx_hal_pcd.c ****         /* Update the error code */
 384:Drivers/STM32F4xx_HAL_Driver/Src/stm32f4xx_hal_pcd.c ****         hpcd->ErrorCode |= HAL_PCD_ERROR_INVALID_CALLBACK;
 385:Drivers/STM32F4xx_HAL_Driver/Src/stm32f4xx_hal_pcd.c ****         /* Return error status */
 386:Drivers/STM32F4xx_HAL_Driver/Src/stm32f4xx_hal_pcd.c ****         status =  HAL_ERROR;
 387:Drivers/STM32F4xx_HAL_Driver/Src/stm32f4xx_hal_pcd.c ****         break;
 388:Drivers/STM32F4xx_HAL_Driver/Src/stm32f4xx_hal_pcd.c ****     }
 389:Drivers/STM32F4xx_HAL_Driver/Src/stm32f4xx_hal_pcd.c ****   }
 390:Drivers/STM32F4xx_HAL_Driver/Src/stm32f4xx_hal_pcd.c ****   else if (hpcd->State == HAL_PCD_STATE_RESET)
 391:Drivers/STM32F4xx_HAL_Driver/Src/stm32f4xx_hal_pcd.c ****   {
 392:Drivers/STM32F4xx_HAL_Driver/Src/stm32f4xx_hal_pcd.c ****     switch (CallbackID)
 393:Drivers/STM32F4xx_HAL_Driver/Src/stm32f4xx_hal_pcd.c ****     {
 394:Drivers/STM32F4xx_HAL_Driver/Src/stm32f4xx_hal_pcd.c ****       case HAL_PCD_MSPINIT_CB_ID :
 395:Drivers/STM32F4xx_HAL_Driver/Src/stm32f4xx_hal_pcd.c ****         hpcd->MspInitCallback = pCallback;
 396:Drivers/STM32F4xx_HAL_Driver/Src/stm32f4xx_hal_pcd.c ****         break;
 397:Drivers/STM32F4xx_HAL_Driver/Src/stm32f4xx_hal_pcd.c **** 
 398:Drivers/STM32F4xx_HAL_Driver/Src/stm32f4xx_hal_pcd.c ****       case HAL_PCD_MSPDEINIT_CB_ID :
 399:Drivers/STM32F4xx_HAL_Driver/Src/stm32f4xx_hal_pcd.c ****         hpcd->MspDeInitCallback = pCallback;
 400:Drivers/STM32F4xx_HAL_Driver/Src/stm32f4xx_hal_pcd.c ****         break;
 401:Drivers/STM32F4xx_HAL_Driver/Src/stm32f4xx_hal_pcd.c **** 
 402:Drivers/STM32F4xx_HAL_Driver/Src/stm32f4xx_hal_pcd.c ****       default :
 403:Drivers/STM32F4xx_HAL_Driver/Src/stm32f4xx_hal_pcd.c ****         /* Update the error code */
 404:Drivers/STM32F4xx_HAL_Driver/Src/stm32f4xx_hal_pcd.c ****         hpcd->ErrorCode |= HAL_PCD_ERROR_INVALID_CALLBACK;
ARM GAS  /tmp/ccQdZtFR.s 			page 18


 405:Drivers/STM32F4xx_HAL_Driver/Src/stm32f4xx_hal_pcd.c ****         /* Return error status */
 406:Drivers/STM32F4xx_HAL_Driver/Src/stm32f4xx_hal_pcd.c ****         status =  HAL_ERROR;
 407:Drivers/STM32F4xx_HAL_Driver/Src/stm32f4xx_hal_pcd.c ****         break;
 408:Drivers/STM32F4xx_HAL_Driver/Src/stm32f4xx_hal_pcd.c ****     }
 409:Drivers/STM32F4xx_HAL_Driver/Src/stm32f4xx_hal_pcd.c ****   }
 410:Drivers/STM32F4xx_HAL_Driver/Src/stm32f4xx_hal_pcd.c ****   else
 411:Drivers/STM32F4xx_HAL_Driver/Src/stm32f4xx_hal_pcd.c ****   {
 412:Drivers/STM32F4xx_HAL_Driver/Src/stm32f4xx_hal_pcd.c ****     /* Update the error code */
 413:Drivers/STM32F4xx_HAL_Driver/Src/stm32f4xx_hal_pcd.c ****     hpcd->ErrorCode |= HAL_PCD_ERROR_INVALID_CALLBACK;
 414:Drivers/STM32F4xx_HAL_Driver/Src/stm32f4xx_hal_pcd.c ****     /* Return error status */
 415:Drivers/STM32F4xx_HAL_Driver/Src/stm32f4xx_hal_pcd.c ****     status =  HAL_ERROR;
 416:Drivers/STM32F4xx_HAL_Driver/Src/stm32f4xx_hal_pcd.c ****   }
 417:Drivers/STM32F4xx_HAL_Driver/Src/stm32f4xx_hal_pcd.c **** 
 418:Drivers/STM32F4xx_HAL_Driver/Src/stm32f4xx_hal_pcd.c ****   /* Release Lock */
 419:Drivers/STM32F4xx_HAL_Driver/Src/stm32f4xx_hal_pcd.c ****   __HAL_UNLOCK(hpcd);
 420:Drivers/STM32F4xx_HAL_Driver/Src/stm32f4xx_hal_pcd.c ****   return status;
 421:Drivers/STM32F4xx_HAL_Driver/Src/stm32f4xx_hal_pcd.c **** }
 422:Drivers/STM32F4xx_HAL_Driver/Src/stm32f4xx_hal_pcd.c **** 
 423:Drivers/STM32F4xx_HAL_Driver/Src/stm32f4xx_hal_pcd.c **** /**
 424:Drivers/STM32F4xx_HAL_Driver/Src/stm32f4xx_hal_pcd.c ****   * @brief  Unregister an USB PCD Callback
 425:Drivers/STM32F4xx_HAL_Driver/Src/stm32f4xx_hal_pcd.c ****   *         USB PCD callback is redirected to the weak predefined callback
 426:Drivers/STM32F4xx_HAL_Driver/Src/stm32f4xx_hal_pcd.c ****   * @param  hpcd USB PCD handle
 427:Drivers/STM32F4xx_HAL_Driver/Src/stm32f4xx_hal_pcd.c ****   * @param  CallbackID ID of the callback to be unregistered
 428:Drivers/STM32F4xx_HAL_Driver/Src/stm32f4xx_hal_pcd.c ****   *         This parameter can be one of the following values:
 429:Drivers/STM32F4xx_HAL_Driver/Src/stm32f4xx_hal_pcd.c ****   *          @arg @ref HAL_PCD_SOF_CB_ID USB PCD SOF callback ID
 430:Drivers/STM32F4xx_HAL_Driver/Src/stm32f4xx_hal_pcd.c ****   *          @arg @ref HAL_PCD_SETUPSTAGE_CB_ID USB PCD Setup callback ID
 431:Drivers/STM32F4xx_HAL_Driver/Src/stm32f4xx_hal_pcd.c ****   *          @arg @ref HAL_PCD_RESET_CB_ID USB PCD Reset callback ID
 432:Drivers/STM32F4xx_HAL_Driver/Src/stm32f4xx_hal_pcd.c ****   *          @arg @ref HAL_PCD_SUSPEND_CB_ID USB PCD Suspend callback ID
 433:Drivers/STM32F4xx_HAL_Driver/Src/stm32f4xx_hal_pcd.c ****   *          @arg @ref HAL_PCD_RESUME_CB_ID USB PCD Resume callback ID
 434:Drivers/STM32F4xx_HAL_Driver/Src/stm32f4xx_hal_pcd.c ****   *          @arg @ref HAL_PCD_CONNECT_CB_ID USB PCD Connect callback ID
 435:Drivers/STM32F4xx_HAL_Driver/Src/stm32f4xx_hal_pcd.c ****   *          @arg @ref HAL_PCD_DISCONNECT_CB_ID OTG PCD Disconnect callback ID
 436:Drivers/STM32F4xx_HAL_Driver/Src/stm32f4xx_hal_pcd.c ****   *          @arg @ref HAL_PCD_MSPINIT_CB_ID MspDeInit callback ID
 437:Drivers/STM32F4xx_HAL_Driver/Src/stm32f4xx_hal_pcd.c ****   *          @arg @ref HAL_PCD_MSPDEINIT_CB_ID MspDeInit callback ID
 438:Drivers/STM32F4xx_HAL_Driver/Src/stm32f4xx_hal_pcd.c ****   * @retval HAL status
 439:Drivers/STM32F4xx_HAL_Driver/Src/stm32f4xx_hal_pcd.c ****   */
 440:Drivers/STM32F4xx_HAL_Driver/Src/stm32f4xx_hal_pcd.c **** HAL_StatusTypeDef HAL_PCD_UnRegisterCallback(PCD_HandleTypeDef *hpcd, HAL_PCD_CallbackIDTypeDef Cal
 441:Drivers/STM32F4xx_HAL_Driver/Src/stm32f4xx_hal_pcd.c **** {
 442:Drivers/STM32F4xx_HAL_Driver/Src/stm32f4xx_hal_pcd.c ****   HAL_StatusTypeDef status = HAL_OK;
 443:Drivers/STM32F4xx_HAL_Driver/Src/stm32f4xx_hal_pcd.c **** 
 444:Drivers/STM32F4xx_HAL_Driver/Src/stm32f4xx_hal_pcd.c ****   /* Process locked */
 445:Drivers/STM32F4xx_HAL_Driver/Src/stm32f4xx_hal_pcd.c ****   __HAL_LOCK(hpcd);
 446:Drivers/STM32F4xx_HAL_Driver/Src/stm32f4xx_hal_pcd.c **** 
 447:Drivers/STM32F4xx_HAL_Driver/Src/stm32f4xx_hal_pcd.c ****   /* Setup Legacy weak Callbacks  */
 448:Drivers/STM32F4xx_HAL_Driver/Src/stm32f4xx_hal_pcd.c ****   if (hpcd->State == HAL_PCD_STATE_READY)
 449:Drivers/STM32F4xx_HAL_Driver/Src/stm32f4xx_hal_pcd.c ****   {
 450:Drivers/STM32F4xx_HAL_Driver/Src/stm32f4xx_hal_pcd.c ****     switch (CallbackID)
 451:Drivers/STM32F4xx_HAL_Driver/Src/stm32f4xx_hal_pcd.c ****     {
 452:Drivers/STM32F4xx_HAL_Driver/Src/stm32f4xx_hal_pcd.c ****       case HAL_PCD_SOF_CB_ID :
 453:Drivers/STM32F4xx_HAL_Driver/Src/stm32f4xx_hal_pcd.c ****         hpcd->SOFCallback = HAL_PCD_SOFCallback;
 454:Drivers/STM32F4xx_HAL_Driver/Src/stm32f4xx_hal_pcd.c ****         break;
 455:Drivers/STM32F4xx_HAL_Driver/Src/stm32f4xx_hal_pcd.c **** 
 456:Drivers/STM32F4xx_HAL_Driver/Src/stm32f4xx_hal_pcd.c ****       case HAL_PCD_SETUPSTAGE_CB_ID :
 457:Drivers/STM32F4xx_HAL_Driver/Src/stm32f4xx_hal_pcd.c ****         hpcd->SetupStageCallback = HAL_PCD_SetupStageCallback;
 458:Drivers/STM32F4xx_HAL_Driver/Src/stm32f4xx_hal_pcd.c ****         break;
 459:Drivers/STM32F4xx_HAL_Driver/Src/stm32f4xx_hal_pcd.c **** 
 460:Drivers/STM32F4xx_HAL_Driver/Src/stm32f4xx_hal_pcd.c ****       case HAL_PCD_RESET_CB_ID :
 461:Drivers/STM32F4xx_HAL_Driver/Src/stm32f4xx_hal_pcd.c ****         hpcd->ResetCallback = HAL_PCD_ResetCallback;
ARM GAS  /tmp/ccQdZtFR.s 			page 19


 462:Drivers/STM32F4xx_HAL_Driver/Src/stm32f4xx_hal_pcd.c ****         break;
 463:Drivers/STM32F4xx_HAL_Driver/Src/stm32f4xx_hal_pcd.c **** 
 464:Drivers/STM32F4xx_HAL_Driver/Src/stm32f4xx_hal_pcd.c ****       case HAL_PCD_SUSPEND_CB_ID :
 465:Drivers/STM32F4xx_HAL_Driver/Src/stm32f4xx_hal_pcd.c ****         hpcd->SuspendCallback = HAL_PCD_SuspendCallback;
 466:Drivers/STM32F4xx_HAL_Driver/Src/stm32f4xx_hal_pcd.c ****         break;
 467:Drivers/STM32F4xx_HAL_Driver/Src/stm32f4xx_hal_pcd.c **** 
 468:Drivers/STM32F4xx_HAL_Driver/Src/stm32f4xx_hal_pcd.c ****       case HAL_PCD_RESUME_CB_ID :
 469:Drivers/STM32F4xx_HAL_Driver/Src/stm32f4xx_hal_pcd.c ****         hpcd->ResumeCallback = HAL_PCD_ResumeCallback;
 470:Drivers/STM32F4xx_HAL_Driver/Src/stm32f4xx_hal_pcd.c ****         break;
 471:Drivers/STM32F4xx_HAL_Driver/Src/stm32f4xx_hal_pcd.c **** 
 472:Drivers/STM32F4xx_HAL_Driver/Src/stm32f4xx_hal_pcd.c ****       case HAL_PCD_CONNECT_CB_ID :
 473:Drivers/STM32F4xx_HAL_Driver/Src/stm32f4xx_hal_pcd.c ****         hpcd->ConnectCallback = HAL_PCD_ConnectCallback;
 474:Drivers/STM32F4xx_HAL_Driver/Src/stm32f4xx_hal_pcd.c ****         break;
 475:Drivers/STM32F4xx_HAL_Driver/Src/stm32f4xx_hal_pcd.c **** 
 476:Drivers/STM32F4xx_HAL_Driver/Src/stm32f4xx_hal_pcd.c ****       case HAL_PCD_DISCONNECT_CB_ID :
 477:Drivers/STM32F4xx_HAL_Driver/Src/stm32f4xx_hal_pcd.c ****         hpcd->DisconnectCallback = HAL_PCD_DisconnectCallback;
 478:Drivers/STM32F4xx_HAL_Driver/Src/stm32f4xx_hal_pcd.c ****         break;
 479:Drivers/STM32F4xx_HAL_Driver/Src/stm32f4xx_hal_pcd.c **** 
 480:Drivers/STM32F4xx_HAL_Driver/Src/stm32f4xx_hal_pcd.c ****       case HAL_PCD_MSPINIT_CB_ID :
 481:Drivers/STM32F4xx_HAL_Driver/Src/stm32f4xx_hal_pcd.c ****         hpcd->MspInitCallback = HAL_PCD_MspInit;
 482:Drivers/STM32F4xx_HAL_Driver/Src/stm32f4xx_hal_pcd.c ****         break;
 483:Drivers/STM32F4xx_HAL_Driver/Src/stm32f4xx_hal_pcd.c **** 
 484:Drivers/STM32F4xx_HAL_Driver/Src/stm32f4xx_hal_pcd.c ****       case HAL_PCD_MSPDEINIT_CB_ID :
 485:Drivers/STM32F4xx_HAL_Driver/Src/stm32f4xx_hal_pcd.c ****         hpcd->MspDeInitCallback = HAL_PCD_MspDeInit;
 486:Drivers/STM32F4xx_HAL_Driver/Src/stm32f4xx_hal_pcd.c ****         break;
 487:Drivers/STM32F4xx_HAL_Driver/Src/stm32f4xx_hal_pcd.c **** 
 488:Drivers/STM32F4xx_HAL_Driver/Src/stm32f4xx_hal_pcd.c ****       default :
 489:Drivers/STM32F4xx_HAL_Driver/Src/stm32f4xx_hal_pcd.c ****         /* Update the error code */
 490:Drivers/STM32F4xx_HAL_Driver/Src/stm32f4xx_hal_pcd.c ****         hpcd->ErrorCode |= HAL_PCD_ERROR_INVALID_CALLBACK;
 491:Drivers/STM32F4xx_HAL_Driver/Src/stm32f4xx_hal_pcd.c **** 
 492:Drivers/STM32F4xx_HAL_Driver/Src/stm32f4xx_hal_pcd.c ****         /* Return error status */
 493:Drivers/STM32F4xx_HAL_Driver/Src/stm32f4xx_hal_pcd.c ****         status =  HAL_ERROR;
 494:Drivers/STM32F4xx_HAL_Driver/Src/stm32f4xx_hal_pcd.c ****         break;
 495:Drivers/STM32F4xx_HAL_Driver/Src/stm32f4xx_hal_pcd.c ****     }
 496:Drivers/STM32F4xx_HAL_Driver/Src/stm32f4xx_hal_pcd.c ****   }
 497:Drivers/STM32F4xx_HAL_Driver/Src/stm32f4xx_hal_pcd.c ****   else if (hpcd->State == HAL_PCD_STATE_RESET)
 498:Drivers/STM32F4xx_HAL_Driver/Src/stm32f4xx_hal_pcd.c ****   {
 499:Drivers/STM32F4xx_HAL_Driver/Src/stm32f4xx_hal_pcd.c ****     switch (CallbackID)
 500:Drivers/STM32F4xx_HAL_Driver/Src/stm32f4xx_hal_pcd.c ****     {
 501:Drivers/STM32F4xx_HAL_Driver/Src/stm32f4xx_hal_pcd.c ****       case HAL_PCD_MSPINIT_CB_ID :
 502:Drivers/STM32F4xx_HAL_Driver/Src/stm32f4xx_hal_pcd.c ****         hpcd->MspInitCallback = HAL_PCD_MspInit;
 503:Drivers/STM32F4xx_HAL_Driver/Src/stm32f4xx_hal_pcd.c ****         break;
 504:Drivers/STM32F4xx_HAL_Driver/Src/stm32f4xx_hal_pcd.c **** 
 505:Drivers/STM32F4xx_HAL_Driver/Src/stm32f4xx_hal_pcd.c ****       case HAL_PCD_MSPDEINIT_CB_ID :
 506:Drivers/STM32F4xx_HAL_Driver/Src/stm32f4xx_hal_pcd.c ****         hpcd->MspDeInitCallback = HAL_PCD_MspDeInit;
 507:Drivers/STM32F4xx_HAL_Driver/Src/stm32f4xx_hal_pcd.c ****         break;
 508:Drivers/STM32F4xx_HAL_Driver/Src/stm32f4xx_hal_pcd.c **** 
 509:Drivers/STM32F4xx_HAL_Driver/Src/stm32f4xx_hal_pcd.c ****       default :
 510:Drivers/STM32F4xx_HAL_Driver/Src/stm32f4xx_hal_pcd.c ****         /* Update the error code */
 511:Drivers/STM32F4xx_HAL_Driver/Src/stm32f4xx_hal_pcd.c ****         hpcd->ErrorCode |= HAL_PCD_ERROR_INVALID_CALLBACK;
 512:Drivers/STM32F4xx_HAL_Driver/Src/stm32f4xx_hal_pcd.c **** 
 513:Drivers/STM32F4xx_HAL_Driver/Src/stm32f4xx_hal_pcd.c ****         /* Return error status */
 514:Drivers/STM32F4xx_HAL_Driver/Src/stm32f4xx_hal_pcd.c ****         status =  HAL_ERROR;
 515:Drivers/STM32F4xx_HAL_Driver/Src/stm32f4xx_hal_pcd.c ****         break;
 516:Drivers/STM32F4xx_HAL_Driver/Src/stm32f4xx_hal_pcd.c ****     }
 517:Drivers/STM32F4xx_HAL_Driver/Src/stm32f4xx_hal_pcd.c ****   }
 518:Drivers/STM32F4xx_HAL_Driver/Src/stm32f4xx_hal_pcd.c ****   else
ARM GAS  /tmp/ccQdZtFR.s 			page 20


 519:Drivers/STM32F4xx_HAL_Driver/Src/stm32f4xx_hal_pcd.c ****   {
 520:Drivers/STM32F4xx_HAL_Driver/Src/stm32f4xx_hal_pcd.c ****     /* Update the error code */
 521:Drivers/STM32F4xx_HAL_Driver/Src/stm32f4xx_hal_pcd.c ****     hpcd->ErrorCode |= HAL_PCD_ERROR_INVALID_CALLBACK;
 522:Drivers/STM32F4xx_HAL_Driver/Src/stm32f4xx_hal_pcd.c **** 
 523:Drivers/STM32F4xx_HAL_Driver/Src/stm32f4xx_hal_pcd.c ****     /* Return error status */
 524:Drivers/STM32F4xx_HAL_Driver/Src/stm32f4xx_hal_pcd.c ****     status =  HAL_ERROR;
 525:Drivers/STM32F4xx_HAL_Driver/Src/stm32f4xx_hal_pcd.c ****   }
 526:Drivers/STM32F4xx_HAL_Driver/Src/stm32f4xx_hal_pcd.c **** 
 527:Drivers/STM32F4xx_HAL_Driver/Src/stm32f4xx_hal_pcd.c ****   /* Release Lock */
 528:Drivers/STM32F4xx_HAL_Driver/Src/stm32f4xx_hal_pcd.c ****   __HAL_UNLOCK(hpcd);
 529:Drivers/STM32F4xx_HAL_Driver/Src/stm32f4xx_hal_pcd.c ****   return status;
 530:Drivers/STM32F4xx_HAL_Driver/Src/stm32f4xx_hal_pcd.c **** }
 531:Drivers/STM32F4xx_HAL_Driver/Src/stm32f4xx_hal_pcd.c **** 
 532:Drivers/STM32F4xx_HAL_Driver/Src/stm32f4xx_hal_pcd.c **** /**
 533:Drivers/STM32F4xx_HAL_Driver/Src/stm32f4xx_hal_pcd.c ****   * @brief  Register USB PCD Data OUT Stage Callback
 534:Drivers/STM32F4xx_HAL_Driver/Src/stm32f4xx_hal_pcd.c ****   *         To be used instead of the weak HAL_PCD_DataOutStageCallback() predefined callback
 535:Drivers/STM32F4xx_HAL_Driver/Src/stm32f4xx_hal_pcd.c ****   * @param  hpcd PCD handle
 536:Drivers/STM32F4xx_HAL_Driver/Src/stm32f4xx_hal_pcd.c ****   * @param  pCallback pointer to the USB PCD Data OUT Stage Callback function
 537:Drivers/STM32F4xx_HAL_Driver/Src/stm32f4xx_hal_pcd.c ****   * @retval HAL status
 538:Drivers/STM32F4xx_HAL_Driver/Src/stm32f4xx_hal_pcd.c ****   */
 539:Drivers/STM32F4xx_HAL_Driver/Src/stm32f4xx_hal_pcd.c **** HAL_StatusTypeDef HAL_PCD_RegisterDataOutStageCallback(PCD_HandleTypeDef *hpcd,
 540:Drivers/STM32F4xx_HAL_Driver/Src/stm32f4xx_hal_pcd.c ****                                                        pPCD_DataOutStageCallbackTypeDef pCallback)
 541:Drivers/STM32F4xx_HAL_Driver/Src/stm32f4xx_hal_pcd.c **** {
 542:Drivers/STM32F4xx_HAL_Driver/Src/stm32f4xx_hal_pcd.c ****   HAL_StatusTypeDef status = HAL_OK;
 543:Drivers/STM32F4xx_HAL_Driver/Src/stm32f4xx_hal_pcd.c **** 
 544:Drivers/STM32F4xx_HAL_Driver/Src/stm32f4xx_hal_pcd.c ****   if (pCallback == NULL)
 545:Drivers/STM32F4xx_HAL_Driver/Src/stm32f4xx_hal_pcd.c ****   {
 546:Drivers/STM32F4xx_HAL_Driver/Src/stm32f4xx_hal_pcd.c ****     /* Update the error code */
 547:Drivers/STM32F4xx_HAL_Driver/Src/stm32f4xx_hal_pcd.c ****     hpcd->ErrorCode |= HAL_PCD_ERROR_INVALID_CALLBACK;
 548:Drivers/STM32F4xx_HAL_Driver/Src/stm32f4xx_hal_pcd.c **** 
 549:Drivers/STM32F4xx_HAL_Driver/Src/stm32f4xx_hal_pcd.c ****     return HAL_ERROR;
 550:Drivers/STM32F4xx_HAL_Driver/Src/stm32f4xx_hal_pcd.c ****   }
 551:Drivers/STM32F4xx_HAL_Driver/Src/stm32f4xx_hal_pcd.c **** 
 552:Drivers/STM32F4xx_HAL_Driver/Src/stm32f4xx_hal_pcd.c ****   /* Process locked */
 553:Drivers/STM32F4xx_HAL_Driver/Src/stm32f4xx_hal_pcd.c ****   __HAL_LOCK(hpcd);
 554:Drivers/STM32F4xx_HAL_Driver/Src/stm32f4xx_hal_pcd.c **** 
 555:Drivers/STM32F4xx_HAL_Driver/Src/stm32f4xx_hal_pcd.c ****   if (hpcd->State == HAL_PCD_STATE_READY)
 556:Drivers/STM32F4xx_HAL_Driver/Src/stm32f4xx_hal_pcd.c ****   {
 557:Drivers/STM32F4xx_HAL_Driver/Src/stm32f4xx_hal_pcd.c ****     hpcd->DataOutStageCallback = pCallback;
 558:Drivers/STM32F4xx_HAL_Driver/Src/stm32f4xx_hal_pcd.c ****   }
 559:Drivers/STM32F4xx_HAL_Driver/Src/stm32f4xx_hal_pcd.c ****   else
 560:Drivers/STM32F4xx_HAL_Driver/Src/stm32f4xx_hal_pcd.c ****   {
 561:Drivers/STM32F4xx_HAL_Driver/Src/stm32f4xx_hal_pcd.c ****     /* Update the error code */
 562:Drivers/STM32F4xx_HAL_Driver/Src/stm32f4xx_hal_pcd.c ****     hpcd->ErrorCode |= HAL_PCD_ERROR_INVALID_CALLBACK;
 563:Drivers/STM32F4xx_HAL_Driver/Src/stm32f4xx_hal_pcd.c **** 
 564:Drivers/STM32F4xx_HAL_Driver/Src/stm32f4xx_hal_pcd.c ****     /* Return error status */
 565:Drivers/STM32F4xx_HAL_Driver/Src/stm32f4xx_hal_pcd.c ****     status =  HAL_ERROR;
 566:Drivers/STM32F4xx_HAL_Driver/Src/stm32f4xx_hal_pcd.c ****   }
 567:Drivers/STM32F4xx_HAL_Driver/Src/stm32f4xx_hal_pcd.c **** 
 568:Drivers/STM32F4xx_HAL_Driver/Src/stm32f4xx_hal_pcd.c ****   /* Release Lock */
 569:Drivers/STM32F4xx_HAL_Driver/Src/stm32f4xx_hal_pcd.c ****   __HAL_UNLOCK(hpcd);
 570:Drivers/STM32F4xx_HAL_Driver/Src/stm32f4xx_hal_pcd.c **** 
 571:Drivers/STM32F4xx_HAL_Driver/Src/stm32f4xx_hal_pcd.c ****   return status;
 572:Drivers/STM32F4xx_HAL_Driver/Src/stm32f4xx_hal_pcd.c **** }
 573:Drivers/STM32F4xx_HAL_Driver/Src/stm32f4xx_hal_pcd.c **** 
 574:Drivers/STM32F4xx_HAL_Driver/Src/stm32f4xx_hal_pcd.c **** /**
 575:Drivers/STM32F4xx_HAL_Driver/Src/stm32f4xx_hal_pcd.c ****   * @brief  Unregister the USB PCD Data OUT Stage Callback
ARM GAS  /tmp/ccQdZtFR.s 			page 21


 576:Drivers/STM32F4xx_HAL_Driver/Src/stm32f4xx_hal_pcd.c ****   *         USB PCD Data OUT Stage Callback is redirected to the weak HAL_PCD_DataOutStageCallback(
 577:Drivers/STM32F4xx_HAL_Driver/Src/stm32f4xx_hal_pcd.c ****   * @param  hpcd PCD handle
 578:Drivers/STM32F4xx_HAL_Driver/Src/stm32f4xx_hal_pcd.c ****   * @retval HAL status
 579:Drivers/STM32F4xx_HAL_Driver/Src/stm32f4xx_hal_pcd.c ****   */
 580:Drivers/STM32F4xx_HAL_Driver/Src/stm32f4xx_hal_pcd.c **** HAL_StatusTypeDef HAL_PCD_UnRegisterDataOutStageCallback(PCD_HandleTypeDef *hpcd)
 581:Drivers/STM32F4xx_HAL_Driver/Src/stm32f4xx_hal_pcd.c **** {
 582:Drivers/STM32F4xx_HAL_Driver/Src/stm32f4xx_hal_pcd.c ****   HAL_StatusTypeDef status = HAL_OK;
 583:Drivers/STM32F4xx_HAL_Driver/Src/stm32f4xx_hal_pcd.c **** 
 584:Drivers/STM32F4xx_HAL_Driver/Src/stm32f4xx_hal_pcd.c ****   /* Process locked */
 585:Drivers/STM32F4xx_HAL_Driver/Src/stm32f4xx_hal_pcd.c ****   __HAL_LOCK(hpcd);
 586:Drivers/STM32F4xx_HAL_Driver/Src/stm32f4xx_hal_pcd.c **** 
 587:Drivers/STM32F4xx_HAL_Driver/Src/stm32f4xx_hal_pcd.c ****   if (hpcd->State == HAL_PCD_STATE_READY)
 588:Drivers/STM32F4xx_HAL_Driver/Src/stm32f4xx_hal_pcd.c ****   {
 589:Drivers/STM32F4xx_HAL_Driver/Src/stm32f4xx_hal_pcd.c ****     hpcd->DataOutStageCallback = HAL_PCD_DataOutStageCallback; /* Legacy weak DataOutStageCallback 
 590:Drivers/STM32F4xx_HAL_Driver/Src/stm32f4xx_hal_pcd.c ****   }
 591:Drivers/STM32F4xx_HAL_Driver/Src/stm32f4xx_hal_pcd.c ****   else
 592:Drivers/STM32F4xx_HAL_Driver/Src/stm32f4xx_hal_pcd.c ****   {
 593:Drivers/STM32F4xx_HAL_Driver/Src/stm32f4xx_hal_pcd.c ****     /* Update the error code */
 594:Drivers/STM32F4xx_HAL_Driver/Src/stm32f4xx_hal_pcd.c ****     hpcd->ErrorCode |= HAL_PCD_ERROR_INVALID_CALLBACK;
 595:Drivers/STM32F4xx_HAL_Driver/Src/stm32f4xx_hal_pcd.c **** 
 596:Drivers/STM32F4xx_HAL_Driver/Src/stm32f4xx_hal_pcd.c ****     /* Return error status */
 597:Drivers/STM32F4xx_HAL_Driver/Src/stm32f4xx_hal_pcd.c ****     status =  HAL_ERROR;
 598:Drivers/STM32F4xx_HAL_Driver/Src/stm32f4xx_hal_pcd.c ****   }
 599:Drivers/STM32F4xx_HAL_Driver/Src/stm32f4xx_hal_pcd.c **** 
 600:Drivers/STM32F4xx_HAL_Driver/Src/stm32f4xx_hal_pcd.c ****   /* Release Lock */
 601:Drivers/STM32F4xx_HAL_Driver/Src/stm32f4xx_hal_pcd.c ****   __HAL_UNLOCK(hpcd);
 602:Drivers/STM32F4xx_HAL_Driver/Src/stm32f4xx_hal_pcd.c **** 
 603:Drivers/STM32F4xx_HAL_Driver/Src/stm32f4xx_hal_pcd.c ****   return status;
 604:Drivers/STM32F4xx_HAL_Driver/Src/stm32f4xx_hal_pcd.c **** }
 605:Drivers/STM32F4xx_HAL_Driver/Src/stm32f4xx_hal_pcd.c **** 
 606:Drivers/STM32F4xx_HAL_Driver/Src/stm32f4xx_hal_pcd.c **** /**
 607:Drivers/STM32F4xx_HAL_Driver/Src/stm32f4xx_hal_pcd.c ****   * @brief  Register USB PCD Data IN Stage Callback
 608:Drivers/STM32F4xx_HAL_Driver/Src/stm32f4xx_hal_pcd.c ****   *         To be used instead of the weak HAL_PCD_DataInStageCallback() predefined callback
 609:Drivers/STM32F4xx_HAL_Driver/Src/stm32f4xx_hal_pcd.c ****   * @param  hpcd PCD handle
 610:Drivers/STM32F4xx_HAL_Driver/Src/stm32f4xx_hal_pcd.c ****   * @param  pCallback pointer to the USB PCD Data IN Stage Callback function
 611:Drivers/STM32F4xx_HAL_Driver/Src/stm32f4xx_hal_pcd.c ****   * @retval HAL status
 612:Drivers/STM32F4xx_HAL_Driver/Src/stm32f4xx_hal_pcd.c ****   */
 613:Drivers/STM32F4xx_HAL_Driver/Src/stm32f4xx_hal_pcd.c **** HAL_StatusTypeDef HAL_PCD_RegisterDataInStageCallback(PCD_HandleTypeDef *hpcd,
 614:Drivers/STM32F4xx_HAL_Driver/Src/stm32f4xx_hal_pcd.c ****                                                       pPCD_DataInStageCallbackTypeDef pCallback)
 615:Drivers/STM32F4xx_HAL_Driver/Src/stm32f4xx_hal_pcd.c **** {
 616:Drivers/STM32F4xx_HAL_Driver/Src/stm32f4xx_hal_pcd.c ****   HAL_StatusTypeDef status = HAL_OK;
 617:Drivers/STM32F4xx_HAL_Driver/Src/stm32f4xx_hal_pcd.c **** 
 618:Drivers/STM32F4xx_HAL_Driver/Src/stm32f4xx_hal_pcd.c ****   if (pCallback == NULL)
 619:Drivers/STM32F4xx_HAL_Driver/Src/stm32f4xx_hal_pcd.c ****   {
 620:Drivers/STM32F4xx_HAL_Driver/Src/stm32f4xx_hal_pcd.c ****     /* Update the error code */
 621:Drivers/STM32F4xx_HAL_Driver/Src/stm32f4xx_hal_pcd.c ****     hpcd->ErrorCode |= HAL_PCD_ERROR_INVALID_CALLBACK;
 622:Drivers/STM32F4xx_HAL_Driver/Src/stm32f4xx_hal_pcd.c **** 
 623:Drivers/STM32F4xx_HAL_Driver/Src/stm32f4xx_hal_pcd.c ****     return HAL_ERROR;
 624:Drivers/STM32F4xx_HAL_Driver/Src/stm32f4xx_hal_pcd.c ****   }
 625:Drivers/STM32F4xx_HAL_Driver/Src/stm32f4xx_hal_pcd.c **** 
 626:Drivers/STM32F4xx_HAL_Driver/Src/stm32f4xx_hal_pcd.c ****   /* Process locked */
 627:Drivers/STM32F4xx_HAL_Driver/Src/stm32f4xx_hal_pcd.c ****   __HAL_LOCK(hpcd);
 628:Drivers/STM32F4xx_HAL_Driver/Src/stm32f4xx_hal_pcd.c **** 
 629:Drivers/STM32F4xx_HAL_Driver/Src/stm32f4xx_hal_pcd.c ****   if (hpcd->State == HAL_PCD_STATE_READY)
 630:Drivers/STM32F4xx_HAL_Driver/Src/stm32f4xx_hal_pcd.c ****   {
 631:Drivers/STM32F4xx_HAL_Driver/Src/stm32f4xx_hal_pcd.c ****     hpcd->DataInStageCallback = pCallback;
 632:Drivers/STM32F4xx_HAL_Driver/Src/stm32f4xx_hal_pcd.c ****   }
ARM GAS  /tmp/ccQdZtFR.s 			page 22


 633:Drivers/STM32F4xx_HAL_Driver/Src/stm32f4xx_hal_pcd.c ****   else
 634:Drivers/STM32F4xx_HAL_Driver/Src/stm32f4xx_hal_pcd.c ****   {
 635:Drivers/STM32F4xx_HAL_Driver/Src/stm32f4xx_hal_pcd.c ****     /* Update the error code */
 636:Drivers/STM32F4xx_HAL_Driver/Src/stm32f4xx_hal_pcd.c ****     hpcd->ErrorCode |= HAL_PCD_ERROR_INVALID_CALLBACK;
 637:Drivers/STM32F4xx_HAL_Driver/Src/stm32f4xx_hal_pcd.c **** 
 638:Drivers/STM32F4xx_HAL_Driver/Src/stm32f4xx_hal_pcd.c ****     /* Return error status */
 639:Drivers/STM32F4xx_HAL_Driver/Src/stm32f4xx_hal_pcd.c ****     status =  HAL_ERROR;
 640:Drivers/STM32F4xx_HAL_Driver/Src/stm32f4xx_hal_pcd.c ****   }
 641:Drivers/STM32F4xx_HAL_Driver/Src/stm32f4xx_hal_pcd.c **** 
 642:Drivers/STM32F4xx_HAL_Driver/Src/stm32f4xx_hal_pcd.c ****   /* Release Lock */
 643:Drivers/STM32F4xx_HAL_Driver/Src/stm32f4xx_hal_pcd.c ****   __HAL_UNLOCK(hpcd);
 644:Drivers/STM32F4xx_HAL_Driver/Src/stm32f4xx_hal_pcd.c **** 
 645:Drivers/STM32F4xx_HAL_Driver/Src/stm32f4xx_hal_pcd.c ****   return status;
 646:Drivers/STM32F4xx_HAL_Driver/Src/stm32f4xx_hal_pcd.c **** }
 647:Drivers/STM32F4xx_HAL_Driver/Src/stm32f4xx_hal_pcd.c **** 
 648:Drivers/STM32F4xx_HAL_Driver/Src/stm32f4xx_hal_pcd.c **** /**
 649:Drivers/STM32F4xx_HAL_Driver/Src/stm32f4xx_hal_pcd.c ****   * @brief  Unregister the USB PCD Data IN Stage Callback
 650:Drivers/STM32F4xx_HAL_Driver/Src/stm32f4xx_hal_pcd.c ****   *         USB PCD Data OUT Stage Callback is redirected to the weak HAL_PCD_DataInStageCallback()
 651:Drivers/STM32F4xx_HAL_Driver/Src/stm32f4xx_hal_pcd.c ****   * @param  hpcd PCD handle
 652:Drivers/STM32F4xx_HAL_Driver/Src/stm32f4xx_hal_pcd.c ****   * @retval HAL status
 653:Drivers/STM32F4xx_HAL_Driver/Src/stm32f4xx_hal_pcd.c ****   */
 654:Drivers/STM32F4xx_HAL_Driver/Src/stm32f4xx_hal_pcd.c **** HAL_StatusTypeDef HAL_PCD_UnRegisterDataInStageCallback(PCD_HandleTypeDef *hpcd)
 655:Drivers/STM32F4xx_HAL_Driver/Src/stm32f4xx_hal_pcd.c **** {
 656:Drivers/STM32F4xx_HAL_Driver/Src/stm32f4xx_hal_pcd.c ****   HAL_StatusTypeDef status = HAL_OK;
 657:Drivers/STM32F4xx_HAL_Driver/Src/stm32f4xx_hal_pcd.c **** 
 658:Drivers/STM32F4xx_HAL_Driver/Src/stm32f4xx_hal_pcd.c ****   /* Process locked */
 659:Drivers/STM32F4xx_HAL_Driver/Src/stm32f4xx_hal_pcd.c ****   __HAL_LOCK(hpcd);
 660:Drivers/STM32F4xx_HAL_Driver/Src/stm32f4xx_hal_pcd.c **** 
 661:Drivers/STM32F4xx_HAL_Driver/Src/stm32f4xx_hal_pcd.c ****   if (hpcd->State == HAL_PCD_STATE_READY)
 662:Drivers/STM32F4xx_HAL_Driver/Src/stm32f4xx_hal_pcd.c ****   {
 663:Drivers/STM32F4xx_HAL_Driver/Src/stm32f4xx_hal_pcd.c ****     hpcd->DataInStageCallback = HAL_PCD_DataInStageCallback; /* Legacy weak DataInStageCallback  */
 664:Drivers/STM32F4xx_HAL_Driver/Src/stm32f4xx_hal_pcd.c ****   }
 665:Drivers/STM32F4xx_HAL_Driver/Src/stm32f4xx_hal_pcd.c ****   else
 666:Drivers/STM32F4xx_HAL_Driver/Src/stm32f4xx_hal_pcd.c ****   {
 667:Drivers/STM32F4xx_HAL_Driver/Src/stm32f4xx_hal_pcd.c ****     /* Update the error code */
 668:Drivers/STM32F4xx_HAL_Driver/Src/stm32f4xx_hal_pcd.c ****     hpcd->ErrorCode |= HAL_PCD_ERROR_INVALID_CALLBACK;
 669:Drivers/STM32F4xx_HAL_Driver/Src/stm32f4xx_hal_pcd.c **** 
 670:Drivers/STM32F4xx_HAL_Driver/Src/stm32f4xx_hal_pcd.c ****     /* Return error status */
 671:Drivers/STM32F4xx_HAL_Driver/Src/stm32f4xx_hal_pcd.c ****     status =  HAL_ERROR;
 672:Drivers/STM32F4xx_HAL_Driver/Src/stm32f4xx_hal_pcd.c ****   }
 673:Drivers/STM32F4xx_HAL_Driver/Src/stm32f4xx_hal_pcd.c **** 
 674:Drivers/STM32F4xx_HAL_Driver/Src/stm32f4xx_hal_pcd.c ****   /* Release Lock */
 675:Drivers/STM32F4xx_HAL_Driver/Src/stm32f4xx_hal_pcd.c ****   __HAL_UNLOCK(hpcd);
 676:Drivers/STM32F4xx_HAL_Driver/Src/stm32f4xx_hal_pcd.c **** 
 677:Drivers/STM32F4xx_HAL_Driver/Src/stm32f4xx_hal_pcd.c ****   return status;
 678:Drivers/STM32F4xx_HAL_Driver/Src/stm32f4xx_hal_pcd.c **** }
 679:Drivers/STM32F4xx_HAL_Driver/Src/stm32f4xx_hal_pcd.c **** 
 680:Drivers/STM32F4xx_HAL_Driver/Src/stm32f4xx_hal_pcd.c **** /**
 681:Drivers/STM32F4xx_HAL_Driver/Src/stm32f4xx_hal_pcd.c ****   * @brief  Register USB PCD Iso OUT incomplete Callback
 682:Drivers/STM32F4xx_HAL_Driver/Src/stm32f4xx_hal_pcd.c ****   *         To be used instead of the weak HAL_PCD_ISOOUTIncompleteCallback() predefined callback
 683:Drivers/STM32F4xx_HAL_Driver/Src/stm32f4xx_hal_pcd.c ****   * @param  hpcd PCD handle
 684:Drivers/STM32F4xx_HAL_Driver/Src/stm32f4xx_hal_pcd.c ****   * @param  pCallback pointer to the USB PCD Iso OUT incomplete Callback function
 685:Drivers/STM32F4xx_HAL_Driver/Src/stm32f4xx_hal_pcd.c ****   * @retval HAL status
 686:Drivers/STM32F4xx_HAL_Driver/Src/stm32f4xx_hal_pcd.c ****   */
 687:Drivers/STM32F4xx_HAL_Driver/Src/stm32f4xx_hal_pcd.c **** HAL_StatusTypeDef HAL_PCD_RegisterIsoOutIncpltCallback(PCD_HandleTypeDef *hpcd,
 688:Drivers/STM32F4xx_HAL_Driver/Src/stm32f4xx_hal_pcd.c ****                                                        pPCD_IsoOutIncpltCallbackTypeDef pCallback)
 689:Drivers/STM32F4xx_HAL_Driver/Src/stm32f4xx_hal_pcd.c **** {
ARM GAS  /tmp/ccQdZtFR.s 			page 23


 690:Drivers/STM32F4xx_HAL_Driver/Src/stm32f4xx_hal_pcd.c ****   HAL_StatusTypeDef status = HAL_OK;
 691:Drivers/STM32F4xx_HAL_Driver/Src/stm32f4xx_hal_pcd.c **** 
 692:Drivers/STM32F4xx_HAL_Driver/Src/stm32f4xx_hal_pcd.c ****   if (pCallback == NULL)
 693:Drivers/STM32F4xx_HAL_Driver/Src/stm32f4xx_hal_pcd.c ****   {
 694:Drivers/STM32F4xx_HAL_Driver/Src/stm32f4xx_hal_pcd.c ****     /* Update the error code */
 695:Drivers/STM32F4xx_HAL_Driver/Src/stm32f4xx_hal_pcd.c ****     hpcd->ErrorCode |= HAL_PCD_ERROR_INVALID_CALLBACK;
 696:Drivers/STM32F4xx_HAL_Driver/Src/stm32f4xx_hal_pcd.c **** 
 697:Drivers/STM32F4xx_HAL_Driver/Src/stm32f4xx_hal_pcd.c ****     return HAL_ERROR;
 698:Drivers/STM32F4xx_HAL_Driver/Src/stm32f4xx_hal_pcd.c ****   }
 699:Drivers/STM32F4xx_HAL_Driver/Src/stm32f4xx_hal_pcd.c **** 
 700:Drivers/STM32F4xx_HAL_Driver/Src/stm32f4xx_hal_pcd.c ****   /* Process locked */
 701:Drivers/STM32F4xx_HAL_Driver/Src/stm32f4xx_hal_pcd.c ****   __HAL_LOCK(hpcd);
 702:Drivers/STM32F4xx_HAL_Driver/Src/stm32f4xx_hal_pcd.c **** 
 703:Drivers/STM32F4xx_HAL_Driver/Src/stm32f4xx_hal_pcd.c ****   if (hpcd->State == HAL_PCD_STATE_READY)
 704:Drivers/STM32F4xx_HAL_Driver/Src/stm32f4xx_hal_pcd.c ****   {
 705:Drivers/STM32F4xx_HAL_Driver/Src/stm32f4xx_hal_pcd.c ****     hpcd->ISOOUTIncompleteCallback = pCallback;
 706:Drivers/STM32F4xx_HAL_Driver/Src/stm32f4xx_hal_pcd.c ****   }
 707:Drivers/STM32F4xx_HAL_Driver/Src/stm32f4xx_hal_pcd.c ****   else
 708:Drivers/STM32F4xx_HAL_Driver/Src/stm32f4xx_hal_pcd.c ****   {
 709:Drivers/STM32F4xx_HAL_Driver/Src/stm32f4xx_hal_pcd.c ****     /* Update the error code */
 710:Drivers/STM32F4xx_HAL_Driver/Src/stm32f4xx_hal_pcd.c ****     hpcd->ErrorCode |= HAL_PCD_ERROR_INVALID_CALLBACK;
 711:Drivers/STM32F4xx_HAL_Driver/Src/stm32f4xx_hal_pcd.c **** 
 712:Drivers/STM32F4xx_HAL_Driver/Src/stm32f4xx_hal_pcd.c ****     /* Return error status */
 713:Drivers/STM32F4xx_HAL_Driver/Src/stm32f4xx_hal_pcd.c ****     status =  HAL_ERROR;
 714:Drivers/STM32F4xx_HAL_Driver/Src/stm32f4xx_hal_pcd.c ****   }
 715:Drivers/STM32F4xx_HAL_Driver/Src/stm32f4xx_hal_pcd.c **** 
 716:Drivers/STM32F4xx_HAL_Driver/Src/stm32f4xx_hal_pcd.c ****   /* Release Lock */
 717:Drivers/STM32F4xx_HAL_Driver/Src/stm32f4xx_hal_pcd.c ****   __HAL_UNLOCK(hpcd);
 718:Drivers/STM32F4xx_HAL_Driver/Src/stm32f4xx_hal_pcd.c **** 
 719:Drivers/STM32F4xx_HAL_Driver/Src/stm32f4xx_hal_pcd.c ****   return status;
 720:Drivers/STM32F4xx_HAL_Driver/Src/stm32f4xx_hal_pcd.c **** }
 721:Drivers/STM32F4xx_HAL_Driver/Src/stm32f4xx_hal_pcd.c **** 
 722:Drivers/STM32F4xx_HAL_Driver/Src/stm32f4xx_hal_pcd.c **** /**
 723:Drivers/STM32F4xx_HAL_Driver/Src/stm32f4xx_hal_pcd.c ****   * @brief  Unregister the USB PCD Iso OUT incomplete Callback
 724:Drivers/STM32F4xx_HAL_Driver/Src/stm32f4xx_hal_pcd.c ****   *         USB PCD Iso OUT incomplete Callback is redirected
 725:Drivers/STM32F4xx_HAL_Driver/Src/stm32f4xx_hal_pcd.c ****   *         to the weak HAL_PCD_ISOOUTIncompleteCallback() predefined callback
 726:Drivers/STM32F4xx_HAL_Driver/Src/stm32f4xx_hal_pcd.c ****   * @param  hpcd PCD handle
 727:Drivers/STM32F4xx_HAL_Driver/Src/stm32f4xx_hal_pcd.c ****   * @retval HAL status
 728:Drivers/STM32F4xx_HAL_Driver/Src/stm32f4xx_hal_pcd.c ****   */
 729:Drivers/STM32F4xx_HAL_Driver/Src/stm32f4xx_hal_pcd.c **** HAL_StatusTypeDef HAL_PCD_UnRegisterIsoOutIncpltCallback(PCD_HandleTypeDef *hpcd)
 730:Drivers/STM32F4xx_HAL_Driver/Src/stm32f4xx_hal_pcd.c **** {
 731:Drivers/STM32F4xx_HAL_Driver/Src/stm32f4xx_hal_pcd.c ****   HAL_StatusTypeDef status = HAL_OK;
 732:Drivers/STM32F4xx_HAL_Driver/Src/stm32f4xx_hal_pcd.c **** 
 733:Drivers/STM32F4xx_HAL_Driver/Src/stm32f4xx_hal_pcd.c ****   /* Process locked */
 734:Drivers/STM32F4xx_HAL_Driver/Src/stm32f4xx_hal_pcd.c ****   __HAL_LOCK(hpcd);
 735:Drivers/STM32F4xx_HAL_Driver/Src/stm32f4xx_hal_pcd.c **** 
 736:Drivers/STM32F4xx_HAL_Driver/Src/stm32f4xx_hal_pcd.c ****   if (hpcd->State == HAL_PCD_STATE_READY)
 737:Drivers/STM32F4xx_HAL_Driver/Src/stm32f4xx_hal_pcd.c ****   {
 738:Drivers/STM32F4xx_HAL_Driver/Src/stm32f4xx_hal_pcd.c ****     hpcd->ISOOUTIncompleteCallback = HAL_PCD_ISOOUTIncompleteCallback; /* Legacy weak ISOOUTIncompl
 739:Drivers/STM32F4xx_HAL_Driver/Src/stm32f4xx_hal_pcd.c ****   }
 740:Drivers/STM32F4xx_HAL_Driver/Src/stm32f4xx_hal_pcd.c ****   else
 741:Drivers/STM32F4xx_HAL_Driver/Src/stm32f4xx_hal_pcd.c ****   {
 742:Drivers/STM32F4xx_HAL_Driver/Src/stm32f4xx_hal_pcd.c ****     /* Update the error code */
 743:Drivers/STM32F4xx_HAL_Driver/Src/stm32f4xx_hal_pcd.c ****     hpcd->ErrorCode |= HAL_PCD_ERROR_INVALID_CALLBACK;
 744:Drivers/STM32F4xx_HAL_Driver/Src/stm32f4xx_hal_pcd.c **** 
 745:Drivers/STM32F4xx_HAL_Driver/Src/stm32f4xx_hal_pcd.c ****     /* Return error status */
 746:Drivers/STM32F4xx_HAL_Driver/Src/stm32f4xx_hal_pcd.c ****     status =  HAL_ERROR;
ARM GAS  /tmp/ccQdZtFR.s 			page 24


 747:Drivers/STM32F4xx_HAL_Driver/Src/stm32f4xx_hal_pcd.c ****   }
 748:Drivers/STM32F4xx_HAL_Driver/Src/stm32f4xx_hal_pcd.c **** 
 749:Drivers/STM32F4xx_HAL_Driver/Src/stm32f4xx_hal_pcd.c ****   /* Release Lock */
 750:Drivers/STM32F4xx_HAL_Driver/Src/stm32f4xx_hal_pcd.c ****   __HAL_UNLOCK(hpcd);
 751:Drivers/STM32F4xx_HAL_Driver/Src/stm32f4xx_hal_pcd.c **** 
 752:Drivers/STM32F4xx_HAL_Driver/Src/stm32f4xx_hal_pcd.c ****   return status;
 753:Drivers/STM32F4xx_HAL_Driver/Src/stm32f4xx_hal_pcd.c **** }
 754:Drivers/STM32F4xx_HAL_Driver/Src/stm32f4xx_hal_pcd.c **** 
 755:Drivers/STM32F4xx_HAL_Driver/Src/stm32f4xx_hal_pcd.c **** /**
 756:Drivers/STM32F4xx_HAL_Driver/Src/stm32f4xx_hal_pcd.c ****   * @brief  Register USB PCD Iso IN incomplete Callback
 757:Drivers/STM32F4xx_HAL_Driver/Src/stm32f4xx_hal_pcd.c ****   *         To be used instead of the weak HAL_PCD_ISOINIncompleteCallback() predefined callback
 758:Drivers/STM32F4xx_HAL_Driver/Src/stm32f4xx_hal_pcd.c ****   * @param  hpcd PCD handle
 759:Drivers/STM32F4xx_HAL_Driver/Src/stm32f4xx_hal_pcd.c ****   * @param  pCallback pointer to the USB PCD Iso IN incomplete Callback function
 760:Drivers/STM32F4xx_HAL_Driver/Src/stm32f4xx_hal_pcd.c ****   * @retval HAL status
 761:Drivers/STM32F4xx_HAL_Driver/Src/stm32f4xx_hal_pcd.c ****   */
 762:Drivers/STM32F4xx_HAL_Driver/Src/stm32f4xx_hal_pcd.c **** HAL_StatusTypeDef HAL_PCD_RegisterIsoInIncpltCallback(PCD_HandleTypeDef *hpcd,
 763:Drivers/STM32F4xx_HAL_Driver/Src/stm32f4xx_hal_pcd.c ****                                                       pPCD_IsoInIncpltCallbackTypeDef pCallback)
 764:Drivers/STM32F4xx_HAL_Driver/Src/stm32f4xx_hal_pcd.c **** {
 765:Drivers/STM32F4xx_HAL_Driver/Src/stm32f4xx_hal_pcd.c ****   HAL_StatusTypeDef status = HAL_OK;
 766:Drivers/STM32F4xx_HAL_Driver/Src/stm32f4xx_hal_pcd.c **** 
 767:Drivers/STM32F4xx_HAL_Driver/Src/stm32f4xx_hal_pcd.c ****   if (pCallback == NULL)
 768:Drivers/STM32F4xx_HAL_Driver/Src/stm32f4xx_hal_pcd.c ****   {
 769:Drivers/STM32F4xx_HAL_Driver/Src/stm32f4xx_hal_pcd.c ****     /* Update the error code */
 770:Drivers/STM32F4xx_HAL_Driver/Src/stm32f4xx_hal_pcd.c ****     hpcd->ErrorCode |= HAL_PCD_ERROR_INVALID_CALLBACK;
 771:Drivers/STM32F4xx_HAL_Driver/Src/stm32f4xx_hal_pcd.c **** 
 772:Drivers/STM32F4xx_HAL_Driver/Src/stm32f4xx_hal_pcd.c ****     return HAL_ERROR;
 773:Drivers/STM32F4xx_HAL_Driver/Src/stm32f4xx_hal_pcd.c ****   }
 774:Drivers/STM32F4xx_HAL_Driver/Src/stm32f4xx_hal_pcd.c **** 
 775:Drivers/STM32F4xx_HAL_Driver/Src/stm32f4xx_hal_pcd.c ****   /* Process locked */
 776:Drivers/STM32F4xx_HAL_Driver/Src/stm32f4xx_hal_pcd.c ****   __HAL_LOCK(hpcd);
 777:Drivers/STM32F4xx_HAL_Driver/Src/stm32f4xx_hal_pcd.c **** 
 778:Drivers/STM32F4xx_HAL_Driver/Src/stm32f4xx_hal_pcd.c ****   if (hpcd->State == HAL_PCD_STATE_READY)
 779:Drivers/STM32F4xx_HAL_Driver/Src/stm32f4xx_hal_pcd.c ****   {
 780:Drivers/STM32F4xx_HAL_Driver/Src/stm32f4xx_hal_pcd.c ****     hpcd->ISOINIncompleteCallback = pCallback;
 781:Drivers/STM32F4xx_HAL_Driver/Src/stm32f4xx_hal_pcd.c ****   }
 782:Drivers/STM32F4xx_HAL_Driver/Src/stm32f4xx_hal_pcd.c ****   else
 783:Drivers/STM32F4xx_HAL_Driver/Src/stm32f4xx_hal_pcd.c ****   {
 784:Drivers/STM32F4xx_HAL_Driver/Src/stm32f4xx_hal_pcd.c ****     /* Update the error code */
 785:Drivers/STM32F4xx_HAL_Driver/Src/stm32f4xx_hal_pcd.c ****     hpcd->ErrorCode |= HAL_PCD_ERROR_INVALID_CALLBACK;
 786:Drivers/STM32F4xx_HAL_Driver/Src/stm32f4xx_hal_pcd.c **** 
 787:Drivers/STM32F4xx_HAL_Driver/Src/stm32f4xx_hal_pcd.c ****     /* Return error status */
 788:Drivers/STM32F4xx_HAL_Driver/Src/stm32f4xx_hal_pcd.c ****     status =  HAL_ERROR;
 789:Drivers/STM32F4xx_HAL_Driver/Src/stm32f4xx_hal_pcd.c ****   }
 790:Drivers/STM32F4xx_HAL_Driver/Src/stm32f4xx_hal_pcd.c **** 
 791:Drivers/STM32F4xx_HAL_Driver/Src/stm32f4xx_hal_pcd.c ****   /* Release Lock */
 792:Drivers/STM32F4xx_HAL_Driver/Src/stm32f4xx_hal_pcd.c ****   __HAL_UNLOCK(hpcd);
 793:Drivers/STM32F4xx_HAL_Driver/Src/stm32f4xx_hal_pcd.c **** 
 794:Drivers/STM32F4xx_HAL_Driver/Src/stm32f4xx_hal_pcd.c ****   return status;
 795:Drivers/STM32F4xx_HAL_Driver/Src/stm32f4xx_hal_pcd.c **** }
 796:Drivers/STM32F4xx_HAL_Driver/Src/stm32f4xx_hal_pcd.c **** 
 797:Drivers/STM32F4xx_HAL_Driver/Src/stm32f4xx_hal_pcd.c **** /**
 798:Drivers/STM32F4xx_HAL_Driver/Src/stm32f4xx_hal_pcd.c ****   * @brief  Unregister the USB PCD Iso IN incomplete Callback
 799:Drivers/STM32F4xx_HAL_Driver/Src/stm32f4xx_hal_pcd.c ****   *         USB PCD Iso IN incomplete Callback is redirected
 800:Drivers/STM32F4xx_HAL_Driver/Src/stm32f4xx_hal_pcd.c ****   *         to the weak HAL_PCD_ISOINIncompleteCallback() predefined callback
 801:Drivers/STM32F4xx_HAL_Driver/Src/stm32f4xx_hal_pcd.c ****   * @param  hpcd PCD handle
 802:Drivers/STM32F4xx_HAL_Driver/Src/stm32f4xx_hal_pcd.c ****   * @retval HAL status
 803:Drivers/STM32F4xx_HAL_Driver/Src/stm32f4xx_hal_pcd.c ****   */
ARM GAS  /tmp/ccQdZtFR.s 			page 25


 804:Drivers/STM32F4xx_HAL_Driver/Src/stm32f4xx_hal_pcd.c **** HAL_StatusTypeDef HAL_PCD_UnRegisterIsoInIncpltCallback(PCD_HandleTypeDef *hpcd)
 805:Drivers/STM32F4xx_HAL_Driver/Src/stm32f4xx_hal_pcd.c **** {
 806:Drivers/STM32F4xx_HAL_Driver/Src/stm32f4xx_hal_pcd.c ****   HAL_StatusTypeDef status = HAL_OK;
 807:Drivers/STM32F4xx_HAL_Driver/Src/stm32f4xx_hal_pcd.c **** 
 808:Drivers/STM32F4xx_HAL_Driver/Src/stm32f4xx_hal_pcd.c ****   /* Process locked */
 809:Drivers/STM32F4xx_HAL_Driver/Src/stm32f4xx_hal_pcd.c ****   __HAL_LOCK(hpcd);
 810:Drivers/STM32F4xx_HAL_Driver/Src/stm32f4xx_hal_pcd.c **** 
 811:Drivers/STM32F4xx_HAL_Driver/Src/stm32f4xx_hal_pcd.c ****   if (hpcd->State == HAL_PCD_STATE_READY)
 812:Drivers/STM32F4xx_HAL_Driver/Src/stm32f4xx_hal_pcd.c ****   {
 813:Drivers/STM32F4xx_HAL_Driver/Src/stm32f4xx_hal_pcd.c ****     hpcd->ISOINIncompleteCallback = HAL_PCD_ISOINIncompleteCallback; /* Legacy weak ISOINIncomplete
 814:Drivers/STM32F4xx_HAL_Driver/Src/stm32f4xx_hal_pcd.c ****   }
 815:Drivers/STM32F4xx_HAL_Driver/Src/stm32f4xx_hal_pcd.c ****   else
 816:Drivers/STM32F4xx_HAL_Driver/Src/stm32f4xx_hal_pcd.c ****   {
 817:Drivers/STM32F4xx_HAL_Driver/Src/stm32f4xx_hal_pcd.c ****     /* Update the error code */
 818:Drivers/STM32F4xx_HAL_Driver/Src/stm32f4xx_hal_pcd.c ****     hpcd->ErrorCode |= HAL_PCD_ERROR_INVALID_CALLBACK;
 819:Drivers/STM32F4xx_HAL_Driver/Src/stm32f4xx_hal_pcd.c **** 
 820:Drivers/STM32F4xx_HAL_Driver/Src/stm32f4xx_hal_pcd.c ****     /* Return error status */
 821:Drivers/STM32F4xx_HAL_Driver/Src/stm32f4xx_hal_pcd.c ****     status =  HAL_ERROR;
 822:Drivers/STM32F4xx_HAL_Driver/Src/stm32f4xx_hal_pcd.c ****   }
 823:Drivers/STM32F4xx_HAL_Driver/Src/stm32f4xx_hal_pcd.c **** 
 824:Drivers/STM32F4xx_HAL_Driver/Src/stm32f4xx_hal_pcd.c ****   /* Release Lock */
 825:Drivers/STM32F4xx_HAL_Driver/Src/stm32f4xx_hal_pcd.c ****   __HAL_UNLOCK(hpcd);
 826:Drivers/STM32F4xx_HAL_Driver/Src/stm32f4xx_hal_pcd.c **** 
 827:Drivers/STM32F4xx_HAL_Driver/Src/stm32f4xx_hal_pcd.c ****   return status;
 828:Drivers/STM32F4xx_HAL_Driver/Src/stm32f4xx_hal_pcd.c **** }
 829:Drivers/STM32F4xx_HAL_Driver/Src/stm32f4xx_hal_pcd.c **** 
 830:Drivers/STM32F4xx_HAL_Driver/Src/stm32f4xx_hal_pcd.c **** /**
 831:Drivers/STM32F4xx_HAL_Driver/Src/stm32f4xx_hal_pcd.c ****   * @brief  Register USB PCD BCD Callback
 832:Drivers/STM32F4xx_HAL_Driver/Src/stm32f4xx_hal_pcd.c ****   *         To be used instead of the weak HAL_PCDEx_BCD_Callback() predefined callback
 833:Drivers/STM32F4xx_HAL_Driver/Src/stm32f4xx_hal_pcd.c ****   * @param  hpcd PCD handle
 834:Drivers/STM32F4xx_HAL_Driver/Src/stm32f4xx_hal_pcd.c ****   * @param  pCallback pointer to the USB PCD BCD Callback function
 835:Drivers/STM32F4xx_HAL_Driver/Src/stm32f4xx_hal_pcd.c ****   * @retval HAL status
 836:Drivers/STM32F4xx_HAL_Driver/Src/stm32f4xx_hal_pcd.c ****   */
 837:Drivers/STM32F4xx_HAL_Driver/Src/stm32f4xx_hal_pcd.c **** HAL_StatusTypeDef HAL_PCD_RegisterBcdCallback(PCD_HandleTypeDef *hpcd, pPCD_BcdCallbackTypeDef pCal
 838:Drivers/STM32F4xx_HAL_Driver/Src/stm32f4xx_hal_pcd.c **** {
 839:Drivers/STM32F4xx_HAL_Driver/Src/stm32f4xx_hal_pcd.c ****   HAL_StatusTypeDef status = HAL_OK;
 840:Drivers/STM32F4xx_HAL_Driver/Src/stm32f4xx_hal_pcd.c **** 
 841:Drivers/STM32F4xx_HAL_Driver/Src/stm32f4xx_hal_pcd.c ****   if (pCallback == NULL)
 842:Drivers/STM32F4xx_HAL_Driver/Src/stm32f4xx_hal_pcd.c ****   {
 843:Drivers/STM32F4xx_HAL_Driver/Src/stm32f4xx_hal_pcd.c ****     /* Update the error code */
 844:Drivers/STM32F4xx_HAL_Driver/Src/stm32f4xx_hal_pcd.c ****     hpcd->ErrorCode |= HAL_PCD_ERROR_INVALID_CALLBACK;
 845:Drivers/STM32F4xx_HAL_Driver/Src/stm32f4xx_hal_pcd.c **** 
 846:Drivers/STM32F4xx_HAL_Driver/Src/stm32f4xx_hal_pcd.c ****     return HAL_ERROR;
 847:Drivers/STM32F4xx_HAL_Driver/Src/stm32f4xx_hal_pcd.c ****   }
 848:Drivers/STM32F4xx_HAL_Driver/Src/stm32f4xx_hal_pcd.c **** 
 849:Drivers/STM32F4xx_HAL_Driver/Src/stm32f4xx_hal_pcd.c ****   /* Process locked */
 850:Drivers/STM32F4xx_HAL_Driver/Src/stm32f4xx_hal_pcd.c ****   __HAL_LOCK(hpcd);
 851:Drivers/STM32F4xx_HAL_Driver/Src/stm32f4xx_hal_pcd.c **** 
 852:Drivers/STM32F4xx_HAL_Driver/Src/stm32f4xx_hal_pcd.c ****   if (hpcd->State == HAL_PCD_STATE_READY)
 853:Drivers/STM32F4xx_HAL_Driver/Src/stm32f4xx_hal_pcd.c ****   {
 854:Drivers/STM32F4xx_HAL_Driver/Src/stm32f4xx_hal_pcd.c ****     hpcd->BCDCallback = pCallback;
 855:Drivers/STM32F4xx_HAL_Driver/Src/stm32f4xx_hal_pcd.c ****   }
 856:Drivers/STM32F4xx_HAL_Driver/Src/stm32f4xx_hal_pcd.c ****   else
 857:Drivers/STM32F4xx_HAL_Driver/Src/stm32f4xx_hal_pcd.c ****   {
 858:Drivers/STM32F4xx_HAL_Driver/Src/stm32f4xx_hal_pcd.c ****     /* Update the error code */
 859:Drivers/STM32F4xx_HAL_Driver/Src/stm32f4xx_hal_pcd.c ****     hpcd->ErrorCode |= HAL_PCD_ERROR_INVALID_CALLBACK;
 860:Drivers/STM32F4xx_HAL_Driver/Src/stm32f4xx_hal_pcd.c **** 
ARM GAS  /tmp/ccQdZtFR.s 			page 26


 861:Drivers/STM32F4xx_HAL_Driver/Src/stm32f4xx_hal_pcd.c ****     /* Return error status */
 862:Drivers/STM32F4xx_HAL_Driver/Src/stm32f4xx_hal_pcd.c ****     status =  HAL_ERROR;
 863:Drivers/STM32F4xx_HAL_Driver/Src/stm32f4xx_hal_pcd.c ****   }
 864:Drivers/STM32F4xx_HAL_Driver/Src/stm32f4xx_hal_pcd.c **** 
 865:Drivers/STM32F4xx_HAL_Driver/Src/stm32f4xx_hal_pcd.c ****   /* Release Lock */
 866:Drivers/STM32F4xx_HAL_Driver/Src/stm32f4xx_hal_pcd.c ****   __HAL_UNLOCK(hpcd);
 867:Drivers/STM32F4xx_HAL_Driver/Src/stm32f4xx_hal_pcd.c **** 
 868:Drivers/STM32F4xx_HAL_Driver/Src/stm32f4xx_hal_pcd.c ****   return status;
 869:Drivers/STM32F4xx_HAL_Driver/Src/stm32f4xx_hal_pcd.c **** }
 870:Drivers/STM32F4xx_HAL_Driver/Src/stm32f4xx_hal_pcd.c **** 
 871:Drivers/STM32F4xx_HAL_Driver/Src/stm32f4xx_hal_pcd.c **** /**
 872:Drivers/STM32F4xx_HAL_Driver/Src/stm32f4xx_hal_pcd.c ****   * @brief  Unregister the USB PCD BCD Callback
 873:Drivers/STM32F4xx_HAL_Driver/Src/stm32f4xx_hal_pcd.c ****   *         USB BCD Callback is redirected to the weak HAL_PCDEx_BCD_Callback() predefined callback
 874:Drivers/STM32F4xx_HAL_Driver/Src/stm32f4xx_hal_pcd.c ****   * @param  hpcd PCD handle
 875:Drivers/STM32F4xx_HAL_Driver/Src/stm32f4xx_hal_pcd.c ****   * @retval HAL status
 876:Drivers/STM32F4xx_HAL_Driver/Src/stm32f4xx_hal_pcd.c ****   */
 877:Drivers/STM32F4xx_HAL_Driver/Src/stm32f4xx_hal_pcd.c **** HAL_StatusTypeDef HAL_PCD_UnRegisterBcdCallback(PCD_HandleTypeDef *hpcd)
 878:Drivers/STM32F4xx_HAL_Driver/Src/stm32f4xx_hal_pcd.c **** {
 879:Drivers/STM32F4xx_HAL_Driver/Src/stm32f4xx_hal_pcd.c ****   HAL_StatusTypeDef status = HAL_OK;
 880:Drivers/STM32F4xx_HAL_Driver/Src/stm32f4xx_hal_pcd.c **** 
 881:Drivers/STM32F4xx_HAL_Driver/Src/stm32f4xx_hal_pcd.c ****   /* Process locked */
 882:Drivers/STM32F4xx_HAL_Driver/Src/stm32f4xx_hal_pcd.c ****   __HAL_LOCK(hpcd);
 883:Drivers/STM32F4xx_HAL_Driver/Src/stm32f4xx_hal_pcd.c **** 
 884:Drivers/STM32F4xx_HAL_Driver/Src/stm32f4xx_hal_pcd.c ****   if (hpcd->State == HAL_PCD_STATE_READY)
 885:Drivers/STM32F4xx_HAL_Driver/Src/stm32f4xx_hal_pcd.c ****   {
 886:Drivers/STM32F4xx_HAL_Driver/Src/stm32f4xx_hal_pcd.c ****     hpcd->BCDCallback = HAL_PCDEx_BCD_Callback; /* Legacy weak HAL_PCDEx_BCD_Callback  */
 887:Drivers/STM32F4xx_HAL_Driver/Src/stm32f4xx_hal_pcd.c ****   }
 888:Drivers/STM32F4xx_HAL_Driver/Src/stm32f4xx_hal_pcd.c ****   else
 889:Drivers/STM32F4xx_HAL_Driver/Src/stm32f4xx_hal_pcd.c ****   {
 890:Drivers/STM32F4xx_HAL_Driver/Src/stm32f4xx_hal_pcd.c ****     /* Update the error code */
 891:Drivers/STM32F4xx_HAL_Driver/Src/stm32f4xx_hal_pcd.c ****     hpcd->ErrorCode |= HAL_PCD_ERROR_INVALID_CALLBACK;
 892:Drivers/STM32F4xx_HAL_Driver/Src/stm32f4xx_hal_pcd.c **** 
 893:Drivers/STM32F4xx_HAL_Driver/Src/stm32f4xx_hal_pcd.c ****     /* Return error status */
 894:Drivers/STM32F4xx_HAL_Driver/Src/stm32f4xx_hal_pcd.c ****     status =  HAL_ERROR;
 895:Drivers/STM32F4xx_HAL_Driver/Src/stm32f4xx_hal_pcd.c ****   }
 896:Drivers/STM32F4xx_HAL_Driver/Src/stm32f4xx_hal_pcd.c **** 
 897:Drivers/STM32F4xx_HAL_Driver/Src/stm32f4xx_hal_pcd.c ****   /* Release Lock */
 898:Drivers/STM32F4xx_HAL_Driver/Src/stm32f4xx_hal_pcd.c ****   __HAL_UNLOCK(hpcd);
 899:Drivers/STM32F4xx_HAL_Driver/Src/stm32f4xx_hal_pcd.c **** 
 900:Drivers/STM32F4xx_HAL_Driver/Src/stm32f4xx_hal_pcd.c ****   return status;
 901:Drivers/STM32F4xx_HAL_Driver/Src/stm32f4xx_hal_pcd.c **** }
 902:Drivers/STM32F4xx_HAL_Driver/Src/stm32f4xx_hal_pcd.c **** 
 903:Drivers/STM32F4xx_HAL_Driver/Src/stm32f4xx_hal_pcd.c **** /**
 904:Drivers/STM32F4xx_HAL_Driver/Src/stm32f4xx_hal_pcd.c ****   * @brief  Register USB PCD LPM Callback
 905:Drivers/STM32F4xx_HAL_Driver/Src/stm32f4xx_hal_pcd.c ****   *         To be used instead of the weak HAL_PCDEx_LPM_Callback() predefined callback
 906:Drivers/STM32F4xx_HAL_Driver/Src/stm32f4xx_hal_pcd.c ****   * @param  hpcd PCD handle
 907:Drivers/STM32F4xx_HAL_Driver/Src/stm32f4xx_hal_pcd.c ****   * @param  pCallback pointer to the USB PCD LPM Callback function
 908:Drivers/STM32F4xx_HAL_Driver/Src/stm32f4xx_hal_pcd.c ****   * @retval HAL status
 909:Drivers/STM32F4xx_HAL_Driver/Src/stm32f4xx_hal_pcd.c ****   */
 910:Drivers/STM32F4xx_HAL_Driver/Src/stm32f4xx_hal_pcd.c **** HAL_StatusTypeDef HAL_PCD_RegisterLpmCallback(PCD_HandleTypeDef *hpcd, pPCD_LpmCallbackTypeDef pCal
 911:Drivers/STM32F4xx_HAL_Driver/Src/stm32f4xx_hal_pcd.c **** {
 912:Drivers/STM32F4xx_HAL_Driver/Src/stm32f4xx_hal_pcd.c ****   HAL_StatusTypeDef status = HAL_OK;
 913:Drivers/STM32F4xx_HAL_Driver/Src/stm32f4xx_hal_pcd.c **** 
 914:Drivers/STM32F4xx_HAL_Driver/Src/stm32f4xx_hal_pcd.c ****   if (pCallback == NULL)
 915:Drivers/STM32F4xx_HAL_Driver/Src/stm32f4xx_hal_pcd.c ****   {
 916:Drivers/STM32F4xx_HAL_Driver/Src/stm32f4xx_hal_pcd.c ****     /* Update the error code */
 917:Drivers/STM32F4xx_HAL_Driver/Src/stm32f4xx_hal_pcd.c ****     hpcd->ErrorCode |= HAL_PCD_ERROR_INVALID_CALLBACK;
ARM GAS  /tmp/ccQdZtFR.s 			page 27


 918:Drivers/STM32F4xx_HAL_Driver/Src/stm32f4xx_hal_pcd.c **** 
 919:Drivers/STM32F4xx_HAL_Driver/Src/stm32f4xx_hal_pcd.c ****     return HAL_ERROR;
 920:Drivers/STM32F4xx_HAL_Driver/Src/stm32f4xx_hal_pcd.c ****   }
 921:Drivers/STM32F4xx_HAL_Driver/Src/stm32f4xx_hal_pcd.c **** 
 922:Drivers/STM32F4xx_HAL_Driver/Src/stm32f4xx_hal_pcd.c ****   /* Process locked */
 923:Drivers/STM32F4xx_HAL_Driver/Src/stm32f4xx_hal_pcd.c ****   __HAL_LOCK(hpcd);
 924:Drivers/STM32F4xx_HAL_Driver/Src/stm32f4xx_hal_pcd.c **** 
 925:Drivers/STM32F4xx_HAL_Driver/Src/stm32f4xx_hal_pcd.c ****   if (hpcd->State == HAL_PCD_STATE_READY)
 926:Drivers/STM32F4xx_HAL_Driver/Src/stm32f4xx_hal_pcd.c ****   {
 927:Drivers/STM32F4xx_HAL_Driver/Src/stm32f4xx_hal_pcd.c ****     hpcd->LPMCallback = pCallback;
 928:Drivers/STM32F4xx_HAL_Driver/Src/stm32f4xx_hal_pcd.c ****   }
 929:Drivers/STM32F4xx_HAL_Driver/Src/stm32f4xx_hal_pcd.c ****   else
 930:Drivers/STM32F4xx_HAL_Driver/Src/stm32f4xx_hal_pcd.c ****   {
 931:Drivers/STM32F4xx_HAL_Driver/Src/stm32f4xx_hal_pcd.c ****     /* Update the error code */
 932:Drivers/STM32F4xx_HAL_Driver/Src/stm32f4xx_hal_pcd.c ****     hpcd->ErrorCode |= HAL_PCD_ERROR_INVALID_CALLBACK;
 933:Drivers/STM32F4xx_HAL_Driver/Src/stm32f4xx_hal_pcd.c **** 
 934:Drivers/STM32F4xx_HAL_Driver/Src/stm32f4xx_hal_pcd.c ****     /* Return error status */
 935:Drivers/STM32F4xx_HAL_Driver/Src/stm32f4xx_hal_pcd.c ****     status =  HAL_ERROR;
 936:Drivers/STM32F4xx_HAL_Driver/Src/stm32f4xx_hal_pcd.c ****   }
 937:Drivers/STM32F4xx_HAL_Driver/Src/stm32f4xx_hal_pcd.c **** 
 938:Drivers/STM32F4xx_HAL_Driver/Src/stm32f4xx_hal_pcd.c ****   /* Release Lock */
 939:Drivers/STM32F4xx_HAL_Driver/Src/stm32f4xx_hal_pcd.c ****   __HAL_UNLOCK(hpcd);
 940:Drivers/STM32F4xx_HAL_Driver/Src/stm32f4xx_hal_pcd.c **** 
 941:Drivers/STM32F4xx_HAL_Driver/Src/stm32f4xx_hal_pcd.c ****   return status;
 942:Drivers/STM32F4xx_HAL_Driver/Src/stm32f4xx_hal_pcd.c **** }
 943:Drivers/STM32F4xx_HAL_Driver/Src/stm32f4xx_hal_pcd.c **** 
 944:Drivers/STM32F4xx_HAL_Driver/Src/stm32f4xx_hal_pcd.c **** /**
 945:Drivers/STM32F4xx_HAL_Driver/Src/stm32f4xx_hal_pcd.c ****   * @brief  Unregister the USB PCD LPM Callback
 946:Drivers/STM32F4xx_HAL_Driver/Src/stm32f4xx_hal_pcd.c ****   *         USB LPM Callback is redirected to the weak HAL_PCDEx_LPM_Callback() predefined callback
 947:Drivers/STM32F4xx_HAL_Driver/Src/stm32f4xx_hal_pcd.c ****   * @param  hpcd PCD handle
 948:Drivers/STM32F4xx_HAL_Driver/Src/stm32f4xx_hal_pcd.c ****   * @retval HAL status
 949:Drivers/STM32F4xx_HAL_Driver/Src/stm32f4xx_hal_pcd.c ****   */
 950:Drivers/STM32F4xx_HAL_Driver/Src/stm32f4xx_hal_pcd.c **** HAL_StatusTypeDef HAL_PCD_UnRegisterLpmCallback(PCD_HandleTypeDef *hpcd)
 951:Drivers/STM32F4xx_HAL_Driver/Src/stm32f4xx_hal_pcd.c **** {
 952:Drivers/STM32F4xx_HAL_Driver/Src/stm32f4xx_hal_pcd.c ****   HAL_StatusTypeDef status = HAL_OK;
 953:Drivers/STM32F4xx_HAL_Driver/Src/stm32f4xx_hal_pcd.c **** 
 954:Drivers/STM32F4xx_HAL_Driver/Src/stm32f4xx_hal_pcd.c ****   /* Process locked */
 955:Drivers/STM32F4xx_HAL_Driver/Src/stm32f4xx_hal_pcd.c ****   __HAL_LOCK(hpcd);
 956:Drivers/STM32F4xx_HAL_Driver/Src/stm32f4xx_hal_pcd.c **** 
 957:Drivers/STM32F4xx_HAL_Driver/Src/stm32f4xx_hal_pcd.c ****   if (hpcd->State == HAL_PCD_STATE_READY)
 958:Drivers/STM32F4xx_HAL_Driver/Src/stm32f4xx_hal_pcd.c ****   {
 959:Drivers/STM32F4xx_HAL_Driver/Src/stm32f4xx_hal_pcd.c ****     hpcd->LPMCallback = HAL_PCDEx_LPM_Callback; /* Legacy weak HAL_PCDEx_LPM_Callback  */
 960:Drivers/STM32F4xx_HAL_Driver/Src/stm32f4xx_hal_pcd.c ****   }
 961:Drivers/STM32F4xx_HAL_Driver/Src/stm32f4xx_hal_pcd.c ****   else
 962:Drivers/STM32F4xx_HAL_Driver/Src/stm32f4xx_hal_pcd.c ****   {
 963:Drivers/STM32F4xx_HAL_Driver/Src/stm32f4xx_hal_pcd.c ****     /* Update the error code */
 964:Drivers/STM32F4xx_HAL_Driver/Src/stm32f4xx_hal_pcd.c ****     hpcd->ErrorCode |= HAL_PCD_ERROR_INVALID_CALLBACK;
 965:Drivers/STM32F4xx_HAL_Driver/Src/stm32f4xx_hal_pcd.c **** 
 966:Drivers/STM32F4xx_HAL_Driver/Src/stm32f4xx_hal_pcd.c ****     /* Return error status */
 967:Drivers/STM32F4xx_HAL_Driver/Src/stm32f4xx_hal_pcd.c ****     status =  HAL_ERROR;
 968:Drivers/STM32F4xx_HAL_Driver/Src/stm32f4xx_hal_pcd.c ****   }
 969:Drivers/STM32F4xx_HAL_Driver/Src/stm32f4xx_hal_pcd.c **** 
 970:Drivers/STM32F4xx_HAL_Driver/Src/stm32f4xx_hal_pcd.c ****   /* Release Lock */
 971:Drivers/STM32F4xx_HAL_Driver/Src/stm32f4xx_hal_pcd.c ****   __HAL_UNLOCK(hpcd);
 972:Drivers/STM32F4xx_HAL_Driver/Src/stm32f4xx_hal_pcd.c **** 
 973:Drivers/STM32F4xx_HAL_Driver/Src/stm32f4xx_hal_pcd.c ****   return status;
 974:Drivers/STM32F4xx_HAL_Driver/Src/stm32f4xx_hal_pcd.c **** }
ARM GAS  /tmp/ccQdZtFR.s 			page 28


 975:Drivers/STM32F4xx_HAL_Driver/Src/stm32f4xx_hal_pcd.c **** #endif /* USE_HAL_PCD_REGISTER_CALLBACKS */
 976:Drivers/STM32F4xx_HAL_Driver/Src/stm32f4xx_hal_pcd.c **** 
 977:Drivers/STM32F4xx_HAL_Driver/Src/stm32f4xx_hal_pcd.c **** /**
 978:Drivers/STM32F4xx_HAL_Driver/Src/stm32f4xx_hal_pcd.c ****   * @}
 979:Drivers/STM32F4xx_HAL_Driver/Src/stm32f4xx_hal_pcd.c ****   */
 980:Drivers/STM32F4xx_HAL_Driver/Src/stm32f4xx_hal_pcd.c **** 
 981:Drivers/STM32F4xx_HAL_Driver/Src/stm32f4xx_hal_pcd.c **** /** @defgroup PCD_Exported_Functions_Group2 Input and Output operation functions
 982:Drivers/STM32F4xx_HAL_Driver/Src/stm32f4xx_hal_pcd.c ****   *  @brief   Data transfers functions
 983:Drivers/STM32F4xx_HAL_Driver/Src/stm32f4xx_hal_pcd.c ****   *
 984:Drivers/STM32F4xx_HAL_Driver/Src/stm32f4xx_hal_pcd.c **** @verbatim
 985:Drivers/STM32F4xx_HAL_Driver/Src/stm32f4xx_hal_pcd.c ****  ===============================================================================
 986:Drivers/STM32F4xx_HAL_Driver/Src/stm32f4xx_hal_pcd.c ****                       ##### IO operation functions #####
 987:Drivers/STM32F4xx_HAL_Driver/Src/stm32f4xx_hal_pcd.c ****  ===============================================================================
 988:Drivers/STM32F4xx_HAL_Driver/Src/stm32f4xx_hal_pcd.c ****     [..]
 989:Drivers/STM32F4xx_HAL_Driver/Src/stm32f4xx_hal_pcd.c ****     This subsection provides a set of functions allowing to manage the PCD data
 990:Drivers/STM32F4xx_HAL_Driver/Src/stm32f4xx_hal_pcd.c ****     transfers.
 991:Drivers/STM32F4xx_HAL_Driver/Src/stm32f4xx_hal_pcd.c **** 
 992:Drivers/STM32F4xx_HAL_Driver/Src/stm32f4xx_hal_pcd.c **** @endverbatim
 993:Drivers/STM32F4xx_HAL_Driver/Src/stm32f4xx_hal_pcd.c ****   * @{
 994:Drivers/STM32F4xx_HAL_Driver/Src/stm32f4xx_hal_pcd.c ****   */
 995:Drivers/STM32F4xx_HAL_Driver/Src/stm32f4xx_hal_pcd.c **** 
 996:Drivers/STM32F4xx_HAL_Driver/Src/stm32f4xx_hal_pcd.c **** /**
 997:Drivers/STM32F4xx_HAL_Driver/Src/stm32f4xx_hal_pcd.c ****   * @brief  Start the USB device
 998:Drivers/STM32F4xx_HAL_Driver/Src/stm32f4xx_hal_pcd.c ****   * @param  hpcd PCD handle
 999:Drivers/STM32F4xx_HAL_Driver/Src/stm32f4xx_hal_pcd.c ****   * @retval HAL status
1000:Drivers/STM32F4xx_HAL_Driver/Src/stm32f4xx_hal_pcd.c ****   */
1001:Drivers/STM32F4xx_HAL_Driver/Src/stm32f4xx_hal_pcd.c **** HAL_StatusTypeDef HAL_PCD_Start(PCD_HandleTypeDef *hpcd)
1002:Drivers/STM32F4xx_HAL_Driver/Src/stm32f4xx_hal_pcd.c **** {
 567              		.loc 1 1002 1
 568              		.cfi_startproc
 569              		@ args = 0, pretend = 0, frame = 16
 570              		@ frame_needed = 1, uses_anonymous_args = 0
 571 0000 80B5     		push	{r7, lr}
 572              	.LCFI22:
 573              		.cfi_def_cfa_offset 8
 574              		.cfi_offset 7, -8
 575              		.cfi_offset 14, -4
 576 0002 84B0     		sub	sp, sp, #16
 577              	.LCFI23:
 578              		.cfi_def_cfa_offset 24
 579 0004 00AF     		add	r7, sp, #0
 580              	.LCFI24:
 581              		.cfi_def_cfa_register 7
 582 0006 7860     		str	r0, [r7, #4]
1003:Drivers/STM32F4xx_HAL_Driver/Src/stm32f4xx_hal_pcd.c ****   USB_OTG_GlobalTypeDef *USBx = hpcd->Instance;
 583              		.loc 1 1003 26
 584 0008 7B68     		ldr	r3, [r7, #4]
 585 000a 1B68     		ldr	r3, [r3]
 586 000c FB60     		str	r3, [r7, #12]
1004:Drivers/STM32F4xx_HAL_Driver/Src/stm32f4xx_hal_pcd.c **** 
1005:Drivers/STM32F4xx_HAL_Driver/Src/stm32f4xx_hal_pcd.c ****   __HAL_LOCK(hpcd);
 587              		.loc 1 1005 3
 588 000e 7B68     		ldr	r3, [r7, #4]
 589 0010 93F8BC34 		ldrb	r3, [r3, #1212]	@ zero_extendqisi2
 590 0014 012B     		cmp	r3, #1
 591 0016 01D1     		bne	.L20
 592              		.loc 1 1005 3 is_stmt 0 discriminator 1
ARM GAS  /tmp/ccQdZtFR.s 			page 29


 593 0018 0223     		movs	r3, #2
 594 001a 20E0     		b	.L21
 595              	.L20:
 596              		.loc 1 1005 3 discriminator 2
 597 001c 7B68     		ldr	r3, [r7, #4]
 598 001e 0122     		movs	r2, #1
 599 0020 83F8BC24 		strb	r2, [r3, #1212]
1006:Drivers/STM32F4xx_HAL_Driver/Src/stm32f4xx_hal_pcd.c **** 
1007:Drivers/STM32F4xx_HAL_Driver/Src/stm32f4xx_hal_pcd.c ****   if ((hpcd->Init.battery_charging_enable == 1U) &&
 600              		.loc 1 1007 18 is_stmt 1 discriminator 2
 601 0024 7B68     		ldr	r3, [r7, #4]
 602 0026 9B6A     		ldr	r3, [r3, #40]
 603              		.loc 1 1007 6 discriminator 2
 604 0028 012B     		cmp	r3, #1
 605 002a 09D1     		bne	.L22
1008:Drivers/STM32F4xx_HAL_Driver/Src/stm32f4xx_hal_pcd.c ****       (hpcd->Init.phy_itface != USB_OTG_ULPI_PHY))
 606              		.loc 1 1008 18 discriminator 1
 607 002c 7B68     		ldr	r3, [r7, #4]
 608 002e 9B69     		ldr	r3, [r3, #24]
1007:Drivers/STM32F4xx_HAL_Driver/Src/stm32f4xx_hal_pcd.c ****       (hpcd->Init.phy_itface != USB_OTG_ULPI_PHY))
 609              		.loc 1 1007 50 discriminator 1
 610 0030 012B     		cmp	r3, #1
 611 0032 05D0     		beq	.L22
1009:Drivers/STM32F4xx_HAL_Driver/Src/stm32f4xx_hal_pcd.c ****   {
1010:Drivers/STM32F4xx_HAL_Driver/Src/stm32f4xx_hal_pcd.c ****     /* Enable USB Transceiver */
1011:Drivers/STM32F4xx_HAL_Driver/Src/stm32f4xx_hal_pcd.c ****     USBx->GCCFG |= USB_OTG_GCCFG_PWRDWN;
 612              		.loc 1 1011 17
 613 0034 FB68     		ldr	r3, [r7, #12]
 614 0036 9B6B     		ldr	r3, [r3, #56]
 615 0038 43F48032 		orr	r2, r3, #65536
 616 003c FB68     		ldr	r3, [r7, #12]
 617 003e 9A63     		str	r2, [r3, #56]
 618              	.L22:
1012:Drivers/STM32F4xx_HAL_Driver/Src/stm32f4xx_hal_pcd.c ****   }
1013:Drivers/STM32F4xx_HAL_Driver/Src/stm32f4xx_hal_pcd.c **** 
1014:Drivers/STM32F4xx_HAL_Driver/Src/stm32f4xx_hal_pcd.c ****   __HAL_PCD_ENABLE(hpcd);
 619              		.loc 1 1014 3
 620 0040 7B68     		ldr	r3, [r7, #4]
 621 0042 1B68     		ldr	r3, [r3]
 622 0044 1846     		mov	r0, r3
 623 0046 FFF7FEFF 		bl	USB_EnableGlobalInt
1015:Drivers/STM32F4xx_HAL_Driver/Src/stm32f4xx_hal_pcd.c ****   (void)USB_DevConnect(hpcd->Instance);
 624              		.loc 1 1015 28
 625 004a 7B68     		ldr	r3, [r7, #4]
 626 004c 1B68     		ldr	r3, [r3]
 627              		.loc 1 1015 9
 628 004e 1846     		mov	r0, r3
 629 0050 FFF7FEFF 		bl	USB_DevConnect
1016:Drivers/STM32F4xx_HAL_Driver/Src/stm32f4xx_hal_pcd.c ****   __HAL_UNLOCK(hpcd);
 630              		.loc 1 1016 3
 631 0054 7B68     		ldr	r3, [r7, #4]
 632 0056 0022     		movs	r2, #0
 633 0058 83F8BC24 		strb	r2, [r3, #1212]
1017:Drivers/STM32F4xx_HAL_Driver/Src/stm32f4xx_hal_pcd.c **** 
1018:Drivers/STM32F4xx_HAL_Driver/Src/stm32f4xx_hal_pcd.c ****   return HAL_OK;
 634              		.loc 1 1018 10
 635 005c 0023     		movs	r3, #0
ARM GAS  /tmp/ccQdZtFR.s 			page 30


 636              	.L21:
1019:Drivers/STM32F4xx_HAL_Driver/Src/stm32f4xx_hal_pcd.c **** }
 637              		.loc 1 1019 1
 638 005e 1846     		mov	r0, r3
 639 0060 1037     		adds	r7, r7, #16
 640              	.LCFI25:
 641              		.cfi_def_cfa_offset 8
 642 0062 BD46     		mov	sp, r7
 643              	.LCFI26:
 644              		.cfi_def_cfa_register 13
 645              		@ sp needed
 646 0064 80BD     		pop	{r7, pc}
 647              		.cfi_endproc
 648              	.LFE239:
 650              		.section	.text.HAL_PCD_Stop,"ax",%progbits
 651              		.align	1
 652              		.global	HAL_PCD_Stop
 653              		.syntax unified
 654              		.thumb
 655              		.thumb_func
 657              	HAL_PCD_Stop:
 658              	.LFB240:
1020:Drivers/STM32F4xx_HAL_Driver/Src/stm32f4xx_hal_pcd.c **** 
1021:Drivers/STM32F4xx_HAL_Driver/Src/stm32f4xx_hal_pcd.c **** /**
1022:Drivers/STM32F4xx_HAL_Driver/Src/stm32f4xx_hal_pcd.c ****   * @brief  Stop the USB device.
1023:Drivers/STM32F4xx_HAL_Driver/Src/stm32f4xx_hal_pcd.c ****   * @param  hpcd PCD handle
1024:Drivers/STM32F4xx_HAL_Driver/Src/stm32f4xx_hal_pcd.c ****   * @retval HAL status
1025:Drivers/STM32F4xx_HAL_Driver/Src/stm32f4xx_hal_pcd.c ****   */
1026:Drivers/STM32F4xx_HAL_Driver/Src/stm32f4xx_hal_pcd.c **** HAL_StatusTypeDef HAL_PCD_Stop(PCD_HandleTypeDef *hpcd)
1027:Drivers/STM32F4xx_HAL_Driver/Src/stm32f4xx_hal_pcd.c **** {
 659              		.loc 1 1027 1
 660              		.cfi_startproc
 661              		@ args = 0, pretend = 0, frame = 16
 662              		@ frame_needed = 1, uses_anonymous_args = 0
 663 0000 80B5     		push	{r7, lr}
 664              	.LCFI27:
 665              		.cfi_def_cfa_offset 8
 666              		.cfi_offset 7, -8
 667              		.cfi_offset 14, -4
 668 0002 84B0     		sub	sp, sp, #16
 669              	.LCFI28:
 670              		.cfi_def_cfa_offset 24
 671 0004 00AF     		add	r7, sp, #0
 672              	.LCFI29:
 673              		.cfi_def_cfa_register 7
 674 0006 7860     		str	r0, [r7, #4]
1028:Drivers/STM32F4xx_HAL_Driver/Src/stm32f4xx_hal_pcd.c ****   USB_OTG_GlobalTypeDef *USBx = hpcd->Instance;
 675              		.loc 1 1028 26
 676 0008 7B68     		ldr	r3, [r7, #4]
 677 000a 1B68     		ldr	r3, [r3]
 678 000c FB60     		str	r3, [r7, #12]
1029:Drivers/STM32F4xx_HAL_Driver/Src/stm32f4xx_hal_pcd.c **** 
1030:Drivers/STM32F4xx_HAL_Driver/Src/stm32f4xx_hal_pcd.c ****   __HAL_LOCK(hpcd);
 679              		.loc 1 1030 3
 680 000e 7B68     		ldr	r3, [r7, #4]
 681 0010 93F8BC34 		ldrb	r3, [r3, #1212]	@ zero_extendqisi2
 682 0014 012B     		cmp	r3, #1
ARM GAS  /tmp/ccQdZtFR.s 			page 31


 683 0016 01D1     		bne	.L24
 684              		.loc 1 1030 3 is_stmt 0 discriminator 1
 685 0018 0223     		movs	r3, #2
 686 001a 26E0     		b	.L25
 687              	.L24:
 688              		.loc 1 1030 3 discriminator 2
 689 001c 7B68     		ldr	r3, [r7, #4]
 690 001e 0122     		movs	r2, #1
 691 0020 83F8BC24 		strb	r2, [r3, #1212]
1031:Drivers/STM32F4xx_HAL_Driver/Src/stm32f4xx_hal_pcd.c ****   __HAL_PCD_DISABLE(hpcd);
 692              		.loc 1 1031 3 is_stmt 1 discriminator 2
 693 0024 7B68     		ldr	r3, [r7, #4]
 694 0026 1B68     		ldr	r3, [r3]
 695 0028 1846     		mov	r0, r3
 696 002a FFF7FEFF 		bl	USB_DisableGlobalInt
1032:Drivers/STM32F4xx_HAL_Driver/Src/stm32f4xx_hal_pcd.c ****   (void)USB_DevDisconnect(hpcd->Instance);
 697              		.loc 1 1032 31 discriminator 2
 698 002e 7B68     		ldr	r3, [r7, #4]
 699 0030 1B68     		ldr	r3, [r3]
 700              		.loc 1 1032 9 discriminator 2
 701 0032 1846     		mov	r0, r3
 702 0034 FFF7FEFF 		bl	USB_DevDisconnect
1033:Drivers/STM32F4xx_HAL_Driver/Src/stm32f4xx_hal_pcd.c **** 
1034:Drivers/STM32F4xx_HAL_Driver/Src/stm32f4xx_hal_pcd.c ****   (void)USB_FlushTxFifo(hpcd->Instance, 0x10U);
 703              		.loc 1 1034 29 discriminator 2
 704 0038 7B68     		ldr	r3, [r7, #4]
 705 003a 1B68     		ldr	r3, [r3]
 706              		.loc 1 1034 9 discriminator 2
 707 003c 1021     		movs	r1, #16
 708 003e 1846     		mov	r0, r3
 709 0040 FFF7FEFF 		bl	USB_FlushTxFifo
1035:Drivers/STM32F4xx_HAL_Driver/Src/stm32f4xx_hal_pcd.c **** 
1036:Drivers/STM32F4xx_HAL_Driver/Src/stm32f4xx_hal_pcd.c ****   if ((hpcd->Init.battery_charging_enable == 1U) &&
 710              		.loc 1 1036 18 discriminator 2
 711 0044 7B68     		ldr	r3, [r7, #4]
 712 0046 9B6A     		ldr	r3, [r3, #40]
 713              		.loc 1 1036 6 discriminator 2
 714 0048 012B     		cmp	r3, #1
 715 004a 09D1     		bne	.L26
1037:Drivers/STM32F4xx_HAL_Driver/Src/stm32f4xx_hal_pcd.c ****       (hpcd->Init.phy_itface != USB_OTG_ULPI_PHY))
 716              		.loc 1 1037 18 discriminator 1
 717 004c 7B68     		ldr	r3, [r7, #4]
 718 004e 9B69     		ldr	r3, [r3, #24]
1036:Drivers/STM32F4xx_HAL_Driver/Src/stm32f4xx_hal_pcd.c ****       (hpcd->Init.phy_itface != USB_OTG_ULPI_PHY))
 719              		.loc 1 1036 50 discriminator 1
 720 0050 012B     		cmp	r3, #1
 721 0052 05D0     		beq	.L26
1038:Drivers/STM32F4xx_HAL_Driver/Src/stm32f4xx_hal_pcd.c ****   {
1039:Drivers/STM32F4xx_HAL_Driver/Src/stm32f4xx_hal_pcd.c ****     /* Disable USB Transceiver */
1040:Drivers/STM32F4xx_HAL_Driver/Src/stm32f4xx_hal_pcd.c ****     USBx->GCCFG &= ~(USB_OTG_GCCFG_PWRDWN);
 722              		.loc 1 1040 17
 723 0054 FB68     		ldr	r3, [r7, #12]
 724 0056 9B6B     		ldr	r3, [r3, #56]
 725 0058 23F48032 		bic	r2, r3, #65536
 726 005c FB68     		ldr	r3, [r7, #12]
 727 005e 9A63     		str	r2, [r3, #56]
 728              	.L26:
ARM GAS  /tmp/ccQdZtFR.s 			page 32


1041:Drivers/STM32F4xx_HAL_Driver/Src/stm32f4xx_hal_pcd.c ****   }
1042:Drivers/STM32F4xx_HAL_Driver/Src/stm32f4xx_hal_pcd.c **** 
1043:Drivers/STM32F4xx_HAL_Driver/Src/stm32f4xx_hal_pcd.c ****   __HAL_UNLOCK(hpcd);
 729              		.loc 1 1043 3
 730 0060 7B68     		ldr	r3, [r7, #4]
 731 0062 0022     		movs	r2, #0
 732 0064 83F8BC24 		strb	r2, [r3, #1212]
1044:Drivers/STM32F4xx_HAL_Driver/Src/stm32f4xx_hal_pcd.c **** 
1045:Drivers/STM32F4xx_HAL_Driver/Src/stm32f4xx_hal_pcd.c ****   return HAL_OK;
 733              		.loc 1 1045 10
 734 0068 0023     		movs	r3, #0
 735              	.L25:
1046:Drivers/STM32F4xx_HAL_Driver/Src/stm32f4xx_hal_pcd.c **** }
 736              		.loc 1 1046 1
 737 006a 1846     		mov	r0, r3
 738 006c 1037     		adds	r7, r7, #16
 739              	.LCFI30:
 740              		.cfi_def_cfa_offset 8
 741 006e BD46     		mov	sp, r7
 742              	.LCFI31:
 743              		.cfi_def_cfa_register 13
 744              		@ sp needed
 745 0070 80BD     		pop	{r7, pc}
 746              		.cfi_endproc
 747              	.LFE240:
 749              		.section	.text.HAL_PCD_IRQHandler,"ax",%progbits
 750              		.align	1
 751              		.global	HAL_PCD_IRQHandler
 752              		.syntax unified
 753              		.thumb
 754              		.thumb_func
 756              	HAL_PCD_IRQHandler:
 757              	.LFB241:
1047:Drivers/STM32F4xx_HAL_Driver/Src/stm32f4xx_hal_pcd.c **** 
1048:Drivers/STM32F4xx_HAL_Driver/Src/stm32f4xx_hal_pcd.c **** #if defined (USB_OTG_FS) || defined (USB_OTG_HS)
1049:Drivers/STM32F4xx_HAL_Driver/Src/stm32f4xx_hal_pcd.c **** /**
1050:Drivers/STM32F4xx_HAL_Driver/Src/stm32f4xx_hal_pcd.c ****   * @brief  Handles PCD interrupt request.
1051:Drivers/STM32F4xx_HAL_Driver/Src/stm32f4xx_hal_pcd.c ****   * @param  hpcd PCD handle
1052:Drivers/STM32F4xx_HAL_Driver/Src/stm32f4xx_hal_pcd.c ****   * @retval HAL status
1053:Drivers/STM32F4xx_HAL_Driver/Src/stm32f4xx_hal_pcd.c ****   */
1054:Drivers/STM32F4xx_HAL_Driver/Src/stm32f4xx_hal_pcd.c **** void HAL_PCD_IRQHandler(PCD_HandleTypeDef *hpcd)
1055:Drivers/STM32F4xx_HAL_Driver/Src/stm32f4xx_hal_pcd.c **** {
 758              		.loc 1 1055 1
 759              		.cfi_startproc
 760              		@ args = 0, pretend = 0, frame = 48
 761              		@ frame_needed = 1, uses_anonymous_args = 0
 762 0000 90B5     		push	{r4, r7, lr}
 763              	.LCFI32:
 764              		.cfi_def_cfa_offset 12
 765              		.cfi_offset 4, -12
 766              		.cfi_offset 7, -8
 767              		.cfi_offset 14, -4
 768 0002 8DB0     		sub	sp, sp, #52
 769              	.LCFI33:
 770              		.cfi_def_cfa_offset 64
 771 0004 00AF     		add	r7, sp, #0
 772              	.LCFI34:
ARM GAS  /tmp/ccQdZtFR.s 			page 33


 773              		.cfi_def_cfa_register 7
 774 0006 7860     		str	r0, [r7, #4]
1056:Drivers/STM32F4xx_HAL_Driver/Src/stm32f4xx_hal_pcd.c ****   USB_OTG_GlobalTypeDef *USBx = hpcd->Instance;
 775              		.loc 1 1056 26
 776 0008 7B68     		ldr	r3, [r7, #4]
 777 000a 1B68     		ldr	r3, [r3]
 778 000c 3B62     		str	r3, [r7, #32]
1057:Drivers/STM32F4xx_HAL_Driver/Src/stm32f4xx_hal_pcd.c ****   uint32_t USBx_BASE = (uint32_t)USBx;
 779              		.loc 1 1057 12
 780 000e 3B6A     		ldr	r3, [r7, #32]
 781 0010 FB61     		str	r3, [r7, #28]
1058:Drivers/STM32F4xx_HAL_Driver/Src/stm32f4xx_hal_pcd.c ****   USB_OTG_EPTypeDef *ep;
1059:Drivers/STM32F4xx_HAL_Driver/Src/stm32f4xx_hal_pcd.c ****   uint32_t i;
1060:Drivers/STM32F4xx_HAL_Driver/Src/stm32f4xx_hal_pcd.c ****   uint32_t ep_intr;
1061:Drivers/STM32F4xx_HAL_Driver/Src/stm32f4xx_hal_pcd.c ****   uint32_t epint;
1062:Drivers/STM32F4xx_HAL_Driver/Src/stm32f4xx_hal_pcd.c ****   uint32_t epnum;
1063:Drivers/STM32F4xx_HAL_Driver/Src/stm32f4xx_hal_pcd.c ****   uint32_t fifoemptymsk;
1064:Drivers/STM32F4xx_HAL_Driver/Src/stm32f4xx_hal_pcd.c ****   uint32_t RegVal;
1065:Drivers/STM32F4xx_HAL_Driver/Src/stm32f4xx_hal_pcd.c **** 
1066:Drivers/STM32F4xx_HAL_Driver/Src/stm32f4xx_hal_pcd.c ****   /* ensure that we are in device mode */
1067:Drivers/STM32F4xx_HAL_Driver/Src/stm32f4xx_hal_pcd.c ****   if (USB_GetMode(hpcd->Instance) == USB_OTG_MODE_DEVICE)
 782              		.loc 1 1067 23
 783 0012 7B68     		ldr	r3, [r7, #4]
 784 0014 1B68     		ldr	r3, [r3]
 785              		.loc 1 1067 7
 786 0016 1846     		mov	r0, r3
 787 0018 FFF7FEFF 		bl	USB_GetMode
 788 001c 0346     		mov	r3, r0
 789              		.loc 1 1067 6
 790 001e 002B     		cmp	r3, #0
 791 0020 40F0B784 		bne	.L27
1068:Drivers/STM32F4xx_HAL_Driver/Src/stm32f4xx_hal_pcd.c ****   {
1069:Drivers/STM32F4xx_HAL_Driver/Src/stm32f4xx_hal_pcd.c ****     /* avoid spurious interrupt */
1070:Drivers/STM32F4xx_HAL_Driver/Src/stm32f4xx_hal_pcd.c ****     if (__HAL_PCD_IS_INVALID_INTERRUPT(hpcd))
 792              		.loc 1 1070 9
 793 0024 7B68     		ldr	r3, [r7, #4]
 794 0026 1B68     		ldr	r3, [r3]
 795 0028 1846     		mov	r0, r3
 796 002a FFF7FEFF 		bl	USB_ReadInterrupts
 797 002e 0346     		mov	r3, r0
 798              		.loc 1 1070 8
 799 0030 002B     		cmp	r3, #0
 800 0032 00F0AD84 		beq	.L85
1071:Drivers/STM32F4xx_HAL_Driver/Src/stm32f4xx_hal_pcd.c ****     {
1072:Drivers/STM32F4xx_HAL_Driver/Src/stm32f4xx_hal_pcd.c ****       return;
1073:Drivers/STM32F4xx_HAL_Driver/Src/stm32f4xx_hal_pcd.c ****     }
1074:Drivers/STM32F4xx_HAL_Driver/Src/stm32f4xx_hal_pcd.c **** 
1075:Drivers/STM32F4xx_HAL_Driver/Src/stm32f4xx_hal_pcd.c ****     /* store current frame number */
1076:Drivers/STM32F4xx_HAL_Driver/Src/stm32f4xx_hal_pcd.c ****     hpcd->FrameNumber = (USBx_DEVICE->DSTS & USB_OTG_DSTS_FNSOF_Msk) >> USB_OTG_DSTS_FNSOF_Pos;
 801              		.loc 1 1076 26
 802 0036 FB69     		ldr	r3, [r7, #28]
 803 0038 03F50063 		add	r3, r3, #2048
 804              		.loc 1 1076 37
 805 003c 9B68     		ldr	r3, [r3, #8]
 806              		.loc 1 1076 70
 807 003e 1B0A     		lsrs	r3, r3, #8
 808 0040 C3F30D02 		ubfx	r2, r3, #0, #14
ARM GAS  /tmp/ccQdZtFR.s 			page 34


 809              		.loc 1 1076 23
 810 0044 7B68     		ldr	r3, [r7, #4]
 811 0046 C3F8FC24 		str	r2, [r3, #1276]
1077:Drivers/STM32F4xx_HAL_Driver/Src/stm32f4xx_hal_pcd.c **** 
1078:Drivers/STM32F4xx_HAL_Driver/Src/stm32f4xx_hal_pcd.c ****     if (__HAL_PCD_GET_FLAG(hpcd, USB_OTG_GINTSTS_MMIS))
 812              		.loc 1 1078 9
 813 004a 7B68     		ldr	r3, [r7, #4]
 814 004c 1B68     		ldr	r3, [r3]
 815 004e 1846     		mov	r0, r3
 816 0050 FFF7FEFF 		bl	USB_ReadInterrupts
 817 0054 0346     		mov	r3, r0
 818 0056 03F00203 		and	r3, r3, #2
 819              		.loc 1 1078 8
 820 005a 022B     		cmp	r3, #2
 821 005c 07D1     		bne	.L30
1079:Drivers/STM32F4xx_HAL_Driver/Src/stm32f4xx_hal_pcd.c ****     {
1080:Drivers/STM32F4xx_HAL_Driver/Src/stm32f4xx_hal_pcd.c ****       /* incorrect mode, acknowledge the interrupt */
1081:Drivers/STM32F4xx_HAL_Driver/Src/stm32f4xx_hal_pcd.c ****       __HAL_PCD_CLEAR_FLAG(hpcd, USB_OTG_GINTSTS_MMIS);
 822              		.loc 1 1081 7
 823 005e 7B68     		ldr	r3, [r7, #4]
 824 0060 1B68     		ldr	r3, [r3]
 825 0062 5A69     		ldr	r2, [r3, #20]
 826 0064 7B68     		ldr	r3, [r7, #4]
 827 0066 1B68     		ldr	r3, [r3]
 828 0068 02F00202 		and	r2, r2, #2
 829 006c 5A61     		str	r2, [r3, #20]
 830              	.L30:
1082:Drivers/STM32F4xx_HAL_Driver/Src/stm32f4xx_hal_pcd.c ****     }
1083:Drivers/STM32F4xx_HAL_Driver/Src/stm32f4xx_hal_pcd.c **** 
1084:Drivers/STM32F4xx_HAL_Driver/Src/stm32f4xx_hal_pcd.c ****     /* Handle RxQLevel Interrupt */
1085:Drivers/STM32F4xx_HAL_Driver/Src/stm32f4xx_hal_pcd.c ****     if (__HAL_PCD_GET_FLAG(hpcd, USB_OTG_GINTSTS_RXFLVL))
 831              		.loc 1 1085 9
 832 006e 7B68     		ldr	r3, [r7, #4]
 833 0070 1B68     		ldr	r3, [r3]
 834 0072 1846     		mov	r0, r3
 835 0074 FFF7FEFF 		bl	USB_ReadInterrupts
 836 0078 0346     		mov	r3, r0
 837 007a 03F01003 		and	r3, r3, #16
 838              		.loc 1 1085 8
 839 007e 102B     		cmp	r3, #16
 840 0080 61D1     		bne	.L31
1086:Drivers/STM32F4xx_HAL_Driver/Src/stm32f4xx_hal_pcd.c ****     {
1087:Drivers/STM32F4xx_HAL_Driver/Src/stm32f4xx_hal_pcd.c ****       USB_MASK_INTERRUPT(hpcd->Instance, USB_OTG_GINTSTS_RXFLVL);
 841              		.loc 1 1087 7
 842 0082 7B68     		ldr	r3, [r7, #4]
 843 0084 1B68     		ldr	r3, [r3]
 844 0086 9A69     		ldr	r2, [r3, #24]
 845 0088 7B68     		ldr	r3, [r7, #4]
 846 008a 1B68     		ldr	r3, [r3]
 847 008c 22F01002 		bic	r2, r2, #16
 848 0090 9A61     		str	r2, [r3, #24]
1088:Drivers/STM32F4xx_HAL_Driver/Src/stm32f4xx_hal_pcd.c **** 
1089:Drivers/STM32F4xx_HAL_Driver/Src/stm32f4xx_hal_pcd.c ****       RegVal = USBx->GRXSTSP;
 849              		.loc 1 1089 14
 850 0092 3B6A     		ldr	r3, [r7, #32]
 851 0094 1B6A     		ldr	r3, [r3, #32]
 852 0096 BB61     		str	r3, [r7, #24]
ARM GAS  /tmp/ccQdZtFR.s 			page 35


1090:Drivers/STM32F4xx_HAL_Driver/Src/stm32f4xx_hal_pcd.c **** 
1091:Drivers/STM32F4xx_HAL_Driver/Src/stm32f4xx_hal_pcd.c ****       ep = &hpcd->OUT_ep[RegVal & USB_OTG_GRXSTSP_EPNUM];
 853              		.loc 1 1091 33
 854 0098 BB69     		ldr	r3, [r7, #24]
 855 009a 03F00F02 		and	r2, r3, #15
 856              		.loc 1 1091 10
 857 009e 1346     		mov	r3, r2
 858 00a0 DB00     		lsls	r3, r3, #3
 859 00a2 1344     		add	r3, r3, r2
 860 00a4 9B00     		lsls	r3, r3, #2
 861 00a6 03F51E73 		add	r3, r3, #632
 862 00aa 7A68     		ldr	r2, [r7, #4]
 863 00ac 1344     		add	r3, r3, r2
 864 00ae 0433     		adds	r3, r3, #4
 865 00b0 7B61     		str	r3, [r7, #20]
1092:Drivers/STM32F4xx_HAL_Driver/Src/stm32f4xx_hal_pcd.c **** 
1093:Drivers/STM32F4xx_HAL_Driver/Src/stm32f4xx_hal_pcd.c ****       if (((RegVal & USB_OTG_GRXSTSP_PKTSTS) >> 17) ==  STS_DATA_UPDT)
 866              		.loc 1 1093 46
 867 00b2 BB69     		ldr	r3, [r7, #24]
 868 00b4 5B0C     		lsrs	r3, r3, #17
 869 00b6 03F00F03 		and	r3, r3, #15
 870              		.loc 1 1093 10
 871 00ba 022B     		cmp	r3, #2
 872 00bc 24D1     		bne	.L32
1094:Drivers/STM32F4xx_HAL_Driver/Src/stm32f4xx_hal_pcd.c ****       {
1095:Drivers/STM32F4xx_HAL_Driver/Src/stm32f4xx_hal_pcd.c ****         if ((RegVal & USB_OTG_GRXSTSP_BCNT) != 0U)
 873              		.loc 1 1095 21
 874 00be BA69     		ldr	r2, [r7, #24]
 875 00c0 47F6F073 		movw	r3, #32752
 876 00c4 1340     		ands	r3, r3, r2
 877              		.loc 1 1095 12
 878 00c6 002B     		cmp	r3, #0
 879 00c8 35D0     		beq	.L33
1096:Drivers/STM32F4xx_HAL_Driver/Src/stm32f4xx_hal_pcd.c ****         {
1097:Drivers/STM32F4xx_HAL_Driver/Src/stm32f4xx_hal_pcd.c ****           (void)USB_ReadPacket(USBx, ep->xfer_buff,
 880              		.loc 1 1097 17
 881 00ca 7B69     		ldr	r3, [r7, #20]
 882 00cc 1969     		ldr	r1, [r3, #16]
1098:Drivers/STM32F4xx_HAL_Driver/Src/stm32f4xx_hal_pcd.c ****                                (uint16_t)((RegVal & USB_OTG_GRXSTSP_BCNT) >> 4));
 883              		.loc 1 1098 75
 884 00ce BB69     		ldr	r3, [r7, #24]
 885 00d0 1B09     		lsrs	r3, r3, #4
 886              		.loc 1 1098 32
 887 00d2 9BB2     		uxth	r3, r3
1097:Drivers/STM32F4xx_HAL_Driver/Src/stm32f4xx_hal_pcd.c ****                                (uint16_t)((RegVal & USB_OTG_GRXSTSP_BCNT) >> 4));
 888              		.loc 1 1097 17
 889 00d4 C3F30A03 		ubfx	r3, r3, #0, #11
 890 00d8 9BB2     		uxth	r3, r3
 891 00da 1A46     		mov	r2, r3
 892 00dc 386A     		ldr	r0, [r7, #32]
 893 00de FFF7FEFF 		bl	USB_ReadPacket
1099:Drivers/STM32F4xx_HAL_Driver/Src/stm32f4xx_hal_pcd.c **** 
1100:Drivers/STM32F4xx_HAL_Driver/Src/stm32f4xx_hal_pcd.c ****           ep->xfer_buff += (RegVal & USB_OTG_GRXSTSP_BCNT) >> 4;
 894              		.loc 1 1100 25
 895 00e2 7B69     		ldr	r3, [r7, #20]
 896 00e4 1A69     		ldr	r2, [r3, #16]
 897              		.loc 1 1100 60
ARM GAS  /tmp/ccQdZtFR.s 			page 36


 898 00e6 BB69     		ldr	r3, [r7, #24]
 899 00e8 1B09     		lsrs	r3, r3, #4
 900 00ea C3F30A03 		ubfx	r3, r3, #0, #11
 901              		.loc 1 1100 25
 902 00ee 1A44     		add	r2, r2, r3
 903 00f0 7B69     		ldr	r3, [r7, #20]
 904 00f2 1A61     		str	r2, [r3, #16]
1101:Drivers/STM32F4xx_HAL_Driver/Src/stm32f4xx_hal_pcd.c ****           ep->xfer_count += (RegVal & USB_OTG_GRXSTSP_BCNT) >> 4;
 905              		.loc 1 1101 26
 906 00f4 7B69     		ldr	r3, [r7, #20]
 907 00f6 1A6A     		ldr	r2, [r3, #32]
 908              		.loc 1 1101 61
 909 00f8 BB69     		ldr	r3, [r7, #24]
 910 00fa 1B09     		lsrs	r3, r3, #4
 911 00fc C3F30A03 		ubfx	r3, r3, #0, #11
 912              		.loc 1 1101 26
 913 0100 1A44     		add	r2, r2, r3
 914 0102 7B69     		ldr	r3, [r7, #20]
 915 0104 1A62     		str	r2, [r3, #32]
 916 0106 16E0     		b	.L33
 917              	.L32:
1102:Drivers/STM32F4xx_HAL_Driver/Src/stm32f4xx_hal_pcd.c ****         }
1103:Drivers/STM32F4xx_HAL_Driver/Src/stm32f4xx_hal_pcd.c ****       }
1104:Drivers/STM32F4xx_HAL_Driver/Src/stm32f4xx_hal_pcd.c ****       else if (((RegVal & USB_OTG_GRXSTSP_PKTSTS) >> 17) == STS_SETUP_UPDT)
 918              		.loc 1 1104 51
 919 0108 BB69     		ldr	r3, [r7, #24]
 920 010a 5B0C     		lsrs	r3, r3, #17
 921 010c 03F00F03 		and	r3, r3, #15
 922              		.loc 1 1104 15
 923 0110 062B     		cmp	r3, #6
 924 0112 10D1     		bne	.L33
1105:Drivers/STM32F4xx_HAL_Driver/Src/stm32f4xx_hal_pcd.c ****       {
1106:Drivers/STM32F4xx_HAL_Driver/Src/stm32f4xx_hal_pcd.c ****         (void)USB_ReadPacket(USBx, (uint8_t *)hpcd->Setup, 8U);
 925              		.loc 1 1106 47
 926 0114 7B68     		ldr	r3, [r7, #4]
 927 0116 03F2C443 		addw	r3, r3, #1220
 928              		.loc 1 1106 15
 929 011a 0822     		movs	r2, #8
 930 011c 1946     		mov	r1, r3
 931 011e 386A     		ldr	r0, [r7, #32]
 932 0120 FFF7FEFF 		bl	USB_ReadPacket
1107:Drivers/STM32F4xx_HAL_Driver/Src/stm32f4xx_hal_pcd.c ****         ep->xfer_count += (RegVal & USB_OTG_GRXSTSP_BCNT) >> 4;
 933              		.loc 1 1107 24
 934 0124 7B69     		ldr	r3, [r7, #20]
 935 0126 1A6A     		ldr	r2, [r3, #32]
 936              		.loc 1 1107 59
 937 0128 BB69     		ldr	r3, [r7, #24]
 938 012a 1B09     		lsrs	r3, r3, #4
 939 012c C3F30A03 		ubfx	r3, r3, #0, #11
 940              		.loc 1 1107 24
 941 0130 1A44     		add	r2, r2, r3
 942 0132 7B69     		ldr	r3, [r7, #20]
 943 0134 1A62     		str	r2, [r3, #32]
 944              	.L33:
1108:Drivers/STM32F4xx_HAL_Driver/Src/stm32f4xx_hal_pcd.c ****       }
1109:Drivers/STM32F4xx_HAL_Driver/Src/stm32f4xx_hal_pcd.c ****       else
1110:Drivers/STM32F4xx_HAL_Driver/Src/stm32f4xx_hal_pcd.c ****       {
ARM GAS  /tmp/ccQdZtFR.s 			page 37


1111:Drivers/STM32F4xx_HAL_Driver/Src/stm32f4xx_hal_pcd.c ****         /* ... */
1112:Drivers/STM32F4xx_HAL_Driver/Src/stm32f4xx_hal_pcd.c ****       }
1113:Drivers/STM32F4xx_HAL_Driver/Src/stm32f4xx_hal_pcd.c **** 
1114:Drivers/STM32F4xx_HAL_Driver/Src/stm32f4xx_hal_pcd.c ****       USB_UNMASK_INTERRUPT(hpcd->Instance, USB_OTG_GINTSTS_RXFLVL);
 945              		.loc 1 1114 7
 946 0136 7B68     		ldr	r3, [r7, #4]
 947 0138 1B68     		ldr	r3, [r3]
 948 013a 9A69     		ldr	r2, [r3, #24]
 949 013c 7B68     		ldr	r3, [r7, #4]
 950 013e 1B68     		ldr	r3, [r3]
 951 0140 42F01002 		orr	r2, r2, #16
 952 0144 9A61     		str	r2, [r3, #24]
 953              	.L31:
1115:Drivers/STM32F4xx_HAL_Driver/Src/stm32f4xx_hal_pcd.c ****     }
1116:Drivers/STM32F4xx_HAL_Driver/Src/stm32f4xx_hal_pcd.c **** 
1117:Drivers/STM32F4xx_HAL_Driver/Src/stm32f4xx_hal_pcd.c ****     if (__HAL_PCD_GET_FLAG(hpcd, USB_OTG_GINTSTS_OEPINT))
 954              		.loc 1 1117 9
 955 0146 7B68     		ldr	r3, [r7, #4]
 956 0148 1B68     		ldr	r3, [r3]
 957 014a 1846     		mov	r0, r3
 958 014c FFF7FEFF 		bl	USB_ReadInterrupts
 959 0150 0346     		mov	r3, r0
 960 0152 03F40023 		and	r3, r3, #524288
 961              		.loc 1 1117 8
 962 0156 B3F5002F 		cmp	r3, #524288
 963 015a 40F0A780 		bne	.L34
1118:Drivers/STM32F4xx_HAL_Driver/Src/stm32f4xx_hal_pcd.c ****     {
1119:Drivers/STM32F4xx_HAL_Driver/Src/stm32f4xx_hal_pcd.c ****       epnum = 0U;
 964              		.loc 1 1119 13
 965 015e 0023     		movs	r3, #0
 966 0160 7B62     		str	r3, [r7, #36]
1120:Drivers/STM32F4xx_HAL_Driver/Src/stm32f4xx_hal_pcd.c **** 
1121:Drivers/STM32F4xx_HAL_Driver/Src/stm32f4xx_hal_pcd.c ****       /* Read in the device interrupt bits */
1122:Drivers/STM32F4xx_HAL_Driver/Src/stm32f4xx_hal_pcd.c ****       ep_intr = USB_ReadDevAllOutEpInterrupt(hpcd->Instance);
 967              		.loc 1 1122 50
 968 0162 7B68     		ldr	r3, [r7, #4]
 969 0164 1B68     		ldr	r3, [r3]
 970              		.loc 1 1122 17
 971 0166 1846     		mov	r0, r3
 972 0168 FFF7FEFF 		bl	USB_ReadDevAllOutEpInterrupt
 973 016c B862     		str	r0, [r7, #40]
1123:Drivers/STM32F4xx_HAL_Driver/Src/stm32f4xx_hal_pcd.c **** 
1124:Drivers/STM32F4xx_HAL_Driver/Src/stm32f4xx_hal_pcd.c ****       while (ep_intr != 0U)
 974              		.loc 1 1124 13
 975 016e 99E0     		b	.L35
 976              	.L44:
1125:Drivers/STM32F4xx_HAL_Driver/Src/stm32f4xx_hal_pcd.c ****       {
1126:Drivers/STM32F4xx_HAL_Driver/Src/stm32f4xx_hal_pcd.c ****         if ((ep_intr & 0x1U) != 0U)
 977              		.loc 1 1126 22
 978 0170 BB6A     		ldr	r3, [r7, #40]
 979 0172 03F00103 		and	r3, r3, #1
 980              		.loc 1 1126 12
 981 0176 002B     		cmp	r3, #0
 982 0178 00F08E80 		beq	.L36
1127:Drivers/STM32F4xx_HAL_Driver/Src/stm32f4xx_hal_pcd.c ****         {
1128:Drivers/STM32F4xx_HAL_Driver/Src/stm32f4xx_hal_pcd.c ****           epint = USB_ReadDevOutEPInterrupt(hpcd->Instance, (uint8_t)epnum);
 983              		.loc 1 1128 49
ARM GAS  /tmp/ccQdZtFR.s 			page 38


 984 017c 7B68     		ldr	r3, [r7, #4]
 985 017e 1B68     		ldr	r3, [r3]
 986              		.loc 1 1128 19
 987 0180 7A6A     		ldr	r2, [r7, #36]
 988 0182 D2B2     		uxtb	r2, r2
 989 0184 1146     		mov	r1, r2
 990 0186 1846     		mov	r0, r3
 991 0188 FFF7FEFF 		bl	USB_ReadDevOutEPInterrupt
 992 018c 3861     		str	r0, [r7, #16]
1129:Drivers/STM32F4xx_HAL_Driver/Src/stm32f4xx_hal_pcd.c **** 
1130:Drivers/STM32F4xx_HAL_Driver/Src/stm32f4xx_hal_pcd.c ****           if ((epint & USB_OTG_DOEPINT_XFRC) == USB_OTG_DOEPINT_XFRC)
 993              		.loc 1 1130 22
 994 018e 3B69     		ldr	r3, [r7, #16]
 995 0190 03F00103 		and	r3, r3, #1
 996              		.loc 1 1130 14
 997 0194 002B     		cmp	r3, #0
 998 0196 0CD0     		beq	.L37
1131:Drivers/STM32F4xx_HAL_Driver/Src/stm32f4xx_hal_pcd.c ****           {
1132:Drivers/STM32F4xx_HAL_Driver/Src/stm32f4xx_hal_pcd.c ****             CLEAR_OUT_EP_INTR(epnum, USB_OTG_DOEPINT_XFRC);
 999              		.loc 1 1132 13
 1000 0198 7B6A     		ldr	r3, [r7, #36]
 1001 019a 5A01     		lsls	r2, r3, #5
 1002 019c FB69     		ldr	r3, [r7, #28]
 1003 019e 1344     		add	r3, r3, r2
 1004 01a0 03F53063 		add	r3, r3, #2816
 1005 01a4 1A46     		mov	r2, r3
 1006 01a6 0123     		movs	r3, #1
 1007 01a8 9360     		str	r3, [r2, #8]
1133:Drivers/STM32F4xx_HAL_Driver/Src/stm32f4xx_hal_pcd.c ****             (void)PCD_EP_OutXfrComplete_int(hpcd, epnum);
 1008              		.loc 1 1133 19
 1009 01aa 796A     		ldr	r1, [r7, #36]
 1010 01ac 7868     		ldr	r0, [r7, #4]
 1011 01ae FFF7FEFF 		bl	PCD_EP_OutXfrComplete_int
 1012              	.L37:
1134:Drivers/STM32F4xx_HAL_Driver/Src/stm32f4xx_hal_pcd.c ****           }
1135:Drivers/STM32F4xx_HAL_Driver/Src/stm32f4xx_hal_pcd.c **** 
1136:Drivers/STM32F4xx_HAL_Driver/Src/stm32f4xx_hal_pcd.c ****           if ((epint & USB_OTG_DOEPINT_STUP) == USB_OTG_DOEPINT_STUP)
 1013              		.loc 1 1136 22
 1014 01b2 3B69     		ldr	r3, [r7, #16]
 1015 01b4 03F00803 		and	r3, r3, #8
 1016              		.loc 1 1136 14
 1017 01b8 002B     		cmp	r3, #0
 1018 01ba 0CD0     		beq	.L38
1137:Drivers/STM32F4xx_HAL_Driver/Src/stm32f4xx_hal_pcd.c ****           {
1138:Drivers/STM32F4xx_HAL_Driver/Src/stm32f4xx_hal_pcd.c ****             CLEAR_OUT_EP_INTR(epnum, USB_OTG_DOEPINT_STUP);
 1019              		.loc 1 1138 13
 1020 01bc 7B6A     		ldr	r3, [r7, #36]
 1021 01be 5A01     		lsls	r2, r3, #5
 1022 01c0 FB69     		ldr	r3, [r7, #28]
 1023 01c2 1344     		add	r3, r3, r2
 1024 01c4 03F53063 		add	r3, r3, #2816
 1025 01c8 1A46     		mov	r2, r3
 1026 01ca 0823     		movs	r3, #8
 1027 01cc 9360     		str	r3, [r2, #8]
1139:Drivers/STM32F4xx_HAL_Driver/Src/stm32f4xx_hal_pcd.c ****             /* Class B setup phase done for previous decoded setup */
1140:Drivers/STM32F4xx_HAL_Driver/Src/stm32f4xx_hal_pcd.c ****             (void)PCD_EP_OutSetupPacket_int(hpcd, epnum);
 1028              		.loc 1 1140 19
ARM GAS  /tmp/ccQdZtFR.s 			page 39


 1029 01ce 796A     		ldr	r1, [r7, #36]
 1030 01d0 7868     		ldr	r0, [r7, #4]
 1031 01d2 FFF7FEFF 		bl	PCD_EP_OutSetupPacket_int
 1032              	.L38:
1141:Drivers/STM32F4xx_HAL_Driver/Src/stm32f4xx_hal_pcd.c ****           }
1142:Drivers/STM32F4xx_HAL_Driver/Src/stm32f4xx_hal_pcd.c **** 
1143:Drivers/STM32F4xx_HAL_Driver/Src/stm32f4xx_hal_pcd.c ****           if ((epint & USB_OTG_DOEPINT_OTEPDIS) == USB_OTG_DOEPINT_OTEPDIS)
 1033              		.loc 1 1143 22
 1034 01d6 3B69     		ldr	r3, [r7, #16]
 1035 01d8 03F01003 		and	r3, r3, #16
 1036              		.loc 1 1143 14
 1037 01dc 002B     		cmp	r3, #0
 1038 01de 08D0     		beq	.L39
1144:Drivers/STM32F4xx_HAL_Driver/Src/stm32f4xx_hal_pcd.c ****           {
1145:Drivers/STM32F4xx_HAL_Driver/Src/stm32f4xx_hal_pcd.c ****             CLEAR_OUT_EP_INTR(epnum, USB_OTG_DOEPINT_OTEPDIS);
 1039              		.loc 1 1145 13
 1040 01e0 7B6A     		ldr	r3, [r7, #36]
 1041 01e2 5A01     		lsls	r2, r3, #5
 1042 01e4 FB69     		ldr	r3, [r7, #28]
 1043 01e6 1344     		add	r3, r3, r2
 1044 01e8 03F53063 		add	r3, r3, #2816
 1045 01ec 1A46     		mov	r2, r3
 1046 01ee 1023     		movs	r3, #16
 1047 01f0 9360     		str	r3, [r2, #8]
 1048              	.L39:
1146:Drivers/STM32F4xx_HAL_Driver/Src/stm32f4xx_hal_pcd.c ****           }
1147:Drivers/STM32F4xx_HAL_Driver/Src/stm32f4xx_hal_pcd.c **** 
1148:Drivers/STM32F4xx_HAL_Driver/Src/stm32f4xx_hal_pcd.c ****           /* Clear OUT Endpoint disable interrupt */
1149:Drivers/STM32F4xx_HAL_Driver/Src/stm32f4xx_hal_pcd.c ****           if ((epint & USB_OTG_DOEPINT_EPDISD) == USB_OTG_DOEPINT_EPDISD)
 1049              		.loc 1 1149 22
 1050 01f2 3B69     		ldr	r3, [r7, #16]
 1051 01f4 03F00203 		and	r3, r3, #2
 1052              		.loc 1 1149 14
 1053 01f8 002B     		cmp	r3, #0
 1054 01fa 30D0     		beq	.L40
1150:Drivers/STM32F4xx_HAL_Driver/Src/stm32f4xx_hal_pcd.c ****           {
1151:Drivers/STM32F4xx_HAL_Driver/Src/stm32f4xx_hal_pcd.c ****             if ((USBx->GINTSTS & USB_OTG_GINTSTS_BOUTNAKEFF) == USB_OTG_GINTSTS_BOUTNAKEFF)
 1055              		.loc 1 1151 22
 1056 01fc 3B6A     		ldr	r3, [r7, #32]
 1057 01fe 5B69     		ldr	r3, [r3, #20]
 1058              		.loc 1 1151 32
 1059 0200 03F08003 		and	r3, r3, #128
 1060              		.loc 1 1151 16
 1061 0204 802B     		cmp	r3, #128
 1062 0206 09D1     		bne	.L41
1152:Drivers/STM32F4xx_HAL_Driver/Src/stm32f4xx_hal_pcd.c ****             {
1153:Drivers/STM32F4xx_HAL_Driver/Src/stm32f4xx_hal_pcd.c ****               USBx_DEVICE->DCTL |= USB_OTG_DCTL_CGONAK;
 1063              		.loc 1 1153 33
 1064 0208 FB69     		ldr	r3, [r7, #28]
 1065 020a 03F50063 		add	r3, r3, #2048
 1066 020e 5B68     		ldr	r3, [r3, #4]
 1067 0210 FA69     		ldr	r2, [r7, #28]
 1068 0212 02F50062 		add	r2, r2, #2048
 1069 0216 43F48063 		orr	r3, r3, #1024
 1070 021a 5360     		str	r3, [r2, #4]
 1071              	.L41:
1154:Drivers/STM32F4xx_HAL_Driver/Src/stm32f4xx_hal_pcd.c ****             }
ARM GAS  /tmp/ccQdZtFR.s 			page 40


1155:Drivers/STM32F4xx_HAL_Driver/Src/stm32f4xx_hal_pcd.c **** 
1156:Drivers/STM32F4xx_HAL_Driver/Src/stm32f4xx_hal_pcd.c ****             ep = &hpcd->OUT_ep[epnum];
 1072              		.loc 1 1156 16
 1073 021c 7A6A     		ldr	r2, [r7, #36]
 1074 021e 1346     		mov	r3, r2
 1075 0220 DB00     		lsls	r3, r3, #3
 1076 0222 1344     		add	r3, r3, r2
 1077 0224 9B00     		lsls	r3, r3, #2
 1078 0226 03F51E73 		add	r3, r3, #632
 1079 022a 7A68     		ldr	r2, [r7, #4]
 1080 022c 1344     		add	r3, r3, r2
 1081 022e 0433     		adds	r3, r3, #4
 1082 0230 7B61     		str	r3, [r7, #20]
1157:Drivers/STM32F4xx_HAL_Driver/Src/stm32f4xx_hal_pcd.c **** 
1158:Drivers/STM32F4xx_HAL_Driver/Src/stm32f4xx_hal_pcd.c ****             if (ep->is_iso_incomplete == 1U)
 1083              		.loc 1 1158 19
 1084 0232 7B69     		ldr	r3, [r7, #20]
 1085 0234 DB78     		ldrb	r3, [r3, #3]	@ zero_extendqisi2
 1086              		.loc 1 1158 16
 1087 0236 012B     		cmp	r3, #1
 1088 0238 08D1     		bne	.L42
1159:Drivers/STM32F4xx_HAL_Driver/Src/stm32f4xx_hal_pcd.c ****             {
1160:Drivers/STM32F4xx_HAL_Driver/Src/stm32f4xx_hal_pcd.c ****               ep->is_iso_incomplete = 0U;
 1089              		.loc 1 1160 37
 1090 023a 7B69     		ldr	r3, [r7, #20]
 1091 023c 0022     		movs	r2, #0
 1092 023e DA70     		strb	r2, [r3, #3]
1161:Drivers/STM32F4xx_HAL_Driver/Src/stm32f4xx_hal_pcd.c **** 
1162:Drivers/STM32F4xx_HAL_Driver/Src/stm32f4xx_hal_pcd.c **** #if (USE_HAL_PCD_REGISTER_CALLBACKS == 1U)
1163:Drivers/STM32F4xx_HAL_Driver/Src/stm32f4xx_hal_pcd.c ****               hpcd->ISOOUTIncompleteCallback(hpcd, (uint8_t)epnum);
1164:Drivers/STM32F4xx_HAL_Driver/Src/stm32f4xx_hal_pcd.c **** #else
1165:Drivers/STM32F4xx_HAL_Driver/Src/stm32f4xx_hal_pcd.c ****               HAL_PCD_ISOOUTIncompleteCallback(hpcd, (uint8_t)epnum);
 1093              		.loc 1 1165 15
 1094 0240 7B6A     		ldr	r3, [r7, #36]
 1095 0242 DBB2     		uxtb	r3, r3
 1096 0244 1946     		mov	r1, r3
 1097 0246 7868     		ldr	r0, [r7, #4]
 1098 0248 FFF7FEFF 		bl	HAL_PCD_ISOOUTIncompleteCallback
 1099              	.L42:
1166:Drivers/STM32F4xx_HAL_Driver/Src/stm32f4xx_hal_pcd.c **** #endif /* USE_HAL_PCD_REGISTER_CALLBACKS */
1167:Drivers/STM32F4xx_HAL_Driver/Src/stm32f4xx_hal_pcd.c ****             }
1168:Drivers/STM32F4xx_HAL_Driver/Src/stm32f4xx_hal_pcd.c **** 
1169:Drivers/STM32F4xx_HAL_Driver/Src/stm32f4xx_hal_pcd.c ****             CLEAR_OUT_EP_INTR(epnum, USB_OTG_DOEPINT_EPDISD);
 1100              		.loc 1 1169 13
 1101 024c 7B6A     		ldr	r3, [r7, #36]
 1102 024e 5A01     		lsls	r2, r3, #5
 1103 0250 FB69     		ldr	r3, [r7, #28]
 1104 0252 1344     		add	r3, r3, r2
 1105 0254 03F53063 		add	r3, r3, #2816
 1106 0258 1A46     		mov	r2, r3
 1107 025a 0223     		movs	r3, #2
 1108 025c 9360     		str	r3, [r2, #8]
 1109              	.L40:
1170:Drivers/STM32F4xx_HAL_Driver/Src/stm32f4xx_hal_pcd.c ****           }
1171:Drivers/STM32F4xx_HAL_Driver/Src/stm32f4xx_hal_pcd.c **** 
1172:Drivers/STM32F4xx_HAL_Driver/Src/stm32f4xx_hal_pcd.c ****           /* Clear Status Phase Received interrupt */
1173:Drivers/STM32F4xx_HAL_Driver/Src/stm32f4xx_hal_pcd.c ****           if ((epint & USB_OTG_DOEPINT_OTEPSPR) == USB_OTG_DOEPINT_OTEPSPR)
ARM GAS  /tmp/ccQdZtFR.s 			page 41


 1110              		.loc 1 1173 22
 1111 025e 3B69     		ldr	r3, [r7, #16]
 1112 0260 03F02003 		and	r3, r3, #32
 1113              		.loc 1 1173 14
 1114 0264 002B     		cmp	r3, #0
 1115 0266 08D0     		beq	.L43
1174:Drivers/STM32F4xx_HAL_Driver/Src/stm32f4xx_hal_pcd.c ****           {
1175:Drivers/STM32F4xx_HAL_Driver/Src/stm32f4xx_hal_pcd.c ****             CLEAR_OUT_EP_INTR(epnum, USB_OTG_DOEPINT_OTEPSPR);
 1116              		.loc 1 1175 13
 1117 0268 7B6A     		ldr	r3, [r7, #36]
 1118 026a 5A01     		lsls	r2, r3, #5
 1119 026c FB69     		ldr	r3, [r7, #28]
 1120 026e 1344     		add	r3, r3, r2
 1121 0270 03F53063 		add	r3, r3, #2816
 1122 0274 1A46     		mov	r2, r3
 1123 0276 2023     		movs	r3, #32
 1124 0278 9360     		str	r3, [r2, #8]
 1125              	.L43:
1176:Drivers/STM32F4xx_HAL_Driver/Src/stm32f4xx_hal_pcd.c ****           }
1177:Drivers/STM32F4xx_HAL_Driver/Src/stm32f4xx_hal_pcd.c **** 
1178:Drivers/STM32F4xx_HAL_Driver/Src/stm32f4xx_hal_pcd.c ****           /* Clear OUT NAK interrupt */
1179:Drivers/STM32F4xx_HAL_Driver/Src/stm32f4xx_hal_pcd.c ****           if ((epint & USB_OTG_DOEPINT_NAK) == USB_OTG_DOEPINT_NAK)
 1126              		.loc 1 1179 22
 1127 027a 3B69     		ldr	r3, [r7, #16]
 1128 027c 03F40053 		and	r3, r3, #8192
 1129              		.loc 1 1179 14
 1130 0280 002B     		cmp	r3, #0
 1131 0282 09D0     		beq	.L36
1180:Drivers/STM32F4xx_HAL_Driver/Src/stm32f4xx_hal_pcd.c ****           {
1181:Drivers/STM32F4xx_HAL_Driver/Src/stm32f4xx_hal_pcd.c ****             CLEAR_OUT_EP_INTR(epnum, USB_OTG_DOEPINT_NAK);
 1132              		.loc 1 1181 13
 1133 0284 7B6A     		ldr	r3, [r7, #36]
 1134 0286 5A01     		lsls	r2, r3, #5
 1135 0288 FB69     		ldr	r3, [r7, #28]
 1136 028a 1344     		add	r3, r3, r2
 1137 028c 03F53063 		add	r3, r3, #2816
 1138 0290 1A46     		mov	r2, r3
 1139 0292 4FF40053 		mov	r3, #8192
 1140 0296 9360     		str	r3, [r2, #8]
 1141              	.L36:
1182:Drivers/STM32F4xx_HAL_Driver/Src/stm32f4xx_hal_pcd.c ****           }
1183:Drivers/STM32F4xx_HAL_Driver/Src/stm32f4xx_hal_pcd.c ****         }
1184:Drivers/STM32F4xx_HAL_Driver/Src/stm32f4xx_hal_pcd.c ****         epnum++;
 1142              		.loc 1 1184 14
 1143 0298 7B6A     		ldr	r3, [r7, #36]
 1144 029a 0133     		adds	r3, r3, #1
 1145 029c 7B62     		str	r3, [r7, #36]
1185:Drivers/STM32F4xx_HAL_Driver/Src/stm32f4xx_hal_pcd.c ****         ep_intr >>= 1U;
 1146              		.loc 1 1185 17
 1147 029e BB6A     		ldr	r3, [r7, #40]
 1148 02a0 5B08     		lsrs	r3, r3, #1
 1149 02a2 BB62     		str	r3, [r7, #40]
 1150              	.L35:
1124:Drivers/STM32F4xx_HAL_Driver/Src/stm32f4xx_hal_pcd.c ****       {
 1151              		.loc 1 1124 13
 1152 02a4 BB6A     		ldr	r3, [r7, #40]
 1153 02a6 002B     		cmp	r3, #0
ARM GAS  /tmp/ccQdZtFR.s 			page 42


 1154 02a8 7FF462AF 		bne	.L44
 1155              	.L34:
1186:Drivers/STM32F4xx_HAL_Driver/Src/stm32f4xx_hal_pcd.c ****       }
1187:Drivers/STM32F4xx_HAL_Driver/Src/stm32f4xx_hal_pcd.c ****     }
1188:Drivers/STM32F4xx_HAL_Driver/Src/stm32f4xx_hal_pcd.c **** 
1189:Drivers/STM32F4xx_HAL_Driver/Src/stm32f4xx_hal_pcd.c ****     if (__HAL_PCD_GET_FLAG(hpcd, USB_OTG_GINTSTS_IEPINT))
 1156              		.loc 1 1189 9
 1157 02ac 7B68     		ldr	r3, [r7, #4]
 1158 02ae 1B68     		ldr	r3, [r3]
 1159 02b0 1846     		mov	r0, r3
 1160 02b2 FFF7FEFF 		bl	USB_ReadInterrupts
 1161 02b6 0346     		mov	r3, r0
 1162 02b8 03F48023 		and	r3, r3, #262144
 1163              		.loc 1 1189 8
 1164 02bc B3F5802F 		cmp	r3, #262144
 1165 02c0 40F0DB80 		bne	.L45
1190:Drivers/STM32F4xx_HAL_Driver/Src/stm32f4xx_hal_pcd.c ****     {
1191:Drivers/STM32F4xx_HAL_Driver/Src/stm32f4xx_hal_pcd.c ****       /* Read in the device interrupt bits */
1192:Drivers/STM32F4xx_HAL_Driver/Src/stm32f4xx_hal_pcd.c ****       ep_intr = USB_ReadDevAllInEpInterrupt(hpcd->Instance);
 1166              		.loc 1 1192 49
 1167 02c4 7B68     		ldr	r3, [r7, #4]
 1168 02c6 1B68     		ldr	r3, [r3]
 1169              		.loc 1 1192 17
 1170 02c8 1846     		mov	r0, r3
 1171 02ca FFF7FEFF 		bl	USB_ReadDevAllInEpInterrupt
 1172 02ce B862     		str	r0, [r7, #40]
1193:Drivers/STM32F4xx_HAL_Driver/Src/stm32f4xx_hal_pcd.c **** 
1194:Drivers/STM32F4xx_HAL_Driver/Src/stm32f4xx_hal_pcd.c ****       epnum = 0U;
 1173              		.loc 1 1194 13
 1174 02d0 0023     		movs	r3, #0
 1175 02d2 7B62     		str	r3, [r7, #36]
1195:Drivers/STM32F4xx_HAL_Driver/Src/stm32f4xx_hal_pcd.c **** 
1196:Drivers/STM32F4xx_HAL_Driver/Src/stm32f4xx_hal_pcd.c ****       while (ep_intr != 0U)
 1176              		.loc 1 1196 13
 1177 02d4 CDE0     		b	.L46
 1178              	.L55:
1197:Drivers/STM32F4xx_HAL_Driver/Src/stm32f4xx_hal_pcd.c ****       {
1198:Drivers/STM32F4xx_HAL_Driver/Src/stm32f4xx_hal_pcd.c ****         if ((ep_intr & 0x1U) != 0U) /* In ITR */
 1179              		.loc 1 1198 22
 1180 02d6 BB6A     		ldr	r3, [r7, #40]
 1181 02d8 03F00103 		and	r3, r3, #1
 1182              		.loc 1 1198 12
 1183 02dc 002B     		cmp	r3, #0
 1184 02de 00F0C280 		beq	.L47
1199:Drivers/STM32F4xx_HAL_Driver/Src/stm32f4xx_hal_pcd.c ****         {
1200:Drivers/STM32F4xx_HAL_Driver/Src/stm32f4xx_hal_pcd.c ****           epint = USB_ReadDevInEPInterrupt(hpcd->Instance, (uint8_t)epnum);
 1185              		.loc 1 1200 48
 1186 02e2 7B68     		ldr	r3, [r7, #4]
 1187 02e4 1B68     		ldr	r3, [r3]
 1188              		.loc 1 1200 19
 1189 02e6 7A6A     		ldr	r2, [r7, #36]
 1190 02e8 D2B2     		uxtb	r2, r2
 1191 02ea 1146     		mov	r1, r2
 1192 02ec 1846     		mov	r0, r3
 1193 02ee FFF7FEFF 		bl	USB_ReadDevInEPInterrupt
 1194 02f2 3861     		str	r0, [r7, #16]
1201:Drivers/STM32F4xx_HAL_Driver/Src/stm32f4xx_hal_pcd.c **** 
ARM GAS  /tmp/ccQdZtFR.s 			page 43


1202:Drivers/STM32F4xx_HAL_Driver/Src/stm32f4xx_hal_pcd.c ****           if ((epint & USB_OTG_DIEPINT_XFRC) == USB_OTG_DIEPINT_XFRC)
 1195              		.loc 1 1202 22
 1196 02f4 3B69     		ldr	r3, [r7, #16]
 1197 02f6 03F00103 		and	r3, r3, #1
 1198              		.loc 1 1202 14
 1199 02fa 002B     		cmp	r3, #0
 1200 02fc 57D0     		beq	.L48
1203:Drivers/STM32F4xx_HAL_Driver/Src/stm32f4xx_hal_pcd.c ****           {
1204:Drivers/STM32F4xx_HAL_Driver/Src/stm32f4xx_hal_pcd.c ****             fifoemptymsk = (uint32_t)(0x1UL << (epnum & EP_ADDR_MSK));
 1201              		.loc 1 1204 55
 1202 02fe 7B6A     		ldr	r3, [r7, #36]
 1203 0300 03F00F03 		and	r3, r3, #15
 1204              		.loc 1 1204 26
 1205 0304 0122     		movs	r2, #1
 1206 0306 02FA03F3 		lsl	r3, r2, r3
 1207 030a FB60     		str	r3, [r7, #12]
1205:Drivers/STM32F4xx_HAL_Driver/Src/stm32f4xx_hal_pcd.c ****             USBx_DEVICE->DIEPEMPMSK &= ~fifoemptymsk;
 1208              		.loc 1 1205 37
 1209 030c FB69     		ldr	r3, [r7, #28]
 1210 030e 03F50063 		add	r3, r3, #2048
 1211 0312 5A6B     		ldr	r2, [r3, #52]
 1212              		.loc 1 1205 40
 1213 0314 FB68     		ldr	r3, [r7, #12]
 1214 0316 DB43     		mvns	r3, r3
 1215              		.loc 1 1205 37
 1216 0318 F969     		ldr	r1, [r7, #28]
 1217 031a 01F50061 		add	r1, r1, #2048
 1218 031e 1340     		ands	r3, r3, r2
 1219 0320 4B63     		str	r3, [r1, #52]
1206:Drivers/STM32F4xx_HAL_Driver/Src/stm32f4xx_hal_pcd.c **** 
1207:Drivers/STM32F4xx_HAL_Driver/Src/stm32f4xx_hal_pcd.c ****             CLEAR_IN_EP_INTR(epnum, USB_OTG_DIEPINT_XFRC);
 1220              		.loc 1 1207 13
 1221 0322 7B6A     		ldr	r3, [r7, #36]
 1222 0324 5A01     		lsls	r2, r3, #5
 1223 0326 FB69     		ldr	r3, [r7, #28]
 1224 0328 1344     		add	r3, r3, r2
 1225 032a 03F51063 		add	r3, r3, #2304
 1226 032e 1A46     		mov	r2, r3
 1227 0330 0123     		movs	r3, #1
 1228 0332 9360     		str	r3, [r2, #8]
1208:Drivers/STM32F4xx_HAL_Driver/Src/stm32f4xx_hal_pcd.c **** 
1209:Drivers/STM32F4xx_HAL_Driver/Src/stm32f4xx_hal_pcd.c ****             if (hpcd->Init.dma_enable == 1U)
 1229              		.loc 1 1209 27
 1230 0334 7B68     		ldr	r3, [r7, #4]
 1231 0336 1B69     		ldr	r3, [r3, #16]
 1232              		.loc 1 1209 16
 1233 0338 012B     		cmp	r3, #1
 1234 033a 32D1     		bne	.L49
1210:Drivers/STM32F4xx_HAL_Driver/Src/stm32f4xx_hal_pcd.c ****             {
1211:Drivers/STM32F4xx_HAL_Driver/Src/stm32f4xx_hal_pcd.c ****               hpcd->IN_ep[epnum].xfer_buff += hpcd->IN_ep[epnum].maxpacket;
 1235              		.loc 1 1211 44
 1236 033c 7968     		ldr	r1, [r7, #4]
 1237 033e 7A6A     		ldr	r2, [r7, #36]
 1238 0340 1346     		mov	r3, r2
 1239 0342 DB00     		lsls	r3, r3, #3
 1240 0344 1344     		add	r3, r3, r2
 1241 0346 9B00     		lsls	r3, r3, #2
ARM GAS  /tmp/ccQdZtFR.s 			page 44


 1242 0348 0B44     		add	r3, r3, r1
 1243 034a 4C33     		adds	r3, r3, #76
 1244 034c 1968     		ldr	r1, [r3]
 1245              		.loc 1 1211 65
 1246 034e 7868     		ldr	r0, [r7, #4]
 1247 0350 7A6A     		ldr	r2, [r7, #36]
 1248 0352 1346     		mov	r3, r2
 1249 0354 DB00     		lsls	r3, r3, #3
 1250 0356 1344     		add	r3, r3, r2
 1251 0358 9B00     		lsls	r3, r3, #2
 1252 035a 0344     		add	r3, r3, r0
 1253 035c 4833     		adds	r3, r3, #72
 1254 035e 1B68     		ldr	r3, [r3]
 1255              		.loc 1 1211 44
 1256 0360 1944     		add	r1, r1, r3
 1257 0362 7868     		ldr	r0, [r7, #4]
 1258 0364 7A6A     		ldr	r2, [r7, #36]
 1259 0366 1346     		mov	r3, r2
 1260 0368 DB00     		lsls	r3, r3, #3
 1261 036a 1344     		add	r3, r3, r2
 1262 036c 9B00     		lsls	r3, r3, #2
 1263 036e 0344     		add	r3, r3, r0
 1264 0370 4C33     		adds	r3, r3, #76
 1265 0372 1960     		str	r1, [r3]
1212:Drivers/STM32F4xx_HAL_Driver/Src/stm32f4xx_hal_pcd.c **** 
1213:Drivers/STM32F4xx_HAL_Driver/Src/stm32f4xx_hal_pcd.c ****               /* this is ZLP, so prepare EP0 for next setup */
1214:Drivers/STM32F4xx_HAL_Driver/Src/stm32f4xx_hal_pcd.c ****               if ((epnum == 0U) && (hpcd->IN_ep[epnum].xfer_len == 0U))
 1266              		.loc 1 1214 18
 1267 0374 7B6A     		ldr	r3, [r7, #36]
 1268 0376 002B     		cmp	r3, #0
 1269 0378 13D1     		bne	.L49
 1270              		.loc 1 1214 55 discriminator 1
 1271 037a 7968     		ldr	r1, [r7, #4]
 1272 037c 7A6A     		ldr	r2, [r7, #36]
 1273 037e 1346     		mov	r3, r2
 1274 0380 DB00     		lsls	r3, r3, #3
 1275 0382 1344     		add	r3, r3, r2
 1276 0384 9B00     		lsls	r3, r3, #2
 1277 0386 0B44     		add	r3, r3, r1
 1278 0388 5433     		adds	r3, r3, #84
 1279 038a 1B68     		ldr	r3, [r3]
 1280              		.loc 1 1214 33 discriminator 1
 1281 038c 002B     		cmp	r3, #0
 1282 038e 08D1     		bne	.L49
1215:Drivers/STM32F4xx_HAL_Driver/Src/stm32f4xx_hal_pcd.c ****               {
1216:Drivers/STM32F4xx_HAL_Driver/Src/stm32f4xx_hal_pcd.c ****                 /* prepare to rx more setup packets */
1217:Drivers/STM32F4xx_HAL_Driver/Src/stm32f4xx_hal_pcd.c ****                 (void)USB_EP0_OutStart(hpcd->Instance, 1U, (uint8_t *)hpcd->Setup);
 1283              		.loc 1 1217 44
 1284 0390 7B68     		ldr	r3, [r7, #4]
 1285 0392 1868     		ldr	r0, [r3]
 1286              		.loc 1 1217 71
 1287 0394 7B68     		ldr	r3, [r7, #4]
 1288 0396 03F2C443 		addw	r3, r3, #1220
 1289              		.loc 1 1217 23
 1290 039a 1A46     		mov	r2, r3
 1291 039c 0121     		movs	r1, #1
 1292 039e FFF7FEFF 		bl	USB_EP0_OutStart
ARM GAS  /tmp/ccQdZtFR.s 			page 45


 1293              	.L49:
1218:Drivers/STM32F4xx_HAL_Driver/Src/stm32f4xx_hal_pcd.c ****               }
1219:Drivers/STM32F4xx_HAL_Driver/Src/stm32f4xx_hal_pcd.c ****             }
1220:Drivers/STM32F4xx_HAL_Driver/Src/stm32f4xx_hal_pcd.c **** 
1221:Drivers/STM32F4xx_HAL_Driver/Src/stm32f4xx_hal_pcd.c **** #if (USE_HAL_PCD_REGISTER_CALLBACKS == 1U)
1222:Drivers/STM32F4xx_HAL_Driver/Src/stm32f4xx_hal_pcd.c ****             hpcd->DataInStageCallback(hpcd, (uint8_t)epnum);
1223:Drivers/STM32F4xx_HAL_Driver/Src/stm32f4xx_hal_pcd.c **** #else
1224:Drivers/STM32F4xx_HAL_Driver/Src/stm32f4xx_hal_pcd.c ****             HAL_PCD_DataInStageCallback(hpcd, (uint8_t)epnum);
 1294              		.loc 1 1224 13
 1295 03a2 7B6A     		ldr	r3, [r7, #36]
 1296 03a4 DBB2     		uxtb	r3, r3
 1297 03a6 1946     		mov	r1, r3
 1298 03a8 7868     		ldr	r0, [r7, #4]
 1299 03aa FFF7FEFF 		bl	HAL_PCD_DataInStageCallback
 1300              	.L48:
1225:Drivers/STM32F4xx_HAL_Driver/Src/stm32f4xx_hal_pcd.c **** #endif /* USE_HAL_PCD_REGISTER_CALLBACKS */
1226:Drivers/STM32F4xx_HAL_Driver/Src/stm32f4xx_hal_pcd.c ****           }
1227:Drivers/STM32F4xx_HAL_Driver/Src/stm32f4xx_hal_pcd.c ****           if ((epint & USB_OTG_DIEPINT_TOC) == USB_OTG_DIEPINT_TOC)
 1301              		.loc 1 1227 22
 1302 03ae 3B69     		ldr	r3, [r7, #16]
 1303 03b0 03F00803 		and	r3, r3, #8
 1304              		.loc 1 1227 14
 1305 03b4 002B     		cmp	r3, #0
 1306 03b6 08D0     		beq	.L50
1228:Drivers/STM32F4xx_HAL_Driver/Src/stm32f4xx_hal_pcd.c ****           {
1229:Drivers/STM32F4xx_HAL_Driver/Src/stm32f4xx_hal_pcd.c ****             CLEAR_IN_EP_INTR(epnum, USB_OTG_DIEPINT_TOC);
 1307              		.loc 1 1229 13
 1308 03b8 7B6A     		ldr	r3, [r7, #36]
 1309 03ba 5A01     		lsls	r2, r3, #5
 1310 03bc FB69     		ldr	r3, [r7, #28]
 1311 03be 1344     		add	r3, r3, r2
 1312 03c0 03F51063 		add	r3, r3, #2304
 1313 03c4 1A46     		mov	r2, r3
 1314 03c6 0823     		movs	r3, #8
 1315 03c8 9360     		str	r3, [r2, #8]
 1316              	.L50:
1230:Drivers/STM32F4xx_HAL_Driver/Src/stm32f4xx_hal_pcd.c ****           }
1231:Drivers/STM32F4xx_HAL_Driver/Src/stm32f4xx_hal_pcd.c ****           if ((epint & USB_OTG_DIEPINT_ITTXFE) == USB_OTG_DIEPINT_ITTXFE)
 1317              		.loc 1 1231 22
 1318 03ca 3B69     		ldr	r3, [r7, #16]
 1319 03cc 03F01003 		and	r3, r3, #16
 1320              		.loc 1 1231 14
 1321 03d0 002B     		cmp	r3, #0
 1322 03d2 08D0     		beq	.L51
1232:Drivers/STM32F4xx_HAL_Driver/Src/stm32f4xx_hal_pcd.c ****           {
1233:Drivers/STM32F4xx_HAL_Driver/Src/stm32f4xx_hal_pcd.c ****             CLEAR_IN_EP_INTR(epnum, USB_OTG_DIEPINT_ITTXFE);
 1323              		.loc 1 1233 13
 1324 03d4 7B6A     		ldr	r3, [r7, #36]
 1325 03d6 5A01     		lsls	r2, r3, #5
 1326 03d8 FB69     		ldr	r3, [r7, #28]
 1327 03da 1344     		add	r3, r3, r2
 1328 03dc 03F51063 		add	r3, r3, #2304
 1329 03e0 1A46     		mov	r2, r3
 1330 03e2 1023     		movs	r3, #16
 1331 03e4 9360     		str	r3, [r2, #8]
 1332              	.L51:
1234:Drivers/STM32F4xx_HAL_Driver/Src/stm32f4xx_hal_pcd.c ****           }
ARM GAS  /tmp/ccQdZtFR.s 			page 46


1235:Drivers/STM32F4xx_HAL_Driver/Src/stm32f4xx_hal_pcd.c ****           if ((epint & USB_OTG_DIEPINT_INEPNE) == USB_OTG_DIEPINT_INEPNE)
 1333              		.loc 1 1235 22
 1334 03e6 3B69     		ldr	r3, [r7, #16]
 1335 03e8 03F04003 		and	r3, r3, #64
 1336              		.loc 1 1235 14
 1337 03ec 002B     		cmp	r3, #0
 1338 03ee 08D0     		beq	.L52
1236:Drivers/STM32F4xx_HAL_Driver/Src/stm32f4xx_hal_pcd.c ****           {
1237:Drivers/STM32F4xx_HAL_Driver/Src/stm32f4xx_hal_pcd.c ****             CLEAR_IN_EP_INTR(epnum, USB_OTG_DIEPINT_INEPNE);
 1339              		.loc 1 1237 13
 1340 03f0 7B6A     		ldr	r3, [r7, #36]
 1341 03f2 5A01     		lsls	r2, r3, #5
 1342 03f4 FB69     		ldr	r3, [r7, #28]
 1343 03f6 1344     		add	r3, r3, r2
 1344 03f8 03F51063 		add	r3, r3, #2304
 1345 03fc 1A46     		mov	r2, r3
 1346 03fe 4023     		movs	r3, #64
 1347 0400 9360     		str	r3, [r2, #8]
 1348              	.L52:
1238:Drivers/STM32F4xx_HAL_Driver/Src/stm32f4xx_hal_pcd.c ****           }
1239:Drivers/STM32F4xx_HAL_Driver/Src/stm32f4xx_hal_pcd.c ****           if ((epint & USB_OTG_DIEPINT_EPDISD) == USB_OTG_DIEPINT_EPDISD)
 1349              		.loc 1 1239 22
 1350 0402 3B69     		ldr	r3, [r7, #16]
 1351 0404 03F00203 		and	r3, r3, #2
 1352              		.loc 1 1239 14
 1353 0408 002B     		cmp	r3, #0
 1354 040a 23D0     		beq	.L53
1240:Drivers/STM32F4xx_HAL_Driver/Src/stm32f4xx_hal_pcd.c ****           {
1241:Drivers/STM32F4xx_HAL_Driver/Src/stm32f4xx_hal_pcd.c ****             (void)USB_FlushTxFifo(USBx, epnum);
 1355              		.loc 1 1241 19
 1356 040c 796A     		ldr	r1, [r7, #36]
 1357 040e 386A     		ldr	r0, [r7, #32]
 1358 0410 FFF7FEFF 		bl	USB_FlushTxFifo
1242:Drivers/STM32F4xx_HAL_Driver/Src/stm32f4xx_hal_pcd.c **** 
1243:Drivers/STM32F4xx_HAL_Driver/Src/stm32f4xx_hal_pcd.c ****             ep = &hpcd->IN_ep[epnum];
 1359              		.loc 1 1243 16
 1360 0414 7A6A     		ldr	r2, [r7, #36]
 1361 0416 1346     		mov	r3, r2
 1362 0418 DB00     		lsls	r3, r3, #3
 1363 041a 1344     		add	r3, r3, r2
 1364 041c 9B00     		lsls	r3, r3, #2
 1365 041e 3833     		adds	r3, r3, #56
 1366 0420 7A68     		ldr	r2, [r7, #4]
 1367 0422 1344     		add	r3, r3, r2
 1368 0424 0433     		adds	r3, r3, #4
 1369 0426 7B61     		str	r3, [r7, #20]
1244:Drivers/STM32F4xx_HAL_Driver/Src/stm32f4xx_hal_pcd.c **** 
1245:Drivers/STM32F4xx_HAL_Driver/Src/stm32f4xx_hal_pcd.c ****             if (ep->is_iso_incomplete == 1U)
 1370              		.loc 1 1245 19
 1371 0428 7B69     		ldr	r3, [r7, #20]
 1372 042a DB78     		ldrb	r3, [r3, #3]	@ zero_extendqisi2
 1373              		.loc 1 1245 16
 1374 042c 012B     		cmp	r3, #1
 1375 042e 08D1     		bne	.L54
1246:Drivers/STM32F4xx_HAL_Driver/Src/stm32f4xx_hal_pcd.c ****             {
1247:Drivers/STM32F4xx_HAL_Driver/Src/stm32f4xx_hal_pcd.c ****               ep->is_iso_incomplete = 0U;
 1376              		.loc 1 1247 37
ARM GAS  /tmp/ccQdZtFR.s 			page 47


 1377 0430 7B69     		ldr	r3, [r7, #20]
 1378 0432 0022     		movs	r2, #0
 1379 0434 DA70     		strb	r2, [r3, #3]
1248:Drivers/STM32F4xx_HAL_Driver/Src/stm32f4xx_hal_pcd.c **** 
1249:Drivers/STM32F4xx_HAL_Driver/Src/stm32f4xx_hal_pcd.c **** #if (USE_HAL_PCD_REGISTER_CALLBACKS == 1U)
1250:Drivers/STM32F4xx_HAL_Driver/Src/stm32f4xx_hal_pcd.c ****               hpcd->ISOINIncompleteCallback(hpcd, (uint8_t)epnum);
1251:Drivers/STM32F4xx_HAL_Driver/Src/stm32f4xx_hal_pcd.c **** #else
1252:Drivers/STM32F4xx_HAL_Driver/Src/stm32f4xx_hal_pcd.c ****               HAL_PCD_ISOINIncompleteCallback(hpcd, (uint8_t)epnum);
 1380              		.loc 1 1252 15
 1381 0436 7B6A     		ldr	r3, [r7, #36]
 1382 0438 DBB2     		uxtb	r3, r3
 1383 043a 1946     		mov	r1, r3
 1384 043c 7868     		ldr	r0, [r7, #4]
 1385 043e FFF7FEFF 		bl	HAL_PCD_ISOINIncompleteCallback
 1386              	.L54:
1253:Drivers/STM32F4xx_HAL_Driver/Src/stm32f4xx_hal_pcd.c **** #endif /* USE_HAL_PCD_REGISTER_CALLBACKS */
1254:Drivers/STM32F4xx_HAL_Driver/Src/stm32f4xx_hal_pcd.c ****             }
1255:Drivers/STM32F4xx_HAL_Driver/Src/stm32f4xx_hal_pcd.c **** 
1256:Drivers/STM32F4xx_HAL_Driver/Src/stm32f4xx_hal_pcd.c ****             CLEAR_IN_EP_INTR(epnum, USB_OTG_DIEPINT_EPDISD);
 1387              		.loc 1 1256 13
 1388 0442 7B6A     		ldr	r3, [r7, #36]
 1389 0444 5A01     		lsls	r2, r3, #5
 1390 0446 FB69     		ldr	r3, [r7, #28]
 1391 0448 1344     		add	r3, r3, r2
 1392 044a 03F51063 		add	r3, r3, #2304
 1393 044e 1A46     		mov	r2, r3
 1394 0450 0223     		movs	r3, #2
 1395 0452 9360     		str	r3, [r2, #8]
 1396              	.L53:
1257:Drivers/STM32F4xx_HAL_Driver/Src/stm32f4xx_hal_pcd.c ****           }
1258:Drivers/STM32F4xx_HAL_Driver/Src/stm32f4xx_hal_pcd.c ****           if ((epint & USB_OTG_DIEPINT_TXFE) == USB_OTG_DIEPINT_TXFE)
 1397              		.loc 1 1258 22
 1398 0454 3B69     		ldr	r3, [r7, #16]
 1399 0456 03F08003 		and	r3, r3, #128
 1400              		.loc 1 1258 14
 1401 045a 002B     		cmp	r3, #0
 1402 045c 03D0     		beq	.L47
1259:Drivers/STM32F4xx_HAL_Driver/Src/stm32f4xx_hal_pcd.c ****           {
1260:Drivers/STM32F4xx_HAL_Driver/Src/stm32f4xx_hal_pcd.c ****             (void)PCD_WriteEmptyTxFifo(hpcd, epnum);
 1403              		.loc 1 1260 19
 1404 045e 796A     		ldr	r1, [r7, #36]
 1405 0460 7868     		ldr	r0, [r7, #4]
 1406 0462 FFF7FEFF 		bl	PCD_WriteEmptyTxFifo
 1407              	.L47:
1261:Drivers/STM32F4xx_HAL_Driver/Src/stm32f4xx_hal_pcd.c ****           }
1262:Drivers/STM32F4xx_HAL_Driver/Src/stm32f4xx_hal_pcd.c ****         }
1263:Drivers/STM32F4xx_HAL_Driver/Src/stm32f4xx_hal_pcd.c ****         epnum++;
 1408              		.loc 1 1263 14
 1409 0466 7B6A     		ldr	r3, [r7, #36]
 1410 0468 0133     		adds	r3, r3, #1
 1411 046a 7B62     		str	r3, [r7, #36]
1264:Drivers/STM32F4xx_HAL_Driver/Src/stm32f4xx_hal_pcd.c ****         ep_intr >>= 1U;
 1412              		.loc 1 1264 17
 1413 046c BB6A     		ldr	r3, [r7, #40]
 1414 046e 5B08     		lsrs	r3, r3, #1
 1415 0470 BB62     		str	r3, [r7, #40]
 1416              	.L46:
ARM GAS  /tmp/ccQdZtFR.s 			page 48


1196:Drivers/STM32F4xx_HAL_Driver/Src/stm32f4xx_hal_pcd.c ****       {
 1417              		.loc 1 1196 13
 1418 0472 BB6A     		ldr	r3, [r7, #40]
 1419 0474 002B     		cmp	r3, #0
 1420 0476 7FF42EAF 		bne	.L55
 1421              	.L45:
1265:Drivers/STM32F4xx_HAL_Driver/Src/stm32f4xx_hal_pcd.c ****       }
1266:Drivers/STM32F4xx_HAL_Driver/Src/stm32f4xx_hal_pcd.c ****     }
1267:Drivers/STM32F4xx_HAL_Driver/Src/stm32f4xx_hal_pcd.c **** 
1268:Drivers/STM32F4xx_HAL_Driver/Src/stm32f4xx_hal_pcd.c ****     /* Handle Resume Interrupt */
1269:Drivers/STM32F4xx_HAL_Driver/Src/stm32f4xx_hal_pcd.c ****     if (__HAL_PCD_GET_FLAG(hpcd, USB_OTG_GINTSTS_WKUINT))
 1422              		.loc 1 1269 9
 1423 047a 7B68     		ldr	r3, [r7, #4]
 1424 047c 1B68     		ldr	r3, [r3]
 1425 047e 1846     		mov	r0, r3
 1426 0480 FFF7FEFF 		bl	USB_ReadInterrupts
 1427 0484 0346     		mov	r3, r0
 1428 0486 03F00043 		and	r3, r3, #-2147483648
 1429              		.loc 1 1269 8
 1430 048a B3F1004F 		cmp	r3, #-2147483648
 1431 048e 22D1     		bne	.L56
1270:Drivers/STM32F4xx_HAL_Driver/Src/stm32f4xx_hal_pcd.c ****     {
1271:Drivers/STM32F4xx_HAL_Driver/Src/stm32f4xx_hal_pcd.c ****       /* Clear the Remote Wake-up Signaling */
1272:Drivers/STM32F4xx_HAL_Driver/Src/stm32f4xx_hal_pcd.c ****       USBx_DEVICE->DCTL &= ~USB_OTG_DCTL_RWUSIG;
 1432              		.loc 1 1272 25
 1433 0490 FB69     		ldr	r3, [r7, #28]
 1434 0492 03F50063 		add	r3, r3, #2048
 1435 0496 5B68     		ldr	r3, [r3, #4]
 1436 0498 FA69     		ldr	r2, [r7, #28]
 1437 049a 02F50062 		add	r2, r2, #2048
 1438 049e 23F00103 		bic	r3, r3, #1
 1439 04a2 5360     		str	r3, [r2, #4]
1273:Drivers/STM32F4xx_HAL_Driver/Src/stm32f4xx_hal_pcd.c **** 
1274:Drivers/STM32F4xx_HAL_Driver/Src/stm32f4xx_hal_pcd.c ****       if (hpcd->LPM_State == LPM_L1)
 1440              		.loc 1 1274 15
 1441 04a4 7B68     		ldr	r3, [r7, #4]
 1442 04a6 93F8F434 		ldrb	r3, [r3, #1268]	@ zero_extendqisi2
 1443              		.loc 1 1274 10
 1444 04aa 012B     		cmp	r3, #1
 1445 04ac 08D1     		bne	.L57
1275:Drivers/STM32F4xx_HAL_Driver/Src/stm32f4xx_hal_pcd.c ****       {
1276:Drivers/STM32F4xx_HAL_Driver/Src/stm32f4xx_hal_pcd.c ****         hpcd->LPM_State = LPM_L0;
 1446              		.loc 1 1276 25
 1447 04ae 7B68     		ldr	r3, [r7, #4]
 1448 04b0 0022     		movs	r2, #0
 1449 04b2 83F8F424 		strb	r2, [r3, #1268]
1277:Drivers/STM32F4xx_HAL_Driver/Src/stm32f4xx_hal_pcd.c **** 
1278:Drivers/STM32F4xx_HAL_Driver/Src/stm32f4xx_hal_pcd.c **** #if (USE_HAL_PCD_REGISTER_CALLBACKS == 1U)
1279:Drivers/STM32F4xx_HAL_Driver/Src/stm32f4xx_hal_pcd.c ****         hpcd->LPMCallback(hpcd, PCD_LPM_L0_ACTIVE);
1280:Drivers/STM32F4xx_HAL_Driver/Src/stm32f4xx_hal_pcd.c **** #else
1281:Drivers/STM32F4xx_HAL_Driver/Src/stm32f4xx_hal_pcd.c ****         HAL_PCDEx_LPM_Callback(hpcd, PCD_LPM_L0_ACTIVE);
 1450              		.loc 1 1281 9
 1451 04b6 0021     		movs	r1, #0
 1452 04b8 7868     		ldr	r0, [r7, #4]
 1453 04ba FFF7FEFF 		bl	HAL_PCDEx_LPM_Callback
 1454 04be 02E0     		b	.L58
 1455              	.L57:
ARM GAS  /tmp/ccQdZtFR.s 			page 49


1282:Drivers/STM32F4xx_HAL_Driver/Src/stm32f4xx_hal_pcd.c **** #endif /* USE_HAL_PCD_REGISTER_CALLBACKS */
1283:Drivers/STM32F4xx_HAL_Driver/Src/stm32f4xx_hal_pcd.c ****       }
1284:Drivers/STM32F4xx_HAL_Driver/Src/stm32f4xx_hal_pcd.c ****       else
1285:Drivers/STM32F4xx_HAL_Driver/Src/stm32f4xx_hal_pcd.c ****       {
1286:Drivers/STM32F4xx_HAL_Driver/Src/stm32f4xx_hal_pcd.c **** #if (USE_HAL_PCD_REGISTER_CALLBACKS == 1U)
1287:Drivers/STM32F4xx_HAL_Driver/Src/stm32f4xx_hal_pcd.c ****         hpcd->ResumeCallback(hpcd);
1288:Drivers/STM32F4xx_HAL_Driver/Src/stm32f4xx_hal_pcd.c **** #else
1289:Drivers/STM32F4xx_HAL_Driver/Src/stm32f4xx_hal_pcd.c ****         HAL_PCD_ResumeCallback(hpcd);
 1456              		.loc 1 1289 9
 1457 04c0 7868     		ldr	r0, [r7, #4]
 1458 04c2 FFF7FEFF 		bl	HAL_PCD_ResumeCallback
 1459              	.L58:
1290:Drivers/STM32F4xx_HAL_Driver/Src/stm32f4xx_hal_pcd.c **** #endif /* USE_HAL_PCD_REGISTER_CALLBACKS */
1291:Drivers/STM32F4xx_HAL_Driver/Src/stm32f4xx_hal_pcd.c ****       }
1292:Drivers/STM32F4xx_HAL_Driver/Src/stm32f4xx_hal_pcd.c **** 
1293:Drivers/STM32F4xx_HAL_Driver/Src/stm32f4xx_hal_pcd.c ****       __HAL_PCD_CLEAR_FLAG(hpcd, USB_OTG_GINTSTS_WKUINT);
 1460              		.loc 1 1293 7
 1461 04c6 7B68     		ldr	r3, [r7, #4]
 1462 04c8 1B68     		ldr	r3, [r3]
 1463 04ca 5A69     		ldr	r2, [r3, #20]
 1464 04cc 7B68     		ldr	r3, [r7, #4]
 1465 04ce 1B68     		ldr	r3, [r3]
 1466 04d0 02F00042 		and	r2, r2, #-2147483648
 1467 04d4 5A61     		str	r2, [r3, #20]
 1468              	.L56:
1294:Drivers/STM32F4xx_HAL_Driver/Src/stm32f4xx_hal_pcd.c ****     }
1295:Drivers/STM32F4xx_HAL_Driver/Src/stm32f4xx_hal_pcd.c **** 
1296:Drivers/STM32F4xx_HAL_Driver/Src/stm32f4xx_hal_pcd.c ****     /* Handle Suspend Interrupt */
1297:Drivers/STM32F4xx_HAL_Driver/Src/stm32f4xx_hal_pcd.c ****     if (__HAL_PCD_GET_FLAG(hpcd, USB_OTG_GINTSTS_USBSUSP))
 1469              		.loc 1 1297 9
 1470 04d6 7B68     		ldr	r3, [r7, #4]
 1471 04d8 1B68     		ldr	r3, [r3]
 1472 04da 1846     		mov	r0, r3
 1473 04dc FFF7FEFF 		bl	USB_ReadInterrupts
 1474 04e0 0346     		mov	r3, r0
 1475 04e2 03F40063 		and	r3, r3, #2048
 1476              		.loc 1 1297 8
 1477 04e6 B3F5006F 		cmp	r3, #2048
 1478 04ea 12D1     		bne	.L59
1298:Drivers/STM32F4xx_HAL_Driver/Src/stm32f4xx_hal_pcd.c ****     {
1299:Drivers/STM32F4xx_HAL_Driver/Src/stm32f4xx_hal_pcd.c ****       if ((USBx_DEVICE->DSTS & USB_OTG_DSTS_SUSPSTS) == USB_OTG_DSTS_SUSPSTS)
 1479              		.loc 1 1299 12
 1480 04ec FB69     		ldr	r3, [r7, #28]
 1481 04ee 03F50063 		add	r3, r3, #2048
 1482              		.loc 1 1299 23
 1483 04f2 9B68     		ldr	r3, [r3, #8]
 1484              		.loc 1 1299 30
 1485 04f4 03F00103 		and	r3, r3, #1
 1486              		.loc 1 1299 10
 1487 04f8 012B     		cmp	r3, #1
 1488 04fa 02D1     		bne	.L60
1300:Drivers/STM32F4xx_HAL_Driver/Src/stm32f4xx_hal_pcd.c ****       {
1301:Drivers/STM32F4xx_HAL_Driver/Src/stm32f4xx_hal_pcd.c **** #if (USE_HAL_PCD_REGISTER_CALLBACKS == 1U)
1302:Drivers/STM32F4xx_HAL_Driver/Src/stm32f4xx_hal_pcd.c ****         hpcd->SuspendCallback(hpcd);
1303:Drivers/STM32F4xx_HAL_Driver/Src/stm32f4xx_hal_pcd.c **** #else
1304:Drivers/STM32F4xx_HAL_Driver/Src/stm32f4xx_hal_pcd.c ****         HAL_PCD_SuspendCallback(hpcd);
 1489              		.loc 1 1304 9
ARM GAS  /tmp/ccQdZtFR.s 			page 50


 1490 04fc 7868     		ldr	r0, [r7, #4]
 1491 04fe FFF7FEFF 		bl	HAL_PCD_SuspendCallback
 1492              	.L60:
1305:Drivers/STM32F4xx_HAL_Driver/Src/stm32f4xx_hal_pcd.c **** #endif /* USE_HAL_PCD_REGISTER_CALLBACKS */
1306:Drivers/STM32F4xx_HAL_Driver/Src/stm32f4xx_hal_pcd.c ****       }
1307:Drivers/STM32F4xx_HAL_Driver/Src/stm32f4xx_hal_pcd.c ****       __HAL_PCD_CLEAR_FLAG(hpcd, USB_OTG_GINTSTS_USBSUSP);
 1493              		.loc 1 1307 7
 1494 0502 7B68     		ldr	r3, [r7, #4]
 1495 0504 1B68     		ldr	r3, [r3]
 1496 0506 5A69     		ldr	r2, [r3, #20]
 1497 0508 7B68     		ldr	r3, [r7, #4]
 1498 050a 1B68     		ldr	r3, [r3]
 1499 050c 02F40062 		and	r2, r2, #2048
 1500 0510 5A61     		str	r2, [r3, #20]
 1501              	.L59:
1308:Drivers/STM32F4xx_HAL_Driver/Src/stm32f4xx_hal_pcd.c ****     }
1309:Drivers/STM32F4xx_HAL_Driver/Src/stm32f4xx_hal_pcd.c **** #if defined(STM32F446xx) || defined(STM32F469xx) || defined(STM32F479xx) || defined(STM32F412Zx) ||
1310:Drivers/STM32F4xx_HAL_Driver/Src/stm32f4xx_hal_pcd.c ****     /* Handle LPM Interrupt */
1311:Drivers/STM32F4xx_HAL_Driver/Src/stm32f4xx_hal_pcd.c ****     if (__HAL_PCD_GET_FLAG(hpcd, USB_OTG_GINTSTS_LPMINT))
 1502              		.loc 1 1311 9
 1503 0512 7B68     		ldr	r3, [r7, #4]
 1504 0514 1B68     		ldr	r3, [r3]
 1505 0516 1846     		mov	r0, r3
 1506 0518 FFF7FEFF 		bl	USB_ReadInterrupts
 1507 051c 0346     		mov	r3, r0
 1508 051e 03F00063 		and	r3, r3, #134217728
 1509              		.loc 1 1311 8
 1510 0522 B3F1006F 		cmp	r3, #134217728
 1511 0526 21D1     		bne	.L61
1312:Drivers/STM32F4xx_HAL_Driver/Src/stm32f4xx_hal_pcd.c ****     {
1313:Drivers/STM32F4xx_HAL_Driver/Src/stm32f4xx_hal_pcd.c ****       __HAL_PCD_CLEAR_FLAG(hpcd, USB_OTG_GINTSTS_LPMINT);
 1512              		.loc 1 1313 7
 1513 0528 7B68     		ldr	r3, [r7, #4]
 1514 052a 1B68     		ldr	r3, [r3]
 1515 052c 5A69     		ldr	r2, [r3, #20]
 1516 052e 7B68     		ldr	r3, [r7, #4]
 1517 0530 1B68     		ldr	r3, [r3]
 1518 0532 02F00062 		and	r2, r2, #134217728
 1519 0536 5A61     		str	r2, [r3, #20]
1314:Drivers/STM32F4xx_HAL_Driver/Src/stm32f4xx_hal_pcd.c **** 
1315:Drivers/STM32F4xx_HAL_Driver/Src/stm32f4xx_hal_pcd.c ****       if (hpcd->LPM_State == LPM_L0)
 1520              		.loc 1 1315 15
 1521 0538 7B68     		ldr	r3, [r7, #4]
 1522 053a 93F8F434 		ldrb	r3, [r3, #1268]	@ zero_extendqisi2
 1523              		.loc 1 1315 10
 1524 053e 002B     		cmp	r3, #0
 1525 0540 11D1     		bne	.L62
1316:Drivers/STM32F4xx_HAL_Driver/Src/stm32f4xx_hal_pcd.c ****       {
1317:Drivers/STM32F4xx_HAL_Driver/Src/stm32f4xx_hal_pcd.c ****         hpcd->LPM_State = LPM_L1;
 1526              		.loc 1 1317 25
 1527 0542 7B68     		ldr	r3, [r7, #4]
 1528 0544 0122     		movs	r2, #1
 1529 0546 83F8F424 		strb	r2, [r3, #1268]
1318:Drivers/STM32F4xx_HAL_Driver/Src/stm32f4xx_hal_pcd.c ****         hpcd->BESL = (hpcd->Instance->GLPMCFG & USB_OTG_GLPMCFG_BESL) >> 2U;
 1530              		.loc 1 1318 27
 1531 054a 7B68     		ldr	r3, [r7, #4]
 1532 054c 1B68     		ldr	r3, [r3]
ARM GAS  /tmp/ccQdZtFR.s 			page 51


 1533              		.loc 1 1318 37
 1534 054e 5B6D     		ldr	r3, [r3, #84]
 1535              		.loc 1 1318 71
 1536 0550 9B08     		lsrs	r3, r3, #2
 1537 0552 03F00F02 		and	r2, r3, #15
 1538              		.loc 1 1318 20
 1539 0556 7B68     		ldr	r3, [r7, #4]
 1540 0558 C3F8F824 		str	r2, [r3, #1272]
1319:Drivers/STM32F4xx_HAL_Driver/Src/stm32f4xx_hal_pcd.c **** 
1320:Drivers/STM32F4xx_HAL_Driver/Src/stm32f4xx_hal_pcd.c **** #if (USE_HAL_PCD_REGISTER_CALLBACKS == 1U)
1321:Drivers/STM32F4xx_HAL_Driver/Src/stm32f4xx_hal_pcd.c ****         hpcd->LPMCallback(hpcd, PCD_LPM_L1_ACTIVE);
1322:Drivers/STM32F4xx_HAL_Driver/Src/stm32f4xx_hal_pcd.c **** #else
1323:Drivers/STM32F4xx_HAL_Driver/Src/stm32f4xx_hal_pcd.c ****         HAL_PCDEx_LPM_Callback(hpcd, PCD_LPM_L1_ACTIVE);
 1541              		.loc 1 1323 9
 1542 055c 0121     		movs	r1, #1
 1543 055e 7868     		ldr	r0, [r7, #4]
 1544 0560 FFF7FEFF 		bl	HAL_PCDEx_LPM_Callback
 1545 0564 02E0     		b	.L61
 1546              	.L62:
1324:Drivers/STM32F4xx_HAL_Driver/Src/stm32f4xx_hal_pcd.c **** #endif /* USE_HAL_PCD_REGISTER_CALLBACKS */
1325:Drivers/STM32F4xx_HAL_Driver/Src/stm32f4xx_hal_pcd.c ****       }
1326:Drivers/STM32F4xx_HAL_Driver/Src/stm32f4xx_hal_pcd.c ****       else
1327:Drivers/STM32F4xx_HAL_Driver/Src/stm32f4xx_hal_pcd.c ****       {
1328:Drivers/STM32F4xx_HAL_Driver/Src/stm32f4xx_hal_pcd.c **** #if (USE_HAL_PCD_REGISTER_CALLBACKS == 1U)
1329:Drivers/STM32F4xx_HAL_Driver/Src/stm32f4xx_hal_pcd.c ****         hpcd->SuspendCallback(hpcd);
1330:Drivers/STM32F4xx_HAL_Driver/Src/stm32f4xx_hal_pcd.c **** #else
1331:Drivers/STM32F4xx_HAL_Driver/Src/stm32f4xx_hal_pcd.c ****         HAL_PCD_SuspendCallback(hpcd);
 1547              		.loc 1 1331 9
 1548 0566 7868     		ldr	r0, [r7, #4]
 1549 0568 FFF7FEFF 		bl	HAL_PCD_SuspendCallback
 1550              	.L61:
1332:Drivers/STM32F4xx_HAL_Driver/Src/stm32f4xx_hal_pcd.c **** #endif /* USE_HAL_PCD_REGISTER_CALLBACKS */
1333:Drivers/STM32F4xx_HAL_Driver/Src/stm32f4xx_hal_pcd.c ****       }
1334:Drivers/STM32F4xx_HAL_Driver/Src/stm32f4xx_hal_pcd.c ****     }
1335:Drivers/STM32F4xx_HAL_Driver/Src/stm32f4xx_hal_pcd.c **** #endif /* defined(STM32F446xx) || defined(STM32F469xx) || defined(STM32F479xx) || defined(STM32F412
1336:Drivers/STM32F4xx_HAL_Driver/Src/stm32f4xx_hal_pcd.c ****     /* Handle Reset Interrupt */
1337:Drivers/STM32F4xx_HAL_Driver/Src/stm32f4xx_hal_pcd.c ****     if (__HAL_PCD_GET_FLAG(hpcd, USB_OTG_GINTSTS_USBRST))
 1551              		.loc 1 1337 9
 1552 056c 7B68     		ldr	r3, [r7, #4]
 1553 056e 1B68     		ldr	r3, [r3]
 1554 0570 1846     		mov	r0, r3
 1555 0572 FFF7FEFF 		bl	USB_ReadInterrupts
 1556 0576 0346     		mov	r3, r0
 1557 0578 03F48053 		and	r3, r3, #4096
 1558              		.loc 1 1337 8
 1559 057c B3F5805F 		cmp	r3, #4096
 1560 0580 40F0B780 		bne	.L63
1338:Drivers/STM32F4xx_HAL_Driver/Src/stm32f4xx_hal_pcd.c ****     {
1339:Drivers/STM32F4xx_HAL_Driver/Src/stm32f4xx_hal_pcd.c ****       USBx_DEVICE->DCTL &= ~USB_OTG_DCTL_RWUSIG;
 1561              		.loc 1 1339 25
 1562 0584 FB69     		ldr	r3, [r7, #28]
 1563 0586 03F50063 		add	r3, r3, #2048
 1564 058a 5B68     		ldr	r3, [r3, #4]
 1565 058c FA69     		ldr	r2, [r7, #28]
 1566 058e 02F50062 		add	r2, r2, #2048
 1567 0592 23F00103 		bic	r3, r3, #1
 1568 0596 5360     		str	r3, [r2, #4]
ARM GAS  /tmp/ccQdZtFR.s 			page 52


1340:Drivers/STM32F4xx_HAL_Driver/Src/stm32f4xx_hal_pcd.c ****       (void)USB_FlushTxFifo(hpcd->Instance, 0x10U);
 1569              		.loc 1 1340 33
 1570 0598 7B68     		ldr	r3, [r7, #4]
 1571 059a 1B68     		ldr	r3, [r3]
 1572              		.loc 1 1340 13
 1573 059c 1021     		movs	r1, #16
 1574 059e 1846     		mov	r0, r3
 1575 05a0 FFF7FEFF 		bl	USB_FlushTxFifo
1341:Drivers/STM32F4xx_HAL_Driver/Src/stm32f4xx_hal_pcd.c **** 
1342:Drivers/STM32F4xx_HAL_Driver/Src/stm32f4xx_hal_pcd.c ****       for (i = 0U; i < hpcd->Init.dev_endpoints; i++)
 1576              		.loc 1 1342 14
 1577 05a4 0023     		movs	r3, #0
 1578 05a6 FB62     		str	r3, [r7, #44]
 1579              		.loc 1 1342 7
 1580 05a8 46E0     		b	.L64
 1581              	.L65:
1343:Drivers/STM32F4xx_HAL_Driver/Src/stm32f4xx_hal_pcd.c ****       {
1344:Drivers/STM32F4xx_HAL_Driver/Src/stm32f4xx_hal_pcd.c ****         USBx_INEP(i)->DIEPINT = 0xFB7FU;
 1582              		.loc 1 1344 9 discriminator 3
 1583 05aa FB6A     		ldr	r3, [r7, #44]
 1584 05ac 5A01     		lsls	r2, r3, #5
 1585 05ae FB69     		ldr	r3, [r7, #28]
 1586 05b0 1344     		add	r3, r3, r2
 1587 05b2 03F51063 		add	r3, r3, #2304
 1588 05b6 1A46     		mov	r2, r3
 1589              		.loc 1 1344 31 discriminator 3
 1590 05b8 4FF67F33 		movw	r3, #64383
 1591 05bc 9360     		str	r3, [r2, #8]
1345:Drivers/STM32F4xx_HAL_Driver/Src/stm32f4xx_hal_pcd.c ****         USBx_INEP(i)->DIEPCTL &= ~USB_OTG_DIEPCTL_STALL;
 1592              		.loc 1 1345 31 discriminator 3
 1593 05be FB6A     		ldr	r3, [r7, #44]
 1594 05c0 5A01     		lsls	r2, r3, #5
 1595 05c2 FB69     		ldr	r3, [r7, #28]
 1596 05c4 1344     		add	r3, r3, r2
 1597 05c6 03F51063 		add	r3, r3, #2304
 1598 05ca 1B68     		ldr	r3, [r3]
 1599 05cc FA6A     		ldr	r2, [r7, #44]
 1600 05ce 5101     		lsls	r1, r2, #5
 1601 05d0 FA69     		ldr	r2, [r7, #28]
 1602 05d2 0A44     		add	r2, r2, r1
 1603 05d4 02F51062 		add	r2, r2, #2304
 1604 05d8 23F40013 		bic	r3, r3, #2097152
 1605 05dc 1360     		str	r3, [r2]
1346:Drivers/STM32F4xx_HAL_Driver/Src/stm32f4xx_hal_pcd.c ****         USBx_OUTEP(i)->DOEPINT = 0xFB7FU;
 1606              		.loc 1 1346 9 discriminator 3
 1607 05de FB6A     		ldr	r3, [r7, #44]
 1608 05e0 5A01     		lsls	r2, r3, #5
 1609 05e2 FB69     		ldr	r3, [r7, #28]
 1610 05e4 1344     		add	r3, r3, r2
 1611 05e6 03F53063 		add	r3, r3, #2816
 1612 05ea 1A46     		mov	r2, r3
 1613              		.loc 1 1346 32 discriminator 3
 1614 05ec 4FF67F33 		movw	r3, #64383
 1615 05f0 9360     		str	r3, [r2, #8]
1347:Drivers/STM32F4xx_HAL_Driver/Src/stm32f4xx_hal_pcd.c ****         USBx_OUTEP(i)->DOEPCTL &= ~USB_OTG_DOEPCTL_STALL;
 1616              		.loc 1 1347 32 discriminator 3
 1617 05f2 FB6A     		ldr	r3, [r7, #44]
ARM GAS  /tmp/ccQdZtFR.s 			page 53


 1618 05f4 5A01     		lsls	r2, r3, #5
 1619 05f6 FB69     		ldr	r3, [r7, #28]
 1620 05f8 1344     		add	r3, r3, r2
 1621 05fa 03F53063 		add	r3, r3, #2816
 1622 05fe 1B68     		ldr	r3, [r3]
 1623 0600 FA6A     		ldr	r2, [r7, #44]
 1624 0602 5101     		lsls	r1, r2, #5
 1625 0604 FA69     		ldr	r2, [r7, #28]
 1626 0606 0A44     		add	r2, r2, r1
 1627 0608 02F53062 		add	r2, r2, #2816
 1628 060c 23F40013 		bic	r3, r3, #2097152
 1629 0610 1360     		str	r3, [r2]
1348:Drivers/STM32F4xx_HAL_Driver/Src/stm32f4xx_hal_pcd.c ****         USBx_OUTEP(i)->DOEPCTL |= USB_OTG_DOEPCTL_SNAK;
 1630              		.loc 1 1348 32 discriminator 3
 1631 0612 FB6A     		ldr	r3, [r7, #44]
 1632 0614 5A01     		lsls	r2, r3, #5
 1633 0616 FB69     		ldr	r3, [r7, #28]
 1634 0618 1344     		add	r3, r3, r2
 1635 061a 03F53063 		add	r3, r3, #2816
 1636 061e 1B68     		ldr	r3, [r3]
 1637 0620 FA6A     		ldr	r2, [r7, #44]
 1638 0622 5101     		lsls	r1, r2, #5
 1639 0624 FA69     		ldr	r2, [r7, #28]
 1640 0626 0A44     		add	r2, r2, r1
 1641 0628 02F53062 		add	r2, r2, #2816
 1642 062c 43F00063 		orr	r3, r3, #134217728
 1643 0630 1360     		str	r3, [r2]
1342:Drivers/STM32F4xx_HAL_Driver/Src/stm32f4xx_hal_pcd.c ****       {
 1644              		.loc 1 1342 51 discriminator 3
 1645 0632 FB6A     		ldr	r3, [r7, #44]
 1646 0634 0133     		adds	r3, r3, #1
 1647 0636 FB62     		str	r3, [r7, #44]
 1648              	.L64:
1342:Drivers/STM32F4xx_HAL_Driver/Src/stm32f4xx_hal_pcd.c ****       {
 1649              		.loc 1 1342 34 discriminator 1
 1650 0638 7B68     		ldr	r3, [r7, #4]
 1651 063a 5B68     		ldr	r3, [r3, #4]
1342:Drivers/STM32F4xx_HAL_Driver/Src/stm32f4xx_hal_pcd.c ****       {
 1652              		.loc 1 1342 7 discriminator 1
 1653 063c FA6A     		ldr	r2, [r7, #44]
 1654 063e 9A42     		cmp	r2, r3
 1655 0640 B3D3     		bcc	.L65
1349:Drivers/STM32F4xx_HAL_Driver/Src/stm32f4xx_hal_pcd.c ****       }
1350:Drivers/STM32F4xx_HAL_Driver/Src/stm32f4xx_hal_pcd.c ****       USBx_DEVICE->DAINTMSK |= 0x10001U;
 1656              		.loc 1 1350 29
 1657 0642 FB69     		ldr	r3, [r7, #28]
 1658 0644 03F50063 		add	r3, r3, #2048
 1659 0648 DB69     		ldr	r3, [r3, #28]
 1660 064a FA69     		ldr	r2, [r7, #28]
 1661 064c 02F50062 		add	r2, r2, #2048
 1662 0650 43F00113 		orr	r3, r3, #65537
 1663 0654 D361     		str	r3, [r2, #28]
1351:Drivers/STM32F4xx_HAL_Driver/Src/stm32f4xx_hal_pcd.c **** 
1352:Drivers/STM32F4xx_HAL_Driver/Src/stm32f4xx_hal_pcd.c ****       if (hpcd->Init.use_dedicated_ep1 != 0U)
 1664              		.loc 1 1352 21
 1665 0656 7B68     		ldr	r3, [r7, #4]
 1666 0658 1B6B     		ldr	r3, [r3, #48]
ARM GAS  /tmp/ccQdZtFR.s 			page 54


 1667              		.loc 1 1352 10
 1668 065a 002B     		cmp	r3, #0
 1669 065c 16D0     		beq	.L66
1353:Drivers/STM32F4xx_HAL_Driver/Src/stm32f4xx_hal_pcd.c ****       {
1354:Drivers/STM32F4xx_HAL_Driver/Src/stm32f4xx_hal_pcd.c ****         USBx_DEVICE->DOUTEP1MSK |= USB_OTG_DOEPMSK_STUPM |
 1670              		.loc 1 1354 33
 1671 065e FB69     		ldr	r3, [r7, #28]
 1672 0660 03F50063 		add	r3, r3, #2048
 1673 0664 D3F88430 		ldr	r3, [r3, #132]
 1674 0668 FA69     		ldr	r2, [r7, #28]
 1675 066a 02F50062 		add	r2, r2, #2048
 1676 066e 43F00B03 		orr	r3, r3, #11
 1677 0672 C2F88430 		str	r3, [r2, #132]
1355:Drivers/STM32F4xx_HAL_Driver/Src/stm32f4xx_hal_pcd.c ****                                    USB_OTG_DOEPMSK_XFRCM |
1356:Drivers/STM32F4xx_HAL_Driver/Src/stm32f4xx_hal_pcd.c ****                                    USB_OTG_DOEPMSK_EPDM;
1357:Drivers/STM32F4xx_HAL_Driver/Src/stm32f4xx_hal_pcd.c **** 
1358:Drivers/STM32F4xx_HAL_Driver/Src/stm32f4xx_hal_pcd.c ****         USBx_DEVICE->DINEP1MSK |= USB_OTG_DIEPMSK_TOM |
 1678              		.loc 1 1358 32
 1679 0676 FB69     		ldr	r3, [r7, #28]
 1680 0678 03F50063 		add	r3, r3, #2048
 1681 067c 5B6C     		ldr	r3, [r3, #68]
 1682 067e FA69     		ldr	r2, [r7, #28]
 1683 0680 02F50062 		add	r2, r2, #2048
 1684 0684 43F00B03 		orr	r3, r3, #11
 1685 0688 5364     		str	r3, [r2, #68]
 1686 068a 15E0     		b	.L67
 1687              	.L66:
1359:Drivers/STM32F4xx_HAL_Driver/Src/stm32f4xx_hal_pcd.c ****                                   USB_OTG_DIEPMSK_XFRCM |
1360:Drivers/STM32F4xx_HAL_Driver/Src/stm32f4xx_hal_pcd.c ****                                   USB_OTG_DIEPMSK_EPDM;
1361:Drivers/STM32F4xx_HAL_Driver/Src/stm32f4xx_hal_pcd.c ****       }
1362:Drivers/STM32F4xx_HAL_Driver/Src/stm32f4xx_hal_pcd.c ****       else
1363:Drivers/STM32F4xx_HAL_Driver/Src/stm32f4xx_hal_pcd.c ****       {
1364:Drivers/STM32F4xx_HAL_Driver/Src/stm32f4xx_hal_pcd.c ****         USBx_DEVICE->DOEPMSK |= USB_OTG_DOEPMSK_STUPM |
 1688              		.loc 1 1364 30
 1689 068c FB69     		ldr	r3, [r7, #28]
 1690 068e 03F50063 		add	r3, r3, #2048
 1691 0692 5B69     		ldr	r3, [r3, #20]
 1692 0694 FA69     		ldr	r2, [r7, #28]
 1693 0696 02F50062 		add	r2, r2, #2048
 1694 069a 43F40053 		orr	r3, r3, #8192
 1695 069e 43F02B03 		orr	r3, r3, #43
 1696 06a2 5361     		str	r3, [r2, #20]
1365:Drivers/STM32F4xx_HAL_Driver/Src/stm32f4xx_hal_pcd.c ****                                 USB_OTG_DOEPMSK_XFRCM |
1366:Drivers/STM32F4xx_HAL_Driver/Src/stm32f4xx_hal_pcd.c ****                                 USB_OTG_DOEPMSK_EPDM |
1367:Drivers/STM32F4xx_HAL_Driver/Src/stm32f4xx_hal_pcd.c ****                                 USB_OTG_DOEPMSK_OTEPSPRM |
1368:Drivers/STM32F4xx_HAL_Driver/Src/stm32f4xx_hal_pcd.c ****                                 USB_OTG_DOEPMSK_NAKM;
1369:Drivers/STM32F4xx_HAL_Driver/Src/stm32f4xx_hal_pcd.c **** 
1370:Drivers/STM32F4xx_HAL_Driver/Src/stm32f4xx_hal_pcd.c ****         USBx_DEVICE->DIEPMSK |= USB_OTG_DIEPMSK_TOM |
 1697              		.loc 1 1370 30
 1698 06a4 FB69     		ldr	r3, [r7, #28]
 1699 06a6 03F50063 		add	r3, r3, #2048
 1700 06aa 1B69     		ldr	r3, [r3, #16]
 1701 06ac FA69     		ldr	r2, [r7, #28]
 1702 06ae 02F50062 		add	r2, r2, #2048
 1703 06b2 43F00B03 		orr	r3, r3, #11
 1704 06b6 1361     		str	r3, [r2, #16]
 1705              	.L67:
ARM GAS  /tmp/ccQdZtFR.s 			page 55


1371:Drivers/STM32F4xx_HAL_Driver/Src/stm32f4xx_hal_pcd.c ****                                 USB_OTG_DIEPMSK_XFRCM |
1372:Drivers/STM32F4xx_HAL_Driver/Src/stm32f4xx_hal_pcd.c ****                                 USB_OTG_DIEPMSK_EPDM;
1373:Drivers/STM32F4xx_HAL_Driver/Src/stm32f4xx_hal_pcd.c ****       }
1374:Drivers/STM32F4xx_HAL_Driver/Src/stm32f4xx_hal_pcd.c **** 
1375:Drivers/STM32F4xx_HAL_Driver/Src/stm32f4xx_hal_pcd.c ****       /* Set Default Address to 0 */
1376:Drivers/STM32F4xx_HAL_Driver/Src/stm32f4xx_hal_pcd.c ****       USBx_DEVICE->DCFG &= ~USB_OTG_DCFG_DAD;
 1706              		.loc 1 1376 25
 1707 06b8 FB69     		ldr	r3, [r7, #28]
 1708 06ba 03F50063 		add	r3, r3, #2048
 1709 06be 1B68     		ldr	r3, [r3]
 1710 06c0 FA69     		ldr	r2, [r7, #28]
 1711 06c2 02F50062 		add	r2, r2, #2048
 1712 06c6 23F4FE63 		bic	r3, r3, #2032
 1713 06ca 1360     		str	r3, [r2]
1377:Drivers/STM32F4xx_HAL_Driver/Src/stm32f4xx_hal_pcd.c **** 
1378:Drivers/STM32F4xx_HAL_Driver/Src/stm32f4xx_hal_pcd.c ****       /* setup EP0 to receive SETUP packets */
1379:Drivers/STM32F4xx_HAL_Driver/Src/stm32f4xx_hal_pcd.c ****       (void)USB_EP0_OutStart(hpcd->Instance, (uint8_t)hpcd->Init.dma_enable,
 1714              		.loc 1 1379 34
 1715 06cc 7B68     		ldr	r3, [r7, #4]
 1716 06ce 1868     		ldr	r0, [r3]
 1717              		.loc 1 1379 65
 1718 06d0 7B68     		ldr	r3, [r7, #4]
 1719 06d2 1B69     		ldr	r3, [r3, #16]
 1720              		.loc 1 1379 13
 1721 06d4 D9B2     		uxtb	r1, r3
1380:Drivers/STM32F4xx_HAL_Driver/Src/stm32f4xx_hal_pcd.c ****                              (uint8_t *)hpcd->Setup);
 1722              		.loc 1 1380 41
 1723 06d6 7B68     		ldr	r3, [r7, #4]
 1724 06d8 03F2C443 		addw	r3, r3, #1220
1379:Drivers/STM32F4xx_HAL_Driver/Src/stm32f4xx_hal_pcd.c ****                              (uint8_t *)hpcd->Setup);
 1725              		.loc 1 1379 13
 1726 06dc 1A46     		mov	r2, r3
 1727 06de FFF7FEFF 		bl	USB_EP0_OutStart
1381:Drivers/STM32F4xx_HAL_Driver/Src/stm32f4xx_hal_pcd.c **** 
1382:Drivers/STM32F4xx_HAL_Driver/Src/stm32f4xx_hal_pcd.c ****       __HAL_PCD_CLEAR_FLAG(hpcd, USB_OTG_GINTSTS_USBRST);
 1728              		.loc 1 1382 7
 1729 06e2 7B68     		ldr	r3, [r7, #4]
 1730 06e4 1B68     		ldr	r3, [r3]
 1731 06e6 5A69     		ldr	r2, [r3, #20]
 1732 06e8 7B68     		ldr	r3, [r7, #4]
 1733 06ea 1B68     		ldr	r3, [r3]
 1734 06ec 02F48052 		and	r2, r2, #4096
 1735 06f0 5A61     		str	r2, [r3, #20]
 1736              	.L63:
1383:Drivers/STM32F4xx_HAL_Driver/Src/stm32f4xx_hal_pcd.c ****     }
1384:Drivers/STM32F4xx_HAL_Driver/Src/stm32f4xx_hal_pcd.c **** 
1385:Drivers/STM32F4xx_HAL_Driver/Src/stm32f4xx_hal_pcd.c ****     /* Handle Enumeration done Interrupt */
1386:Drivers/STM32F4xx_HAL_Driver/Src/stm32f4xx_hal_pcd.c ****     if (__HAL_PCD_GET_FLAG(hpcd, USB_OTG_GINTSTS_ENUMDNE))
 1737              		.loc 1 1386 9
 1738 06f2 7B68     		ldr	r3, [r7, #4]
 1739 06f4 1B68     		ldr	r3, [r3]
 1740 06f6 1846     		mov	r0, r3
 1741 06f8 FFF7FEFF 		bl	USB_ReadInterrupts
 1742 06fc 0346     		mov	r3, r0
 1743 06fe 03F40053 		and	r3, r3, #8192
 1744              		.loc 1 1386 8
 1745 0702 B3F5005F 		cmp	r3, #8192
ARM GAS  /tmp/ccQdZtFR.s 			page 56


 1746 0706 24D1     		bne	.L68
1387:Drivers/STM32F4xx_HAL_Driver/Src/stm32f4xx_hal_pcd.c ****     {
1388:Drivers/STM32F4xx_HAL_Driver/Src/stm32f4xx_hal_pcd.c ****       (void)USB_ActivateSetup(hpcd->Instance);
 1747              		.loc 1 1388 35
 1748 0708 7B68     		ldr	r3, [r7, #4]
 1749 070a 1B68     		ldr	r3, [r3]
 1750              		.loc 1 1388 13
 1751 070c 1846     		mov	r0, r3
 1752 070e FFF7FEFF 		bl	USB_ActivateSetup
1389:Drivers/STM32F4xx_HAL_Driver/Src/stm32f4xx_hal_pcd.c ****       hpcd->Init.speed = USB_GetDevSpeed(hpcd->Instance);
 1753              		.loc 1 1389 46
 1754 0712 7B68     		ldr	r3, [r7, #4]
 1755 0714 1B68     		ldr	r3, [r3]
 1756              		.loc 1 1389 26
 1757 0716 1846     		mov	r0, r3
 1758 0718 FFF7FEFF 		bl	USB_GetDevSpeed
 1759 071c 0346     		mov	r3, r0
 1760 071e 1A46     		mov	r2, r3
 1761              		.loc 1 1389 24
 1762 0720 7B68     		ldr	r3, [r7, #4]
 1763 0722 DA60     		str	r2, [r3, #12]
1390:Drivers/STM32F4xx_HAL_Driver/Src/stm32f4xx_hal_pcd.c **** 
1391:Drivers/STM32F4xx_HAL_Driver/Src/stm32f4xx_hal_pcd.c ****       /* Set USB Turnaround time */
1392:Drivers/STM32F4xx_HAL_Driver/Src/stm32f4xx_hal_pcd.c ****       (void)USB_SetTurnaroundTime(hpcd->Instance,
 1764              		.loc 1 1392 39
 1765 0724 7B68     		ldr	r3, [r7, #4]
 1766 0726 1C68     		ldr	r4, [r3]
 1767              		.loc 1 1392 13
 1768 0728 FFF7FEFF 		bl	HAL_RCC_GetHCLKFreq
 1769 072c 0146     		mov	r1, r0
1393:Drivers/STM32F4xx_HAL_Driver/Src/stm32f4xx_hal_pcd.c ****                                   HAL_RCC_GetHCLKFreq(),
1394:Drivers/STM32F4xx_HAL_Driver/Src/stm32f4xx_hal_pcd.c ****                                   (uint8_t)hpcd->Init.speed);
 1770              		.loc 1 1394 54
 1771 072e 7B68     		ldr	r3, [r7, #4]
 1772 0730 DB68     		ldr	r3, [r3, #12]
1392:Drivers/STM32F4xx_HAL_Driver/Src/stm32f4xx_hal_pcd.c ****                                   HAL_RCC_GetHCLKFreq(),
 1773              		.loc 1 1392 13
 1774 0732 DBB2     		uxtb	r3, r3
 1775 0734 1A46     		mov	r2, r3
 1776 0736 2046     		mov	r0, r4
 1777 0738 FFF7FEFF 		bl	USB_SetTurnaroundTime
1395:Drivers/STM32F4xx_HAL_Driver/Src/stm32f4xx_hal_pcd.c **** 
1396:Drivers/STM32F4xx_HAL_Driver/Src/stm32f4xx_hal_pcd.c **** #if (USE_HAL_PCD_REGISTER_CALLBACKS == 1U)
1397:Drivers/STM32F4xx_HAL_Driver/Src/stm32f4xx_hal_pcd.c ****       hpcd->ResetCallback(hpcd);
1398:Drivers/STM32F4xx_HAL_Driver/Src/stm32f4xx_hal_pcd.c **** #else
1399:Drivers/STM32F4xx_HAL_Driver/Src/stm32f4xx_hal_pcd.c ****       HAL_PCD_ResetCallback(hpcd);
 1778              		.loc 1 1399 7
 1779 073c 7868     		ldr	r0, [r7, #4]
 1780 073e FFF7FEFF 		bl	HAL_PCD_ResetCallback
1400:Drivers/STM32F4xx_HAL_Driver/Src/stm32f4xx_hal_pcd.c **** #endif /* USE_HAL_PCD_REGISTER_CALLBACKS */
1401:Drivers/STM32F4xx_HAL_Driver/Src/stm32f4xx_hal_pcd.c **** 
1402:Drivers/STM32F4xx_HAL_Driver/Src/stm32f4xx_hal_pcd.c ****       __HAL_PCD_CLEAR_FLAG(hpcd, USB_OTG_GINTSTS_ENUMDNE);
 1781              		.loc 1 1402 7
 1782 0742 7B68     		ldr	r3, [r7, #4]
 1783 0744 1B68     		ldr	r3, [r3]
 1784 0746 5A69     		ldr	r2, [r3, #20]
 1785 0748 7B68     		ldr	r3, [r7, #4]
ARM GAS  /tmp/ccQdZtFR.s 			page 57


 1786 074a 1B68     		ldr	r3, [r3]
 1787 074c 02F40052 		and	r2, r2, #8192
 1788 0750 5A61     		str	r2, [r3, #20]
 1789              	.L68:
1403:Drivers/STM32F4xx_HAL_Driver/Src/stm32f4xx_hal_pcd.c ****     }
1404:Drivers/STM32F4xx_HAL_Driver/Src/stm32f4xx_hal_pcd.c **** 
1405:Drivers/STM32F4xx_HAL_Driver/Src/stm32f4xx_hal_pcd.c ****     /* Handle SOF Interrupt */
1406:Drivers/STM32F4xx_HAL_Driver/Src/stm32f4xx_hal_pcd.c ****     if (__HAL_PCD_GET_FLAG(hpcd, USB_OTG_GINTSTS_SOF))
 1790              		.loc 1 1406 9
 1791 0752 7B68     		ldr	r3, [r7, #4]
 1792 0754 1B68     		ldr	r3, [r3]
 1793 0756 1846     		mov	r0, r3
 1794 0758 FFF7FEFF 		bl	USB_ReadInterrupts
 1795 075c 0346     		mov	r3, r0
 1796 075e 03F00803 		and	r3, r3, #8
 1797              		.loc 1 1406 8
 1798 0762 082B     		cmp	r3, #8
 1799 0764 0AD1     		bne	.L69
1407:Drivers/STM32F4xx_HAL_Driver/Src/stm32f4xx_hal_pcd.c ****     {
1408:Drivers/STM32F4xx_HAL_Driver/Src/stm32f4xx_hal_pcd.c **** #if (USE_HAL_PCD_REGISTER_CALLBACKS == 1U)
1409:Drivers/STM32F4xx_HAL_Driver/Src/stm32f4xx_hal_pcd.c ****       hpcd->SOFCallback(hpcd);
1410:Drivers/STM32F4xx_HAL_Driver/Src/stm32f4xx_hal_pcd.c **** #else
1411:Drivers/STM32F4xx_HAL_Driver/Src/stm32f4xx_hal_pcd.c ****       HAL_PCD_SOFCallback(hpcd);
 1800              		.loc 1 1411 7
 1801 0766 7868     		ldr	r0, [r7, #4]
 1802 0768 FFF7FEFF 		bl	HAL_PCD_SOFCallback
1412:Drivers/STM32F4xx_HAL_Driver/Src/stm32f4xx_hal_pcd.c **** #endif /* USE_HAL_PCD_REGISTER_CALLBACKS */
1413:Drivers/STM32F4xx_HAL_Driver/Src/stm32f4xx_hal_pcd.c **** 
1414:Drivers/STM32F4xx_HAL_Driver/Src/stm32f4xx_hal_pcd.c ****       __HAL_PCD_CLEAR_FLAG(hpcd, USB_OTG_GINTSTS_SOF);
 1803              		.loc 1 1414 7
 1804 076c 7B68     		ldr	r3, [r7, #4]
 1805 076e 1B68     		ldr	r3, [r3]
 1806 0770 5A69     		ldr	r2, [r3, #20]
 1807 0772 7B68     		ldr	r3, [r7, #4]
 1808 0774 1B68     		ldr	r3, [r3]
 1809 0776 02F00802 		and	r2, r2, #8
 1810 077a 5A61     		str	r2, [r3, #20]
 1811              	.L69:
1415:Drivers/STM32F4xx_HAL_Driver/Src/stm32f4xx_hal_pcd.c ****     }
1416:Drivers/STM32F4xx_HAL_Driver/Src/stm32f4xx_hal_pcd.c **** 
1417:Drivers/STM32F4xx_HAL_Driver/Src/stm32f4xx_hal_pcd.c ****     /* Handle Global OUT NAK effective Interrupt */
1418:Drivers/STM32F4xx_HAL_Driver/Src/stm32f4xx_hal_pcd.c ****     if (__HAL_PCD_GET_FLAG(hpcd, USB_OTG_GINTSTS_BOUTNAKEFF))
 1812              		.loc 1 1418 9
 1813 077c 7B68     		ldr	r3, [r7, #4]
 1814 077e 1B68     		ldr	r3, [r3]
 1815 0780 1846     		mov	r0, r3
 1816 0782 FFF7FEFF 		bl	USB_ReadInterrupts
 1817 0786 0346     		mov	r3, r0
 1818 0788 03F08003 		and	r3, r3, #128
 1819              		.loc 1 1418 8
 1820 078c 802B     		cmp	r3, #128
 1821 078e 22D1     		bne	.L70
1419:Drivers/STM32F4xx_HAL_Driver/Src/stm32f4xx_hal_pcd.c ****     {
1420:Drivers/STM32F4xx_HAL_Driver/Src/stm32f4xx_hal_pcd.c ****       USBx->GINTMSK &= ~USB_OTG_GINTMSK_GONAKEFFM;
 1822              		.loc 1 1420 21
 1823 0790 3B6A     		ldr	r3, [r7, #32]
 1824 0792 9B69     		ldr	r3, [r3, #24]
ARM GAS  /tmp/ccQdZtFR.s 			page 58


 1825 0794 23F08002 		bic	r2, r3, #128
 1826 0798 3B6A     		ldr	r3, [r7, #32]
 1827 079a 9A61     		str	r2, [r3, #24]
1421:Drivers/STM32F4xx_HAL_Driver/Src/stm32f4xx_hal_pcd.c **** 
1422:Drivers/STM32F4xx_HAL_Driver/Src/stm32f4xx_hal_pcd.c ****       for (epnum = 1U; epnum < hpcd->Init.dev_endpoints; epnum++)
 1828              		.loc 1 1422 18
 1829 079c 0123     		movs	r3, #1
 1830 079e 7B62     		str	r3, [r7, #36]
 1831              		.loc 1 1422 7
 1832 07a0 14E0     		b	.L71
 1833              	.L73:
1423:Drivers/STM32F4xx_HAL_Driver/Src/stm32f4xx_hal_pcd.c ****       {
1424:Drivers/STM32F4xx_HAL_Driver/Src/stm32f4xx_hal_pcd.c ****         if (hpcd->OUT_ep[epnum].is_iso_incomplete == 1U)
 1834              		.loc 1 1424 32
 1835 07a2 7968     		ldr	r1, [r7, #4]
 1836 07a4 7A6A     		ldr	r2, [r7, #36]
 1837 07a6 1346     		mov	r3, r2
 1838 07a8 DB00     		lsls	r3, r3, #3
 1839 07aa 1344     		add	r3, r3, r2
 1840 07ac 9B00     		lsls	r3, r3, #2
 1841 07ae 0B44     		add	r3, r3, r1
 1842 07b0 03F27F23 		addw	r3, r3, #639
 1843 07b4 1B78     		ldrb	r3, [r3]	@ zero_extendqisi2
 1844              		.loc 1 1424 12
 1845 07b6 012B     		cmp	r3, #1
 1846 07b8 05D1     		bne	.L72
1425:Drivers/STM32F4xx_HAL_Driver/Src/stm32f4xx_hal_pcd.c ****         {
1426:Drivers/STM32F4xx_HAL_Driver/Src/stm32f4xx_hal_pcd.c ****           /* Abort current transaction and disable the EP */
1427:Drivers/STM32F4xx_HAL_Driver/Src/stm32f4xx_hal_pcd.c ****           (void)HAL_PCD_EP_Abort(hpcd, (uint8_t)epnum);
 1847              		.loc 1 1427 17
 1848 07ba 7B6A     		ldr	r3, [r7, #36]
 1849 07bc DBB2     		uxtb	r3, r3
 1850 07be 1946     		mov	r1, r3
 1851 07c0 7868     		ldr	r0, [r7, #4]
 1852 07c2 FFF7FEFF 		bl	HAL_PCD_EP_Abort
 1853              	.L72:
1422:Drivers/STM32F4xx_HAL_Driver/Src/stm32f4xx_hal_pcd.c ****       {
 1854              		.loc 1 1422 63 discriminator 2
 1855 07c6 7B6A     		ldr	r3, [r7, #36]
 1856 07c8 0133     		adds	r3, r3, #1
 1857 07ca 7B62     		str	r3, [r7, #36]
 1858              	.L71:
1422:Drivers/STM32F4xx_HAL_Driver/Src/stm32f4xx_hal_pcd.c ****       {
 1859              		.loc 1 1422 42 discriminator 1
 1860 07cc 7B68     		ldr	r3, [r7, #4]
 1861 07ce 5B68     		ldr	r3, [r3, #4]
1422:Drivers/STM32F4xx_HAL_Driver/Src/stm32f4xx_hal_pcd.c ****       {
 1862              		.loc 1 1422 7 discriminator 1
 1863 07d0 7A6A     		ldr	r2, [r7, #36]
 1864 07d2 9A42     		cmp	r2, r3
 1865 07d4 E5D3     		bcc	.L73
 1866              	.L70:
1428:Drivers/STM32F4xx_HAL_Driver/Src/stm32f4xx_hal_pcd.c ****         }
1429:Drivers/STM32F4xx_HAL_Driver/Src/stm32f4xx_hal_pcd.c ****       }
1430:Drivers/STM32F4xx_HAL_Driver/Src/stm32f4xx_hal_pcd.c ****     }
1431:Drivers/STM32F4xx_HAL_Driver/Src/stm32f4xx_hal_pcd.c **** 
1432:Drivers/STM32F4xx_HAL_Driver/Src/stm32f4xx_hal_pcd.c ****     /* Handle Incomplete ISO IN Interrupt */
ARM GAS  /tmp/ccQdZtFR.s 			page 59


1433:Drivers/STM32F4xx_HAL_Driver/Src/stm32f4xx_hal_pcd.c ****     if (__HAL_PCD_GET_FLAG(hpcd, USB_OTG_GINTSTS_IISOIXFR))
 1867              		.loc 1 1433 9
 1868 07d6 7B68     		ldr	r3, [r7, #4]
 1869 07d8 1B68     		ldr	r3, [r3]
 1870 07da 1846     		mov	r0, r3
 1871 07dc FFF7FEFF 		bl	USB_ReadInterrupts
 1872 07e0 0346     		mov	r3, r0
 1873 07e2 03F48013 		and	r3, r3, #1048576
 1874              		.loc 1 1433 8
 1875 07e6 B3F5801F 		cmp	r3, #1048576
 1876 07ea 3BD1     		bne	.L74
1434:Drivers/STM32F4xx_HAL_Driver/Src/stm32f4xx_hal_pcd.c ****     {
1435:Drivers/STM32F4xx_HAL_Driver/Src/stm32f4xx_hal_pcd.c ****       for (epnum = 1U; epnum < hpcd->Init.dev_endpoints; epnum++)
 1877              		.loc 1 1435 18
 1878 07ec 0123     		movs	r3, #1
 1879 07ee 7B62     		str	r3, [r7, #36]
 1880              		.loc 1 1435 7
 1881 07f0 2BE0     		b	.L75
 1882              	.L77:
1436:Drivers/STM32F4xx_HAL_Driver/Src/stm32f4xx_hal_pcd.c ****       {
1437:Drivers/STM32F4xx_HAL_Driver/Src/stm32f4xx_hal_pcd.c ****         RegVal = USBx_INEP(epnum)->DIEPCTL;
 1883              		.loc 1 1437 18
 1884 07f2 7B6A     		ldr	r3, [r7, #36]
 1885 07f4 5A01     		lsls	r2, r3, #5
 1886 07f6 FB69     		ldr	r3, [r7, #28]
 1887 07f8 1344     		add	r3, r3, r2
 1888 07fa 03F51063 		add	r3, r3, #2304
 1889              		.loc 1 1437 16
 1890 07fe 1B68     		ldr	r3, [r3]
 1891 0800 BB61     		str	r3, [r7, #24]
1438:Drivers/STM32F4xx_HAL_Driver/Src/stm32f4xx_hal_pcd.c **** 
1439:Drivers/STM32F4xx_HAL_Driver/Src/stm32f4xx_hal_pcd.c ****         if ((hpcd->IN_ep[epnum].type == EP_TYPE_ISOC) &&
 1892              		.loc 1 1439 32
 1893 0802 7968     		ldr	r1, [r7, #4]
 1894 0804 7A6A     		ldr	r2, [r7, #36]
 1895 0806 1346     		mov	r3, r2
 1896 0808 DB00     		lsls	r3, r3, #3
 1897 080a 1344     		add	r3, r3, r2
 1898 080c 9B00     		lsls	r3, r3, #2
 1899 080e 0B44     		add	r3, r3, r1
 1900 0810 4033     		adds	r3, r3, #64
 1901 0812 1B78     		ldrb	r3, [r3]	@ zero_extendqisi2
 1902              		.loc 1 1439 12
 1903 0814 012B     		cmp	r3, #1
 1904 0816 15D1     		bne	.L76
1440:Drivers/STM32F4xx_HAL_Driver/Src/stm32f4xx_hal_pcd.c ****             ((RegVal & USB_OTG_DIEPCTL_EPENA) == USB_OTG_DIEPCTL_EPENA))
 1905              		.loc 1 1440 47 discriminator 1
 1906 0818 BB69     		ldr	r3, [r7, #24]
1439:Drivers/STM32F4xx_HAL_Driver/Src/stm32f4xx_hal_pcd.c ****             ((RegVal & USB_OTG_DIEPCTL_EPENA) == USB_OTG_DIEPCTL_EPENA))
 1907              		.loc 1 1439 55 discriminator 1
 1908 081a 002B     		cmp	r3, #0
 1909 081c 12DA     		bge	.L76
1441:Drivers/STM32F4xx_HAL_Driver/Src/stm32f4xx_hal_pcd.c ****         {
1442:Drivers/STM32F4xx_HAL_Driver/Src/stm32f4xx_hal_pcd.c ****           hpcd->IN_ep[epnum].is_iso_incomplete = 1U;
 1910              		.loc 1 1442 48
 1911 081e 7968     		ldr	r1, [r7, #4]
 1912 0820 7A6A     		ldr	r2, [r7, #36]
ARM GAS  /tmp/ccQdZtFR.s 			page 60


 1913 0822 1346     		mov	r3, r2
 1914 0824 DB00     		lsls	r3, r3, #3
 1915 0826 1344     		add	r3, r3, r2
 1916 0828 9B00     		lsls	r3, r3, #2
 1917 082a 0B44     		add	r3, r3, r1
 1918 082c 3F33     		adds	r3, r3, #63
 1919 082e 0122     		movs	r2, #1
 1920 0830 1A70     		strb	r2, [r3]
1443:Drivers/STM32F4xx_HAL_Driver/Src/stm32f4xx_hal_pcd.c **** 
1444:Drivers/STM32F4xx_HAL_Driver/Src/stm32f4xx_hal_pcd.c ****           /* Abort current transaction and disable the EP */
1445:Drivers/STM32F4xx_HAL_Driver/Src/stm32f4xx_hal_pcd.c ****           (void)HAL_PCD_EP_Abort(hpcd, (uint8_t)(epnum | 0x80U));
 1921              		.loc 1 1445 17
 1922 0832 7B6A     		ldr	r3, [r7, #36]
 1923 0834 DBB2     		uxtb	r3, r3
 1924 0836 63F07F03 		orn	r3, r3, #127
 1925 083a DBB2     		uxtb	r3, r3
 1926 083c 1946     		mov	r1, r3
 1927 083e 7868     		ldr	r0, [r7, #4]
 1928 0840 FFF7FEFF 		bl	HAL_PCD_EP_Abort
 1929              	.L76:
1435:Drivers/STM32F4xx_HAL_Driver/Src/stm32f4xx_hal_pcd.c ****       {
 1930              		.loc 1 1435 63 discriminator 2
 1931 0844 7B6A     		ldr	r3, [r7, #36]
 1932 0846 0133     		adds	r3, r3, #1
 1933 0848 7B62     		str	r3, [r7, #36]
 1934              	.L75:
1435:Drivers/STM32F4xx_HAL_Driver/Src/stm32f4xx_hal_pcd.c ****       {
 1935              		.loc 1 1435 42 discriminator 1
 1936 084a 7B68     		ldr	r3, [r7, #4]
 1937 084c 5B68     		ldr	r3, [r3, #4]
1435:Drivers/STM32F4xx_HAL_Driver/Src/stm32f4xx_hal_pcd.c ****       {
 1938              		.loc 1 1435 7 discriminator 1
 1939 084e 7A6A     		ldr	r2, [r7, #36]
 1940 0850 9A42     		cmp	r2, r3
 1941 0852 CED3     		bcc	.L77
1446:Drivers/STM32F4xx_HAL_Driver/Src/stm32f4xx_hal_pcd.c ****         }
1447:Drivers/STM32F4xx_HAL_Driver/Src/stm32f4xx_hal_pcd.c ****       }
1448:Drivers/STM32F4xx_HAL_Driver/Src/stm32f4xx_hal_pcd.c **** 
1449:Drivers/STM32F4xx_HAL_Driver/Src/stm32f4xx_hal_pcd.c ****       __HAL_PCD_CLEAR_FLAG(hpcd, USB_OTG_GINTSTS_IISOIXFR);
 1942              		.loc 1 1449 7
 1943 0854 7B68     		ldr	r3, [r7, #4]
 1944 0856 1B68     		ldr	r3, [r3]
 1945 0858 5A69     		ldr	r2, [r3, #20]
 1946 085a 7B68     		ldr	r3, [r7, #4]
 1947 085c 1B68     		ldr	r3, [r3]
 1948 085e 02F48012 		and	r2, r2, #1048576
 1949 0862 5A61     		str	r2, [r3, #20]
 1950              	.L74:
1450:Drivers/STM32F4xx_HAL_Driver/Src/stm32f4xx_hal_pcd.c ****     }
1451:Drivers/STM32F4xx_HAL_Driver/Src/stm32f4xx_hal_pcd.c **** 
1452:Drivers/STM32F4xx_HAL_Driver/Src/stm32f4xx_hal_pcd.c ****     /* Handle Incomplete ISO OUT Interrupt */
1453:Drivers/STM32F4xx_HAL_Driver/Src/stm32f4xx_hal_pcd.c ****     if (__HAL_PCD_GET_FLAG(hpcd, USB_OTG_GINTSTS_PXFR_INCOMPISOOUT))
 1951              		.loc 1 1453 9
 1952 0864 7B68     		ldr	r3, [r7, #4]
 1953 0866 1B68     		ldr	r3, [r3]
 1954 0868 1846     		mov	r0, r3
 1955 086a FFF7FEFF 		bl	USB_ReadInterrupts
ARM GAS  /tmp/ccQdZtFR.s 			page 61


 1956 086e 0346     		mov	r3, r0
 1957 0870 03F40013 		and	r3, r3, #2097152
 1958              		.loc 1 1453 8
 1959 0874 B3F5001F 		cmp	r3, #2097152
 1960 0878 55D1     		bne	.L78
1454:Drivers/STM32F4xx_HAL_Driver/Src/stm32f4xx_hal_pcd.c ****     {
1455:Drivers/STM32F4xx_HAL_Driver/Src/stm32f4xx_hal_pcd.c ****       for (epnum = 1U; epnum < hpcd->Init.dev_endpoints; epnum++)
 1961              		.loc 1 1455 18
 1962 087a 0123     		movs	r3, #1
 1963 087c 7B62     		str	r3, [r7, #36]
 1964              		.loc 1 1455 7
 1965 087e 45E0     		b	.L79
 1966              	.L82:
1456:Drivers/STM32F4xx_HAL_Driver/Src/stm32f4xx_hal_pcd.c ****       {
1457:Drivers/STM32F4xx_HAL_Driver/Src/stm32f4xx_hal_pcd.c ****         RegVal = USBx_OUTEP(epnum)->DOEPCTL;
 1967              		.loc 1 1457 18
 1968 0880 7B6A     		ldr	r3, [r7, #36]
 1969 0882 5A01     		lsls	r2, r3, #5
 1970 0884 FB69     		ldr	r3, [r7, #28]
 1971 0886 1344     		add	r3, r3, r2
 1972 0888 03F53063 		add	r3, r3, #2816
 1973              		.loc 1 1457 16
 1974 088c 1B68     		ldr	r3, [r3]
 1975 088e BB61     		str	r3, [r7, #24]
1458:Drivers/STM32F4xx_HAL_Driver/Src/stm32f4xx_hal_pcd.c **** 
1459:Drivers/STM32F4xx_HAL_Driver/Src/stm32f4xx_hal_pcd.c ****         if ((hpcd->OUT_ep[epnum].type == EP_TYPE_ISOC) &&
 1976              		.loc 1 1459 33
 1977 0890 7968     		ldr	r1, [r7, #4]
 1978 0892 7A6A     		ldr	r2, [r7, #36]
 1979 0894 1346     		mov	r3, r2
 1980 0896 DB00     		lsls	r3, r3, #3
 1981 0898 1344     		add	r3, r3, r2
 1982 089a 9B00     		lsls	r3, r3, #2
 1983 089c 0B44     		add	r3, r3, r1
 1984 089e 03F52073 		add	r3, r3, #640
 1985 08a2 1B78     		ldrb	r3, [r3]	@ zero_extendqisi2
 1986              		.loc 1 1459 12
 1987 08a4 012B     		cmp	r3, #1
 1988 08a6 2ED1     		bne	.L80
1460:Drivers/STM32F4xx_HAL_Driver/Src/stm32f4xx_hal_pcd.c ****             ((RegVal & USB_OTG_DOEPCTL_EPENA) == USB_OTG_DOEPCTL_EPENA) &&
 1989              		.loc 1 1460 47 discriminator 1
 1990 08a8 BB69     		ldr	r3, [r7, #24]
1459:Drivers/STM32F4xx_HAL_Driver/Src/stm32f4xx_hal_pcd.c ****             ((RegVal & USB_OTG_DOEPCTL_EPENA) == USB_OTG_DOEPCTL_EPENA) &&
 1991              		.loc 1 1459 56 discriminator 1
 1992 08aa 002B     		cmp	r3, #0
 1993 08ac 2BDA     		bge	.L80
1461:Drivers/STM32F4xx_HAL_Driver/Src/stm32f4xx_hal_pcd.c ****             ((RegVal & (0x1U << 16)) == (hpcd->FrameNumber & 0x1U)))
 1994              		.loc 1 1461 22
 1995 08ae BB69     		ldr	r3, [r7, #24]
 1996 08b0 03F48032 		and	r2, r3, #65536
 1997              		.loc 1 1461 46
 1998 08b4 7B68     		ldr	r3, [r7, #4]
 1999 08b6 D3F8FC34 		ldr	r3, [r3, #1276]
 2000              		.loc 1 1461 60
 2001 08ba 03F00103 		and	r3, r3, #1
1460:Drivers/STM32F4xx_HAL_Driver/Src/stm32f4xx_hal_pcd.c ****             ((RegVal & USB_OTG_DOEPCTL_EPENA) == USB_OTG_DOEPCTL_EPENA) &&
 2002              		.loc 1 1460 73
ARM GAS  /tmp/ccQdZtFR.s 			page 62


 2003 08be 9A42     		cmp	r2, r3
 2004 08c0 21D1     		bne	.L80
1462:Drivers/STM32F4xx_HAL_Driver/Src/stm32f4xx_hal_pcd.c ****         {
1463:Drivers/STM32F4xx_HAL_Driver/Src/stm32f4xx_hal_pcd.c ****           hpcd->OUT_ep[epnum].is_iso_incomplete = 1U;
 2005              		.loc 1 1463 49
 2006 08c2 7968     		ldr	r1, [r7, #4]
 2007 08c4 7A6A     		ldr	r2, [r7, #36]
 2008 08c6 1346     		mov	r3, r2
 2009 08c8 DB00     		lsls	r3, r3, #3
 2010 08ca 1344     		add	r3, r3, r2
 2011 08cc 9B00     		lsls	r3, r3, #2
 2012 08ce 0B44     		add	r3, r3, r1
 2013 08d0 03F27F23 		addw	r3, r3, #639
 2014 08d4 0122     		movs	r2, #1
 2015 08d6 1A70     		strb	r2, [r3]
1464:Drivers/STM32F4xx_HAL_Driver/Src/stm32f4xx_hal_pcd.c **** 
1465:Drivers/STM32F4xx_HAL_Driver/Src/stm32f4xx_hal_pcd.c ****           USBx->GINTMSK |= USB_OTG_GINTMSK_GONAKEFFM;
 2016              		.loc 1 1465 25
 2017 08d8 3B6A     		ldr	r3, [r7, #32]
 2018 08da 9B69     		ldr	r3, [r3, #24]
 2019 08dc 43F08002 		orr	r2, r3, #128
 2020 08e0 3B6A     		ldr	r3, [r7, #32]
 2021 08e2 9A61     		str	r2, [r3, #24]
1466:Drivers/STM32F4xx_HAL_Driver/Src/stm32f4xx_hal_pcd.c **** 
1467:Drivers/STM32F4xx_HAL_Driver/Src/stm32f4xx_hal_pcd.c ****           if ((USBx->GINTSTS & USB_OTG_GINTSTS_BOUTNAKEFF) == 0U)
 2022              		.loc 1 1467 20
 2023 08e4 3B6A     		ldr	r3, [r7, #32]
 2024 08e6 5B69     		ldr	r3, [r3, #20]
 2025              		.loc 1 1467 30
 2026 08e8 03F08003 		and	r3, r3, #128
 2027              		.loc 1 1467 14
 2028 08ec 002B     		cmp	r3, #0
 2029 08ee 0AD1     		bne	.L80
1468:Drivers/STM32F4xx_HAL_Driver/Src/stm32f4xx_hal_pcd.c ****           {
1469:Drivers/STM32F4xx_HAL_Driver/Src/stm32f4xx_hal_pcd.c ****             USBx_DEVICE->DCTL |= USB_OTG_DCTL_SGONAK;
 2030              		.loc 1 1469 31
 2031 08f0 FB69     		ldr	r3, [r7, #28]
 2032 08f2 03F50063 		add	r3, r3, #2048
 2033 08f6 5B68     		ldr	r3, [r3, #4]
 2034 08f8 FA69     		ldr	r2, [r7, #28]
 2035 08fa 02F50062 		add	r2, r2, #2048
 2036 08fe 43F40073 		orr	r3, r3, #512
 2037 0902 5360     		str	r3, [r2, #4]
1470:Drivers/STM32F4xx_HAL_Driver/Src/stm32f4xx_hal_pcd.c ****             break;
 2038              		.loc 1 1470 13
 2039 0904 07E0     		b	.L81
 2040              	.L80:
1455:Drivers/STM32F4xx_HAL_Driver/Src/stm32f4xx_hal_pcd.c ****       {
 2041              		.loc 1 1455 63 discriminator 2
 2042 0906 7B6A     		ldr	r3, [r7, #36]
 2043 0908 0133     		adds	r3, r3, #1
 2044 090a 7B62     		str	r3, [r7, #36]
 2045              	.L79:
1455:Drivers/STM32F4xx_HAL_Driver/Src/stm32f4xx_hal_pcd.c ****       {
 2046              		.loc 1 1455 42 discriminator 1
 2047 090c 7B68     		ldr	r3, [r7, #4]
 2048 090e 5B68     		ldr	r3, [r3, #4]
ARM GAS  /tmp/ccQdZtFR.s 			page 63


1455:Drivers/STM32F4xx_HAL_Driver/Src/stm32f4xx_hal_pcd.c ****       {
 2049              		.loc 1 1455 7 discriminator 1
 2050 0910 7A6A     		ldr	r2, [r7, #36]
 2051 0912 9A42     		cmp	r2, r3
 2052 0914 B4D3     		bcc	.L82
 2053              	.L81:
1471:Drivers/STM32F4xx_HAL_Driver/Src/stm32f4xx_hal_pcd.c ****           }
1472:Drivers/STM32F4xx_HAL_Driver/Src/stm32f4xx_hal_pcd.c ****         }
1473:Drivers/STM32F4xx_HAL_Driver/Src/stm32f4xx_hal_pcd.c ****       }
1474:Drivers/STM32F4xx_HAL_Driver/Src/stm32f4xx_hal_pcd.c **** 
1475:Drivers/STM32F4xx_HAL_Driver/Src/stm32f4xx_hal_pcd.c ****       __HAL_PCD_CLEAR_FLAG(hpcd, USB_OTG_GINTSTS_PXFR_INCOMPISOOUT);
 2054              		.loc 1 1475 7
 2055 0916 7B68     		ldr	r3, [r7, #4]
 2056 0918 1B68     		ldr	r3, [r3]
 2057 091a 5A69     		ldr	r2, [r3, #20]
 2058 091c 7B68     		ldr	r3, [r7, #4]
 2059 091e 1B68     		ldr	r3, [r3]
 2060 0920 02F40012 		and	r2, r2, #2097152
 2061 0924 5A61     		str	r2, [r3, #20]
 2062              	.L78:
1476:Drivers/STM32F4xx_HAL_Driver/Src/stm32f4xx_hal_pcd.c ****     }
1477:Drivers/STM32F4xx_HAL_Driver/Src/stm32f4xx_hal_pcd.c **** 
1478:Drivers/STM32F4xx_HAL_Driver/Src/stm32f4xx_hal_pcd.c ****     /* Handle Connection event Interrupt */
1479:Drivers/STM32F4xx_HAL_Driver/Src/stm32f4xx_hal_pcd.c ****     if (__HAL_PCD_GET_FLAG(hpcd, USB_OTG_GINTSTS_SRQINT))
 2063              		.loc 1 1479 9
 2064 0926 7B68     		ldr	r3, [r7, #4]
 2065 0928 1B68     		ldr	r3, [r3]
 2066 092a 1846     		mov	r0, r3
 2067 092c FFF7FEFF 		bl	USB_ReadInterrupts
 2068 0930 0346     		mov	r3, r0
 2069 0932 03F08043 		and	r3, r3, #1073741824
 2070              		.loc 1 1479 8
 2071 0936 B3F1804F 		cmp	r3, #1073741824
 2072 093a 0AD1     		bne	.L83
1480:Drivers/STM32F4xx_HAL_Driver/Src/stm32f4xx_hal_pcd.c ****     {
1481:Drivers/STM32F4xx_HAL_Driver/Src/stm32f4xx_hal_pcd.c **** #if (USE_HAL_PCD_REGISTER_CALLBACKS == 1U)
1482:Drivers/STM32F4xx_HAL_Driver/Src/stm32f4xx_hal_pcd.c ****       hpcd->ConnectCallback(hpcd);
1483:Drivers/STM32F4xx_HAL_Driver/Src/stm32f4xx_hal_pcd.c **** #else
1484:Drivers/STM32F4xx_HAL_Driver/Src/stm32f4xx_hal_pcd.c ****       HAL_PCD_ConnectCallback(hpcd);
 2073              		.loc 1 1484 7
 2074 093c 7868     		ldr	r0, [r7, #4]
 2075 093e FFF7FEFF 		bl	HAL_PCD_ConnectCallback
1485:Drivers/STM32F4xx_HAL_Driver/Src/stm32f4xx_hal_pcd.c **** #endif /* USE_HAL_PCD_REGISTER_CALLBACKS */
1486:Drivers/STM32F4xx_HAL_Driver/Src/stm32f4xx_hal_pcd.c **** 
1487:Drivers/STM32F4xx_HAL_Driver/Src/stm32f4xx_hal_pcd.c ****       __HAL_PCD_CLEAR_FLAG(hpcd, USB_OTG_GINTSTS_SRQINT);
 2076              		.loc 1 1487 7
 2077 0942 7B68     		ldr	r3, [r7, #4]
 2078 0944 1B68     		ldr	r3, [r3]
 2079 0946 5A69     		ldr	r2, [r3, #20]
 2080 0948 7B68     		ldr	r3, [r7, #4]
 2081 094a 1B68     		ldr	r3, [r3]
 2082 094c 02F08042 		and	r2, r2, #1073741824
 2083 0950 5A61     		str	r2, [r3, #20]
 2084              	.L83:
1488:Drivers/STM32F4xx_HAL_Driver/Src/stm32f4xx_hal_pcd.c ****     }
1489:Drivers/STM32F4xx_HAL_Driver/Src/stm32f4xx_hal_pcd.c **** 
1490:Drivers/STM32F4xx_HAL_Driver/Src/stm32f4xx_hal_pcd.c ****     /* Handle Disconnection event Interrupt */
ARM GAS  /tmp/ccQdZtFR.s 			page 64


1491:Drivers/STM32F4xx_HAL_Driver/Src/stm32f4xx_hal_pcd.c ****     if (__HAL_PCD_GET_FLAG(hpcd, USB_OTG_GINTSTS_OTGINT))
 2085              		.loc 1 1491 9
 2086 0952 7B68     		ldr	r3, [r7, #4]
 2087 0954 1B68     		ldr	r3, [r3]
 2088 0956 1846     		mov	r0, r3
 2089 0958 FFF7FEFF 		bl	USB_ReadInterrupts
 2090 095c 0346     		mov	r3, r0
 2091 095e 03F00403 		and	r3, r3, #4
 2092              		.loc 1 1491 8
 2093 0962 042B     		cmp	r3, #4
 2094 0964 15D1     		bne	.L27
1492:Drivers/STM32F4xx_HAL_Driver/Src/stm32f4xx_hal_pcd.c ****     {
1493:Drivers/STM32F4xx_HAL_Driver/Src/stm32f4xx_hal_pcd.c ****       RegVal = hpcd->Instance->GOTGINT;
 2095              		.loc 1 1493 20
 2096 0966 7B68     		ldr	r3, [r7, #4]
 2097 0968 1B68     		ldr	r3, [r3]
 2098              		.loc 1 1493 14
 2099 096a 5B68     		ldr	r3, [r3, #4]
 2100 096c BB61     		str	r3, [r7, #24]
1494:Drivers/STM32F4xx_HAL_Driver/Src/stm32f4xx_hal_pcd.c **** 
1495:Drivers/STM32F4xx_HAL_Driver/Src/stm32f4xx_hal_pcd.c ****       if ((RegVal & USB_OTG_GOTGINT_SEDET) == USB_OTG_GOTGINT_SEDET)
 2101              		.loc 1 1495 19
 2102 096e BB69     		ldr	r3, [r7, #24]
 2103 0970 03F00403 		and	r3, r3, #4
 2104              		.loc 1 1495 10
 2105 0974 002B     		cmp	r3, #0
 2106 0976 02D0     		beq	.L84
1496:Drivers/STM32F4xx_HAL_Driver/Src/stm32f4xx_hal_pcd.c ****       {
1497:Drivers/STM32F4xx_HAL_Driver/Src/stm32f4xx_hal_pcd.c **** #if (USE_HAL_PCD_REGISTER_CALLBACKS == 1U)
1498:Drivers/STM32F4xx_HAL_Driver/Src/stm32f4xx_hal_pcd.c ****         hpcd->DisconnectCallback(hpcd);
1499:Drivers/STM32F4xx_HAL_Driver/Src/stm32f4xx_hal_pcd.c **** #else
1500:Drivers/STM32F4xx_HAL_Driver/Src/stm32f4xx_hal_pcd.c ****         HAL_PCD_DisconnectCallback(hpcd);
 2107              		.loc 1 1500 9
 2108 0978 7868     		ldr	r0, [r7, #4]
 2109 097a FFF7FEFF 		bl	HAL_PCD_DisconnectCallback
 2110              	.L84:
1501:Drivers/STM32F4xx_HAL_Driver/Src/stm32f4xx_hal_pcd.c **** #endif /* USE_HAL_PCD_REGISTER_CALLBACKS */
1502:Drivers/STM32F4xx_HAL_Driver/Src/stm32f4xx_hal_pcd.c ****       }
1503:Drivers/STM32F4xx_HAL_Driver/Src/stm32f4xx_hal_pcd.c ****       hpcd->Instance->GOTGINT |= RegVal;
 2111              		.loc 1 1503 11
 2112 097e 7B68     		ldr	r3, [r7, #4]
 2113 0980 1B68     		ldr	r3, [r3]
 2114              		.loc 1 1503 31
 2115 0982 5968     		ldr	r1, [r3, #4]
 2116              		.loc 1 1503 11
 2117 0984 7B68     		ldr	r3, [r7, #4]
 2118 0986 1B68     		ldr	r3, [r3]
 2119              		.loc 1 1503 31
 2120 0988 BA69     		ldr	r2, [r7, #24]
 2121 098a 0A43     		orrs	r2, r2, r1
 2122 098c 5A60     		str	r2, [r3, #4]
 2123 098e 00E0     		b	.L27
 2124              	.L85:
1072:Drivers/STM32F4xx_HAL_Driver/Src/stm32f4xx_hal_pcd.c ****     }
 2125              		.loc 1 1072 7
 2126 0990 00BF     		nop
 2127              	.L27:
ARM GAS  /tmp/ccQdZtFR.s 			page 65


1504:Drivers/STM32F4xx_HAL_Driver/Src/stm32f4xx_hal_pcd.c ****     }
1505:Drivers/STM32F4xx_HAL_Driver/Src/stm32f4xx_hal_pcd.c ****   }
1506:Drivers/STM32F4xx_HAL_Driver/Src/stm32f4xx_hal_pcd.c **** }
 2128              		.loc 1 1506 1
 2129 0992 3437     		adds	r7, r7, #52
 2130              	.LCFI35:
 2131              		.cfi_def_cfa_offset 12
 2132 0994 BD46     		mov	sp, r7
 2133              	.LCFI36:
 2134              		.cfi_def_cfa_register 13
 2135              		@ sp needed
 2136 0996 90BD     		pop	{r4, r7, pc}
 2137              		.cfi_endproc
 2138              	.LFE241:
 2140              		.section	.text.HAL_PCD_WKUP_IRQHandler,"ax",%progbits
 2141              		.align	1
 2142              		.global	HAL_PCD_WKUP_IRQHandler
 2143              		.syntax unified
 2144              		.thumb
 2145              		.thumb_func
 2147              	HAL_PCD_WKUP_IRQHandler:
 2148              	.LFB242:
1507:Drivers/STM32F4xx_HAL_Driver/Src/stm32f4xx_hal_pcd.c **** 
1508:Drivers/STM32F4xx_HAL_Driver/Src/stm32f4xx_hal_pcd.c **** 
1509:Drivers/STM32F4xx_HAL_Driver/Src/stm32f4xx_hal_pcd.c **** /**
1510:Drivers/STM32F4xx_HAL_Driver/Src/stm32f4xx_hal_pcd.c ****   * @brief  Handles PCD Wakeup interrupt request.
1511:Drivers/STM32F4xx_HAL_Driver/Src/stm32f4xx_hal_pcd.c ****   * @param  hpcd PCD handle
1512:Drivers/STM32F4xx_HAL_Driver/Src/stm32f4xx_hal_pcd.c ****   * @retval HAL status
1513:Drivers/STM32F4xx_HAL_Driver/Src/stm32f4xx_hal_pcd.c ****   */
1514:Drivers/STM32F4xx_HAL_Driver/Src/stm32f4xx_hal_pcd.c **** void HAL_PCD_WKUP_IRQHandler(PCD_HandleTypeDef *hpcd)
1515:Drivers/STM32F4xx_HAL_Driver/Src/stm32f4xx_hal_pcd.c **** {
 2149              		.loc 1 1515 1
 2150              		.cfi_startproc
 2151              		@ args = 0, pretend = 0, frame = 16
 2152              		@ frame_needed = 1, uses_anonymous_args = 0
 2153              		@ link register save eliminated.
 2154 0000 80B4     		push	{r7}
 2155              	.LCFI37:
 2156              		.cfi_def_cfa_offset 4
 2157              		.cfi_offset 7, -4
 2158 0002 85B0     		sub	sp, sp, #20
 2159              	.LCFI38:
 2160              		.cfi_def_cfa_offset 24
 2161 0004 00AF     		add	r7, sp, #0
 2162              	.LCFI39:
 2163              		.cfi_def_cfa_register 7
 2164 0006 7860     		str	r0, [r7, #4]
1516:Drivers/STM32F4xx_HAL_Driver/Src/stm32f4xx_hal_pcd.c ****   USB_OTG_GlobalTypeDef *USBx;
1517:Drivers/STM32F4xx_HAL_Driver/Src/stm32f4xx_hal_pcd.c **** 
1518:Drivers/STM32F4xx_HAL_Driver/Src/stm32f4xx_hal_pcd.c ****   USBx = hpcd->Instance;
 2165              		.loc 1 1518 8
 2166 0008 7B68     		ldr	r3, [r7, #4]
 2167 000a 1B68     		ldr	r3, [r3]
 2168 000c FB60     		str	r3, [r7, #12]
1519:Drivers/STM32F4xx_HAL_Driver/Src/stm32f4xx_hal_pcd.c **** 
1520:Drivers/STM32F4xx_HAL_Driver/Src/stm32f4xx_hal_pcd.c ****   if ((USBx->CID & (0x1U << 8)) == 0U)
 2169              		.loc 1 1520 12
ARM GAS  /tmp/ccQdZtFR.s 			page 66


 2170 000e FB68     		ldr	r3, [r7, #12]
 2171 0010 DB6B     		ldr	r3, [r3, #60]
 2172              		.loc 1 1520 18
 2173 0012 03F48073 		and	r3, r3, #256
 2174              		.loc 1 1520 6
 2175 0016 002B     		cmp	r3, #0
 2176 0018 04D1     		bne	.L87
1521:Drivers/STM32F4xx_HAL_Driver/Src/stm32f4xx_hal_pcd.c ****   {
1522:Drivers/STM32F4xx_HAL_Driver/Src/stm32f4xx_hal_pcd.c ****     /* Clear EXTI pending Bit */
1523:Drivers/STM32F4xx_HAL_Driver/Src/stm32f4xx_hal_pcd.c ****     __HAL_USB_OTG_FS_WAKEUP_EXTI_CLEAR_FLAG();
 2177              		.loc 1 1523 5
 2178 001a 074B     		ldr	r3, .L90
 2179 001c 4FF48022 		mov	r2, #262144
 2180 0020 5A61     		str	r2, [r3, #20]
1524:Drivers/STM32F4xx_HAL_Driver/Src/stm32f4xx_hal_pcd.c ****   }
1525:Drivers/STM32F4xx_HAL_Driver/Src/stm32f4xx_hal_pcd.c ****   else
1526:Drivers/STM32F4xx_HAL_Driver/Src/stm32f4xx_hal_pcd.c ****   {
1527:Drivers/STM32F4xx_HAL_Driver/Src/stm32f4xx_hal_pcd.c ****     /* Clear EXTI pending Bit */
1528:Drivers/STM32F4xx_HAL_Driver/Src/stm32f4xx_hal_pcd.c ****     __HAL_USB_OTG_HS_WAKEUP_EXTI_CLEAR_FLAG();
1529:Drivers/STM32F4xx_HAL_Driver/Src/stm32f4xx_hal_pcd.c ****   }
1530:Drivers/STM32F4xx_HAL_Driver/Src/stm32f4xx_hal_pcd.c **** }
 2181              		.loc 1 1530 1
 2182 0022 03E0     		b	.L89
 2183              	.L87:
1528:Drivers/STM32F4xx_HAL_Driver/Src/stm32f4xx_hal_pcd.c ****   }
 2184              		.loc 1 1528 5
 2185 0024 044B     		ldr	r3, .L90
 2186 0026 4FF48012 		mov	r2, #1048576
 2187 002a 5A61     		str	r2, [r3, #20]
 2188              	.L89:
 2189              		.loc 1 1530 1
 2190 002c 00BF     		nop
 2191 002e 1437     		adds	r7, r7, #20
 2192              	.LCFI40:
 2193              		.cfi_def_cfa_offset 4
 2194 0030 BD46     		mov	sp, r7
 2195              	.LCFI41:
 2196              		.cfi_def_cfa_register 13
 2197              		@ sp needed
 2198 0032 5DF8047B 		ldr	r7, [sp], #4
 2199              	.LCFI42:
 2200              		.cfi_restore 7
 2201              		.cfi_def_cfa_offset 0
 2202 0036 7047     		bx	lr
 2203              	.L91:
 2204              		.align	2
 2205              	.L90:
 2206 0038 003C0140 		.word	1073822720
 2207              		.cfi_endproc
 2208              	.LFE242:
 2210              		.section	.text.HAL_PCD_DataOutStageCallback,"ax",%progbits
 2211              		.align	1
 2212              		.weak	HAL_PCD_DataOutStageCallback
 2213              		.syntax unified
 2214              		.thumb
 2215              		.thumb_func
 2217              	HAL_PCD_DataOutStageCallback:
ARM GAS  /tmp/ccQdZtFR.s 			page 67


 2218              	.LFB243:
1531:Drivers/STM32F4xx_HAL_Driver/Src/stm32f4xx_hal_pcd.c **** #endif /* defined (USB_OTG_FS) || defined (USB_OTG_HS) */
1532:Drivers/STM32F4xx_HAL_Driver/Src/stm32f4xx_hal_pcd.c **** 
1533:Drivers/STM32F4xx_HAL_Driver/Src/stm32f4xx_hal_pcd.c **** 
1534:Drivers/STM32F4xx_HAL_Driver/Src/stm32f4xx_hal_pcd.c **** /**
1535:Drivers/STM32F4xx_HAL_Driver/Src/stm32f4xx_hal_pcd.c ****   * @brief  Data OUT stage callback.
1536:Drivers/STM32F4xx_HAL_Driver/Src/stm32f4xx_hal_pcd.c ****   * @param  hpcd PCD handle
1537:Drivers/STM32F4xx_HAL_Driver/Src/stm32f4xx_hal_pcd.c ****   * @param  epnum endpoint number
1538:Drivers/STM32F4xx_HAL_Driver/Src/stm32f4xx_hal_pcd.c ****   * @retval None
1539:Drivers/STM32F4xx_HAL_Driver/Src/stm32f4xx_hal_pcd.c ****   */
1540:Drivers/STM32F4xx_HAL_Driver/Src/stm32f4xx_hal_pcd.c **** __weak void HAL_PCD_DataOutStageCallback(PCD_HandleTypeDef *hpcd, uint8_t epnum)
1541:Drivers/STM32F4xx_HAL_Driver/Src/stm32f4xx_hal_pcd.c **** {
 2219              		.loc 1 1541 1
 2220              		.cfi_startproc
 2221              		@ args = 0, pretend = 0, frame = 8
 2222              		@ frame_needed = 1, uses_anonymous_args = 0
 2223              		@ link register save eliminated.
 2224 0000 80B4     		push	{r7}
 2225              	.LCFI43:
 2226              		.cfi_def_cfa_offset 4
 2227              		.cfi_offset 7, -4
 2228 0002 83B0     		sub	sp, sp, #12
 2229              	.LCFI44:
 2230              		.cfi_def_cfa_offset 16
 2231 0004 00AF     		add	r7, sp, #0
 2232              	.LCFI45:
 2233              		.cfi_def_cfa_register 7
 2234 0006 7860     		str	r0, [r7, #4]
 2235 0008 0B46     		mov	r3, r1
 2236 000a FB70     		strb	r3, [r7, #3]
1542:Drivers/STM32F4xx_HAL_Driver/Src/stm32f4xx_hal_pcd.c ****   /* Prevent unused argument(s) compilation warning */
1543:Drivers/STM32F4xx_HAL_Driver/Src/stm32f4xx_hal_pcd.c ****   UNUSED(hpcd);
1544:Drivers/STM32F4xx_HAL_Driver/Src/stm32f4xx_hal_pcd.c ****   UNUSED(epnum);
1545:Drivers/STM32F4xx_HAL_Driver/Src/stm32f4xx_hal_pcd.c **** 
1546:Drivers/STM32F4xx_HAL_Driver/Src/stm32f4xx_hal_pcd.c ****   /* NOTE : This function should not be modified, when the callback is needed,
1547:Drivers/STM32F4xx_HAL_Driver/Src/stm32f4xx_hal_pcd.c ****             the HAL_PCD_DataOutStageCallback could be implemented in the user file
1548:Drivers/STM32F4xx_HAL_Driver/Src/stm32f4xx_hal_pcd.c ****    */
1549:Drivers/STM32F4xx_HAL_Driver/Src/stm32f4xx_hal_pcd.c **** }
 2237              		.loc 1 1549 1
 2238 000c 00BF     		nop
 2239 000e 0C37     		adds	r7, r7, #12
 2240              	.LCFI46:
 2241              		.cfi_def_cfa_offset 4
 2242 0010 BD46     		mov	sp, r7
 2243              	.LCFI47:
 2244              		.cfi_def_cfa_register 13
 2245              		@ sp needed
 2246 0012 5DF8047B 		ldr	r7, [sp], #4
 2247              	.LCFI48:
 2248              		.cfi_restore 7
 2249              		.cfi_def_cfa_offset 0
 2250 0016 7047     		bx	lr
 2251              		.cfi_endproc
 2252              	.LFE243:
 2254              		.section	.text.HAL_PCD_DataInStageCallback,"ax",%progbits
 2255              		.align	1
 2256              		.weak	HAL_PCD_DataInStageCallback
ARM GAS  /tmp/ccQdZtFR.s 			page 68


 2257              		.syntax unified
 2258              		.thumb
 2259              		.thumb_func
 2261              	HAL_PCD_DataInStageCallback:
 2262              	.LFB244:
1550:Drivers/STM32F4xx_HAL_Driver/Src/stm32f4xx_hal_pcd.c **** 
1551:Drivers/STM32F4xx_HAL_Driver/Src/stm32f4xx_hal_pcd.c **** /**
1552:Drivers/STM32F4xx_HAL_Driver/Src/stm32f4xx_hal_pcd.c ****   * @brief  Data IN stage callback
1553:Drivers/STM32F4xx_HAL_Driver/Src/stm32f4xx_hal_pcd.c ****   * @param  hpcd PCD handle
1554:Drivers/STM32F4xx_HAL_Driver/Src/stm32f4xx_hal_pcd.c ****   * @param  epnum endpoint number
1555:Drivers/STM32F4xx_HAL_Driver/Src/stm32f4xx_hal_pcd.c ****   * @retval None
1556:Drivers/STM32F4xx_HAL_Driver/Src/stm32f4xx_hal_pcd.c ****   */
1557:Drivers/STM32F4xx_HAL_Driver/Src/stm32f4xx_hal_pcd.c **** __weak void HAL_PCD_DataInStageCallback(PCD_HandleTypeDef *hpcd, uint8_t epnum)
1558:Drivers/STM32F4xx_HAL_Driver/Src/stm32f4xx_hal_pcd.c **** {
 2263              		.loc 1 1558 1
 2264              		.cfi_startproc
 2265              		@ args = 0, pretend = 0, frame = 8
 2266              		@ frame_needed = 1, uses_anonymous_args = 0
 2267              		@ link register save eliminated.
 2268 0000 80B4     		push	{r7}
 2269              	.LCFI49:
 2270              		.cfi_def_cfa_offset 4
 2271              		.cfi_offset 7, -4
 2272 0002 83B0     		sub	sp, sp, #12
 2273              	.LCFI50:
 2274              		.cfi_def_cfa_offset 16
 2275 0004 00AF     		add	r7, sp, #0
 2276              	.LCFI51:
 2277              		.cfi_def_cfa_register 7
 2278 0006 7860     		str	r0, [r7, #4]
 2279 0008 0B46     		mov	r3, r1
 2280 000a FB70     		strb	r3, [r7, #3]
1559:Drivers/STM32F4xx_HAL_Driver/Src/stm32f4xx_hal_pcd.c ****   /* Prevent unused argument(s) compilation warning */
1560:Drivers/STM32F4xx_HAL_Driver/Src/stm32f4xx_hal_pcd.c ****   UNUSED(hpcd);
1561:Drivers/STM32F4xx_HAL_Driver/Src/stm32f4xx_hal_pcd.c ****   UNUSED(epnum);
1562:Drivers/STM32F4xx_HAL_Driver/Src/stm32f4xx_hal_pcd.c **** 
1563:Drivers/STM32F4xx_HAL_Driver/Src/stm32f4xx_hal_pcd.c ****   /* NOTE : This function should not be modified, when the callback is needed,
1564:Drivers/STM32F4xx_HAL_Driver/Src/stm32f4xx_hal_pcd.c ****             the HAL_PCD_DataInStageCallback could be implemented in the user file
1565:Drivers/STM32F4xx_HAL_Driver/Src/stm32f4xx_hal_pcd.c ****    */
1566:Drivers/STM32F4xx_HAL_Driver/Src/stm32f4xx_hal_pcd.c **** }
 2281              		.loc 1 1566 1
 2282 000c 00BF     		nop
 2283 000e 0C37     		adds	r7, r7, #12
 2284              	.LCFI52:
 2285              		.cfi_def_cfa_offset 4
 2286 0010 BD46     		mov	sp, r7
 2287              	.LCFI53:
 2288              		.cfi_def_cfa_register 13
 2289              		@ sp needed
 2290 0012 5DF8047B 		ldr	r7, [sp], #4
 2291              	.LCFI54:
 2292              		.cfi_restore 7
 2293              		.cfi_def_cfa_offset 0
 2294 0016 7047     		bx	lr
 2295              		.cfi_endproc
 2296              	.LFE244:
 2298              		.section	.text.HAL_PCD_SetupStageCallback,"ax",%progbits
ARM GAS  /tmp/ccQdZtFR.s 			page 69


 2299              		.align	1
 2300              		.weak	HAL_PCD_SetupStageCallback
 2301              		.syntax unified
 2302              		.thumb
 2303              		.thumb_func
 2305              	HAL_PCD_SetupStageCallback:
 2306              	.LFB245:
1567:Drivers/STM32F4xx_HAL_Driver/Src/stm32f4xx_hal_pcd.c **** /**
1568:Drivers/STM32F4xx_HAL_Driver/Src/stm32f4xx_hal_pcd.c ****   * @brief  Setup stage callback
1569:Drivers/STM32F4xx_HAL_Driver/Src/stm32f4xx_hal_pcd.c ****   * @param  hpcd PCD handle
1570:Drivers/STM32F4xx_HAL_Driver/Src/stm32f4xx_hal_pcd.c ****   * @retval None
1571:Drivers/STM32F4xx_HAL_Driver/Src/stm32f4xx_hal_pcd.c ****   */
1572:Drivers/STM32F4xx_HAL_Driver/Src/stm32f4xx_hal_pcd.c **** __weak void HAL_PCD_SetupStageCallback(PCD_HandleTypeDef *hpcd)
1573:Drivers/STM32F4xx_HAL_Driver/Src/stm32f4xx_hal_pcd.c **** {
 2307              		.loc 1 1573 1
 2308              		.cfi_startproc
 2309              		@ args = 0, pretend = 0, frame = 8
 2310              		@ frame_needed = 1, uses_anonymous_args = 0
 2311              		@ link register save eliminated.
 2312 0000 80B4     		push	{r7}
 2313              	.LCFI55:
 2314              		.cfi_def_cfa_offset 4
 2315              		.cfi_offset 7, -4
 2316 0002 83B0     		sub	sp, sp, #12
 2317              	.LCFI56:
 2318              		.cfi_def_cfa_offset 16
 2319 0004 00AF     		add	r7, sp, #0
 2320              	.LCFI57:
 2321              		.cfi_def_cfa_register 7
 2322 0006 7860     		str	r0, [r7, #4]
1574:Drivers/STM32F4xx_HAL_Driver/Src/stm32f4xx_hal_pcd.c ****   /* Prevent unused argument(s) compilation warning */
1575:Drivers/STM32F4xx_HAL_Driver/Src/stm32f4xx_hal_pcd.c ****   UNUSED(hpcd);
1576:Drivers/STM32F4xx_HAL_Driver/Src/stm32f4xx_hal_pcd.c **** 
1577:Drivers/STM32F4xx_HAL_Driver/Src/stm32f4xx_hal_pcd.c ****   /* NOTE : This function should not be modified, when the callback is needed,
1578:Drivers/STM32F4xx_HAL_Driver/Src/stm32f4xx_hal_pcd.c ****             the HAL_PCD_SetupStageCallback could be implemented in the user file
1579:Drivers/STM32F4xx_HAL_Driver/Src/stm32f4xx_hal_pcd.c ****    */
1580:Drivers/STM32F4xx_HAL_Driver/Src/stm32f4xx_hal_pcd.c **** }
 2323              		.loc 1 1580 1
 2324 0008 00BF     		nop
 2325 000a 0C37     		adds	r7, r7, #12
 2326              	.LCFI58:
 2327              		.cfi_def_cfa_offset 4
 2328 000c BD46     		mov	sp, r7
 2329              	.LCFI59:
 2330              		.cfi_def_cfa_register 13
 2331              		@ sp needed
 2332 000e 5DF8047B 		ldr	r7, [sp], #4
 2333              	.LCFI60:
 2334              		.cfi_restore 7
 2335              		.cfi_def_cfa_offset 0
 2336 0012 7047     		bx	lr
 2337              		.cfi_endproc
 2338              	.LFE245:
 2340              		.section	.text.HAL_PCD_SOFCallback,"ax",%progbits
 2341              		.align	1
 2342              		.weak	HAL_PCD_SOFCallback
 2343              		.syntax unified
ARM GAS  /tmp/ccQdZtFR.s 			page 70


 2344              		.thumb
 2345              		.thumb_func
 2347              	HAL_PCD_SOFCallback:
 2348              	.LFB246:
1581:Drivers/STM32F4xx_HAL_Driver/Src/stm32f4xx_hal_pcd.c **** 
1582:Drivers/STM32F4xx_HAL_Driver/Src/stm32f4xx_hal_pcd.c **** /**
1583:Drivers/STM32F4xx_HAL_Driver/Src/stm32f4xx_hal_pcd.c ****   * @brief  USB Start Of Frame callback.
1584:Drivers/STM32F4xx_HAL_Driver/Src/stm32f4xx_hal_pcd.c ****   * @param  hpcd PCD handle
1585:Drivers/STM32F4xx_HAL_Driver/Src/stm32f4xx_hal_pcd.c ****   * @retval None
1586:Drivers/STM32F4xx_HAL_Driver/Src/stm32f4xx_hal_pcd.c ****   */
1587:Drivers/STM32F4xx_HAL_Driver/Src/stm32f4xx_hal_pcd.c **** __weak void HAL_PCD_SOFCallback(PCD_HandleTypeDef *hpcd)
1588:Drivers/STM32F4xx_HAL_Driver/Src/stm32f4xx_hal_pcd.c **** {
 2349              		.loc 1 1588 1
 2350              		.cfi_startproc
 2351              		@ args = 0, pretend = 0, frame = 8
 2352              		@ frame_needed = 1, uses_anonymous_args = 0
 2353              		@ link register save eliminated.
 2354 0000 80B4     		push	{r7}
 2355              	.LCFI61:
 2356              		.cfi_def_cfa_offset 4
 2357              		.cfi_offset 7, -4
 2358 0002 83B0     		sub	sp, sp, #12
 2359              	.LCFI62:
 2360              		.cfi_def_cfa_offset 16
 2361 0004 00AF     		add	r7, sp, #0
 2362              	.LCFI63:
 2363              		.cfi_def_cfa_register 7
 2364 0006 7860     		str	r0, [r7, #4]
1589:Drivers/STM32F4xx_HAL_Driver/Src/stm32f4xx_hal_pcd.c ****   /* Prevent unused argument(s) compilation warning */
1590:Drivers/STM32F4xx_HAL_Driver/Src/stm32f4xx_hal_pcd.c ****   UNUSED(hpcd);
1591:Drivers/STM32F4xx_HAL_Driver/Src/stm32f4xx_hal_pcd.c **** 
1592:Drivers/STM32F4xx_HAL_Driver/Src/stm32f4xx_hal_pcd.c ****   /* NOTE : This function should not be modified, when the callback is needed,
1593:Drivers/STM32F4xx_HAL_Driver/Src/stm32f4xx_hal_pcd.c ****             the HAL_PCD_SOFCallback could be implemented in the user file
1594:Drivers/STM32F4xx_HAL_Driver/Src/stm32f4xx_hal_pcd.c ****    */
1595:Drivers/STM32F4xx_HAL_Driver/Src/stm32f4xx_hal_pcd.c **** }
 2365              		.loc 1 1595 1
 2366 0008 00BF     		nop
 2367 000a 0C37     		adds	r7, r7, #12
 2368              	.LCFI64:
 2369              		.cfi_def_cfa_offset 4
 2370 000c BD46     		mov	sp, r7
 2371              	.LCFI65:
 2372              		.cfi_def_cfa_register 13
 2373              		@ sp needed
 2374 000e 5DF8047B 		ldr	r7, [sp], #4
 2375              	.LCFI66:
 2376              		.cfi_restore 7
 2377              		.cfi_def_cfa_offset 0
 2378 0012 7047     		bx	lr
 2379              		.cfi_endproc
 2380              	.LFE246:
 2382              		.section	.text.HAL_PCD_ResetCallback,"ax",%progbits
 2383              		.align	1
 2384              		.weak	HAL_PCD_ResetCallback
 2385              		.syntax unified
 2386              		.thumb
 2387              		.thumb_func
ARM GAS  /tmp/ccQdZtFR.s 			page 71


 2389              	HAL_PCD_ResetCallback:
 2390              	.LFB247:
1596:Drivers/STM32F4xx_HAL_Driver/Src/stm32f4xx_hal_pcd.c **** 
1597:Drivers/STM32F4xx_HAL_Driver/Src/stm32f4xx_hal_pcd.c **** /**
1598:Drivers/STM32F4xx_HAL_Driver/Src/stm32f4xx_hal_pcd.c ****   * @brief  USB Reset callback.
1599:Drivers/STM32F4xx_HAL_Driver/Src/stm32f4xx_hal_pcd.c ****   * @param  hpcd PCD handle
1600:Drivers/STM32F4xx_HAL_Driver/Src/stm32f4xx_hal_pcd.c ****   * @retval None
1601:Drivers/STM32F4xx_HAL_Driver/Src/stm32f4xx_hal_pcd.c ****   */
1602:Drivers/STM32F4xx_HAL_Driver/Src/stm32f4xx_hal_pcd.c **** __weak void HAL_PCD_ResetCallback(PCD_HandleTypeDef *hpcd)
1603:Drivers/STM32F4xx_HAL_Driver/Src/stm32f4xx_hal_pcd.c **** {
 2391              		.loc 1 1603 1
 2392              		.cfi_startproc
 2393              		@ args = 0, pretend = 0, frame = 8
 2394              		@ frame_needed = 1, uses_anonymous_args = 0
 2395              		@ link register save eliminated.
 2396 0000 80B4     		push	{r7}
 2397              	.LCFI67:
 2398              		.cfi_def_cfa_offset 4
 2399              		.cfi_offset 7, -4
 2400 0002 83B0     		sub	sp, sp, #12
 2401              	.LCFI68:
 2402              		.cfi_def_cfa_offset 16
 2403 0004 00AF     		add	r7, sp, #0
 2404              	.LCFI69:
 2405              		.cfi_def_cfa_register 7
 2406 0006 7860     		str	r0, [r7, #4]
1604:Drivers/STM32F4xx_HAL_Driver/Src/stm32f4xx_hal_pcd.c ****   /* Prevent unused argument(s) compilation warning */
1605:Drivers/STM32F4xx_HAL_Driver/Src/stm32f4xx_hal_pcd.c ****   UNUSED(hpcd);
1606:Drivers/STM32F4xx_HAL_Driver/Src/stm32f4xx_hal_pcd.c **** 
1607:Drivers/STM32F4xx_HAL_Driver/Src/stm32f4xx_hal_pcd.c ****   /* NOTE : This function should not be modified, when the callback is needed,
1608:Drivers/STM32F4xx_HAL_Driver/Src/stm32f4xx_hal_pcd.c ****             the HAL_PCD_ResetCallback could be implemented in the user file
1609:Drivers/STM32F4xx_HAL_Driver/Src/stm32f4xx_hal_pcd.c ****    */
1610:Drivers/STM32F4xx_HAL_Driver/Src/stm32f4xx_hal_pcd.c **** }
 2407              		.loc 1 1610 1
 2408 0008 00BF     		nop
 2409 000a 0C37     		adds	r7, r7, #12
 2410              	.LCFI70:
 2411              		.cfi_def_cfa_offset 4
 2412 000c BD46     		mov	sp, r7
 2413              	.LCFI71:
 2414              		.cfi_def_cfa_register 13
 2415              		@ sp needed
 2416 000e 5DF8047B 		ldr	r7, [sp], #4
 2417              	.LCFI72:
 2418              		.cfi_restore 7
 2419              		.cfi_def_cfa_offset 0
 2420 0012 7047     		bx	lr
 2421              		.cfi_endproc
 2422              	.LFE247:
 2424              		.section	.text.HAL_PCD_SuspendCallback,"ax",%progbits
 2425              		.align	1
 2426              		.weak	HAL_PCD_SuspendCallback
 2427              		.syntax unified
 2428              		.thumb
 2429              		.thumb_func
 2431              	HAL_PCD_SuspendCallback:
 2432              	.LFB248:
ARM GAS  /tmp/ccQdZtFR.s 			page 72


1611:Drivers/STM32F4xx_HAL_Driver/Src/stm32f4xx_hal_pcd.c **** 
1612:Drivers/STM32F4xx_HAL_Driver/Src/stm32f4xx_hal_pcd.c **** /**
1613:Drivers/STM32F4xx_HAL_Driver/Src/stm32f4xx_hal_pcd.c ****   * @brief  Suspend event callback.
1614:Drivers/STM32F4xx_HAL_Driver/Src/stm32f4xx_hal_pcd.c ****   * @param  hpcd PCD handle
1615:Drivers/STM32F4xx_HAL_Driver/Src/stm32f4xx_hal_pcd.c ****   * @retval None
1616:Drivers/STM32F4xx_HAL_Driver/Src/stm32f4xx_hal_pcd.c ****   */
1617:Drivers/STM32F4xx_HAL_Driver/Src/stm32f4xx_hal_pcd.c **** __weak void HAL_PCD_SuspendCallback(PCD_HandleTypeDef *hpcd)
1618:Drivers/STM32F4xx_HAL_Driver/Src/stm32f4xx_hal_pcd.c **** {
 2433              		.loc 1 1618 1
 2434              		.cfi_startproc
 2435              		@ args = 0, pretend = 0, frame = 8
 2436              		@ frame_needed = 1, uses_anonymous_args = 0
 2437              		@ link register save eliminated.
 2438 0000 80B4     		push	{r7}
 2439              	.LCFI73:
 2440              		.cfi_def_cfa_offset 4
 2441              		.cfi_offset 7, -4
 2442 0002 83B0     		sub	sp, sp, #12
 2443              	.LCFI74:
 2444              		.cfi_def_cfa_offset 16
 2445 0004 00AF     		add	r7, sp, #0
 2446              	.LCFI75:
 2447              		.cfi_def_cfa_register 7
 2448 0006 7860     		str	r0, [r7, #4]
1619:Drivers/STM32F4xx_HAL_Driver/Src/stm32f4xx_hal_pcd.c ****   /* Prevent unused argument(s) compilation warning */
1620:Drivers/STM32F4xx_HAL_Driver/Src/stm32f4xx_hal_pcd.c ****   UNUSED(hpcd);
1621:Drivers/STM32F4xx_HAL_Driver/Src/stm32f4xx_hal_pcd.c **** 
1622:Drivers/STM32F4xx_HAL_Driver/Src/stm32f4xx_hal_pcd.c ****   /* NOTE : This function should not be modified, when the callback is needed,
1623:Drivers/STM32F4xx_HAL_Driver/Src/stm32f4xx_hal_pcd.c ****             the HAL_PCD_SuspendCallback could be implemented in the user file
1624:Drivers/STM32F4xx_HAL_Driver/Src/stm32f4xx_hal_pcd.c ****    */
1625:Drivers/STM32F4xx_HAL_Driver/Src/stm32f4xx_hal_pcd.c **** }
 2449              		.loc 1 1625 1
 2450 0008 00BF     		nop
 2451 000a 0C37     		adds	r7, r7, #12
 2452              	.LCFI76:
 2453              		.cfi_def_cfa_offset 4
 2454 000c BD46     		mov	sp, r7
 2455              	.LCFI77:
 2456              		.cfi_def_cfa_register 13
 2457              		@ sp needed
 2458 000e 5DF8047B 		ldr	r7, [sp], #4
 2459              	.LCFI78:
 2460              		.cfi_restore 7
 2461              		.cfi_def_cfa_offset 0
 2462 0012 7047     		bx	lr
 2463              		.cfi_endproc
 2464              	.LFE248:
 2466              		.section	.text.HAL_PCD_ResumeCallback,"ax",%progbits
 2467              		.align	1
 2468              		.weak	HAL_PCD_ResumeCallback
 2469              		.syntax unified
 2470              		.thumb
 2471              		.thumb_func
 2473              	HAL_PCD_ResumeCallback:
 2474              	.LFB249:
1626:Drivers/STM32F4xx_HAL_Driver/Src/stm32f4xx_hal_pcd.c **** 
1627:Drivers/STM32F4xx_HAL_Driver/Src/stm32f4xx_hal_pcd.c **** /**
ARM GAS  /tmp/ccQdZtFR.s 			page 73


1628:Drivers/STM32F4xx_HAL_Driver/Src/stm32f4xx_hal_pcd.c ****   * @brief  Resume event callback.
1629:Drivers/STM32F4xx_HAL_Driver/Src/stm32f4xx_hal_pcd.c ****   * @param  hpcd PCD handle
1630:Drivers/STM32F4xx_HAL_Driver/Src/stm32f4xx_hal_pcd.c ****   * @retval None
1631:Drivers/STM32F4xx_HAL_Driver/Src/stm32f4xx_hal_pcd.c ****   */
1632:Drivers/STM32F4xx_HAL_Driver/Src/stm32f4xx_hal_pcd.c **** __weak void HAL_PCD_ResumeCallback(PCD_HandleTypeDef *hpcd)
1633:Drivers/STM32F4xx_HAL_Driver/Src/stm32f4xx_hal_pcd.c **** {
 2475              		.loc 1 1633 1
 2476              		.cfi_startproc
 2477              		@ args = 0, pretend = 0, frame = 8
 2478              		@ frame_needed = 1, uses_anonymous_args = 0
 2479              		@ link register save eliminated.
 2480 0000 80B4     		push	{r7}
 2481              	.LCFI79:
 2482              		.cfi_def_cfa_offset 4
 2483              		.cfi_offset 7, -4
 2484 0002 83B0     		sub	sp, sp, #12
 2485              	.LCFI80:
 2486              		.cfi_def_cfa_offset 16
 2487 0004 00AF     		add	r7, sp, #0
 2488              	.LCFI81:
 2489              		.cfi_def_cfa_register 7
 2490 0006 7860     		str	r0, [r7, #4]
1634:Drivers/STM32F4xx_HAL_Driver/Src/stm32f4xx_hal_pcd.c ****   /* Prevent unused argument(s) compilation warning */
1635:Drivers/STM32F4xx_HAL_Driver/Src/stm32f4xx_hal_pcd.c ****   UNUSED(hpcd);
1636:Drivers/STM32F4xx_HAL_Driver/Src/stm32f4xx_hal_pcd.c **** 
1637:Drivers/STM32F4xx_HAL_Driver/Src/stm32f4xx_hal_pcd.c ****   /* NOTE : This function should not be modified, when the callback is needed,
1638:Drivers/STM32F4xx_HAL_Driver/Src/stm32f4xx_hal_pcd.c ****             the HAL_PCD_ResumeCallback could be implemented in the user file
1639:Drivers/STM32F4xx_HAL_Driver/Src/stm32f4xx_hal_pcd.c ****    */
1640:Drivers/STM32F4xx_HAL_Driver/Src/stm32f4xx_hal_pcd.c **** }
 2491              		.loc 1 1640 1
 2492 0008 00BF     		nop
 2493 000a 0C37     		adds	r7, r7, #12
 2494              	.LCFI82:
 2495              		.cfi_def_cfa_offset 4
 2496 000c BD46     		mov	sp, r7
 2497              	.LCFI83:
 2498              		.cfi_def_cfa_register 13
 2499              		@ sp needed
 2500 000e 5DF8047B 		ldr	r7, [sp], #4
 2501              	.LCFI84:
 2502              		.cfi_restore 7
 2503              		.cfi_def_cfa_offset 0
 2504 0012 7047     		bx	lr
 2505              		.cfi_endproc
 2506              	.LFE249:
 2508              		.section	.text.HAL_PCD_ISOOUTIncompleteCallback,"ax",%progbits
 2509              		.align	1
 2510              		.weak	HAL_PCD_ISOOUTIncompleteCallback
 2511              		.syntax unified
 2512              		.thumb
 2513              		.thumb_func
 2515              	HAL_PCD_ISOOUTIncompleteCallback:
 2516              	.LFB250:
1641:Drivers/STM32F4xx_HAL_Driver/Src/stm32f4xx_hal_pcd.c **** 
1642:Drivers/STM32F4xx_HAL_Driver/Src/stm32f4xx_hal_pcd.c **** /**
1643:Drivers/STM32F4xx_HAL_Driver/Src/stm32f4xx_hal_pcd.c ****   * @brief  Incomplete ISO OUT callback.
1644:Drivers/STM32F4xx_HAL_Driver/Src/stm32f4xx_hal_pcd.c ****   * @param  hpcd PCD handle
ARM GAS  /tmp/ccQdZtFR.s 			page 74


1645:Drivers/STM32F4xx_HAL_Driver/Src/stm32f4xx_hal_pcd.c ****   * @param  epnum endpoint number
1646:Drivers/STM32F4xx_HAL_Driver/Src/stm32f4xx_hal_pcd.c ****   * @retval None
1647:Drivers/STM32F4xx_HAL_Driver/Src/stm32f4xx_hal_pcd.c ****   */
1648:Drivers/STM32F4xx_HAL_Driver/Src/stm32f4xx_hal_pcd.c **** __weak void HAL_PCD_ISOOUTIncompleteCallback(PCD_HandleTypeDef *hpcd, uint8_t epnum)
1649:Drivers/STM32F4xx_HAL_Driver/Src/stm32f4xx_hal_pcd.c **** {
 2517              		.loc 1 1649 1
 2518              		.cfi_startproc
 2519              		@ args = 0, pretend = 0, frame = 8
 2520              		@ frame_needed = 1, uses_anonymous_args = 0
 2521              		@ link register save eliminated.
 2522 0000 80B4     		push	{r7}
 2523              	.LCFI85:
 2524              		.cfi_def_cfa_offset 4
 2525              		.cfi_offset 7, -4
 2526 0002 83B0     		sub	sp, sp, #12
 2527              	.LCFI86:
 2528              		.cfi_def_cfa_offset 16
 2529 0004 00AF     		add	r7, sp, #0
 2530              	.LCFI87:
 2531              		.cfi_def_cfa_register 7
 2532 0006 7860     		str	r0, [r7, #4]
 2533 0008 0B46     		mov	r3, r1
 2534 000a FB70     		strb	r3, [r7, #3]
1650:Drivers/STM32F4xx_HAL_Driver/Src/stm32f4xx_hal_pcd.c ****   /* Prevent unused argument(s) compilation warning */
1651:Drivers/STM32F4xx_HAL_Driver/Src/stm32f4xx_hal_pcd.c ****   UNUSED(hpcd);
1652:Drivers/STM32F4xx_HAL_Driver/Src/stm32f4xx_hal_pcd.c ****   UNUSED(epnum);
1653:Drivers/STM32F4xx_HAL_Driver/Src/stm32f4xx_hal_pcd.c **** 
1654:Drivers/STM32F4xx_HAL_Driver/Src/stm32f4xx_hal_pcd.c ****   /* NOTE : This function should not be modified, when the callback is needed,
1655:Drivers/STM32F4xx_HAL_Driver/Src/stm32f4xx_hal_pcd.c ****             the HAL_PCD_ISOOUTIncompleteCallback could be implemented in the user file
1656:Drivers/STM32F4xx_HAL_Driver/Src/stm32f4xx_hal_pcd.c ****    */
1657:Drivers/STM32F4xx_HAL_Driver/Src/stm32f4xx_hal_pcd.c **** }
 2535              		.loc 1 1657 1
 2536 000c 00BF     		nop
 2537 000e 0C37     		adds	r7, r7, #12
 2538              	.LCFI88:
 2539              		.cfi_def_cfa_offset 4
 2540 0010 BD46     		mov	sp, r7
 2541              	.LCFI89:
 2542              		.cfi_def_cfa_register 13
 2543              		@ sp needed
 2544 0012 5DF8047B 		ldr	r7, [sp], #4
 2545              	.LCFI90:
 2546              		.cfi_restore 7
 2547              		.cfi_def_cfa_offset 0
 2548 0016 7047     		bx	lr
 2549              		.cfi_endproc
 2550              	.LFE250:
 2552              		.section	.text.HAL_PCD_ISOINIncompleteCallback,"ax",%progbits
 2553              		.align	1
 2554              		.weak	HAL_PCD_ISOINIncompleteCallback
 2555              		.syntax unified
 2556              		.thumb
 2557              		.thumb_func
 2559              	HAL_PCD_ISOINIncompleteCallback:
 2560              	.LFB251:
1658:Drivers/STM32F4xx_HAL_Driver/Src/stm32f4xx_hal_pcd.c **** 
1659:Drivers/STM32F4xx_HAL_Driver/Src/stm32f4xx_hal_pcd.c **** /**
ARM GAS  /tmp/ccQdZtFR.s 			page 75


1660:Drivers/STM32F4xx_HAL_Driver/Src/stm32f4xx_hal_pcd.c ****   * @brief  Incomplete ISO IN callback.
1661:Drivers/STM32F4xx_HAL_Driver/Src/stm32f4xx_hal_pcd.c ****   * @param  hpcd PCD handle
1662:Drivers/STM32F4xx_HAL_Driver/Src/stm32f4xx_hal_pcd.c ****   * @param  epnum endpoint number
1663:Drivers/STM32F4xx_HAL_Driver/Src/stm32f4xx_hal_pcd.c ****   * @retval None
1664:Drivers/STM32F4xx_HAL_Driver/Src/stm32f4xx_hal_pcd.c ****   */
1665:Drivers/STM32F4xx_HAL_Driver/Src/stm32f4xx_hal_pcd.c **** __weak void HAL_PCD_ISOINIncompleteCallback(PCD_HandleTypeDef *hpcd, uint8_t epnum)
1666:Drivers/STM32F4xx_HAL_Driver/Src/stm32f4xx_hal_pcd.c **** {
 2561              		.loc 1 1666 1
 2562              		.cfi_startproc
 2563              		@ args = 0, pretend = 0, frame = 8
 2564              		@ frame_needed = 1, uses_anonymous_args = 0
 2565              		@ link register save eliminated.
 2566 0000 80B4     		push	{r7}
 2567              	.LCFI91:
 2568              		.cfi_def_cfa_offset 4
 2569              		.cfi_offset 7, -4
 2570 0002 83B0     		sub	sp, sp, #12
 2571              	.LCFI92:
 2572              		.cfi_def_cfa_offset 16
 2573 0004 00AF     		add	r7, sp, #0
 2574              	.LCFI93:
 2575              		.cfi_def_cfa_register 7
 2576 0006 7860     		str	r0, [r7, #4]
 2577 0008 0B46     		mov	r3, r1
 2578 000a FB70     		strb	r3, [r7, #3]
1667:Drivers/STM32F4xx_HAL_Driver/Src/stm32f4xx_hal_pcd.c ****   /* Prevent unused argument(s) compilation warning */
1668:Drivers/STM32F4xx_HAL_Driver/Src/stm32f4xx_hal_pcd.c ****   UNUSED(hpcd);
1669:Drivers/STM32F4xx_HAL_Driver/Src/stm32f4xx_hal_pcd.c ****   UNUSED(epnum);
1670:Drivers/STM32F4xx_HAL_Driver/Src/stm32f4xx_hal_pcd.c **** 
1671:Drivers/STM32F4xx_HAL_Driver/Src/stm32f4xx_hal_pcd.c ****   /* NOTE : This function should not be modified, when the callback is needed,
1672:Drivers/STM32F4xx_HAL_Driver/Src/stm32f4xx_hal_pcd.c ****             the HAL_PCD_ISOINIncompleteCallback could be implemented in the user file
1673:Drivers/STM32F4xx_HAL_Driver/Src/stm32f4xx_hal_pcd.c ****    */
1674:Drivers/STM32F4xx_HAL_Driver/Src/stm32f4xx_hal_pcd.c **** }
 2579              		.loc 1 1674 1
 2580 000c 00BF     		nop
 2581 000e 0C37     		adds	r7, r7, #12
 2582              	.LCFI94:
 2583              		.cfi_def_cfa_offset 4
 2584 0010 BD46     		mov	sp, r7
 2585              	.LCFI95:
 2586              		.cfi_def_cfa_register 13
 2587              		@ sp needed
 2588 0012 5DF8047B 		ldr	r7, [sp], #4
 2589              	.LCFI96:
 2590              		.cfi_restore 7
 2591              		.cfi_def_cfa_offset 0
 2592 0016 7047     		bx	lr
 2593              		.cfi_endproc
 2594              	.LFE251:
 2596              		.section	.text.HAL_PCD_ConnectCallback,"ax",%progbits
 2597              		.align	1
 2598              		.weak	HAL_PCD_ConnectCallback
 2599              		.syntax unified
 2600              		.thumb
 2601              		.thumb_func
 2603              	HAL_PCD_ConnectCallback:
 2604              	.LFB252:
ARM GAS  /tmp/ccQdZtFR.s 			page 76


1675:Drivers/STM32F4xx_HAL_Driver/Src/stm32f4xx_hal_pcd.c **** 
1676:Drivers/STM32F4xx_HAL_Driver/Src/stm32f4xx_hal_pcd.c **** /**
1677:Drivers/STM32F4xx_HAL_Driver/Src/stm32f4xx_hal_pcd.c ****   * @brief  Connection event callback.
1678:Drivers/STM32F4xx_HAL_Driver/Src/stm32f4xx_hal_pcd.c ****   * @param  hpcd PCD handle
1679:Drivers/STM32F4xx_HAL_Driver/Src/stm32f4xx_hal_pcd.c ****   * @retval None
1680:Drivers/STM32F4xx_HAL_Driver/Src/stm32f4xx_hal_pcd.c ****   */
1681:Drivers/STM32F4xx_HAL_Driver/Src/stm32f4xx_hal_pcd.c **** __weak void HAL_PCD_ConnectCallback(PCD_HandleTypeDef *hpcd)
1682:Drivers/STM32F4xx_HAL_Driver/Src/stm32f4xx_hal_pcd.c **** {
 2605              		.loc 1 1682 1
 2606              		.cfi_startproc
 2607              		@ args = 0, pretend = 0, frame = 8
 2608              		@ frame_needed = 1, uses_anonymous_args = 0
 2609              		@ link register save eliminated.
 2610 0000 80B4     		push	{r7}
 2611              	.LCFI97:
 2612              		.cfi_def_cfa_offset 4
 2613              		.cfi_offset 7, -4
 2614 0002 83B0     		sub	sp, sp, #12
 2615              	.LCFI98:
 2616              		.cfi_def_cfa_offset 16
 2617 0004 00AF     		add	r7, sp, #0
 2618              	.LCFI99:
 2619              		.cfi_def_cfa_register 7
 2620 0006 7860     		str	r0, [r7, #4]
1683:Drivers/STM32F4xx_HAL_Driver/Src/stm32f4xx_hal_pcd.c ****   /* Prevent unused argument(s) compilation warning */
1684:Drivers/STM32F4xx_HAL_Driver/Src/stm32f4xx_hal_pcd.c ****   UNUSED(hpcd);
1685:Drivers/STM32F4xx_HAL_Driver/Src/stm32f4xx_hal_pcd.c **** 
1686:Drivers/STM32F4xx_HAL_Driver/Src/stm32f4xx_hal_pcd.c ****   /* NOTE : This function should not be modified, when the callback is needed,
1687:Drivers/STM32F4xx_HAL_Driver/Src/stm32f4xx_hal_pcd.c ****             the HAL_PCD_ConnectCallback could be implemented in the user file
1688:Drivers/STM32F4xx_HAL_Driver/Src/stm32f4xx_hal_pcd.c ****    */
1689:Drivers/STM32F4xx_HAL_Driver/Src/stm32f4xx_hal_pcd.c **** }
 2621              		.loc 1 1689 1
 2622 0008 00BF     		nop
 2623 000a 0C37     		adds	r7, r7, #12
 2624              	.LCFI100:
 2625              		.cfi_def_cfa_offset 4
 2626 000c BD46     		mov	sp, r7
 2627              	.LCFI101:
 2628              		.cfi_def_cfa_register 13
 2629              		@ sp needed
 2630 000e 5DF8047B 		ldr	r7, [sp], #4
 2631              	.LCFI102:
 2632              		.cfi_restore 7
 2633              		.cfi_def_cfa_offset 0
 2634 0012 7047     		bx	lr
 2635              		.cfi_endproc
 2636              	.LFE252:
 2638              		.section	.text.HAL_PCD_DisconnectCallback,"ax",%progbits
 2639              		.align	1
 2640              		.weak	HAL_PCD_DisconnectCallback
 2641              		.syntax unified
 2642              		.thumb
 2643              		.thumb_func
 2645              	HAL_PCD_DisconnectCallback:
 2646              	.LFB253:
1690:Drivers/STM32F4xx_HAL_Driver/Src/stm32f4xx_hal_pcd.c **** 
1691:Drivers/STM32F4xx_HAL_Driver/Src/stm32f4xx_hal_pcd.c **** /**
ARM GAS  /tmp/ccQdZtFR.s 			page 77


1692:Drivers/STM32F4xx_HAL_Driver/Src/stm32f4xx_hal_pcd.c ****   * @brief  Disconnection event callback.
1693:Drivers/STM32F4xx_HAL_Driver/Src/stm32f4xx_hal_pcd.c ****   * @param  hpcd PCD handle
1694:Drivers/STM32F4xx_HAL_Driver/Src/stm32f4xx_hal_pcd.c ****   * @retval None
1695:Drivers/STM32F4xx_HAL_Driver/Src/stm32f4xx_hal_pcd.c ****   */
1696:Drivers/STM32F4xx_HAL_Driver/Src/stm32f4xx_hal_pcd.c **** __weak void HAL_PCD_DisconnectCallback(PCD_HandleTypeDef *hpcd)
1697:Drivers/STM32F4xx_HAL_Driver/Src/stm32f4xx_hal_pcd.c **** {
 2647              		.loc 1 1697 1
 2648              		.cfi_startproc
 2649              		@ args = 0, pretend = 0, frame = 8
 2650              		@ frame_needed = 1, uses_anonymous_args = 0
 2651              		@ link register save eliminated.
 2652 0000 80B4     		push	{r7}
 2653              	.LCFI103:
 2654              		.cfi_def_cfa_offset 4
 2655              		.cfi_offset 7, -4
 2656 0002 83B0     		sub	sp, sp, #12
 2657              	.LCFI104:
 2658              		.cfi_def_cfa_offset 16
 2659 0004 00AF     		add	r7, sp, #0
 2660              	.LCFI105:
 2661              		.cfi_def_cfa_register 7
 2662 0006 7860     		str	r0, [r7, #4]
1698:Drivers/STM32F4xx_HAL_Driver/Src/stm32f4xx_hal_pcd.c ****   /* Prevent unused argument(s) compilation warning */
1699:Drivers/STM32F4xx_HAL_Driver/Src/stm32f4xx_hal_pcd.c ****   UNUSED(hpcd);
1700:Drivers/STM32F4xx_HAL_Driver/Src/stm32f4xx_hal_pcd.c **** 
1701:Drivers/STM32F4xx_HAL_Driver/Src/stm32f4xx_hal_pcd.c ****   /* NOTE : This function should not be modified, when the callback is needed,
1702:Drivers/STM32F4xx_HAL_Driver/Src/stm32f4xx_hal_pcd.c ****             the HAL_PCD_DisconnectCallback could be implemented in the user file
1703:Drivers/STM32F4xx_HAL_Driver/Src/stm32f4xx_hal_pcd.c ****    */
1704:Drivers/STM32F4xx_HAL_Driver/Src/stm32f4xx_hal_pcd.c **** }
 2663              		.loc 1 1704 1
 2664 0008 00BF     		nop
 2665 000a 0C37     		adds	r7, r7, #12
 2666              	.LCFI106:
 2667              		.cfi_def_cfa_offset 4
 2668 000c BD46     		mov	sp, r7
 2669              	.LCFI107:
 2670              		.cfi_def_cfa_register 13
 2671              		@ sp needed
 2672 000e 5DF8047B 		ldr	r7, [sp], #4
 2673              	.LCFI108:
 2674              		.cfi_restore 7
 2675              		.cfi_def_cfa_offset 0
 2676 0012 7047     		bx	lr
 2677              		.cfi_endproc
 2678              	.LFE253:
 2680              		.section	.text.HAL_PCD_DevConnect,"ax",%progbits
 2681              		.align	1
 2682              		.global	HAL_PCD_DevConnect
 2683              		.syntax unified
 2684              		.thumb
 2685              		.thumb_func
 2687              	HAL_PCD_DevConnect:
 2688              	.LFB254:
1705:Drivers/STM32F4xx_HAL_Driver/Src/stm32f4xx_hal_pcd.c **** 
1706:Drivers/STM32F4xx_HAL_Driver/Src/stm32f4xx_hal_pcd.c **** /**
1707:Drivers/STM32F4xx_HAL_Driver/Src/stm32f4xx_hal_pcd.c ****   * @}
1708:Drivers/STM32F4xx_HAL_Driver/Src/stm32f4xx_hal_pcd.c ****   */
ARM GAS  /tmp/ccQdZtFR.s 			page 78


1709:Drivers/STM32F4xx_HAL_Driver/Src/stm32f4xx_hal_pcd.c **** 
1710:Drivers/STM32F4xx_HAL_Driver/Src/stm32f4xx_hal_pcd.c **** /** @defgroup PCD_Exported_Functions_Group3 Peripheral Control functions
1711:Drivers/STM32F4xx_HAL_Driver/Src/stm32f4xx_hal_pcd.c ****   *  @brief   management functions
1712:Drivers/STM32F4xx_HAL_Driver/Src/stm32f4xx_hal_pcd.c ****   *
1713:Drivers/STM32F4xx_HAL_Driver/Src/stm32f4xx_hal_pcd.c **** @verbatim
1714:Drivers/STM32F4xx_HAL_Driver/Src/stm32f4xx_hal_pcd.c ****  ===============================================================================
1715:Drivers/STM32F4xx_HAL_Driver/Src/stm32f4xx_hal_pcd.c ****                       ##### Peripheral Control functions #####
1716:Drivers/STM32F4xx_HAL_Driver/Src/stm32f4xx_hal_pcd.c ****  ===============================================================================
1717:Drivers/STM32F4xx_HAL_Driver/Src/stm32f4xx_hal_pcd.c ****     [..]
1718:Drivers/STM32F4xx_HAL_Driver/Src/stm32f4xx_hal_pcd.c ****     This subsection provides a set of functions allowing to control the PCD data
1719:Drivers/STM32F4xx_HAL_Driver/Src/stm32f4xx_hal_pcd.c ****     transfers.
1720:Drivers/STM32F4xx_HAL_Driver/Src/stm32f4xx_hal_pcd.c **** 
1721:Drivers/STM32F4xx_HAL_Driver/Src/stm32f4xx_hal_pcd.c **** @endverbatim
1722:Drivers/STM32F4xx_HAL_Driver/Src/stm32f4xx_hal_pcd.c ****   * @{
1723:Drivers/STM32F4xx_HAL_Driver/Src/stm32f4xx_hal_pcd.c ****   */
1724:Drivers/STM32F4xx_HAL_Driver/Src/stm32f4xx_hal_pcd.c **** 
1725:Drivers/STM32F4xx_HAL_Driver/Src/stm32f4xx_hal_pcd.c **** /**
1726:Drivers/STM32F4xx_HAL_Driver/Src/stm32f4xx_hal_pcd.c ****   * @brief  Connect the USB device
1727:Drivers/STM32F4xx_HAL_Driver/Src/stm32f4xx_hal_pcd.c ****   * @param  hpcd PCD handle
1728:Drivers/STM32F4xx_HAL_Driver/Src/stm32f4xx_hal_pcd.c ****   * @retval HAL status
1729:Drivers/STM32F4xx_HAL_Driver/Src/stm32f4xx_hal_pcd.c ****   */
1730:Drivers/STM32F4xx_HAL_Driver/Src/stm32f4xx_hal_pcd.c **** HAL_StatusTypeDef HAL_PCD_DevConnect(PCD_HandleTypeDef *hpcd)
1731:Drivers/STM32F4xx_HAL_Driver/Src/stm32f4xx_hal_pcd.c **** {
 2689              		.loc 1 1731 1
 2690              		.cfi_startproc
 2691              		@ args = 0, pretend = 0, frame = 16
 2692              		@ frame_needed = 1, uses_anonymous_args = 0
 2693 0000 80B5     		push	{r7, lr}
 2694              	.LCFI109:
 2695              		.cfi_def_cfa_offset 8
 2696              		.cfi_offset 7, -8
 2697              		.cfi_offset 14, -4
 2698 0002 84B0     		sub	sp, sp, #16
 2699              	.LCFI110:
 2700              		.cfi_def_cfa_offset 24
 2701 0004 00AF     		add	r7, sp, #0
 2702              	.LCFI111:
 2703              		.cfi_def_cfa_register 7
 2704 0006 7860     		str	r0, [r7, #4]
1732:Drivers/STM32F4xx_HAL_Driver/Src/stm32f4xx_hal_pcd.c ****   USB_OTG_GlobalTypeDef *USBx = hpcd->Instance;
 2705              		.loc 1 1732 26
 2706 0008 7B68     		ldr	r3, [r7, #4]
 2707 000a 1B68     		ldr	r3, [r3]
 2708 000c FB60     		str	r3, [r7, #12]
1733:Drivers/STM32F4xx_HAL_Driver/Src/stm32f4xx_hal_pcd.c **** 
1734:Drivers/STM32F4xx_HAL_Driver/Src/stm32f4xx_hal_pcd.c ****   __HAL_LOCK(hpcd);
 2709              		.loc 1 1734 3
 2710 000e 7B68     		ldr	r3, [r7, #4]
 2711 0010 93F8BC34 		ldrb	r3, [r3, #1212]	@ zero_extendqisi2
 2712 0014 012B     		cmp	r3, #1
 2713 0016 01D1     		bne	.L104
 2714              		.loc 1 1734 3 is_stmt 0 discriminator 1
 2715 0018 0223     		movs	r3, #2
 2716 001a 1BE0     		b	.L105
 2717              	.L104:
 2718              		.loc 1 1734 3 discriminator 2
 2719 001c 7B68     		ldr	r3, [r7, #4]
ARM GAS  /tmp/ccQdZtFR.s 			page 79


 2720 001e 0122     		movs	r2, #1
 2721 0020 83F8BC24 		strb	r2, [r3, #1212]
1735:Drivers/STM32F4xx_HAL_Driver/Src/stm32f4xx_hal_pcd.c **** 
1736:Drivers/STM32F4xx_HAL_Driver/Src/stm32f4xx_hal_pcd.c ****   if ((hpcd->Init.battery_charging_enable == 1U) &&
 2722              		.loc 1 1736 18 is_stmt 1 discriminator 2
 2723 0024 7B68     		ldr	r3, [r7, #4]
 2724 0026 9B6A     		ldr	r3, [r3, #40]
 2725              		.loc 1 1736 6 discriminator 2
 2726 0028 012B     		cmp	r3, #1
 2727 002a 09D1     		bne	.L106
1737:Drivers/STM32F4xx_HAL_Driver/Src/stm32f4xx_hal_pcd.c ****       (hpcd->Init.phy_itface != USB_OTG_ULPI_PHY))
 2728              		.loc 1 1737 18 discriminator 1
 2729 002c 7B68     		ldr	r3, [r7, #4]
 2730 002e 9B69     		ldr	r3, [r3, #24]
1736:Drivers/STM32F4xx_HAL_Driver/Src/stm32f4xx_hal_pcd.c ****       (hpcd->Init.phy_itface != USB_OTG_ULPI_PHY))
 2731              		.loc 1 1736 50 discriminator 1
 2732 0030 012B     		cmp	r3, #1
 2733 0032 05D0     		beq	.L106
1738:Drivers/STM32F4xx_HAL_Driver/Src/stm32f4xx_hal_pcd.c ****   {
1739:Drivers/STM32F4xx_HAL_Driver/Src/stm32f4xx_hal_pcd.c ****     /* Enable USB Transceiver */
1740:Drivers/STM32F4xx_HAL_Driver/Src/stm32f4xx_hal_pcd.c ****     USBx->GCCFG |= USB_OTG_GCCFG_PWRDWN;
 2734              		.loc 1 1740 17
 2735 0034 FB68     		ldr	r3, [r7, #12]
 2736 0036 9B6B     		ldr	r3, [r3, #56]
 2737 0038 43F48032 		orr	r2, r3, #65536
 2738 003c FB68     		ldr	r3, [r7, #12]
 2739 003e 9A63     		str	r2, [r3, #56]
 2740              	.L106:
1741:Drivers/STM32F4xx_HAL_Driver/Src/stm32f4xx_hal_pcd.c ****   }
1742:Drivers/STM32F4xx_HAL_Driver/Src/stm32f4xx_hal_pcd.c ****   (void)USB_DevConnect(hpcd->Instance);
 2741              		.loc 1 1742 28
 2742 0040 7B68     		ldr	r3, [r7, #4]
 2743 0042 1B68     		ldr	r3, [r3]
 2744              		.loc 1 1742 9
 2745 0044 1846     		mov	r0, r3
 2746 0046 FFF7FEFF 		bl	USB_DevConnect
1743:Drivers/STM32F4xx_HAL_Driver/Src/stm32f4xx_hal_pcd.c ****   __HAL_UNLOCK(hpcd);
 2747              		.loc 1 1743 3
 2748 004a 7B68     		ldr	r3, [r7, #4]
 2749 004c 0022     		movs	r2, #0
 2750 004e 83F8BC24 		strb	r2, [r3, #1212]
1744:Drivers/STM32F4xx_HAL_Driver/Src/stm32f4xx_hal_pcd.c **** 
1745:Drivers/STM32F4xx_HAL_Driver/Src/stm32f4xx_hal_pcd.c ****   return HAL_OK;
 2751              		.loc 1 1745 10
 2752 0052 0023     		movs	r3, #0
 2753              	.L105:
1746:Drivers/STM32F4xx_HAL_Driver/Src/stm32f4xx_hal_pcd.c **** }
 2754              		.loc 1 1746 1
 2755 0054 1846     		mov	r0, r3
 2756 0056 1037     		adds	r7, r7, #16
 2757              	.LCFI112:
 2758              		.cfi_def_cfa_offset 8
 2759 0058 BD46     		mov	sp, r7
 2760              	.LCFI113:
 2761              		.cfi_def_cfa_register 13
 2762              		@ sp needed
 2763 005a 80BD     		pop	{r7, pc}
ARM GAS  /tmp/ccQdZtFR.s 			page 80


 2764              		.cfi_endproc
 2765              	.LFE254:
 2767              		.section	.text.HAL_PCD_DevDisconnect,"ax",%progbits
 2768              		.align	1
 2769              		.global	HAL_PCD_DevDisconnect
 2770              		.syntax unified
 2771              		.thumb
 2772              		.thumb_func
 2774              	HAL_PCD_DevDisconnect:
 2775              	.LFB255:
1747:Drivers/STM32F4xx_HAL_Driver/Src/stm32f4xx_hal_pcd.c **** 
1748:Drivers/STM32F4xx_HAL_Driver/Src/stm32f4xx_hal_pcd.c **** /**
1749:Drivers/STM32F4xx_HAL_Driver/Src/stm32f4xx_hal_pcd.c ****   * @brief  Disconnect the USB device.
1750:Drivers/STM32F4xx_HAL_Driver/Src/stm32f4xx_hal_pcd.c ****   * @param  hpcd PCD handle
1751:Drivers/STM32F4xx_HAL_Driver/Src/stm32f4xx_hal_pcd.c ****   * @retval HAL status
1752:Drivers/STM32F4xx_HAL_Driver/Src/stm32f4xx_hal_pcd.c ****   */
1753:Drivers/STM32F4xx_HAL_Driver/Src/stm32f4xx_hal_pcd.c **** HAL_StatusTypeDef HAL_PCD_DevDisconnect(PCD_HandleTypeDef *hpcd)
1754:Drivers/STM32F4xx_HAL_Driver/Src/stm32f4xx_hal_pcd.c **** {
 2776              		.loc 1 1754 1
 2777              		.cfi_startproc
 2778              		@ args = 0, pretend = 0, frame = 16
 2779              		@ frame_needed = 1, uses_anonymous_args = 0
 2780 0000 80B5     		push	{r7, lr}
 2781              	.LCFI114:
 2782              		.cfi_def_cfa_offset 8
 2783              		.cfi_offset 7, -8
 2784              		.cfi_offset 14, -4
 2785 0002 84B0     		sub	sp, sp, #16
 2786              	.LCFI115:
 2787              		.cfi_def_cfa_offset 24
 2788 0004 00AF     		add	r7, sp, #0
 2789              	.LCFI116:
 2790              		.cfi_def_cfa_register 7
 2791 0006 7860     		str	r0, [r7, #4]
1755:Drivers/STM32F4xx_HAL_Driver/Src/stm32f4xx_hal_pcd.c ****   USB_OTG_GlobalTypeDef *USBx = hpcd->Instance;
 2792              		.loc 1 1755 26
 2793 0008 7B68     		ldr	r3, [r7, #4]
 2794 000a 1B68     		ldr	r3, [r3]
 2795 000c FB60     		str	r3, [r7, #12]
1756:Drivers/STM32F4xx_HAL_Driver/Src/stm32f4xx_hal_pcd.c **** 
1757:Drivers/STM32F4xx_HAL_Driver/Src/stm32f4xx_hal_pcd.c ****   __HAL_LOCK(hpcd);
 2796              		.loc 1 1757 3
 2797 000e 7B68     		ldr	r3, [r7, #4]
 2798 0010 93F8BC34 		ldrb	r3, [r3, #1212]	@ zero_extendqisi2
 2799 0014 012B     		cmp	r3, #1
 2800 0016 01D1     		bne	.L108
 2801              		.loc 1 1757 3 is_stmt 0 discriminator 1
 2802 0018 0223     		movs	r3, #2
 2803 001a 1BE0     		b	.L109
 2804              	.L108:
 2805              		.loc 1 1757 3 discriminator 2
 2806 001c 7B68     		ldr	r3, [r7, #4]
 2807 001e 0122     		movs	r2, #1
 2808 0020 83F8BC24 		strb	r2, [r3, #1212]
1758:Drivers/STM32F4xx_HAL_Driver/Src/stm32f4xx_hal_pcd.c ****   (void)USB_DevDisconnect(hpcd->Instance);
 2809              		.loc 1 1758 31 is_stmt 1 discriminator 2
 2810 0024 7B68     		ldr	r3, [r7, #4]
ARM GAS  /tmp/ccQdZtFR.s 			page 81


 2811 0026 1B68     		ldr	r3, [r3]
 2812              		.loc 1 1758 9 discriminator 2
 2813 0028 1846     		mov	r0, r3
 2814 002a FFF7FEFF 		bl	USB_DevDisconnect
1759:Drivers/STM32F4xx_HAL_Driver/Src/stm32f4xx_hal_pcd.c **** 
1760:Drivers/STM32F4xx_HAL_Driver/Src/stm32f4xx_hal_pcd.c ****   if ((hpcd->Init.battery_charging_enable == 1U) &&
 2815              		.loc 1 1760 18 discriminator 2
 2816 002e 7B68     		ldr	r3, [r7, #4]
 2817 0030 9B6A     		ldr	r3, [r3, #40]
 2818              		.loc 1 1760 6 discriminator 2
 2819 0032 012B     		cmp	r3, #1
 2820 0034 09D1     		bne	.L110
1761:Drivers/STM32F4xx_HAL_Driver/Src/stm32f4xx_hal_pcd.c ****       (hpcd->Init.phy_itface != USB_OTG_ULPI_PHY))
 2821              		.loc 1 1761 18 discriminator 1
 2822 0036 7B68     		ldr	r3, [r7, #4]
 2823 0038 9B69     		ldr	r3, [r3, #24]
1760:Drivers/STM32F4xx_HAL_Driver/Src/stm32f4xx_hal_pcd.c ****       (hpcd->Init.phy_itface != USB_OTG_ULPI_PHY))
 2824              		.loc 1 1760 50 discriminator 1
 2825 003a 012B     		cmp	r3, #1
 2826 003c 05D0     		beq	.L110
1762:Drivers/STM32F4xx_HAL_Driver/Src/stm32f4xx_hal_pcd.c ****   {
1763:Drivers/STM32F4xx_HAL_Driver/Src/stm32f4xx_hal_pcd.c ****     /* Disable USB Transceiver */
1764:Drivers/STM32F4xx_HAL_Driver/Src/stm32f4xx_hal_pcd.c ****     USBx->GCCFG &= ~(USB_OTG_GCCFG_PWRDWN);
 2827              		.loc 1 1764 17
 2828 003e FB68     		ldr	r3, [r7, #12]
 2829 0040 9B6B     		ldr	r3, [r3, #56]
 2830 0042 23F48032 		bic	r2, r3, #65536
 2831 0046 FB68     		ldr	r3, [r7, #12]
 2832 0048 9A63     		str	r2, [r3, #56]
 2833              	.L110:
1765:Drivers/STM32F4xx_HAL_Driver/Src/stm32f4xx_hal_pcd.c ****   }
1766:Drivers/STM32F4xx_HAL_Driver/Src/stm32f4xx_hal_pcd.c **** 
1767:Drivers/STM32F4xx_HAL_Driver/Src/stm32f4xx_hal_pcd.c ****   __HAL_UNLOCK(hpcd);
 2834              		.loc 1 1767 3
 2835 004a 7B68     		ldr	r3, [r7, #4]
 2836 004c 0022     		movs	r2, #0
 2837 004e 83F8BC24 		strb	r2, [r3, #1212]
1768:Drivers/STM32F4xx_HAL_Driver/Src/stm32f4xx_hal_pcd.c **** 
1769:Drivers/STM32F4xx_HAL_Driver/Src/stm32f4xx_hal_pcd.c ****   return HAL_OK;
 2838              		.loc 1 1769 10
 2839 0052 0023     		movs	r3, #0
 2840              	.L109:
1770:Drivers/STM32F4xx_HAL_Driver/Src/stm32f4xx_hal_pcd.c **** }
 2841              		.loc 1 1770 1
 2842 0054 1846     		mov	r0, r3
 2843 0056 1037     		adds	r7, r7, #16
 2844              	.LCFI117:
 2845              		.cfi_def_cfa_offset 8
 2846 0058 BD46     		mov	sp, r7
 2847              	.LCFI118:
 2848              		.cfi_def_cfa_register 13
 2849              		@ sp needed
 2850 005a 80BD     		pop	{r7, pc}
 2851              		.cfi_endproc
 2852              	.LFE255:
 2854              		.section	.text.HAL_PCD_SetAddress,"ax",%progbits
 2855              		.align	1
ARM GAS  /tmp/ccQdZtFR.s 			page 82


 2856              		.global	HAL_PCD_SetAddress
 2857              		.syntax unified
 2858              		.thumb
 2859              		.thumb_func
 2861              	HAL_PCD_SetAddress:
 2862              	.LFB256:
1771:Drivers/STM32F4xx_HAL_Driver/Src/stm32f4xx_hal_pcd.c **** 
1772:Drivers/STM32F4xx_HAL_Driver/Src/stm32f4xx_hal_pcd.c **** /**
1773:Drivers/STM32F4xx_HAL_Driver/Src/stm32f4xx_hal_pcd.c ****   * @brief  Set the USB Device address.
1774:Drivers/STM32F4xx_HAL_Driver/Src/stm32f4xx_hal_pcd.c ****   * @param  hpcd PCD handle
1775:Drivers/STM32F4xx_HAL_Driver/Src/stm32f4xx_hal_pcd.c ****   * @param  address new device address
1776:Drivers/STM32F4xx_HAL_Driver/Src/stm32f4xx_hal_pcd.c ****   * @retval HAL status
1777:Drivers/STM32F4xx_HAL_Driver/Src/stm32f4xx_hal_pcd.c ****   */
1778:Drivers/STM32F4xx_HAL_Driver/Src/stm32f4xx_hal_pcd.c **** HAL_StatusTypeDef HAL_PCD_SetAddress(PCD_HandleTypeDef *hpcd, uint8_t address)
1779:Drivers/STM32F4xx_HAL_Driver/Src/stm32f4xx_hal_pcd.c **** {
 2863              		.loc 1 1779 1
 2864              		.cfi_startproc
 2865              		@ args = 0, pretend = 0, frame = 8
 2866              		@ frame_needed = 1, uses_anonymous_args = 0
 2867 0000 80B5     		push	{r7, lr}
 2868              	.LCFI119:
 2869              		.cfi_def_cfa_offset 8
 2870              		.cfi_offset 7, -8
 2871              		.cfi_offset 14, -4
 2872 0002 82B0     		sub	sp, sp, #8
 2873              	.LCFI120:
 2874              		.cfi_def_cfa_offset 16
 2875 0004 00AF     		add	r7, sp, #0
 2876              	.LCFI121:
 2877              		.cfi_def_cfa_register 7
 2878 0006 7860     		str	r0, [r7, #4]
 2879 0008 0B46     		mov	r3, r1
 2880 000a FB70     		strb	r3, [r7, #3]
1780:Drivers/STM32F4xx_HAL_Driver/Src/stm32f4xx_hal_pcd.c ****   __HAL_LOCK(hpcd);
 2881              		.loc 1 1780 3
 2882 000c 7B68     		ldr	r3, [r7, #4]
 2883 000e 93F8BC34 		ldrb	r3, [r3, #1212]	@ zero_extendqisi2
 2884 0012 012B     		cmp	r3, #1
 2885 0014 01D1     		bne	.L112
 2886              		.loc 1 1780 3 is_stmt 0 discriminator 1
 2887 0016 0223     		movs	r3, #2
 2888 0018 13E0     		b	.L113
 2889              	.L112:
 2890              		.loc 1 1780 3 discriminator 2
 2891 001a 7B68     		ldr	r3, [r7, #4]
 2892 001c 0122     		movs	r2, #1
 2893 001e 83F8BC24 		strb	r2, [r3, #1212]
1781:Drivers/STM32F4xx_HAL_Driver/Src/stm32f4xx_hal_pcd.c ****   hpcd->USB_Address = address;
 2894              		.loc 1 1781 21 is_stmt 1 discriminator 2
 2895 0022 7B68     		ldr	r3, [r7, #4]
 2896 0024 FA78     		ldrb	r2, [r7, #3]
 2897 0026 83F83820 		strb	r2, [r3, #56]
1782:Drivers/STM32F4xx_HAL_Driver/Src/stm32f4xx_hal_pcd.c ****   (void)USB_SetDevAddress(hpcd->Instance, address);
 2898              		.loc 1 1782 31 discriminator 2
 2899 002a 7B68     		ldr	r3, [r7, #4]
 2900 002c 1B68     		ldr	r3, [r3]
 2901              		.loc 1 1782 9 discriminator 2
ARM GAS  /tmp/ccQdZtFR.s 			page 83


 2902 002e FA78     		ldrb	r2, [r7, #3]	@ zero_extendqisi2
 2903 0030 1146     		mov	r1, r2
 2904 0032 1846     		mov	r0, r3
 2905 0034 FFF7FEFF 		bl	USB_SetDevAddress
1783:Drivers/STM32F4xx_HAL_Driver/Src/stm32f4xx_hal_pcd.c ****   __HAL_UNLOCK(hpcd);
 2906              		.loc 1 1783 3 discriminator 2
 2907 0038 7B68     		ldr	r3, [r7, #4]
 2908 003a 0022     		movs	r2, #0
 2909 003c 83F8BC24 		strb	r2, [r3, #1212]
1784:Drivers/STM32F4xx_HAL_Driver/Src/stm32f4xx_hal_pcd.c **** 
1785:Drivers/STM32F4xx_HAL_Driver/Src/stm32f4xx_hal_pcd.c ****   return HAL_OK;
 2910              		.loc 1 1785 10 discriminator 2
 2911 0040 0023     		movs	r3, #0
 2912              	.L113:
1786:Drivers/STM32F4xx_HAL_Driver/Src/stm32f4xx_hal_pcd.c **** }
 2913              		.loc 1 1786 1
 2914 0042 1846     		mov	r0, r3
 2915 0044 0837     		adds	r7, r7, #8
 2916              	.LCFI122:
 2917              		.cfi_def_cfa_offset 8
 2918 0046 BD46     		mov	sp, r7
 2919              	.LCFI123:
 2920              		.cfi_def_cfa_register 13
 2921              		@ sp needed
 2922 0048 80BD     		pop	{r7, pc}
 2923              		.cfi_endproc
 2924              	.LFE256:
 2926              		.section	.text.HAL_PCD_EP_Open,"ax",%progbits
 2927              		.align	1
 2928              		.global	HAL_PCD_EP_Open
 2929              		.syntax unified
 2930              		.thumb
 2931              		.thumb_func
 2933              	HAL_PCD_EP_Open:
 2934              	.LFB257:
1787:Drivers/STM32F4xx_HAL_Driver/Src/stm32f4xx_hal_pcd.c **** /**
1788:Drivers/STM32F4xx_HAL_Driver/Src/stm32f4xx_hal_pcd.c ****   * @brief  Open and configure an endpoint.
1789:Drivers/STM32F4xx_HAL_Driver/Src/stm32f4xx_hal_pcd.c ****   * @param  hpcd PCD handle
1790:Drivers/STM32F4xx_HAL_Driver/Src/stm32f4xx_hal_pcd.c ****   * @param  ep_addr endpoint address
1791:Drivers/STM32F4xx_HAL_Driver/Src/stm32f4xx_hal_pcd.c ****   * @param  ep_mps endpoint max packet size
1792:Drivers/STM32F4xx_HAL_Driver/Src/stm32f4xx_hal_pcd.c ****   * @param  ep_type endpoint type
1793:Drivers/STM32F4xx_HAL_Driver/Src/stm32f4xx_hal_pcd.c ****   * @retval HAL status
1794:Drivers/STM32F4xx_HAL_Driver/Src/stm32f4xx_hal_pcd.c ****   */
1795:Drivers/STM32F4xx_HAL_Driver/Src/stm32f4xx_hal_pcd.c **** HAL_StatusTypeDef HAL_PCD_EP_Open(PCD_HandleTypeDef *hpcd, uint8_t ep_addr,
1796:Drivers/STM32F4xx_HAL_Driver/Src/stm32f4xx_hal_pcd.c ****                                   uint16_t ep_mps, uint8_t ep_type)
1797:Drivers/STM32F4xx_HAL_Driver/Src/stm32f4xx_hal_pcd.c **** {
 2935              		.loc 1 1797 1
 2936              		.cfi_startproc
 2937              		@ args = 0, pretend = 0, frame = 16
 2938              		@ frame_needed = 1, uses_anonymous_args = 0
 2939 0000 80B5     		push	{r7, lr}
 2940              	.LCFI124:
 2941              		.cfi_def_cfa_offset 8
 2942              		.cfi_offset 7, -8
 2943              		.cfi_offset 14, -4
 2944 0002 84B0     		sub	sp, sp, #16
 2945              	.LCFI125:
ARM GAS  /tmp/ccQdZtFR.s 			page 84


 2946              		.cfi_def_cfa_offset 24
 2947 0004 00AF     		add	r7, sp, #0
 2948              	.LCFI126:
 2949              		.cfi_def_cfa_register 7
 2950 0006 7860     		str	r0, [r7, #4]
 2951 0008 0846     		mov	r0, r1
 2952 000a 1146     		mov	r1, r2
 2953 000c 1A46     		mov	r2, r3
 2954 000e 0346     		mov	r3, r0
 2955 0010 FB70     		strb	r3, [r7, #3]
 2956 0012 0B46     		mov	r3, r1	@ movhi
 2957 0014 3B80     		strh	r3, [r7]	@ movhi
 2958 0016 1346     		mov	r3, r2
 2959 0018 BB70     		strb	r3, [r7, #2]
1798:Drivers/STM32F4xx_HAL_Driver/Src/stm32f4xx_hal_pcd.c ****   HAL_StatusTypeDef  ret = HAL_OK;
 2960              		.loc 1 1798 22
 2961 001a 0023     		movs	r3, #0
 2962 001c FB72     		strb	r3, [r7, #11]
1799:Drivers/STM32F4xx_HAL_Driver/Src/stm32f4xx_hal_pcd.c ****   PCD_EPTypeDef *ep;
1800:Drivers/STM32F4xx_HAL_Driver/Src/stm32f4xx_hal_pcd.c **** 
1801:Drivers/STM32F4xx_HAL_Driver/Src/stm32f4xx_hal_pcd.c ****   if ((ep_addr & 0x80U) == 0x80U)
 2963              		.loc 1 1801 25
 2964 001e 97F90330 		ldrsb	r3, [r7, #3]
 2965              		.loc 1 1801 6
 2966 0022 002B     		cmp	r3, #0
 2967 0024 0FDA     		bge	.L115
1802:Drivers/STM32F4xx_HAL_Driver/Src/stm32f4xx_hal_pcd.c ****   {
1803:Drivers/STM32F4xx_HAL_Driver/Src/stm32f4xx_hal_pcd.c ****     ep = &hpcd->IN_ep[ep_addr & EP_ADDR_MSK];
 2968              		.loc 1 1803 31
 2969 0026 FB78     		ldrb	r3, [r7, #3]	@ zero_extendqisi2
 2970 0028 03F00F02 		and	r2, r3, #15
 2971              		.loc 1 1803 8
 2972 002c 1346     		mov	r3, r2
 2973 002e DB00     		lsls	r3, r3, #3
 2974 0030 1344     		add	r3, r3, r2
 2975 0032 9B00     		lsls	r3, r3, #2
 2976 0034 3833     		adds	r3, r3, #56
 2977 0036 7A68     		ldr	r2, [r7, #4]
 2978 0038 1344     		add	r3, r3, r2
 2979 003a 0433     		adds	r3, r3, #4
 2980 003c FB60     		str	r3, [r7, #12]
1804:Drivers/STM32F4xx_HAL_Driver/Src/stm32f4xx_hal_pcd.c ****     ep->is_in = 1U;
 2981              		.loc 1 1804 15
 2982 003e FB68     		ldr	r3, [r7, #12]
 2983 0040 0122     		movs	r2, #1
 2984 0042 5A70     		strb	r2, [r3, #1]
 2985 0044 0FE0     		b	.L116
 2986              	.L115:
1805:Drivers/STM32F4xx_HAL_Driver/Src/stm32f4xx_hal_pcd.c ****   }
1806:Drivers/STM32F4xx_HAL_Driver/Src/stm32f4xx_hal_pcd.c ****   else
1807:Drivers/STM32F4xx_HAL_Driver/Src/stm32f4xx_hal_pcd.c ****   {
1808:Drivers/STM32F4xx_HAL_Driver/Src/stm32f4xx_hal_pcd.c ****     ep = &hpcd->OUT_ep[ep_addr & EP_ADDR_MSK];
 2987              		.loc 1 1808 32
 2988 0046 FB78     		ldrb	r3, [r7, #3]	@ zero_extendqisi2
 2989 0048 03F00F02 		and	r2, r3, #15
 2990              		.loc 1 1808 8
 2991 004c 1346     		mov	r3, r2
ARM GAS  /tmp/ccQdZtFR.s 			page 85


 2992 004e DB00     		lsls	r3, r3, #3
 2993 0050 1344     		add	r3, r3, r2
 2994 0052 9B00     		lsls	r3, r3, #2
 2995 0054 03F51E73 		add	r3, r3, #632
 2996 0058 7A68     		ldr	r2, [r7, #4]
 2997 005a 1344     		add	r3, r3, r2
 2998 005c 0433     		adds	r3, r3, #4
 2999 005e FB60     		str	r3, [r7, #12]
1809:Drivers/STM32F4xx_HAL_Driver/Src/stm32f4xx_hal_pcd.c ****     ep->is_in = 0U;
 3000              		.loc 1 1809 15
 3001 0060 FB68     		ldr	r3, [r7, #12]
 3002 0062 0022     		movs	r2, #0
 3003 0064 5A70     		strb	r2, [r3, #1]
 3004              	.L116:
1810:Drivers/STM32F4xx_HAL_Driver/Src/stm32f4xx_hal_pcd.c ****   }
1811:Drivers/STM32F4xx_HAL_Driver/Src/stm32f4xx_hal_pcd.c **** 
1812:Drivers/STM32F4xx_HAL_Driver/Src/stm32f4xx_hal_pcd.c ****   ep->num = ep_addr & EP_ADDR_MSK;
 3005              		.loc 1 1812 21
 3006 0066 FB78     		ldrb	r3, [r7, #3]
 3007 0068 03F00F03 		and	r3, r3, #15
 3008 006c DAB2     		uxtb	r2, r3
 3009              		.loc 1 1812 11
 3010 006e FB68     		ldr	r3, [r7, #12]
 3011 0070 1A70     		strb	r2, [r3]
1813:Drivers/STM32F4xx_HAL_Driver/Src/stm32f4xx_hal_pcd.c ****   ep->maxpacket = ep_mps;
 3012              		.loc 1 1813 17
 3013 0072 3A88     		ldrh	r2, [r7]
 3014 0074 FB68     		ldr	r3, [r7, #12]
 3015 0076 DA60     		str	r2, [r3, #12]
1814:Drivers/STM32F4xx_HAL_Driver/Src/stm32f4xx_hal_pcd.c ****   ep->type = ep_type;
 3016              		.loc 1 1814 12
 3017 0078 FB68     		ldr	r3, [r7, #12]
 3018 007a BA78     		ldrb	r2, [r7, #2]
 3019 007c 1A71     		strb	r2, [r3, #4]
1815:Drivers/STM32F4xx_HAL_Driver/Src/stm32f4xx_hal_pcd.c **** 
1816:Drivers/STM32F4xx_HAL_Driver/Src/stm32f4xx_hal_pcd.c ****   if (ep->is_in != 0U)
 3020              		.loc 1 1816 9
 3021 007e FB68     		ldr	r3, [r7, #12]
 3022 0080 5B78     		ldrb	r3, [r3, #1]	@ zero_extendqisi2
 3023              		.loc 1 1816 6
 3024 0082 002B     		cmp	r3, #0
 3025 0084 04D0     		beq	.L117
1817:Drivers/STM32F4xx_HAL_Driver/Src/stm32f4xx_hal_pcd.c ****   {
1818:Drivers/STM32F4xx_HAL_Driver/Src/stm32f4xx_hal_pcd.c ****     /* Assign a Tx FIFO */
1819:Drivers/STM32F4xx_HAL_Driver/Src/stm32f4xx_hal_pcd.c ****     ep->tx_fifo_num = ep->num;
 3026              		.loc 1 1819 25
 3027 0086 FB68     		ldr	r3, [r7, #12]
 3028 0088 1B78     		ldrb	r3, [r3]	@ zero_extendqisi2
 3029 008a 9AB2     		uxth	r2, r3
 3030              		.loc 1 1819 21
 3031 008c FB68     		ldr	r3, [r7, #12]
 3032 008e 1A81     		strh	r2, [r3, #8]	@ movhi
 3033              	.L117:
1820:Drivers/STM32F4xx_HAL_Driver/Src/stm32f4xx_hal_pcd.c ****   }
1821:Drivers/STM32F4xx_HAL_Driver/Src/stm32f4xx_hal_pcd.c ****   /* Set initial data PID. */
1822:Drivers/STM32F4xx_HAL_Driver/Src/stm32f4xx_hal_pcd.c ****   if (ep_type == EP_TYPE_BULK)
 3034              		.loc 1 1822 6
ARM GAS  /tmp/ccQdZtFR.s 			page 86


 3035 0090 BB78     		ldrb	r3, [r7, #2]	@ zero_extendqisi2
 3036 0092 022B     		cmp	r3, #2
 3037 0094 02D1     		bne	.L118
1823:Drivers/STM32F4xx_HAL_Driver/Src/stm32f4xx_hal_pcd.c ****   {
1824:Drivers/STM32F4xx_HAL_Driver/Src/stm32f4xx_hal_pcd.c ****     ep->data_pid_start = 0U;
 3038              		.loc 1 1824 24
 3039 0096 FB68     		ldr	r3, [r7, #12]
 3040 0098 0022     		movs	r2, #0
 3041 009a 5A71     		strb	r2, [r3, #5]
 3042              	.L118:
1825:Drivers/STM32F4xx_HAL_Driver/Src/stm32f4xx_hal_pcd.c ****   }
1826:Drivers/STM32F4xx_HAL_Driver/Src/stm32f4xx_hal_pcd.c **** 
1827:Drivers/STM32F4xx_HAL_Driver/Src/stm32f4xx_hal_pcd.c ****   __HAL_LOCK(hpcd);
 3043              		.loc 1 1827 3
 3044 009c 7B68     		ldr	r3, [r7, #4]
 3045 009e 93F8BC34 		ldrb	r3, [r3, #1212]	@ zero_extendqisi2
 3046 00a2 012B     		cmp	r3, #1
 3047 00a4 01D1     		bne	.L119
 3048              		.loc 1 1827 3 is_stmt 0 discriminator 1
 3049 00a6 0223     		movs	r3, #2
 3050 00a8 0EE0     		b	.L120
 3051              	.L119:
 3052              		.loc 1 1827 3 discriminator 2
 3053 00aa 7B68     		ldr	r3, [r7, #4]
 3054 00ac 0122     		movs	r2, #1
 3055 00ae 83F8BC24 		strb	r2, [r3, #1212]
1828:Drivers/STM32F4xx_HAL_Driver/Src/stm32f4xx_hal_pcd.c ****   (void)USB_ActivateEndpoint(hpcd->Instance, ep);
 3056              		.loc 1 1828 34 is_stmt 1 discriminator 2
 3057 00b2 7B68     		ldr	r3, [r7, #4]
 3058 00b4 1B68     		ldr	r3, [r3]
 3059              		.loc 1 1828 9 discriminator 2
 3060 00b6 F968     		ldr	r1, [r7, #12]
 3061 00b8 1846     		mov	r0, r3
 3062 00ba FFF7FEFF 		bl	USB_ActivateEndpoint
1829:Drivers/STM32F4xx_HAL_Driver/Src/stm32f4xx_hal_pcd.c ****   __HAL_UNLOCK(hpcd);
 3063              		.loc 1 1829 3 discriminator 2
 3064 00be 7B68     		ldr	r3, [r7, #4]
 3065 00c0 0022     		movs	r2, #0
 3066 00c2 83F8BC24 		strb	r2, [r3, #1212]
1830:Drivers/STM32F4xx_HAL_Driver/Src/stm32f4xx_hal_pcd.c **** 
1831:Drivers/STM32F4xx_HAL_Driver/Src/stm32f4xx_hal_pcd.c ****   return ret;
 3067              		.loc 1 1831 10 discriminator 2
 3068 00c6 FB7A     		ldrb	r3, [r7, #11]	@ zero_extendqisi2
 3069              	.L120:
1832:Drivers/STM32F4xx_HAL_Driver/Src/stm32f4xx_hal_pcd.c **** }
 3070              		.loc 1 1832 1
 3071 00c8 1846     		mov	r0, r3
 3072 00ca 1037     		adds	r7, r7, #16
 3073              	.LCFI127:
 3074              		.cfi_def_cfa_offset 8
 3075 00cc BD46     		mov	sp, r7
 3076              	.LCFI128:
 3077              		.cfi_def_cfa_register 13
 3078              		@ sp needed
 3079 00ce 80BD     		pop	{r7, pc}
 3080              		.cfi_endproc
 3081              	.LFE257:
ARM GAS  /tmp/ccQdZtFR.s 			page 87


 3083              		.section	.text.HAL_PCD_EP_Close,"ax",%progbits
 3084              		.align	1
 3085              		.global	HAL_PCD_EP_Close
 3086              		.syntax unified
 3087              		.thumb
 3088              		.thumb_func
 3090              	HAL_PCD_EP_Close:
 3091              	.LFB258:
1833:Drivers/STM32F4xx_HAL_Driver/Src/stm32f4xx_hal_pcd.c **** 
1834:Drivers/STM32F4xx_HAL_Driver/Src/stm32f4xx_hal_pcd.c **** /**
1835:Drivers/STM32F4xx_HAL_Driver/Src/stm32f4xx_hal_pcd.c ****   * @brief  Deactivate an endpoint.
1836:Drivers/STM32F4xx_HAL_Driver/Src/stm32f4xx_hal_pcd.c ****   * @param  hpcd PCD handle
1837:Drivers/STM32F4xx_HAL_Driver/Src/stm32f4xx_hal_pcd.c ****   * @param  ep_addr endpoint address
1838:Drivers/STM32F4xx_HAL_Driver/Src/stm32f4xx_hal_pcd.c ****   * @retval HAL status
1839:Drivers/STM32F4xx_HAL_Driver/Src/stm32f4xx_hal_pcd.c ****   */
1840:Drivers/STM32F4xx_HAL_Driver/Src/stm32f4xx_hal_pcd.c **** HAL_StatusTypeDef HAL_PCD_EP_Close(PCD_HandleTypeDef *hpcd, uint8_t ep_addr)
1841:Drivers/STM32F4xx_HAL_Driver/Src/stm32f4xx_hal_pcd.c **** {
 3092              		.loc 1 1841 1
 3093              		.cfi_startproc
 3094              		@ args = 0, pretend = 0, frame = 16
 3095              		@ frame_needed = 1, uses_anonymous_args = 0
 3096 0000 80B5     		push	{r7, lr}
 3097              	.LCFI129:
 3098              		.cfi_def_cfa_offset 8
 3099              		.cfi_offset 7, -8
 3100              		.cfi_offset 14, -4
 3101 0002 84B0     		sub	sp, sp, #16
 3102              	.LCFI130:
 3103              		.cfi_def_cfa_offset 24
 3104 0004 00AF     		add	r7, sp, #0
 3105              	.LCFI131:
 3106              		.cfi_def_cfa_register 7
 3107 0006 7860     		str	r0, [r7, #4]
 3108 0008 0B46     		mov	r3, r1
 3109 000a FB70     		strb	r3, [r7, #3]
1842:Drivers/STM32F4xx_HAL_Driver/Src/stm32f4xx_hal_pcd.c ****   PCD_EPTypeDef *ep;
1843:Drivers/STM32F4xx_HAL_Driver/Src/stm32f4xx_hal_pcd.c **** 
1844:Drivers/STM32F4xx_HAL_Driver/Src/stm32f4xx_hal_pcd.c ****   if ((ep_addr & 0x80U) == 0x80U)
 3110              		.loc 1 1844 25
 3111 000c 97F90330 		ldrsb	r3, [r7, #3]
 3112              		.loc 1 1844 6
 3113 0010 002B     		cmp	r3, #0
 3114 0012 0FDA     		bge	.L122
1845:Drivers/STM32F4xx_HAL_Driver/Src/stm32f4xx_hal_pcd.c ****   {
1846:Drivers/STM32F4xx_HAL_Driver/Src/stm32f4xx_hal_pcd.c ****     ep = &hpcd->IN_ep[ep_addr & EP_ADDR_MSK];
 3115              		.loc 1 1846 31
 3116 0014 FB78     		ldrb	r3, [r7, #3]	@ zero_extendqisi2
 3117 0016 03F00F02 		and	r2, r3, #15
 3118              		.loc 1 1846 8
 3119 001a 1346     		mov	r3, r2
 3120 001c DB00     		lsls	r3, r3, #3
 3121 001e 1344     		add	r3, r3, r2
 3122 0020 9B00     		lsls	r3, r3, #2
 3123 0022 3833     		adds	r3, r3, #56
 3124 0024 7A68     		ldr	r2, [r7, #4]
 3125 0026 1344     		add	r3, r3, r2
 3126 0028 0433     		adds	r3, r3, #4
ARM GAS  /tmp/ccQdZtFR.s 			page 88


 3127 002a FB60     		str	r3, [r7, #12]
1847:Drivers/STM32F4xx_HAL_Driver/Src/stm32f4xx_hal_pcd.c ****     ep->is_in = 1U;
 3128              		.loc 1 1847 15
 3129 002c FB68     		ldr	r3, [r7, #12]
 3130 002e 0122     		movs	r2, #1
 3131 0030 5A70     		strb	r2, [r3, #1]
 3132 0032 0FE0     		b	.L123
 3133              	.L122:
1848:Drivers/STM32F4xx_HAL_Driver/Src/stm32f4xx_hal_pcd.c ****   }
1849:Drivers/STM32F4xx_HAL_Driver/Src/stm32f4xx_hal_pcd.c ****   else
1850:Drivers/STM32F4xx_HAL_Driver/Src/stm32f4xx_hal_pcd.c ****   {
1851:Drivers/STM32F4xx_HAL_Driver/Src/stm32f4xx_hal_pcd.c ****     ep = &hpcd->OUT_ep[ep_addr & EP_ADDR_MSK];
 3134              		.loc 1 1851 32
 3135 0034 FB78     		ldrb	r3, [r7, #3]	@ zero_extendqisi2
 3136 0036 03F00F02 		and	r2, r3, #15
 3137              		.loc 1 1851 8
 3138 003a 1346     		mov	r3, r2
 3139 003c DB00     		lsls	r3, r3, #3
 3140 003e 1344     		add	r3, r3, r2
 3141 0040 9B00     		lsls	r3, r3, #2
 3142 0042 03F51E73 		add	r3, r3, #632
 3143 0046 7A68     		ldr	r2, [r7, #4]
 3144 0048 1344     		add	r3, r3, r2
 3145 004a 0433     		adds	r3, r3, #4
 3146 004c FB60     		str	r3, [r7, #12]
1852:Drivers/STM32F4xx_HAL_Driver/Src/stm32f4xx_hal_pcd.c ****     ep->is_in = 0U;
 3147              		.loc 1 1852 15
 3148 004e FB68     		ldr	r3, [r7, #12]
 3149 0050 0022     		movs	r2, #0
 3150 0052 5A70     		strb	r2, [r3, #1]
 3151              	.L123:
1853:Drivers/STM32F4xx_HAL_Driver/Src/stm32f4xx_hal_pcd.c ****   }
1854:Drivers/STM32F4xx_HAL_Driver/Src/stm32f4xx_hal_pcd.c ****   ep->num   = ep_addr & EP_ADDR_MSK;
 3152              		.loc 1 1854 23
 3153 0054 FB78     		ldrb	r3, [r7, #3]
 3154 0056 03F00F03 		and	r3, r3, #15
 3155 005a DAB2     		uxtb	r2, r3
 3156              		.loc 1 1854 13
 3157 005c FB68     		ldr	r3, [r7, #12]
 3158 005e 1A70     		strb	r2, [r3]
1855:Drivers/STM32F4xx_HAL_Driver/Src/stm32f4xx_hal_pcd.c **** 
1856:Drivers/STM32F4xx_HAL_Driver/Src/stm32f4xx_hal_pcd.c ****   __HAL_LOCK(hpcd);
 3159              		.loc 1 1856 3
 3160 0060 7B68     		ldr	r3, [r7, #4]
 3161 0062 93F8BC34 		ldrb	r3, [r3, #1212]	@ zero_extendqisi2
 3162 0066 012B     		cmp	r3, #1
 3163 0068 01D1     		bne	.L124
 3164              		.loc 1 1856 3 is_stmt 0 discriminator 1
 3165 006a 0223     		movs	r3, #2
 3166 006c 0EE0     		b	.L125
 3167              	.L124:
 3168              		.loc 1 1856 3 discriminator 2
 3169 006e 7B68     		ldr	r3, [r7, #4]
 3170 0070 0122     		movs	r2, #1
 3171 0072 83F8BC24 		strb	r2, [r3, #1212]
1857:Drivers/STM32F4xx_HAL_Driver/Src/stm32f4xx_hal_pcd.c ****   (void)USB_DeactivateEndpoint(hpcd->Instance, ep);
 3172              		.loc 1 1857 36 is_stmt 1 discriminator 2
ARM GAS  /tmp/ccQdZtFR.s 			page 89


 3173 0076 7B68     		ldr	r3, [r7, #4]
 3174 0078 1B68     		ldr	r3, [r3]
 3175              		.loc 1 1857 9 discriminator 2
 3176 007a F968     		ldr	r1, [r7, #12]
 3177 007c 1846     		mov	r0, r3
 3178 007e FFF7FEFF 		bl	USB_DeactivateEndpoint
1858:Drivers/STM32F4xx_HAL_Driver/Src/stm32f4xx_hal_pcd.c ****   __HAL_UNLOCK(hpcd);
 3179              		.loc 1 1858 3 discriminator 2
 3180 0082 7B68     		ldr	r3, [r7, #4]
 3181 0084 0022     		movs	r2, #0
 3182 0086 83F8BC24 		strb	r2, [r3, #1212]
1859:Drivers/STM32F4xx_HAL_Driver/Src/stm32f4xx_hal_pcd.c ****   return HAL_OK;
 3183              		.loc 1 1859 10 discriminator 2
 3184 008a 0023     		movs	r3, #0
 3185              	.L125:
1860:Drivers/STM32F4xx_HAL_Driver/Src/stm32f4xx_hal_pcd.c **** }
 3186              		.loc 1 1860 1
 3187 008c 1846     		mov	r0, r3
 3188 008e 1037     		adds	r7, r7, #16
 3189              	.LCFI132:
 3190              		.cfi_def_cfa_offset 8
 3191 0090 BD46     		mov	sp, r7
 3192              	.LCFI133:
 3193              		.cfi_def_cfa_register 13
 3194              		@ sp needed
 3195 0092 80BD     		pop	{r7, pc}
 3196              		.cfi_endproc
 3197              	.LFE258:
 3199              		.section	.text.HAL_PCD_EP_Receive,"ax",%progbits
 3200              		.align	1
 3201              		.global	HAL_PCD_EP_Receive
 3202              		.syntax unified
 3203              		.thumb
 3204              		.thumb_func
 3206              	HAL_PCD_EP_Receive:
 3207              	.LFB259:
1861:Drivers/STM32F4xx_HAL_Driver/Src/stm32f4xx_hal_pcd.c **** 
1862:Drivers/STM32F4xx_HAL_Driver/Src/stm32f4xx_hal_pcd.c **** 
1863:Drivers/STM32F4xx_HAL_Driver/Src/stm32f4xx_hal_pcd.c **** /**
1864:Drivers/STM32F4xx_HAL_Driver/Src/stm32f4xx_hal_pcd.c ****   * @brief  Receive an amount of data.
1865:Drivers/STM32F4xx_HAL_Driver/Src/stm32f4xx_hal_pcd.c ****   * @param  hpcd PCD handle
1866:Drivers/STM32F4xx_HAL_Driver/Src/stm32f4xx_hal_pcd.c ****   * @param  ep_addr endpoint address
1867:Drivers/STM32F4xx_HAL_Driver/Src/stm32f4xx_hal_pcd.c ****   * @param  pBuf pointer to the reception buffer
1868:Drivers/STM32F4xx_HAL_Driver/Src/stm32f4xx_hal_pcd.c ****   * @param  len amount of data to be received
1869:Drivers/STM32F4xx_HAL_Driver/Src/stm32f4xx_hal_pcd.c ****   * @retval HAL status
1870:Drivers/STM32F4xx_HAL_Driver/Src/stm32f4xx_hal_pcd.c ****   */
1871:Drivers/STM32F4xx_HAL_Driver/Src/stm32f4xx_hal_pcd.c **** HAL_StatusTypeDef HAL_PCD_EP_Receive(PCD_HandleTypeDef *hpcd, uint8_t ep_addr, uint8_t *pBuf, uint3
1872:Drivers/STM32F4xx_HAL_Driver/Src/stm32f4xx_hal_pcd.c **** {
 3208              		.loc 1 1872 1
 3209              		.cfi_startproc
 3210              		@ args = 0, pretend = 0, frame = 24
 3211              		@ frame_needed = 1, uses_anonymous_args = 0
 3212 0000 80B5     		push	{r7, lr}
 3213              	.LCFI134:
 3214              		.cfi_def_cfa_offset 8
 3215              		.cfi_offset 7, -8
 3216              		.cfi_offset 14, -4
ARM GAS  /tmp/ccQdZtFR.s 			page 90


 3217 0002 86B0     		sub	sp, sp, #24
 3218              	.LCFI135:
 3219              		.cfi_def_cfa_offset 32
 3220 0004 00AF     		add	r7, sp, #0
 3221              	.LCFI136:
 3222              		.cfi_def_cfa_register 7
 3223 0006 F860     		str	r0, [r7, #12]
 3224 0008 7A60     		str	r2, [r7, #4]
 3225 000a 3B60     		str	r3, [r7]
 3226 000c 0B46     		mov	r3, r1
 3227 000e FB72     		strb	r3, [r7, #11]
1873:Drivers/STM32F4xx_HAL_Driver/Src/stm32f4xx_hal_pcd.c ****   PCD_EPTypeDef *ep;
1874:Drivers/STM32F4xx_HAL_Driver/Src/stm32f4xx_hal_pcd.c **** 
1875:Drivers/STM32F4xx_HAL_Driver/Src/stm32f4xx_hal_pcd.c ****   ep = &hpcd->OUT_ep[ep_addr & EP_ADDR_MSK];
 3228              		.loc 1 1875 30
 3229 0010 FB7A     		ldrb	r3, [r7, #11]	@ zero_extendqisi2
 3230 0012 03F00F02 		and	r2, r3, #15
 3231              		.loc 1 1875 6
 3232 0016 1346     		mov	r3, r2
 3233 0018 DB00     		lsls	r3, r3, #3
 3234 001a 1344     		add	r3, r3, r2
 3235 001c 9B00     		lsls	r3, r3, #2
 3236 001e 03F51E73 		add	r3, r3, #632
 3237 0022 FA68     		ldr	r2, [r7, #12]
 3238 0024 1344     		add	r3, r3, r2
 3239 0026 0433     		adds	r3, r3, #4
 3240 0028 7B61     		str	r3, [r7, #20]
1876:Drivers/STM32F4xx_HAL_Driver/Src/stm32f4xx_hal_pcd.c **** 
1877:Drivers/STM32F4xx_HAL_Driver/Src/stm32f4xx_hal_pcd.c ****   /*setup and start the Xfer */
1878:Drivers/STM32F4xx_HAL_Driver/Src/stm32f4xx_hal_pcd.c ****   ep->xfer_buff = pBuf;
 3241              		.loc 1 1878 17
 3242 002a 7B69     		ldr	r3, [r7, #20]
 3243 002c 7A68     		ldr	r2, [r7, #4]
 3244 002e 1A61     		str	r2, [r3, #16]
1879:Drivers/STM32F4xx_HAL_Driver/Src/stm32f4xx_hal_pcd.c ****   ep->xfer_len = len;
 3245              		.loc 1 1879 16
 3246 0030 7B69     		ldr	r3, [r7, #20]
 3247 0032 3A68     		ldr	r2, [r7]
 3248 0034 9A61     		str	r2, [r3, #24]
1880:Drivers/STM32F4xx_HAL_Driver/Src/stm32f4xx_hal_pcd.c ****   ep->xfer_count = 0U;
 3249              		.loc 1 1880 18
 3250 0036 7B69     		ldr	r3, [r7, #20]
 3251 0038 0022     		movs	r2, #0
 3252 003a 1A62     		str	r2, [r3, #32]
1881:Drivers/STM32F4xx_HAL_Driver/Src/stm32f4xx_hal_pcd.c ****   ep->is_in = 0U;
 3253              		.loc 1 1881 13
 3254 003c 7B69     		ldr	r3, [r7, #20]
 3255 003e 0022     		movs	r2, #0
 3256 0040 5A70     		strb	r2, [r3, #1]
1882:Drivers/STM32F4xx_HAL_Driver/Src/stm32f4xx_hal_pcd.c ****   ep->num = ep_addr & EP_ADDR_MSK;
 3257              		.loc 1 1882 21
 3258 0042 FB7A     		ldrb	r3, [r7, #11]
 3259 0044 03F00F03 		and	r3, r3, #15
 3260 0048 DAB2     		uxtb	r2, r3
 3261              		.loc 1 1882 11
 3262 004a 7B69     		ldr	r3, [r7, #20]
 3263 004c 1A70     		strb	r2, [r3]
ARM GAS  /tmp/ccQdZtFR.s 			page 91


1883:Drivers/STM32F4xx_HAL_Driver/Src/stm32f4xx_hal_pcd.c **** 
1884:Drivers/STM32F4xx_HAL_Driver/Src/stm32f4xx_hal_pcd.c ****   if (hpcd->Init.dma_enable == 1U)
 3264              		.loc 1 1884 17
 3265 004e FB68     		ldr	r3, [r7, #12]
 3266 0050 1B69     		ldr	r3, [r3, #16]
 3267              		.loc 1 1884 6
 3268 0052 012B     		cmp	r3, #1
 3269 0054 02D1     		bne	.L127
1885:Drivers/STM32F4xx_HAL_Driver/Src/stm32f4xx_hal_pcd.c ****   {
1886:Drivers/STM32F4xx_HAL_Driver/Src/stm32f4xx_hal_pcd.c ****     ep->dma_addr = (uint32_t)pBuf;
 3270              		.loc 1 1886 20
 3271 0056 7A68     		ldr	r2, [r7, #4]
 3272              		.loc 1 1886 18
 3273 0058 7B69     		ldr	r3, [r7, #20]
 3274 005a 5A61     		str	r2, [r3, #20]
 3275              	.L127:
1887:Drivers/STM32F4xx_HAL_Driver/Src/stm32f4xx_hal_pcd.c ****   }
1888:Drivers/STM32F4xx_HAL_Driver/Src/stm32f4xx_hal_pcd.c **** 
1889:Drivers/STM32F4xx_HAL_Driver/Src/stm32f4xx_hal_pcd.c ****   if ((ep_addr & EP_ADDR_MSK) == 0U)
 3276              		.loc 1 1889 16
 3277 005c FB7A     		ldrb	r3, [r7, #11]	@ zero_extendqisi2
 3278 005e 03F00F03 		and	r3, r3, #15
 3279              		.loc 1 1889 6
 3280 0062 002B     		cmp	r3, #0
 3281 0064 09D1     		bne	.L128
1890:Drivers/STM32F4xx_HAL_Driver/Src/stm32f4xx_hal_pcd.c ****   {
1891:Drivers/STM32F4xx_HAL_Driver/Src/stm32f4xx_hal_pcd.c ****     (void)USB_EP0StartXfer(hpcd->Instance, ep, (uint8_t)hpcd->Init.dma_enable);
 3282              		.loc 1 1891 32
 3283 0066 FB68     		ldr	r3, [r7, #12]
 3284 0068 1868     		ldr	r0, [r3]
 3285              		.loc 1 1891 67
 3286 006a FB68     		ldr	r3, [r7, #12]
 3287 006c 1B69     		ldr	r3, [r3, #16]
 3288              		.loc 1 1891 11
 3289 006e DBB2     		uxtb	r3, r3
 3290 0070 1A46     		mov	r2, r3
 3291 0072 7969     		ldr	r1, [r7, #20]
 3292 0074 FFF7FEFF 		bl	USB_EP0StartXfer
 3293 0078 08E0     		b	.L129
 3294              	.L128:
1892:Drivers/STM32F4xx_HAL_Driver/Src/stm32f4xx_hal_pcd.c ****   }
1893:Drivers/STM32F4xx_HAL_Driver/Src/stm32f4xx_hal_pcd.c ****   else
1894:Drivers/STM32F4xx_HAL_Driver/Src/stm32f4xx_hal_pcd.c ****   {
1895:Drivers/STM32F4xx_HAL_Driver/Src/stm32f4xx_hal_pcd.c ****     (void)USB_EPStartXfer(hpcd->Instance, ep, (uint8_t)hpcd->Init.dma_enable);
 3295              		.loc 1 1895 31
 3296 007a FB68     		ldr	r3, [r7, #12]
 3297 007c 1868     		ldr	r0, [r3]
 3298              		.loc 1 1895 66
 3299 007e FB68     		ldr	r3, [r7, #12]
 3300 0080 1B69     		ldr	r3, [r3, #16]
 3301              		.loc 1 1895 11
 3302 0082 DBB2     		uxtb	r3, r3
 3303 0084 1A46     		mov	r2, r3
 3304 0086 7969     		ldr	r1, [r7, #20]
 3305 0088 FFF7FEFF 		bl	USB_EPStartXfer
 3306              	.L129:
1896:Drivers/STM32F4xx_HAL_Driver/Src/stm32f4xx_hal_pcd.c ****   }
ARM GAS  /tmp/ccQdZtFR.s 			page 92


1897:Drivers/STM32F4xx_HAL_Driver/Src/stm32f4xx_hal_pcd.c **** 
1898:Drivers/STM32F4xx_HAL_Driver/Src/stm32f4xx_hal_pcd.c ****   return HAL_OK;
 3307              		.loc 1 1898 10
 3308 008c 0023     		movs	r3, #0
1899:Drivers/STM32F4xx_HAL_Driver/Src/stm32f4xx_hal_pcd.c **** }
 3309              		.loc 1 1899 1
 3310 008e 1846     		mov	r0, r3
 3311 0090 1837     		adds	r7, r7, #24
 3312              	.LCFI137:
 3313              		.cfi_def_cfa_offset 8
 3314 0092 BD46     		mov	sp, r7
 3315              	.LCFI138:
 3316              		.cfi_def_cfa_register 13
 3317              		@ sp needed
 3318 0094 80BD     		pop	{r7, pc}
 3319              		.cfi_endproc
 3320              	.LFE259:
 3322              		.section	.text.HAL_PCD_EP_GetRxCount,"ax",%progbits
 3323              		.align	1
 3324              		.global	HAL_PCD_EP_GetRxCount
 3325              		.syntax unified
 3326              		.thumb
 3327              		.thumb_func
 3329              	HAL_PCD_EP_GetRxCount:
 3330              	.LFB260:
1900:Drivers/STM32F4xx_HAL_Driver/Src/stm32f4xx_hal_pcd.c **** 
1901:Drivers/STM32F4xx_HAL_Driver/Src/stm32f4xx_hal_pcd.c **** /**
1902:Drivers/STM32F4xx_HAL_Driver/Src/stm32f4xx_hal_pcd.c ****   * @brief  Get Received Data Size
1903:Drivers/STM32F4xx_HAL_Driver/Src/stm32f4xx_hal_pcd.c ****   * @param  hpcd PCD handle
1904:Drivers/STM32F4xx_HAL_Driver/Src/stm32f4xx_hal_pcd.c ****   * @param  ep_addr endpoint address
1905:Drivers/STM32F4xx_HAL_Driver/Src/stm32f4xx_hal_pcd.c ****   * @retval Data Size
1906:Drivers/STM32F4xx_HAL_Driver/Src/stm32f4xx_hal_pcd.c ****   */
1907:Drivers/STM32F4xx_HAL_Driver/Src/stm32f4xx_hal_pcd.c **** uint32_t HAL_PCD_EP_GetRxCount(PCD_HandleTypeDef *hpcd, uint8_t ep_addr)
1908:Drivers/STM32F4xx_HAL_Driver/Src/stm32f4xx_hal_pcd.c **** {
 3331              		.loc 1 1908 1
 3332              		.cfi_startproc
 3333              		@ args = 0, pretend = 0, frame = 8
 3334              		@ frame_needed = 1, uses_anonymous_args = 0
 3335              		@ link register save eliminated.
 3336 0000 80B4     		push	{r7}
 3337              	.LCFI139:
 3338              		.cfi_def_cfa_offset 4
 3339              		.cfi_offset 7, -4
 3340 0002 83B0     		sub	sp, sp, #12
 3341              	.LCFI140:
 3342              		.cfi_def_cfa_offset 16
 3343 0004 00AF     		add	r7, sp, #0
 3344              	.LCFI141:
 3345              		.cfi_def_cfa_register 7
 3346 0006 7860     		str	r0, [r7, #4]
 3347 0008 0B46     		mov	r3, r1
 3348 000a FB70     		strb	r3, [r7, #3]
1909:Drivers/STM32F4xx_HAL_Driver/Src/stm32f4xx_hal_pcd.c ****   return hpcd->OUT_ep[ep_addr & EP_ADDR_MSK].xfer_count;
 3349              		.loc 1 1909 31
 3350 000c FB78     		ldrb	r3, [r7, #3]	@ zero_extendqisi2
 3351 000e 03F00F02 		and	r2, r3, #15
 3352              		.loc 1 1909 45
ARM GAS  /tmp/ccQdZtFR.s 			page 93


 3353 0012 7968     		ldr	r1, [r7, #4]
 3354 0014 1346     		mov	r3, r2
 3355 0016 DB00     		lsls	r3, r3, #3
 3356 0018 1344     		add	r3, r3, r2
 3357 001a 9B00     		lsls	r3, r3, #2
 3358 001c 0B44     		add	r3, r3, r1
 3359 001e 03F52773 		add	r3, r3, #668
 3360 0022 1B68     		ldr	r3, [r3]
1910:Drivers/STM32F4xx_HAL_Driver/Src/stm32f4xx_hal_pcd.c **** }
 3361              		.loc 1 1910 1
 3362 0024 1846     		mov	r0, r3
 3363 0026 0C37     		adds	r7, r7, #12
 3364              	.LCFI142:
 3365              		.cfi_def_cfa_offset 4
 3366 0028 BD46     		mov	sp, r7
 3367              	.LCFI143:
 3368              		.cfi_def_cfa_register 13
 3369              		@ sp needed
 3370 002a 5DF8047B 		ldr	r7, [sp], #4
 3371              	.LCFI144:
 3372              		.cfi_restore 7
 3373              		.cfi_def_cfa_offset 0
 3374 002e 7047     		bx	lr
 3375              		.cfi_endproc
 3376              	.LFE260:
 3378              		.section	.text.HAL_PCD_EP_Transmit,"ax",%progbits
 3379              		.align	1
 3380              		.global	HAL_PCD_EP_Transmit
 3381              		.syntax unified
 3382              		.thumb
 3383              		.thumb_func
 3385              	HAL_PCD_EP_Transmit:
 3386              	.LFB261:
1911:Drivers/STM32F4xx_HAL_Driver/Src/stm32f4xx_hal_pcd.c **** /**
1912:Drivers/STM32F4xx_HAL_Driver/Src/stm32f4xx_hal_pcd.c ****   * @brief  Send an amount of data
1913:Drivers/STM32F4xx_HAL_Driver/Src/stm32f4xx_hal_pcd.c ****   * @param  hpcd PCD handle
1914:Drivers/STM32F4xx_HAL_Driver/Src/stm32f4xx_hal_pcd.c ****   * @param  ep_addr endpoint address
1915:Drivers/STM32F4xx_HAL_Driver/Src/stm32f4xx_hal_pcd.c ****   * @param  pBuf pointer to the transmission buffer
1916:Drivers/STM32F4xx_HAL_Driver/Src/stm32f4xx_hal_pcd.c ****   * @param  len amount of data to be sent
1917:Drivers/STM32F4xx_HAL_Driver/Src/stm32f4xx_hal_pcd.c ****   * @retval HAL status
1918:Drivers/STM32F4xx_HAL_Driver/Src/stm32f4xx_hal_pcd.c ****   */
1919:Drivers/STM32F4xx_HAL_Driver/Src/stm32f4xx_hal_pcd.c **** HAL_StatusTypeDef HAL_PCD_EP_Transmit(PCD_HandleTypeDef *hpcd, uint8_t ep_addr, uint8_t *pBuf, uint
1920:Drivers/STM32F4xx_HAL_Driver/Src/stm32f4xx_hal_pcd.c **** {
 3387              		.loc 1 1920 1
 3388              		.cfi_startproc
 3389              		@ args = 0, pretend = 0, frame = 24
 3390              		@ frame_needed = 1, uses_anonymous_args = 0
 3391 0000 80B5     		push	{r7, lr}
 3392              	.LCFI145:
 3393              		.cfi_def_cfa_offset 8
 3394              		.cfi_offset 7, -8
 3395              		.cfi_offset 14, -4
 3396 0002 86B0     		sub	sp, sp, #24
 3397              	.LCFI146:
 3398              		.cfi_def_cfa_offset 32
 3399 0004 00AF     		add	r7, sp, #0
 3400              	.LCFI147:
ARM GAS  /tmp/ccQdZtFR.s 			page 94


 3401              		.cfi_def_cfa_register 7
 3402 0006 F860     		str	r0, [r7, #12]
 3403 0008 7A60     		str	r2, [r7, #4]
 3404 000a 3B60     		str	r3, [r7]
 3405 000c 0B46     		mov	r3, r1
 3406 000e FB72     		strb	r3, [r7, #11]
1921:Drivers/STM32F4xx_HAL_Driver/Src/stm32f4xx_hal_pcd.c ****   PCD_EPTypeDef *ep;
1922:Drivers/STM32F4xx_HAL_Driver/Src/stm32f4xx_hal_pcd.c **** 
1923:Drivers/STM32F4xx_HAL_Driver/Src/stm32f4xx_hal_pcd.c ****   ep = &hpcd->IN_ep[ep_addr & EP_ADDR_MSK];
 3407              		.loc 1 1923 29
 3408 0010 FB7A     		ldrb	r3, [r7, #11]	@ zero_extendqisi2
 3409 0012 03F00F02 		and	r2, r3, #15
 3410              		.loc 1 1923 6
 3411 0016 1346     		mov	r3, r2
 3412 0018 DB00     		lsls	r3, r3, #3
 3413 001a 1344     		add	r3, r3, r2
 3414 001c 9B00     		lsls	r3, r3, #2
 3415 001e 3833     		adds	r3, r3, #56
 3416 0020 FA68     		ldr	r2, [r7, #12]
 3417 0022 1344     		add	r3, r3, r2
 3418 0024 0433     		adds	r3, r3, #4
 3419 0026 7B61     		str	r3, [r7, #20]
1924:Drivers/STM32F4xx_HAL_Driver/Src/stm32f4xx_hal_pcd.c **** 
1925:Drivers/STM32F4xx_HAL_Driver/Src/stm32f4xx_hal_pcd.c ****   /*setup and start the Xfer */
1926:Drivers/STM32F4xx_HAL_Driver/Src/stm32f4xx_hal_pcd.c ****   ep->xfer_buff = pBuf;
 3420              		.loc 1 1926 17
 3421 0028 7B69     		ldr	r3, [r7, #20]
 3422 002a 7A68     		ldr	r2, [r7, #4]
 3423 002c 1A61     		str	r2, [r3, #16]
1927:Drivers/STM32F4xx_HAL_Driver/Src/stm32f4xx_hal_pcd.c ****   ep->xfer_len = len;
 3424              		.loc 1 1927 16
 3425 002e 7B69     		ldr	r3, [r7, #20]
 3426 0030 3A68     		ldr	r2, [r7]
 3427 0032 9A61     		str	r2, [r3, #24]
1928:Drivers/STM32F4xx_HAL_Driver/Src/stm32f4xx_hal_pcd.c ****   ep->xfer_count = 0U;
 3428              		.loc 1 1928 18
 3429 0034 7B69     		ldr	r3, [r7, #20]
 3430 0036 0022     		movs	r2, #0
 3431 0038 1A62     		str	r2, [r3, #32]
1929:Drivers/STM32F4xx_HAL_Driver/Src/stm32f4xx_hal_pcd.c ****   ep->is_in = 1U;
 3432              		.loc 1 1929 13
 3433 003a 7B69     		ldr	r3, [r7, #20]
 3434 003c 0122     		movs	r2, #1
 3435 003e 5A70     		strb	r2, [r3, #1]
1930:Drivers/STM32F4xx_HAL_Driver/Src/stm32f4xx_hal_pcd.c ****   ep->num = ep_addr & EP_ADDR_MSK;
 3436              		.loc 1 1930 21
 3437 0040 FB7A     		ldrb	r3, [r7, #11]
 3438 0042 03F00F03 		and	r3, r3, #15
 3439 0046 DAB2     		uxtb	r2, r3
 3440              		.loc 1 1930 11
 3441 0048 7B69     		ldr	r3, [r7, #20]
 3442 004a 1A70     		strb	r2, [r3]
1931:Drivers/STM32F4xx_HAL_Driver/Src/stm32f4xx_hal_pcd.c **** 
1932:Drivers/STM32F4xx_HAL_Driver/Src/stm32f4xx_hal_pcd.c ****   if (hpcd->Init.dma_enable == 1U)
 3443              		.loc 1 1932 17
 3444 004c FB68     		ldr	r3, [r7, #12]
 3445 004e 1B69     		ldr	r3, [r3, #16]
ARM GAS  /tmp/ccQdZtFR.s 			page 95


 3446              		.loc 1 1932 6
 3447 0050 012B     		cmp	r3, #1
 3448 0052 02D1     		bne	.L134
1933:Drivers/STM32F4xx_HAL_Driver/Src/stm32f4xx_hal_pcd.c ****   {
1934:Drivers/STM32F4xx_HAL_Driver/Src/stm32f4xx_hal_pcd.c ****     ep->dma_addr = (uint32_t)pBuf;
 3449              		.loc 1 1934 20
 3450 0054 7A68     		ldr	r2, [r7, #4]
 3451              		.loc 1 1934 18
 3452 0056 7B69     		ldr	r3, [r7, #20]
 3453 0058 5A61     		str	r2, [r3, #20]
 3454              	.L134:
1935:Drivers/STM32F4xx_HAL_Driver/Src/stm32f4xx_hal_pcd.c ****   }
1936:Drivers/STM32F4xx_HAL_Driver/Src/stm32f4xx_hal_pcd.c **** 
1937:Drivers/STM32F4xx_HAL_Driver/Src/stm32f4xx_hal_pcd.c ****   if ((ep_addr & EP_ADDR_MSK) == 0U)
 3455              		.loc 1 1937 16
 3456 005a FB7A     		ldrb	r3, [r7, #11]	@ zero_extendqisi2
 3457 005c 03F00F03 		and	r3, r3, #15
 3458              		.loc 1 1937 6
 3459 0060 002B     		cmp	r3, #0
 3460 0062 09D1     		bne	.L135
1938:Drivers/STM32F4xx_HAL_Driver/Src/stm32f4xx_hal_pcd.c ****   {
1939:Drivers/STM32F4xx_HAL_Driver/Src/stm32f4xx_hal_pcd.c ****     (void)USB_EP0StartXfer(hpcd->Instance, ep, (uint8_t)hpcd->Init.dma_enable);
 3461              		.loc 1 1939 32
 3462 0064 FB68     		ldr	r3, [r7, #12]
 3463 0066 1868     		ldr	r0, [r3]
 3464              		.loc 1 1939 67
 3465 0068 FB68     		ldr	r3, [r7, #12]
 3466 006a 1B69     		ldr	r3, [r3, #16]
 3467              		.loc 1 1939 11
 3468 006c DBB2     		uxtb	r3, r3
 3469 006e 1A46     		mov	r2, r3
 3470 0070 7969     		ldr	r1, [r7, #20]
 3471 0072 FFF7FEFF 		bl	USB_EP0StartXfer
 3472 0076 08E0     		b	.L136
 3473              	.L135:
1940:Drivers/STM32F4xx_HAL_Driver/Src/stm32f4xx_hal_pcd.c ****   }
1941:Drivers/STM32F4xx_HAL_Driver/Src/stm32f4xx_hal_pcd.c ****   else
1942:Drivers/STM32F4xx_HAL_Driver/Src/stm32f4xx_hal_pcd.c ****   {
1943:Drivers/STM32F4xx_HAL_Driver/Src/stm32f4xx_hal_pcd.c ****     (void)USB_EPStartXfer(hpcd->Instance, ep, (uint8_t)hpcd->Init.dma_enable);
 3474              		.loc 1 1943 31
 3475 0078 FB68     		ldr	r3, [r7, #12]
 3476 007a 1868     		ldr	r0, [r3]
 3477              		.loc 1 1943 66
 3478 007c FB68     		ldr	r3, [r7, #12]
 3479 007e 1B69     		ldr	r3, [r3, #16]
 3480              		.loc 1 1943 11
 3481 0080 DBB2     		uxtb	r3, r3
 3482 0082 1A46     		mov	r2, r3
 3483 0084 7969     		ldr	r1, [r7, #20]
 3484 0086 FFF7FEFF 		bl	USB_EPStartXfer
 3485              	.L136:
1944:Drivers/STM32F4xx_HAL_Driver/Src/stm32f4xx_hal_pcd.c ****   }
1945:Drivers/STM32F4xx_HAL_Driver/Src/stm32f4xx_hal_pcd.c **** 
1946:Drivers/STM32F4xx_HAL_Driver/Src/stm32f4xx_hal_pcd.c ****   return HAL_OK;
 3486              		.loc 1 1946 10
 3487 008a 0023     		movs	r3, #0
1947:Drivers/STM32F4xx_HAL_Driver/Src/stm32f4xx_hal_pcd.c **** }
ARM GAS  /tmp/ccQdZtFR.s 			page 96


 3488              		.loc 1 1947 1
 3489 008c 1846     		mov	r0, r3
 3490 008e 1837     		adds	r7, r7, #24
 3491              	.LCFI148:
 3492              		.cfi_def_cfa_offset 8
 3493 0090 BD46     		mov	sp, r7
 3494              	.LCFI149:
 3495              		.cfi_def_cfa_register 13
 3496              		@ sp needed
 3497 0092 80BD     		pop	{r7, pc}
 3498              		.cfi_endproc
 3499              	.LFE261:
 3501              		.section	.text.HAL_PCD_EP_SetStall,"ax",%progbits
 3502              		.align	1
 3503              		.global	HAL_PCD_EP_SetStall
 3504              		.syntax unified
 3505              		.thumb
 3506              		.thumb_func
 3508              	HAL_PCD_EP_SetStall:
 3509              	.LFB262:
1948:Drivers/STM32F4xx_HAL_Driver/Src/stm32f4xx_hal_pcd.c **** 
1949:Drivers/STM32F4xx_HAL_Driver/Src/stm32f4xx_hal_pcd.c **** /**
1950:Drivers/STM32F4xx_HAL_Driver/Src/stm32f4xx_hal_pcd.c ****   * @brief  Set a STALL condition over an endpoint
1951:Drivers/STM32F4xx_HAL_Driver/Src/stm32f4xx_hal_pcd.c ****   * @param  hpcd PCD handle
1952:Drivers/STM32F4xx_HAL_Driver/Src/stm32f4xx_hal_pcd.c ****   * @param  ep_addr endpoint address
1953:Drivers/STM32F4xx_HAL_Driver/Src/stm32f4xx_hal_pcd.c ****   * @retval HAL status
1954:Drivers/STM32F4xx_HAL_Driver/Src/stm32f4xx_hal_pcd.c ****   */
1955:Drivers/STM32F4xx_HAL_Driver/Src/stm32f4xx_hal_pcd.c **** HAL_StatusTypeDef HAL_PCD_EP_SetStall(PCD_HandleTypeDef *hpcd, uint8_t ep_addr)
1956:Drivers/STM32F4xx_HAL_Driver/Src/stm32f4xx_hal_pcd.c **** {
 3510              		.loc 1 1956 1
 3511              		.cfi_startproc
 3512              		@ args = 0, pretend = 0, frame = 16
 3513              		@ frame_needed = 1, uses_anonymous_args = 0
 3514 0000 80B5     		push	{r7, lr}
 3515              	.LCFI150:
 3516              		.cfi_def_cfa_offset 8
 3517              		.cfi_offset 7, -8
 3518              		.cfi_offset 14, -4
 3519 0002 84B0     		sub	sp, sp, #16
 3520              	.LCFI151:
 3521              		.cfi_def_cfa_offset 24
 3522 0004 00AF     		add	r7, sp, #0
 3523              	.LCFI152:
 3524              		.cfi_def_cfa_register 7
 3525 0006 7860     		str	r0, [r7, #4]
 3526 0008 0B46     		mov	r3, r1
 3527 000a FB70     		strb	r3, [r7, #3]
1957:Drivers/STM32F4xx_HAL_Driver/Src/stm32f4xx_hal_pcd.c ****   PCD_EPTypeDef *ep;
1958:Drivers/STM32F4xx_HAL_Driver/Src/stm32f4xx_hal_pcd.c **** 
1959:Drivers/STM32F4xx_HAL_Driver/Src/stm32f4xx_hal_pcd.c ****   if (((uint32_t)ep_addr & EP_ADDR_MSK) > hpcd->Init.dev_endpoints)
 3528              		.loc 1 1959 26
 3529 000c FB78     		ldrb	r3, [r7, #3]	@ zero_extendqisi2
 3530 000e 03F00F02 		and	r2, r3, #15
 3531              		.loc 1 1959 53
 3532 0012 7B68     		ldr	r3, [r7, #4]
 3533 0014 5B68     		ldr	r3, [r3, #4]
 3534              		.loc 1 1959 6
ARM GAS  /tmp/ccQdZtFR.s 			page 97


 3535 0016 9A42     		cmp	r2, r3
 3536 0018 01D9     		bls	.L139
1960:Drivers/STM32F4xx_HAL_Driver/Src/stm32f4xx_hal_pcd.c ****   {
1961:Drivers/STM32F4xx_HAL_Driver/Src/stm32f4xx_hal_pcd.c ****     return HAL_ERROR;
 3537              		.loc 1 1961 12
 3538 001a 0123     		movs	r3, #1
 3539 001c 50E0     		b	.L140
 3540              	.L139:
1962:Drivers/STM32F4xx_HAL_Driver/Src/stm32f4xx_hal_pcd.c ****   }
1963:Drivers/STM32F4xx_HAL_Driver/Src/stm32f4xx_hal_pcd.c **** 
1964:Drivers/STM32F4xx_HAL_Driver/Src/stm32f4xx_hal_pcd.c ****   if ((0x80U & ep_addr) == 0x80U)
 3541              		.loc 1 1964 25
 3542 001e 97F90330 		ldrsb	r3, [r7, #3]
 3543              		.loc 1 1964 6
 3544 0022 002B     		cmp	r3, #0
 3545 0024 0FDA     		bge	.L141
1965:Drivers/STM32F4xx_HAL_Driver/Src/stm32f4xx_hal_pcd.c ****   {
1966:Drivers/STM32F4xx_HAL_Driver/Src/stm32f4xx_hal_pcd.c ****     ep = &hpcd->IN_ep[ep_addr & EP_ADDR_MSK];
 3546              		.loc 1 1966 31
 3547 0026 FB78     		ldrb	r3, [r7, #3]	@ zero_extendqisi2
 3548 0028 03F00F02 		and	r2, r3, #15
 3549              		.loc 1 1966 8
 3550 002c 1346     		mov	r3, r2
 3551 002e DB00     		lsls	r3, r3, #3
 3552 0030 1344     		add	r3, r3, r2
 3553 0032 9B00     		lsls	r3, r3, #2
 3554 0034 3833     		adds	r3, r3, #56
 3555 0036 7A68     		ldr	r2, [r7, #4]
 3556 0038 1344     		add	r3, r3, r2
 3557 003a 0433     		adds	r3, r3, #4
 3558 003c FB60     		str	r3, [r7, #12]
1967:Drivers/STM32F4xx_HAL_Driver/Src/stm32f4xx_hal_pcd.c ****     ep->is_in = 1U;
 3559              		.loc 1 1967 15
 3560 003e FB68     		ldr	r3, [r7, #12]
 3561 0040 0122     		movs	r2, #1
 3562 0042 5A70     		strb	r2, [r3, #1]
 3563 0044 0DE0     		b	.L142
 3564              	.L141:
1968:Drivers/STM32F4xx_HAL_Driver/Src/stm32f4xx_hal_pcd.c ****   }
1969:Drivers/STM32F4xx_HAL_Driver/Src/stm32f4xx_hal_pcd.c ****   else
1970:Drivers/STM32F4xx_HAL_Driver/Src/stm32f4xx_hal_pcd.c ****   {
1971:Drivers/STM32F4xx_HAL_Driver/Src/stm32f4xx_hal_pcd.c ****     ep = &hpcd->OUT_ep[ep_addr];
 3565              		.loc 1 1971 23
 3566 0046 FA78     		ldrb	r2, [r7, #3]	@ zero_extendqisi2
 3567              		.loc 1 1971 8
 3568 0048 1346     		mov	r3, r2
 3569 004a DB00     		lsls	r3, r3, #3
 3570 004c 1344     		add	r3, r3, r2
 3571 004e 9B00     		lsls	r3, r3, #2
 3572 0050 03F51E73 		add	r3, r3, #632
 3573 0054 7A68     		ldr	r2, [r7, #4]
 3574 0056 1344     		add	r3, r3, r2
 3575 0058 0433     		adds	r3, r3, #4
 3576 005a FB60     		str	r3, [r7, #12]
1972:Drivers/STM32F4xx_HAL_Driver/Src/stm32f4xx_hal_pcd.c ****     ep->is_in = 0U;
 3577              		.loc 1 1972 15
 3578 005c FB68     		ldr	r3, [r7, #12]
ARM GAS  /tmp/ccQdZtFR.s 			page 98


 3579 005e 0022     		movs	r2, #0
 3580 0060 5A70     		strb	r2, [r3, #1]
 3581              	.L142:
1973:Drivers/STM32F4xx_HAL_Driver/Src/stm32f4xx_hal_pcd.c ****   }
1974:Drivers/STM32F4xx_HAL_Driver/Src/stm32f4xx_hal_pcd.c **** 
1975:Drivers/STM32F4xx_HAL_Driver/Src/stm32f4xx_hal_pcd.c ****   ep->is_stall = 1U;
 3582              		.loc 1 1975 16
 3583 0062 FB68     		ldr	r3, [r7, #12]
 3584 0064 0122     		movs	r2, #1
 3585 0066 9A70     		strb	r2, [r3, #2]
1976:Drivers/STM32F4xx_HAL_Driver/Src/stm32f4xx_hal_pcd.c ****   ep->num = ep_addr & EP_ADDR_MSK;
 3586              		.loc 1 1976 21
 3587 0068 FB78     		ldrb	r3, [r7, #3]
 3588 006a 03F00F03 		and	r3, r3, #15
 3589 006e DAB2     		uxtb	r2, r3
 3590              		.loc 1 1976 11
 3591 0070 FB68     		ldr	r3, [r7, #12]
 3592 0072 1A70     		strb	r2, [r3]
1977:Drivers/STM32F4xx_HAL_Driver/Src/stm32f4xx_hal_pcd.c **** 
1978:Drivers/STM32F4xx_HAL_Driver/Src/stm32f4xx_hal_pcd.c ****   __HAL_LOCK(hpcd);
 3593              		.loc 1 1978 3
 3594 0074 7B68     		ldr	r3, [r7, #4]
 3595 0076 93F8BC34 		ldrb	r3, [r3, #1212]	@ zero_extendqisi2
 3596 007a 012B     		cmp	r3, #1
 3597 007c 01D1     		bne	.L143
 3598              		.loc 1 1978 3 is_stmt 0 discriminator 1
 3599 007e 0223     		movs	r3, #2
 3600 0080 1EE0     		b	.L140
 3601              	.L143:
 3602              		.loc 1 1978 3 discriminator 2
 3603 0082 7B68     		ldr	r3, [r7, #4]
 3604 0084 0122     		movs	r2, #1
 3605 0086 83F8BC24 		strb	r2, [r3, #1212]
1979:Drivers/STM32F4xx_HAL_Driver/Src/stm32f4xx_hal_pcd.c **** 
1980:Drivers/STM32F4xx_HAL_Driver/Src/stm32f4xx_hal_pcd.c ****   (void)USB_EPSetStall(hpcd->Instance, ep);
 3606              		.loc 1 1980 28 is_stmt 1 discriminator 2
 3607 008a 7B68     		ldr	r3, [r7, #4]
 3608 008c 1B68     		ldr	r3, [r3]
 3609              		.loc 1 1980 9 discriminator 2
 3610 008e F968     		ldr	r1, [r7, #12]
 3611 0090 1846     		mov	r0, r3
 3612 0092 FFF7FEFF 		bl	USB_EPSetStall
1981:Drivers/STM32F4xx_HAL_Driver/Src/stm32f4xx_hal_pcd.c **** 
1982:Drivers/STM32F4xx_HAL_Driver/Src/stm32f4xx_hal_pcd.c ****   if ((ep_addr & EP_ADDR_MSK) == 0U)
 3613              		.loc 1 1982 16 discriminator 2
 3614 0096 FB78     		ldrb	r3, [r7, #3]	@ zero_extendqisi2
 3615 0098 03F00F03 		and	r3, r3, #15
 3616              		.loc 1 1982 6 discriminator 2
 3617 009c 002B     		cmp	r3, #0
 3618 009e 0AD1     		bne	.L144
1983:Drivers/STM32F4xx_HAL_Driver/Src/stm32f4xx_hal_pcd.c ****   {
1984:Drivers/STM32F4xx_HAL_Driver/Src/stm32f4xx_hal_pcd.c ****     (void)USB_EP0_OutStart(hpcd->Instance, (uint8_t)hpcd->Init.dma_enable, (uint8_t *)hpcd->Setup);
 3619              		.loc 1 1984 32
 3620 00a0 7B68     		ldr	r3, [r7, #4]
 3621 00a2 1868     		ldr	r0, [r3]
 3622              		.loc 1 1984 63
 3623 00a4 7B68     		ldr	r3, [r7, #4]
ARM GAS  /tmp/ccQdZtFR.s 			page 99


 3624 00a6 1B69     		ldr	r3, [r3, #16]
 3625              		.loc 1 1984 11
 3626 00a8 D9B2     		uxtb	r1, r3
 3627              		.loc 1 1984 87
 3628 00aa 7B68     		ldr	r3, [r7, #4]
 3629 00ac 03F2C443 		addw	r3, r3, #1220
 3630              		.loc 1 1984 11
 3631 00b0 1A46     		mov	r2, r3
 3632 00b2 FFF7FEFF 		bl	USB_EP0_OutStart
 3633              	.L144:
1985:Drivers/STM32F4xx_HAL_Driver/Src/stm32f4xx_hal_pcd.c ****   }
1986:Drivers/STM32F4xx_HAL_Driver/Src/stm32f4xx_hal_pcd.c **** 
1987:Drivers/STM32F4xx_HAL_Driver/Src/stm32f4xx_hal_pcd.c ****   __HAL_UNLOCK(hpcd);
 3634              		.loc 1 1987 3
 3635 00b6 7B68     		ldr	r3, [r7, #4]
 3636 00b8 0022     		movs	r2, #0
 3637 00ba 83F8BC24 		strb	r2, [r3, #1212]
1988:Drivers/STM32F4xx_HAL_Driver/Src/stm32f4xx_hal_pcd.c **** 
1989:Drivers/STM32F4xx_HAL_Driver/Src/stm32f4xx_hal_pcd.c ****   return HAL_OK;
 3638              		.loc 1 1989 10
 3639 00be 0023     		movs	r3, #0
 3640              	.L140:
1990:Drivers/STM32F4xx_HAL_Driver/Src/stm32f4xx_hal_pcd.c **** }
 3641              		.loc 1 1990 1
 3642 00c0 1846     		mov	r0, r3
 3643 00c2 1037     		adds	r7, r7, #16
 3644              	.LCFI153:
 3645              		.cfi_def_cfa_offset 8
 3646 00c4 BD46     		mov	sp, r7
 3647              	.LCFI154:
 3648              		.cfi_def_cfa_register 13
 3649              		@ sp needed
 3650 00c6 80BD     		pop	{r7, pc}
 3651              		.cfi_endproc
 3652              	.LFE262:
 3654              		.section	.text.HAL_PCD_EP_ClrStall,"ax",%progbits
 3655              		.align	1
 3656              		.global	HAL_PCD_EP_ClrStall
 3657              		.syntax unified
 3658              		.thumb
 3659              		.thumb_func
 3661              	HAL_PCD_EP_ClrStall:
 3662              	.LFB263:
1991:Drivers/STM32F4xx_HAL_Driver/Src/stm32f4xx_hal_pcd.c **** 
1992:Drivers/STM32F4xx_HAL_Driver/Src/stm32f4xx_hal_pcd.c **** /**
1993:Drivers/STM32F4xx_HAL_Driver/Src/stm32f4xx_hal_pcd.c ****   * @brief  Clear a STALL condition over in an endpoint
1994:Drivers/STM32F4xx_HAL_Driver/Src/stm32f4xx_hal_pcd.c ****   * @param  hpcd PCD handle
1995:Drivers/STM32F4xx_HAL_Driver/Src/stm32f4xx_hal_pcd.c ****   * @param  ep_addr endpoint address
1996:Drivers/STM32F4xx_HAL_Driver/Src/stm32f4xx_hal_pcd.c ****   * @retval HAL status
1997:Drivers/STM32F4xx_HAL_Driver/Src/stm32f4xx_hal_pcd.c ****   */
1998:Drivers/STM32F4xx_HAL_Driver/Src/stm32f4xx_hal_pcd.c **** HAL_StatusTypeDef HAL_PCD_EP_ClrStall(PCD_HandleTypeDef *hpcd, uint8_t ep_addr)
1999:Drivers/STM32F4xx_HAL_Driver/Src/stm32f4xx_hal_pcd.c **** {
 3663              		.loc 1 1999 1
 3664              		.cfi_startproc
 3665              		@ args = 0, pretend = 0, frame = 16
 3666              		@ frame_needed = 1, uses_anonymous_args = 0
 3667 0000 80B5     		push	{r7, lr}
ARM GAS  /tmp/ccQdZtFR.s 			page 100


 3668              	.LCFI155:
 3669              		.cfi_def_cfa_offset 8
 3670              		.cfi_offset 7, -8
 3671              		.cfi_offset 14, -4
 3672 0002 84B0     		sub	sp, sp, #16
 3673              	.LCFI156:
 3674              		.cfi_def_cfa_offset 24
 3675 0004 00AF     		add	r7, sp, #0
 3676              	.LCFI157:
 3677              		.cfi_def_cfa_register 7
 3678 0006 7860     		str	r0, [r7, #4]
 3679 0008 0B46     		mov	r3, r1
 3680 000a FB70     		strb	r3, [r7, #3]
2000:Drivers/STM32F4xx_HAL_Driver/Src/stm32f4xx_hal_pcd.c ****   PCD_EPTypeDef *ep;
2001:Drivers/STM32F4xx_HAL_Driver/Src/stm32f4xx_hal_pcd.c **** 
2002:Drivers/STM32F4xx_HAL_Driver/Src/stm32f4xx_hal_pcd.c ****   if (((uint32_t)ep_addr & 0x0FU) > hpcd->Init.dev_endpoints)
 3681              		.loc 1 2002 26
 3682 000c FB78     		ldrb	r3, [r7, #3]	@ zero_extendqisi2
 3683 000e 03F00F02 		and	r2, r3, #15
 3684              		.loc 1 2002 47
 3685 0012 7B68     		ldr	r3, [r7, #4]
 3686 0014 5B68     		ldr	r3, [r3, #4]
 3687              		.loc 1 2002 6
 3688 0016 9A42     		cmp	r2, r3
 3689 0018 01D9     		bls	.L146
2003:Drivers/STM32F4xx_HAL_Driver/Src/stm32f4xx_hal_pcd.c ****   {
2004:Drivers/STM32F4xx_HAL_Driver/Src/stm32f4xx_hal_pcd.c ****     return HAL_ERROR;
 3690              		.loc 1 2004 12
 3691 001a 0123     		movs	r3, #1
 3692 001c 42E0     		b	.L147
 3693              	.L146:
2005:Drivers/STM32F4xx_HAL_Driver/Src/stm32f4xx_hal_pcd.c ****   }
2006:Drivers/STM32F4xx_HAL_Driver/Src/stm32f4xx_hal_pcd.c **** 
2007:Drivers/STM32F4xx_HAL_Driver/Src/stm32f4xx_hal_pcd.c ****   if ((0x80U & ep_addr) == 0x80U)
 3694              		.loc 1 2007 25
 3695 001e 97F90330 		ldrsb	r3, [r7, #3]
 3696              		.loc 1 2007 6
 3697 0022 002B     		cmp	r3, #0
 3698 0024 0FDA     		bge	.L148
2008:Drivers/STM32F4xx_HAL_Driver/Src/stm32f4xx_hal_pcd.c ****   {
2009:Drivers/STM32F4xx_HAL_Driver/Src/stm32f4xx_hal_pcd.c ****     ep = &hpcd->IN_ep[ep_addr & EP_ADDR_MSK];
 3699              		.loc 1 2009 31
 3700 0026 FB78     		ldrb	r3, [r7, #3]	@ zero_extendqisi2
 3701 0028 03F00F02 		and	r2, r3, #15
 3702              		.loc 1 2009 8
 3703 002c 1346     		mov	r3, r2
 3704 002e DB00     		lsls	r3, r3, #3
 3705 0030 1344     		add	r3, r3, r2
 3706 0032 9B00     		lsls	r3, r3, #2
 3707 0034 3833     		adds	r3, r3, #56
 3708 0036 7A68     		ldr	r2, [r7, #4]
 3709 0038 1344     		add	r3, r3, r2
 3710 003a 0433     		adds	r3, r3, #4
 3711 003c FB60     		str	r3, [r7, #12]
2010:Drivers/STM32F4xx_HAL_Driver/Src/stm32f4xx_hal_pcd.c ****     ep->is_in = 1U;
 3712              		.loc 1 2010 15
 3713 003e FB68     		ldr	r3, [r7, #12]
ARM GAS  /tmp/ccQdZtFR.s 			page 101


 3714 0040 0122     		movs	r2, #1
 3715 0042 5A70     		strb	r2, [r3, #1]
 3716 0044 0FE0     		b	.L149
 3717              	.L148:
2011:Drivers/STM32F4xx_HAL_Driver/Src/stm32f4xx_hal_pcd.c ****   }
2012:Drivers/STM32F4xx_HAL_Driver/Src/stm32f4xx_hal_pcd.c ****   else
2013:Drivers/STM32F4xx_HAL_Driver/Src/stm32f4xx_hal_pcd.c ****   {
2014:Drivers/STM32F4xx_HAL_Driver/Src/stm32f4xx_hal_pcd.c ****     ep = &hpcd->OUT_ep[ep_addr & EP_ADDR_MSK];
 3718              		.loc 1 2014 32
 3719 0046 FB78     		ldrb	r3, [r7, #3]	@ zero_extendqisi2
 3720 0048 03F00F02 		and	r2, r3, #15
 3721              		.loc 1 2014 8
 3722 004c 1346     		mov	r3, r2
 3723 004e DB00     		lsls	r3, r3, #3
 3724 0050 1344     		add	r3, r3, r2
 3725 0052 9B00     		lsls	r3, r3, #2
 3726 0054 03F51E73 		add	r3, r3, #632
 3727 0058 7A68     		ldr	r2, [r7, #4]
 3728 005a 1344     		add	r3, r3, r2
 3729 005c 0433     		adds	r3, r3, #4
 3730 005e FB60     		str	r3, [r7, #12]
2015:Drivers/STM32F4xx_HAL_Driver/Src/stm32f4xx_hal_pcd.c ****     ep->is_in = 0U;
 3731              		.loc 1 2015 15
 3732 0060 FB68     		ldr	r3, [r7, #12]
 3733 0062 0022     		movs	r2, #0
 3734 0064 5A70     		strb	r2, [r3, #1]
 3735              	.L149:
2016:Drivers/STM32F4xx_HAL_Driver/Src/stm32f4xx_hal_pcd.c ****   }
2017:Drivers/STM32F4xx_HAL_Driver/Src/stm32f4xx_hal_pcd.c **** 
2018:Drivers/STM32F4xx_HAL_Driver/Src/stm32f4xx_hal_pcd.c ****   ep->is_stall = 0U;
 3736              		.loc 1 2018 16
 3737 0066 FB68     		ldr	r3, [r7, #12]
 3738 0068 0022     		movs	r2, #0
 3739 006a 9A70     		strb	r2, [r3, #2]
2019:Drivers/STM32F4xx_HAL_Driver/Src/stm32f4xx_hal_pcd.c ****   ep->num = ep_addr & EP_ADDR_MSK;
 3740              		.loc 1 2019 21
 3741 006c FB78     		ldrb	r3, [r7, #3]
 3742 006e 03F00F03 		and	r3, r3, #15
 3743 0072 DAB2     		uxtb	r2, r3
 3744              		.loc 1 2019 11
 3745 0074 FB68     		ldr	r3, [r7, #12]
 3746 0076 1A70     		strb	r2, [r3]
2020:Drivers/STM32F4xx_HAL_Driver/Src/stm32f4xx_hal_pcd.c **** 
2021:Drivers/STM32F4xx_HAL_Driver/Src/stm32f4xx_hal_pcd.c ****   __HAL_LOCK(hpcd);
 3747              		.loc 1 2021 3
 3748 0078 7B68     		ldr	r3, [r7, #4]
 3749 007a 93F8BC34 		ldrb	r3, [r3, #1212]	@ zero_extendqisi2
 3750 007e 012B     		cmp	r3, #1
 3751 0080 01D1     		bne	.L150
 3752              		.loc 1 2021 3 is_stmt 0 discriminator 1
 3753 0082 0223     		movs	r3, #2
 3754 0084 0EE0     		b	.L147
 3755              	.L150:
 3756              		.loc 1 2021 3 discriminator 2
 3757 0086 7B68     		ldr	r3, [r7, #4]
 3758 0088 0122     		movs	r2, #1
 3759 008a 83F8BC24 		strb	r2, [r3, #1212]
ARM GAS  /tmp/ccQdZtFR.s 			page 102


2022:Drivers/STM32F4xx_HAL_Driver/Src/stm32f4xx_hal_pcd.c ****   (void)USB_EPClearStall(hpcd->Instance, ep);
 3760              		.loc 1 2022 30 is_stmt 1 discriminator 2
 3761 008e 7B68     		ldr	r3, [r7, #4]
 3762 0090 1B68     		ldr	r3, [r3]
 3763              		.loc 1 2022 9 discriminator 2
 3764 0092 F968     		ldr	r1, [r7, #12]
 3765 0094 1846     		mov	r0, r3
 3766 0096 FFF7FEFF 		bl	USB_EPClearStall
2023:Drivers/STM32F4xx_HAL_Driver/Src/stm32f4xx_hal_pcd.c ****   __HAL_UNLOCK(hpcd);
 3767              		.loc 1 2023 3 discriminator 2
 3768 009a 7B68     		ldr	r3, [r7, #4]
 3769 009c 0022     		movs	r2, #0
 3770 009e 83F8BC24 		strb	r2, [r3, #1212]
2024:Drivers/STM32F4xx_HAL_Driver/Src/stm32f4xx_hal_pcd.c **** 
2025:Drivers/STM32F4xx_HAL_Driver/Src/stm32f4xx_hal_pcd.c ****   return HAL_OK;
 3771              		.loc 1 2025 10 discriminator 2
 3772 00a2 0023     		movs	r3, #0
 3773              	.L147:
2026:Drivers/STM32F4xx_HAL_Driver/Src/stm32f4xx_hal_pcd.c **** }
 3774              		.loc 1 2026 1
 3775 00a4 1846     		mov	r0, r3
 3776 00a6 1037     		adds	r7, r7, #16
 3777              	.LCFI158:
 3778              		.cfi_def_cfa_offset 8
 3779 00a8 BD46     		mov	sp, r7
 3780              	.LCFI159:
 3781              		.cfi_def_cfa_register 13
 3782              		@ sp needed
 3783 00aa 80BD     		pop	{r7, pc}
 3784              		.cfi_endproc
 3785              	.LFE263:
 3787              		.section	.text.HAL_PCD_EP_Abort,"ax",%progbits
 3788              		.align	1
 3789              		.global	HAL_PCD_EP_Abort
 3790              		.syntax unified
 3791              		.thumb
 3792              		.thumb_func
 3794              	HAL_PCD_EP_Abort:
 3795              	.LFB264:
2027:Drivers/STM32F4xx_HAL_Driver/Src/stm32f4xx_hal_pcd.c **** 
2028:Drivers/STM32F4xx_HAL_Driver/Src/stm32f4xx_hal_pcd.c **** /**
2029:Drivers/STM32F4xx_HAL_Driver/Src/stm32f4xx_hal_pcd.c ****    * @brief  Abort an USB EP transaction.
2030:Drivers/STM32F4xx_HAL_Driver/Src/stm32f4xx_hal_pcd.c ****    * @param  hpcd PCD handle
2031:Drivers/STM32F4xx_HAL_Driver/Src/stm32f4xx_hal_pcd.c ****    * @param  ep_addr endpoint address
2032:Drivers/STM32F4xx_HAL_Driver/Src/stm32f4xx_hal_pcd.c ****    * @retval HAL status
2033:Drivers/STM32F4xx_HAL_Driver/Src/stm32f4xx_hal_pcd.c ****    */
2034:Drivers/STM32F4xx_HAL_Driver/Src/stm32f4xx_hal_pcd.c **** HAL_StatusTypeDef HAL_PCD_EP_Abort(PCD_HandleTypeDef *hpcd, uint8_t ep_addr)
2035:Drivers/STM32F4xx_HAL_Driver/Src/stm32f4xx_hal_pcd.c **** {
 3796              		.loc 1 2035 1
 3797              		.cfi_startproc
 3798              		@ args = 0, pretend = 0, frame = 16
 3799              		@ frame_needed = 1, uses_anonymous_args = 0
 3800 0000 80B5     		push	{r7, lr}
 3801              	.LCFI160:
 3802              		.cfi_def_cfa_offset 8
 3803              		.cfi_offset 7, -8
 3804              		.cfi_offset 14, -4
ARM GAS  /tmp/ccQdZtFR.s 			page 103


 3805 0002 84B0     		sub	sp, sp, #16
 3806              	.LCFI161:
 3807              		.cfi_def_cfa_offset 24
 3808 0004 00AF     		add	r7, sp, #0
 3809              	.LCFI162:
 3810              		.cfi_def_cfa_register 7
 3811 0006 7860     		str	r0, [r7, #4]
 3812 0008 0B46     		mov	r3, r1
 3813 000a FB70     		strb	r3, [r7, #3]
2036:Drivers/STM32F4xx_HAL_Driver/Src/stm32f4xx_hal_pcd.c ****   HAL_StatusTypeDef ret;
2037:Drivers/STM32F4xx_HAL_Driver/Src/stm32f4xx_hal_pcd.c ****   PCD_EPTypeDef *ep;
2038:Drivers/STM32F4xx_HAL_Driver/Src/stm32f4xx_hal_pcd.c **** 
2039:Drivers/STM32F4xx_HAL_Driver/Src/stm32f4xx_hal_pcd.c ****   if ((0x80U & ep_addr) == 0x80U)
 3814              		.loc 1 2039 25
 3815 000c 97F90330 		ldrsb	r3, [r7, #3]
 3816              		.loc 1 2039 6
 3817 0010 002B     		cmp	r3, #0
 3818 0012 0CDA     		bge	.L152
2040:Drivers/STM32F4xx_HAL_Driver/Src/stm32f4xx_hal_pcd.c ****   {
2041:Drivers/STM32F4xx_HAL_Driver/Src/stm32f4xx_hal_pcd.c ****     ep = &hpcd->IN_ep[ep_addr & EP_ADDR_MSK];
 3819              		.loc 1 2041 31
 3820 0014 FB78     		ldrb	r3, [r7, #3]	@ zero_extendqisi2
 3821 0016 03F00F02 		and	r2, r3, #15
 3822              		.loc 1 2041 8
 3823 001a 1346     		mov	r3, r2
 3824 001c DB00     		lsls	r3, r3, #3
 3825 001e 1344     		add	r3, r3, r2
 3826 0020 9B00     		lsls	r3, r3, #2
 3827 0022 3833     		adds	r3, r3, #56
 3828 0024 7A68     		ldr	r2, [r7, #4]
 3829 0026 1344     		add	r3, r3, r2
 3830 0028 0433     		adds	r3, r3, #4
 3831 002a FB60     		str	r3, [r7, #12]
 3832 002c 0CE0     		b	.L153
 3833              	.L152:
2042:Drivers/STM32F4xx_HAL_Driver/Src/stm32f4xx_hal_pcd.c ****   }
2043:Drivers/STM32F4xx_HAL_Driver/Src/stm32f4xx_hal_pcd.c ****   else
2044:Drivers/STM32F4xx_HAL_Driver/Src/stm32f4xx_hal_pcd.c ****   {
2045:Drivers/STM32F4xx_HAL_Driver/Src/stm32f4xx_hal_pcd.c ****     ep = &hpcd->OUT_ep[ep_addr & EP_ADDR_MSK];
 3834              		.loc 1 2045 32
 3835 002e FB78     		ldrb	r3, [r7, #3]	@ zero_extendqisi2
 3836 0030 03F00F02 		and	r2, r3, #15
 3837              		.loc 1 2045 8
 3838 0034 1346     		mov	r3, r2
 3839 0036 DB00     		lsls	r3, r3, #3
 3840 0038 1344     		add	r3, r3, r2
 3841 003a 9B00     		lsls	r3, r3, #2
 3842 003c 03F51E73 		add	r3, r3, #632
 3843 0040 7A68     		ldr	r2, [r7, #4]
 3844 0042 1344     		add	r3, r3, r2
 3845 0044 0433     		adds	r3, r3, #4
 3846 0046 FB60     		str	r3, [r7, #12]
 3847              	.L153:
2046:Drivers/STM32F4xx_HAL_Driver/Src/stm32f4xx_hal_pcd.c ****   }
2047:Drivers/STM32F4xx_HAL_Driver/Src/stm32f4xx_hal_pcd.c **** 
2048:Drivers/STM32F4xx_HAL_Driver/Src/stm32f4xx_hal_pcd.c ****   /* Stop Xfer */
2049:Drivers/STM32F4xx_HAL_Driver/Src/stm32f4xx_hal_pcd.c ****   ret = USB_EPStopXfer(hpcd->Instance, ep);
ARM GAS  /tmp/ccQdZtFR.s 			page 104


 3848              		.loc 1 2049 28
 3849 0048 7B68     		ldr	r3, [r7, #4]
 3850 004a 1B68     		ldr	r3, [r3]
 3851              		.loc 1 2049 9
 3852 004c F968     		ldr	r1, [r7, #12]
 3853 004e 1846     		mov	r0, r3
 3854 0050 FFF7FEFF 		bl	USB_EPStopXfer
 3855 0054 0346     		mov	r3, r0
 3856 0056 FB72     		strb	r3, [r7, #11]
2050:Drivers/STM32F4xx_HAL_Driver/Src/stm32f4xx_hal_pcd.c **** 
2051:Drivers/STM32F4xx_HAL_Driver/Src/stm32f4xx_hal_pcd.c ****   return ret;
 3857              		.loc 1 2051 10
 3858 0058 FB7A     		ldrb	r3, [r7, #11]	@ zero_extendqisi2
2052:Drivers/STM32F4xx_HAL_Driver/Src/stm32f4xx_hal_pcd.c **** }
 3859              		.loc 1 2052 1
 3860 005a 1846     		mov	r0, r3
 3861 005c 1037     		adds	r7, r7, #16
 3862              	.LCFI163:
 3863              		.cfi_def_cfa_offset 8
 3864 005e BD46     		mov	sp, r7
 3865              	.LCFI164:
 3866              		.cfi_def_cfa_register 13
 3867              		@ sp needed
 3868 0060 80BD     		pop	{r7, pc}
 3869              		.cfi_endproc
 3870              	.LFE264:
 3872              		.section	.text.HAL_PCD_EP_Flush,"ax",%progbits
 3873              		.align	1
 3874              		.global	HAL_PCD_EP_Flush
 3875              		.syntax unified
 3876              		.thumb
 3877              		.thumb_func
 3879              	HAL_PCD_EP_Flush:
 3880              	.LFB265:
2053:Drivers/STM32F4xx_HAL_Driver/Src/stm32f4xx_hal_pcd.c **** 
2054:Drivers/STM32F4xx_HAL_Driver/Src/stm32f4xx_hal_pcd.c **** /**
2055:Drivers/STM32F4xx_HAL_Driver/Src/stm32f4xx_hal_pcd.c ****   * @brief  Flush an endpoint
2056:Drivers/STM32F4xx_HAL_Driver/Src/stm32f4xx_hal_pcd.c ****   * @param  hpcd PCD handle
2057:Drivers/STM32F4xx_HAL_Driver/Src/stm32f4xx_hal_pcd.c ****   * @param  ep_addr endpoint address
2058:Drivers/STM32F4xx_HAL_Driver/Src/stm32f4xx_hal_pcd.c ****   * @retval HAL status
2059:Drivers/STM32F4xx_HAL_Driver/Src/stm32f4xx_hal_pcd.c ****   */
2060:Drivers/STM32F4xx_HAL_Driver/Src/stm32f4xx_hal_pcd.c **** HAL_StatusTypeDef HAL_PCD_EP_Flush(PCD_HandleTypeDef *hpcd, uint8_t ep_addr)
2061:Drivers/STM32F4xx_HAL_Driver/Src/stm32f4xx_hal_pcd.c **** {
 3881              		.loc 1 2061 1
 3882              		.cfi_startproc
 3883              		@ args = 0, pretend = 0, frame = 8
 3884              		@ frame_needed = 1, uses_anonymous_args = 0
 3885 0000 80B5     		push	{r7, lr}
 3886              	.LCFI165:
 3887              		.cfi_def_cfa_offset 8
 3888              		.cfi_offset 7, -8
 3889              		.cfi_offset 14, -4
 3890 0002 82B0     		sub	sp, sp, #8
 3891              	.LCFI166:
 3892              		.cfi_def_cfa_offset 16
 3893 0004 00AF     		add	r7, sp, #0
 3894              	.LCFI167:
ARM GAS  /tmp/ccQdZtFR.s 			page 105


 3895              		.cfi_def_cfa_register 7
 3896 0006 7860     		str	r0, [r7, #4]
 3897 0008 0B46     		mov	r3, r1
 3898 000a FB70     		strb	r3, [r7, #3]
2062:Drivers/STM32F4xx_HAL_Driver/Src/stm32f4xx_hal_pcd.c ****   __HAL_LOCK(hpcd);
 3899              		.loc 1 2062 3
 3900 000c 7B68     		ldr	r3, [r7, #4]
 3901 000e 93F8BC34 		ldrb	r3, [r3, #1212]	@ zero_extendqisi2
 3902 0012 012B     		cmp	r3, #1
 3903 0014 01D1     		bne	.L156
 3904              		.loc 1 2062 3 is_stmt 0 discriminator 1
 3905 0016 0223     		movs	r3, #2
 3906 0018 1BE0     		b	.L157
 3907              	.L156:
 3908              		.loc 1 2062 3 discriminator 2
 3909 001a 7B68     		ldr	r3, [r7, #4]
 3910 001c 0122     		movs	r2, #1
 3911 001e 83F8BC24 		strb	r2, [r3, #1212]
2063:Drivers/STM32F4xx_HAL_Driver/Src/stm32f4xx_hal_pcd.c **** 
2064:Drivers/STM32F4xx_HAL_Driver/Src/stm32f4xx_hal_pcd.c ****   if ((ep_addr & 0x80U) == 0x80U)
 3912              		.loc 1 2064 25 is_stmt 1 discriminator 2
 3913 0022 97F90330 		ldrsb	r3, [r7, #3]
 3914              		.loc 1 2064 6 discriminator 2
 3915 0026 002B     		cmp	r3, #0
 3916 0028 09DA     		bge	.L158
2065:Drivers/STM32F4xx_HAL_Driver/Src/stm32f4xx_hal_pcd.c ****   {
2066:Drivers/STM32F4xx_HAL_Driver/Src/stm32f4xx_hal_pcd.c ****     (void)USB_FlushTxFifo(hpcd->Instance, (uint32_t)ep_addr & EP_ADDR_MSK);
 3917              		.loc 1 2066 31
 3918 002a 7B68     		ldr	r3, [r7, #4]
 3919 002c 1A68     		ldr	r2, [r3]
 3920              		.loc 1 2066 11
 3921 002e FB78     		ldrb	r3, [r7, #3]	@ zero_extendqisi2
 3922 0030 03F00F03 		and	r3, r3, #15
 3923 0034 1946     		mov	r1, r3
 3924 0036 1046     		mov	r0, r2
 3925 0038 FFF7FEFF 		bl	USB_FlushTxFifo
 3926 003c 04E0     		b	.L159
 3927              	.L158:
2067:Drivers/STM32F4xx_HAL_Driver/Src/stm32f4xx_hal_pcd.c ****   }
2068:Drivers/STM32F4xx_HAL_Driver/Src/stm32f4xx_hal_pcd.c ****   else
2069:Drivers/STM32F4xx_HAL_Driver/Src/stm32f4xx_hal_pcd.c ****   {
2070:Drivers/STM32F4xx_HAL_Driver/Src/stm32f4xx_hal_pcd.c ****     (void)USB_FlushRxFifo(hpcd->Instance);
 3928              		.loc 1 2070 31
 3929 003e 7B68     		ldr	r3, [r7, #4]
 3930 0040 1B68     		ldr	r3, [r3]
 3931              		.loc 1 2070 11
 3932 0042 1846     		mov	r0, r3
 3933 0044 FFF7FEFF 		bl	USB_FlushRxFifo
 3934              	.L159:
2071:Drivers/STM32F4xx_HAL_Driver/Src/stm32f4xx_hal_pcd.c ****   }
2072:Drivers/STM32F4xx_HAL_Driver/Src/stm32f4xx_hal_pcd.c **** 
2073:Drivers/STM32F4xx_HAL_Driver/Src/stm32f4xx_hal_pcd.c ****   __HAL_UNLOCK(hpcd);
 3935              		.loc 1 2073 3
 3936 0048 7B68     		ldr	r3, [r7, #4]
 3937 004a 0022     		movs	r2, #0
 3938 004c 83F8BC24 		strb	r2, [r3, #1212]
2074:Drivers/STM32F4xx_HAL_Driver/Src/stm32f4xx_hal_pcd.c **** 
ARM GAS  /tmp/ccQdZtFR.s 			page 106


2075:Drivers/STM32F4xx_HAL_Driver/Src/stm32f4xx_hal_pcd.c ****   return HAL_OK;
 3939              		.loc 1 2075 10
 3940 0050 0023     		movs	r3, #0
 3941              	.L157:
2076:Drivers/STM32F4xx_HAL_Driver/Src/stm32f4xx_hal_pcd.c **** }
 3942              		.loc 1 2076 1
 3943 0052 1846     		mov	r0, r3
 3944 0054 0837     		adds	r7, r7, #8
 3945              	.LCFI168:
 3946              		.cfi_def_cfa_offset 8
 3947 0056 BD46     		mov	sp, r7
 3948              	.LCFI169:
 3949              		.cfi_def_cfa_register 13
 3950              		@ sp needed
 3951 0058 80BD     		pop	{r7, pc}
 3952              		.cfi_endproc
 3953              	.LFE265:
 3955              		.section	.text.HAL_PCD_ActivateRemoteWakeup,"ax",%progbits
 3956              		.align	1
 3957              		.global	HAL_PCD_ActivateRemoteWakeup
 3958              		.syntax unified
 3959              		.thumb
 3960              		.thumb_func
 3962              	HAL_PCD_ActivateRemoteWakeup:
 3963              	.LFB266:
2077:Drivers/STM32F4xx_HAL_Driver/Src/stm32f4xx_hal_pcd.c **** 
2078:Drivers/STM32F4xx_HAL_Driver/Src/stm32f4xx_hal_pcd.c **** /**
2079:Drivers/STM32F4xx_HAL_Driver/Src/stm32f4xx_hal_pcd.c ****   * @brief  Activate remote wakeup signalling
2080:Drivers/STM32F4xx_HAL_Driver/Src/stm32f4xx_hal_pcd.c ****   * @param  hpcd PCD handle
2081:Drivers/STM32F4xx_HAL_Driver/Src/stm32f4xx_hal_pcd.c ****   * @retval HAL status
2082:Drivers/STM32F4xx_HAL_Driver/Src/stm32f4xx_hal_pcd.c ****   */
2083:Drivers/STM32F4xx_HAL_Driver/Src/stm32f4xx_hal_pcd.c **** HAL_StatusTypeDef HAL_PCD_ActivateRemoteWakeup(PCD_HandleTypeDef *hpcd)
2084:Drivers/STM32F4xx_HAL_Driver/Src/stm32f4xx_hal_pcd.c **** {
 3964              		.loc 1 2084 1
 3965              		.cfi_startproc
 3966              		@ args = 0, pretend = 0, frame = 8
 3967              		@ frame_needed = 1, uses_anonymous_args = 0
 3968 0000 80B5     		push	{r7, lr}
 3969              	.LCFI170:
 3970              		.cfi_def_cfa_offset 8
 3971              		.cfi_offset 7, -8
 3972              		.cfi_offset 14, -4
 3973 0002 82B0     		sub	sp, sp, #8
 3974              	.LCFI171:
 3975              		.cfi_def_cfa_offset 16
 3976 0004 00AF     		add	r7, sp, #0
 3977              	.LCFI172:
 3978              		.cfi_def_cfa_register 7
 3979 0006 7860     		str	r0, [r7, #4]
2085:Drivers/STM32F4xx_HAL_Driver/Src/stm32f4xx_hal_pcd.c ****   return (USB_ActivateRemoteWakeup(hpcd->Instance));
 3980              		.loc 1 2085 40
 3981 0008 7B68     		ldr	r3, [r7, #4]
 3982 000a 1B68     		ldr	r3, [r3]
 3983              		.loc 1 2085 11
 3984 000c 1846     		mov	r0, r3
 3985 000e FFF7FEFF 		bl	USB_ActivateRemoteWakeup
 3986 0012 0346     		mov	r3, r0
ARM GAS  /tmp/ccQdZtFR.s 			page 107


2086:Drivers/STM32F4xx_HAL_Driver/Src/stm32f4xx_hal_pcd.c **** }
 3987              		.loc 1 2086 1
 3988 0014 1846     		mov	r0, r3
 3989 0016 0837     		adds	r7, r7, #8
 3990              	.LCFI173:
 3991              		.cfi_def_cfa_offset 8
 3992 0018 BD46     		mov	sp, r7
 3993              	.LCFI174:
 3994              		.cfi_def_cfa_register 13
 3995              		@ sp needed
 3996 001a 80BD     		pop	{r7, pc}
 3997              		.cfi_endproc
 3998              	.LFE266:
 4000              		.section	.text.HAL_PCD_DeActivateRemoteWakeup,"ax",%progbits
 4001              		.align	1
 4002              		.global	HAL_PCD_DeActivateRemoteWakeup
 4003              		.syntax unified
 4004              		.thumb
 4005              		.thumb_func
 4007              	HAL_PCD_DeActivateRemoteWakeup:
 4008              	.LFB267:
2087:Drivers/STM32F4xx_HAL_Driver/Src/stm32f4xx_hal_pcd.c **** 
2088:Drivers/STM32F4xx_HAL_Driver/Src/stm32f4xx_hal_pcd.c **** /**
2089:Drivers/STM32F4xx_HAL_Driver/Src/stm32f4xx_hal_pcd.c ****   * @brief  De-activate remote wakeup signalling.
2090:Drivers/STM32F4xx_HAL_Driver/Src/stm32f4xx_hal_pcd.c ****   * @param  hpcd PCD handle
2091:Drivers/STM32F4xx_HAL_Driver/Src/stm32f4xx_hal_pcd.c ****   * @retval HAL status
2092:Drivers/STM32F4xx_HAL_Driver/Src/stm32f4xx_hal_pcd.c ****   */
2093:Drivers/STM32F4xx_HAL_Driver/Src/stm32f4xx_hal_pcd.c **** HAL_StatusTypeDef HAL_PCD_DeActivateRemoteWakeup(PCD_HandleTypeDef *hpcd)
2094:Drivers/STM32F4xx_HAL_Driver/Src/stm32f4xx_hal_pcd.c **** {
 4009              		.loc 1 2094 1
 4010              		.cfi_startproc
 4011              		@ args = 0, pretend = 0, frame = 8
 4012              		@ frame_needed = 1, uses_anonymous_args = 0
 4013 0000 80B5     		push	{r7, lr}
 4014              	.LCFI175:
 4015              		.cfi_def_cfa_offset 8
 4016              		.cfi_offset 7, -8
 4017              		.cfi_offset 14, -4
 4018 0002 82B0     		sub	sp, sp, #8
 4019              	.LCFI176:
 4020              		.cfi_def_cfa_offset 16
 4021 0004 00AF     		add	r7, sp, #0
 4022              	.LCFI177:
 4023              		.cfi_def_cfa_register 7
 4024 0006 7860     		str	r0, [r7, #4]
2095:Drivers/STM32F4xx_HAL_Driver/Src/stm32f4xx_hal_pcd.c ****   return (USB_DeActivateRemoteWakeup(hpcd->Instance));
 4025              		.loc 1 2095 42
 4026 0008 7B68     		ldr	r3, [r7, #4]
 4027 000a 1B68     		ldr	r3, [r3]
 4028              		.loc 1 2095 11
 4029 000c 1846     		mov	r0, r3
 4030 000e FFF7FEFF 		bl	USB_DeActivateRemoteWakeup
 4031 0012 0346     		mov	r3, r0
2096:Drivers/STM32F4xx_HAL_Driver/Src/stm32f4xx_hal_pcd.c **** }
 4032              		.loc 1 2096 1
 4033 0014 1846     		mov	r0, r3
 4034 0016 0837     		adds	r7, r7, #8
ARM GAS  /tmp/ccQdZtFR.s 			page 108


 4035              	.LCFI178:
 4036              		.cfi_def_cfa_offset 8
 4037 0018 BD46     		mov	sp, r7
 4038              	.LCFI179:
 4039              		.cfi_def_cfa_register 13
 4040              		@ sp needed
 4041 001a 80BD     		pop	{r7, pc}
 4042              		.cfi_endproc
 4043              	.LFE267:
 4045              		.section	.text.HAL_PCD_GetState,"ax",%progbits
 4046              		.align	1
 4047              		.global	HAL_PCD_GetState
 4048              		.syntax unified
 4049              		.thumb
 4050              		.thumb_func
 4052              	HAL_PCD_GetState:
 4053              	.LFB268:
2097:Drivers/STM32F4xx_HAL_Driver/Src/stm32f4xx_hal_pcd.c **** 
2098:Drivers/STM32F4xx_HAL_Driver/Src/stm32f4xx_hal_pcd.c **** /**
2099:Drivers/STM32F4xx_HAL_Driver/Src/stm32f4xx_hal_pcd.c ****   * @}
2100:Drivers/STM32F4xx_HAL_Driver/Src/stm32f4xx_hal_pcd.c ****   */
2101:Drivers/STM32F4xx_HAL_Driver/Src/stm32f4xx_hal_pcd.c **** 
2102:Drivers/STM32F4xx_HAL_Driver/Src/stm32f4xx_hal_pcd.c **** /** @defgroup PCD_Exported_Functions_Group4 Peripheral State functions
2103:Drivers/STM32F4xx_HAL_Driver/Src/stm32f4xx_hal_pcd.c ****   *  @brief   Peripheral State functions
2104:Drivers/STM32F4xx_HAL_Driver/Src/stm32f4xx_hal_pcd.c ****   *
2105:Drivers/STM32F4xx_HAL_Driver/Src/stm32f4xx_hal_pcd.c **** @verbatim
2106:Drivers/STM32F4xx_HAL_Driver/Src/stm32f4xx_hal_pcd.c ****  ===============================================================================
2107:Drivers/STM32F4xx_HAL_Driver/Src/stm32f4xx_hal_pcd.c ****                       ##### Peripheral State functions #####
2108:Drivers/STM32F4xx_HAL_Driver/Src/stm32f4xx_hal_pcd.c ****  ===============================================================================
2109:Drivers/STM32F4xx_HAL_Driver/Src/stm32f4xx_hal_pcd.c ****     [..]
2110:Drivers/STM32F4xx_HAL_Driver/Src/stm32f4xx_hal_pcd.c ****     This subsection permits to get in run-time the status of the peripheral
2111:Drivers/STM32F4xx_HAL_Driver/Src/stm32f4xx_hal_pcd.c ****     and the data flow.
2112:Drivers/STM32F4xx_HAL_Driver/Src/stm32f4xx_hal_pcd.c **** 
2113:Drivers/STM32F4xx_HAL_Driver/Src/stm32f4xx_hal_pcd.c **** @endverbatim
2114:Drivers/STM32F4xx_HAL_Driver/Src/stm32f4xx_hal_pcd.c ****   * @{
2115:Drivers/STM32F4xx_HAL_Driver/Src/stm32f4xx_hal_pcd.c ****   */
2116:Drivers/STM32F4xx_HAL_Driver/Src/stm32f4xx_hal_pcd.c **** 
2117:Drivers/STM32F4xx_HAL_Driver/Src/stm32f4xx_hal_pcd.c **** /**
2118:Drivers/STM32F4xx_HAL_Driver/Src/stm32f4xx_hal_pcd.c ****   * @brief  Return the PCD handle state.
2119:Drivers/STM32F4xx_HAL_Driver/Src/stm32f4xx_hal_pcd.c ****   * @param  hpcd PCD handle
2120:Drivers/STM32F4xx_HAL_Driver/Src/stm32f4xx_hal_pcd.c ****   * @retval HAL state
2121:Drivers/STM32F4xx_HAL_Driver/Src/stm32f4xx_hal_pcd.c ****   */
2122:Drivers/STM32F4xx_HAL_Driver/Src/stm32f4xx_hal_pcd.c **** PCD_StateTypeDef HAL_PCD_GetState(PCD_HandleTypeDef *hpcd)
2123:Drivers/STM32F4xx_HAL_Driver/Src/stm32f4xx_hal_pcd.c **** {
 4054              		.loc 1 2123 1
 4055              		.cfi_startproc
 4056              		@ args = 0, pretend = 0, frame = 8
 4057              		@ frame_needed = 1, uses_anonymous_args = 0
 4058              		@ link register save eliminated.
 4059 0000 80B4     		push	{r7}
 4060              	.LCFI180:
 4061              		.cfi_def_cfa_offset 4
 4062              		.cfi_offset 7, -4
 4063 0002 83B0     		sub	sp, sp, #12
 4064              	.LCFI181:
 4065              		.cfi_def_cfa_offset 16
 4066 0004 00AF     		add	r7, sp, #0
ARM GAS  /tmp/ccQdZtFR.s 			page 109


 4067              	.LCFI182:
 4068              		.cfi_def_cfa_register 7
 4069 0006 7860     		str	r0, [r7, #4]
2124:Drivers/STM32F4xx_HAL_Driver/Src/stm32f4xx_hal_pcd.c ****   return hpcd->State;
 4070              		.loc 1 2124 14
 4071 0008 7B68     		ldr	r3, [r7, #4]
 4072 000a 93F8BD34 		ldrb	r3, [r3, #1213]
 4073 000e DBB2     		uxtb	r3, r3
2125:Drivers/STM32F4xx_HAL_Driver/Src/stm32f4xx_hal_pcd.c **** }
 4074              		.loc 1 2125 1
 4075 0010 1846     		mov	r0, r3
 4076 0012 0C37     		adds	r7, r7, #12
 4077              	.LCFI183:
 4078              		.cfi_def_cfa_offset 4
 4079 0014 BD46     		mov	sp, r7
 4080              	.LCFI184:
 4081              		.cfi_def_cfa_register 13
 4082              		@ sp needed
 4083 0016 5DF8047B 		ldr	r7, [sp], #4
 4084              	.LCFI185:
 4085              		.cfi_restore 7
 4086              		.cfi_def_cfa_offset 0
 4087 001a 7047     		bx	lr
 4088              		.cfi_endproc
 4089              	.LFE268:
 4091              		.section	.text.HAL_PCD_SetTestMode,"ax",%progbits
 4092              		.align	1
 4093              		.global	HAL_PCD_SetTestMode
 4094              		.syntax unified
 4095              		.thumb
 4096              		.thumb_func
 4098              	HAL_PCD_SetTestMode:
 4099              	.LFB269:
2126:Drivers/STM32F4xx_HAL_Driver/Src/stm32f4xx_hal_pcd.c **** 
2127:Drivers/STM32F4xx_HAL_Driver/Src/stm32f4xx_hal_pcd.c **** /**
2128:Drivers/STM32F4xx_HAL_Driver/Src/stm32f4xx_hal_pcd.c ****   * @brief  Set the USB Device high speed test mode.
2129:Drivers/STM32F4xx_HAL_Driver/Src/stm32f4xx_hal_pcd.c ****   * @param  hpcd PCD handle
2130:Drivers/STM32F4xx_HAL_Driver/Src/stm32f4xx_hal_pcd.c ****   * @param  testmode USB Device high speed test mode
2131:Drivers/STM32F4xx_HAL_Driver/Src/stm32f4xx_hal_pcd.c ****   * @retval HAL status
2132:Drivers/STM32F4xx_HAL_Driver/Src/stm32f4xx_hal_pcd.c ****   */
2133:Drivers/STM32F4xx_HAL_Driver/Src/stm32f4xx_hal_pcd.c **** HAL_StatusTypeDef HAL_PCD_SetTestMode(PCD_HandleTypeDef *hpcd, uint8_t testmode)
2134:Drivers/STM32F4xx_HAL_Driver/Src/stm32f4xx_hal_pcd.c **** {
 4100              		.loc 1 2134 1
 4101              		.cfi_startproc
 4102              		@ args = 0, pretend = 0, frame = 16
 4103              		@ frame_needed = 1, uses_anonymous_args = 0
 4104              		@ link register save eliminated.
 4105 0000 80B4     		push	{r7}
 4106              	.LCFI186:
 4107              		.cfi_def_cfa_offset 4
 4108              		.cfi_offset 7, -4
 4109 0002 85B0     		sub	sp, sp, #20
 4110              	.LCFI187:
 4111              		.cfi_def_cfa_offset 24
 4112 0004 00AF     		add	r7, sp, #0
 4113              	.LCFI188:
 4114              		.cfi_def_cfa_register 7
ARM GAS  /tmp/ccQdZtFR.s 			page 110


 4115 0006 7860     		str	r0, [r7, #4]
 4116 0008 0B46     		mov	r3, r1
 4117 000a FB70     		strb	r3, [r7, #3]
2135:Drivers/STM32F4xx_HAL_Driver/Src/stm32f4xx_hal_pcd.c ****   USB_OTG_GlobalTypeDef *USBx = hpcd->Instance;
 4118              		.loc 1 2135 26
 4119 000c 7B68     		ldr	r3, [r7, #4]
 4120 000e 1B68     		ldr	r3, [r3]
 4121 0010 FB60     		str	r3, [r7, #12]
2136:Drivers/STM32F4xx_HAL_Driver/Src/stm32f4xx_hal_pcd.c ****   uint32_t USBx_BASE = (uint32_t)USBx;
 4122              		.loc 1 2136 12
 4123 0012 FB68     		ldr	r3, [r7, #12]
 4124 0014 BB60     		str	r3, [r7, #8]
2137:Drivers/STM32F4xx_HAL_Driver/Src/stm32f4xx_hal_pcd.c **** 
2138:Drivers/STM32F4xx_HAL_Driver/Src/stm32f4xx_hal_pcd.c ****   switch (testmode)
 4125              		.loc 1 2138 3
 4126 0016 FB78     		ldrb	r3, [r7, #3]	@ zero_extendqisi2
 4127 0018 013B     		subs	r3, r3, #1
 4128 001a 042B     		cmp	r3, #4
 4129 001c 0BD8     		bhi	.L170
2139:Drivers/STM32F4xx_HAL_Driver/Src/stm32f4xx_hal_pcd.c ****   {
2140:Drivers/STM32F4xx_HAL_Driver/Src/stm32f4xx_hal_pcd.c ****     case TEST_J:
2141:Drivers/STM32F4xx_HAL_Driver/Src/stm32f4xx_hal_pcd.c ****     case TEST_K:
2142:Drivers/STM32F4xx_HAL_Driver/Src/stm32f4xx_hal_pcd.c ****     case TEST_SE0_NAK:
2143:Drivers/STM32F4xx_HAL_Driver/Src/stm32f4xx_hal_pcd.c ****     case TEST_PACKET:
2144:Drivers/STM32F4xx_HAL_Driver/Src/stm32f4xx_hal_pcd.c ****     case TEST_FORCE_EN:
2145:Drivers/STM32F4xx_HAL_Driver/Src/stm32f4xx_hal_pcd.c ****       USBx_DEVICE->DCTL |= (uint32_t)testmode << 4;
 4130              		.loc 1 2145 25
 4131 001e BB68     		ldr	r3, [r7, #8]
 4132 0020 03F50063 		add	r3, r3, #2048
 4133 0024 5A68     		ldr	r2, [r3, #4]
 4134              		.loc 1 2145 28
 4135 0026 FB78     		ldrb	r3, [r7, #3]	@ zero_extendqisi2
 4136              		.loc 1 2145 47
 4137 0028 1B01     		lsls	r3, r3, #4
 4138              		.loc 1 2145 25
 4139 002a B968     		ldr	r1, [r7, #8]
 4140 002c 01F50061 		add	r1, r1, #2048
 4141 0030 1343     		orrs	r3, r3, r2
 4142 0032 4B60     		str	r3, [r1, #4]
2146:Drivers/STM32F4xx_HAL_Driver/Src/stm32f4xx_hal_pcd.c ****       break;
 4143              		.loc 1 2146 7
 4144 0034 00E0     		b	.L168
 4145              	.L170:
2147:Drivers/STM32F4xx_HAL_Driver/Src/stm32f4xx_hal_pcd.c **** 
2148:Drivers/STM32F4xx_HAL_Driver/Src/stm32f4xx_hal_pcd.c ****     default:
2149:Drivers/STM32F4xx_HAL_Driver/Src/stm32f4xx_hal_pcd.c ****       break;
 4146              		.loc 1 2149 7
 4147 0036 00BF     		nop
 4148              	.L168:
2150:Drivers/STM32F4xx_HAL_Driver/Src/stm32f4xx_hal_pcd.c ****   }
2151:Drivers/STM32F4xx_HAL_Driver/Src/stm32f4xx_hal_pcd.c **** 
2152:Drivers/STM32F4xx_HAL_Driver/Src/stm32f4xx_hal_pcd.c ****   return HAL_OK;
 4149              		.loc 1 2152 10
 4150 0038 0023     		movs	r3, #0
2153:Drivers/STM32F4xx_HAL_Driver/Src/stm32f4xx_hal_pcd.c **** }
 4151              		.loc 1 2153 1
 4152 003a 1846     		mov	r0, r3
ARM GAS  /tmp/ccQdZtFR.s 			page 111


 4153 003c 1437     		adds	r7, r7, #20
 4154              	.LCFI189:
 4155              		.cfi_def_cfa_offset 4
 4156 003e BD46     		mov	sp, r7
 4157              	.LCFI190:
 4158              		.cfi_def_cfa_register 13
 4159              		@ sp needed
 4160 0040 5DF8047B 		ldr	r7, [sp], #4
 4161              	.LCFI191:
 4162              		.cfi_restore 7
 4163              		.cfi_def_cfa_offset 0
 4164 0044 7047     		bx	lr
 4165              		.cfi_endproc
 4166              	.LFE269:
 4168              		.section	.text.PCD_WriteEmptyTxFifo,"ax",%progbits
 4169              		.align	1
 4170              		.syntax unified
 4171              		.thumb
 4172              		.thumb_func
 4174              	PCD_WriteEmptyTxFifo:
 4175              	.LFB270:
2154:Drivers/STM32F4xx_HAL_Driver/Src/stm32f4xx_hal_pcd.c **** /**
2155:Drivers/STM32F4xx_HAL_Driver/Src/stm32f4xx_hal_pcd.c ****   * @}
2156:Drivers/STM32F4xx_HAL_Driver/Src/stm32f4xx_hal_pcd.c ****   */
2157:Drivers/STM32F4xx_HAL_Driver/Src/stm32f4xx_hal_pcd.c **** 
2158:Drivers/STM32F4xx_HAL_Driver/Src/stm32f4xx_hal_pcd.c **** /**
2159:Drivers/STM32F4xx_HAL_Driver/Src/stm32f4xx_hal_pcd.c ****   * @}
2160:Drivers/STM32F4xx_HAL_Driver/Src/stm32f4xx_hal_pcd.c ****   */
2161:Drivers/STM32F4xx_HAL_Driver/Src/stm32f4xx_hal_pcd.c **** 
2162:Drivers/STM32F4xx_HAL_Driver/Src/stm32f4xx_hal_pcd.c **** /* Private functions ---------------------------------------------------------*/
2163:Drivers/STM32F4xx_HAL_Driver/Src/stm32f4xx_hal_pcd.c **** /** @addtogroup PCD_Private_Functions
2164:Drivers/STM32F4xx_HAL_Driver/Src/stm32f4xx_hal_pcd.c ****   * @{
2165:Drivers/STM32F4xx_HAL_Driver/Src/stm32f4xx_hal_pcd.c ****   */
2166:Drivers/STM32F4xx_HAL_Driver/Src/stm32f4xx_hal_pcd.c **** #if defined (USB_OTG_FS) || defined (USB_OTG_HS)
2167:Drivers/STM32F4xx_HAL_Driver/Src/stm32f4xx_hal_pcd.c **** /**
2168:Drivers/STM32F4xx_HAL_Driver/Src/stm32f4xx_hal_pcd.c ****   * @brief  Check FIFO for the next packet to be loaded.
2169:Drivers/STM32F4xx_HAL_Driver/Src/stm32f4xx_hal_pcd.c ****   * @param  hpcd PCD handle
2170:Drivers/STM32F4xx_HAL_Driver/Src/stm32f4xx_hal_pcd.c ****   * @param  epnum endpoint number
2171:Drivers/STM32F4xx_HAL_Driver/Src/stm32f4xx_hal_pcd.c ****   * @retval HAL status
2172:Drivers/STM32F4xx_HAL_Driver/Src/stm32f4xx_hal_pcd.c ****   */
2173:Drivers/STM32F4xx_HAL_Driver/Src/stm32f4xx_hal_pcd.c **** static HAL_StatusTypeDef PCD_WriteEmptyTxFifo(PCD_HandleTypeDef *hpcd, uint32_t epnum)
2174:Drivers/STM32F4xx_HAL_Driver/Src/stm32f4xx_hal_pcd.c **** {
 4176              		.loc 1 2174 1
 4177              		.cfi_startproc
 4178              		@ args = 0, pretend = 0, frame = 32
 4179              		@ frame_needed = 1, uses_anonymous_args = 0
 4180 0000 80B5     		push	{r7, lr}
 4181              	.LCFI192:
 4182              		.cfi_def_cfa_offset 8
 4183              		.cfi_offset 7, -8
 4184              		.cfi_offset 14, -4
 4185 0002 8AB0     		sub	sp, sp, #40
 4186              	.LCFI193:
 4187              		.cfi_def_cfa_offset 48
 4188 0004 02AF     		add	r7, sp, #8
 4189              	.LCFI194:
 4190              		.cfi_def_cfa 7, 40
ARM GAS  /tmp/ccQdZtFR.s 			page 112


 4191 0006 7860     		str	r0, [r7, #4]
 4192 0008 3960     		str	r1, [r7]
2175:Drivers/STM32F4xx_HAL_Driver/Src/stm32f4xx_hal_pcd.c ****   USB_OTG_GlobalTypeDef *USBx = hpcd->Instance;
 4193              		.loc 1 2175 26
 4194 000a 7B68     		ldr	r3, [r7, #4]
 4195 000c 1B68     		ldr	r3, [r3]
 4196 000e 7B61     		str	r3, [r7, #20]
2176:Drivers/STM32F4xx_HAL_Driver/Src/stm32f4xx_hal_pcd.c ****   uint32_t USBx_BASE = (uint32_t)USBx;
 4197              		.loc 1 2176 12
 4198 0010 7B69     		ldr	r3, [r7, #20]
 4199 0012 3B61     		str	r3, [r7, #16]
2177:Drivers/STM32F4xx_HAL_Driver/Src/stm32f4xx_hal_pcd.c ****   USB_OTG_EPTypeDef *ep;
2178:Drivers/STM32F4xx_HAL_Driver/Src/stm32f4xx_hal_pcd.c ****   uint32_t len;
2179:Drivers/STM32F4xx_HAL_Driver/Src/stm32f4xx_hal_pcd.c ****   uint32_t len32b;
2180:Drivers/STM32F4xx_HAL_Driver/Src/stm32f4xx_hal_pcd.c ****   uint32_t fifoemptymsk;
2181:Drivers/STM32F4xx_HAL_Driver/Src/stm32f4xx_hal_pcd.c **** 
2182:Drivers/STM32F4xx_HAL_Driver/Src/stm32f4xx_hal_pcd.c ****   ep = &hpcd->IN_ep[epnum];
 4200              		.loc 1 2182 6
 4201 0014 3A68     		ldr	r2, [r7]
 4202 0016 1346     		mov	r3, r2
 4203 0018 DB00     		lsls	r3, r3, #3
 4204 001a 1344     		add	r3, r3, r2
 4205 001c 9B00     		lsls	r3, r3, #2
 4206 001e 3833     		adds	r3, r3, #56
 4207 0020 7A68     		ldr	r2, [r7, #4]
 4208 0022 1344     		add	r3, r3, r2
 4209 0024 0433     		adds	r3, r3, #4
 4210 0026 FB60     		str	r3, [r7, #12]
2183:Drivers/STM32F4xx_HAL_Driver/Src/stm32f4xx_hal_pcd.c **** 
2184:Drivers/STM32F4xx_HAL_Driver/Src/stm32f4xx_hal_pcd.c ****   if (ep->xfer_count > ep->xfer_len)
 4211              		.loc 1 2184 9
 4212 0028 FB68     		ldr	r3, [r7, #12]
 4213 002a 1A6A     		ldr	r2, [r3, #32]
 4214              		.loc 1 2184 26
 4215 002c FB68     		ldr	r3, [r7, #12]
 4216 002e 9B69     		ldr	r3, [r3, #24]
 4217              		.loc 1 2184 6
 4218 0030 9A42     		cmp	r2, r3
 4219 0032 01D9     		bls	.L172
2185:Drivers/STM32F4xx_HAL_Driver/Src/stm32f4xx_hal_pcd.c ****   {
2186:Drivers/STM32F4xx_HAL_Driver/Src/stm32f4xx_hal_pcd.c ****     return HAL_ERROR;
 4220              		.loc 1 2186 12
 4221 0034 0123     		movs	r3, #1
 4222 0036 6CE0     		b	.L173
 4223              	.L172:
2187:Drivers/STM32F4xx_HAL_Driver/Src/stm32f4xx_hal_pcd.c ****   }
2188:Drivers/STM32F4xx_HAL_Driver/Src/stm32f4xx_hal_pcd.c **** 
2189:Drivers/STM32F4xx_HAL_Driver/Src/stm32f4xx_hal_pcd.c ****   len = ep->xfer_len - ep->xfer_count;
 4224              		.loc 1 2189 11
 4225 0038 FB68     		ldr	r3, [r7, #12]
 4226 003a 9A69     		ldr	r2, [r3, #24]
 4227              		.loc 1 2189 26
 4228 003c FB68     		ldr	r3, [r7, #12]
 4229 003e 1B6A     		ldr	r3, [r3, #32]
 4230              		.loc 1 2189 7
 4231 0040 D31A     		subs	r3, r2, r3
 4232 0042 FB61     		str	r3, [r7, #28]
ARM GAS  /tmp/ccQdZtFR.s 			page 113


2190:Drivers/STM32F4xx_HAL_Driver/Src/stm32f4xx_hal_pcd.c **** 
2191:Drivers/STM32F4xx_HAL_Driver/Src/stm32f4xx_hal_pcd.c ****   if (len > ep->maxpacket)
 4233              		.loc 1 2191 15
 4234 0044 FB68     		ldr	r3, [r7, #12]
 4235 0046 DB68     		ldr	r3, [r3, #12]
 4236              		.loc 1 2191 6
 4237 0048 FA69     		ldr	r2, [r7, #28]
 4238 004a 9A42     		cmp	r2, r3
 4239 004c 02D9     		bls	.L174
2192:Drivers/STM32F4xx_HAL_Driver/Src/stm32f4xx_hal_pcd.c ****   {
2193:Drivers/STM32F4xx_HAL_Driver/Src/stm32f4xx_hal_pcd.c ****     len = ep->maxpacket;
 4240              		.loc 1 2193 9
 4241 004e FB68     		ldr	r3, [r7, #12]
 4242 0050 DB68     		ldr	r3, [r3, #12]
 4243 0052 FB61     		str	r3, [r7, #28]
 4244              	.L174:
2194:Drivers/STM32F4xx_HAL_Driver/Src/stm32f4xx_hal_pcd.c ****   }
2195:Drivers/STM32F4xx_HAL_Driver/Src/stm32f4xx_hal_pcd.c **** 
2196:Drivers/STM32F4xx_HAL_Driver/Src/stm32f4xx_hal_pcd.c ****   len32b = (len + 3U) / 4U;
 4245              		.loc 1 2196 17
 4246 0054 FB69     		ldr	r3, [r7, #28]
 4247 0056 0333     		adds	r3, r3, #3
 4248              		.loc 1 2196 10
 4249 0058 9B08     		lsrs	r3, r3, #2
 4250 005a BB61     		str	r3, [r7, #24]
2197:Drivers/STM32F4xx_HAL_Driver/Src/stm32f4xx_hal_pcd.c **** 
2198:Drivers/STM32F4xx_HAL_Driver/Src/stm32f4xx_hal_pcd.c ****   while (((USBx_INEP(epnum)->DTXFSTS & USB_OTG_DTXFSTS_INEPTFSAV) >= len32b) &&
 4251              		.loc 1 2198 9
 4252 005c 2BE0     		b	.L175
 4253              	.L178:
2199:Drivers/STM32F4xx_HAL_Driver/Src/stm32f4xx_hal_pcd.c ****          (ep->xfer_count < ep->xfer_len) && (ep->xfer_len != 0U))
2200:Drivers/STM32F4xx_HAL_Driver/Src/stm32f4xx_hal_pcd.c ****   {
2201:Drivers/STM32F4xx_HAL_Driver/Src/stm32f4xx_hal_pcd.c ****     /* Write the FIFO */
2202:Drivers/STM32F4xx_HAL_Driver/Src/stm32f4xx_hal_pcd.c ****     len = ep->xfer_len - ep->xfer_count;
 4254              		.loc 1 2202 13
 4255 005e FB68     		ldr	r3, [r7, #12]
 4256 0060 9A69     		ldr	r2, [r3, #24]
 4257              		.loc 1 2202 28
 4258 0062 FB68     		ldr	r3, [r7, #12]
 4259 0064 1B6A     		ldr	r3, [r3, #32]
 4260              		.loc 1 2202 9
 4261 0066 D31A     		subs	r3, r2, r3
 4262 0068 FB61     		str	r3, [r7, #28]
2203:Drivers/STM32F4xx_HAL_Driver/Src/stm32f4xx_hal_pcd.c **** 
2204:Drivers/STM32F4xx_HAL_Driver/Src/stm32f4xx_hal_pcd.c ****     if (len > ep->maxpacket)
 4263              		.loc 1 2204 17
 4264 006a FB68     		ldr	r3, [r7, #12]
 4265 006c DB68     		ldr	r3, [r3, #12]
 4266              		.loc 1 2204 8
 4267 006e FA69     		ldr	r2, [r7, #28]
 4268 0070 9A42     		cmp	r2, r3
 4269 0072 02D9     		bls	.L176
2205:Drivers/STM32F4xx_HAL_Driver/Src/stm32f4xx_hal_pcd.c ****     {
2206:Drivers/STM32F4xx_HAL_Driver/Src/stm32f4xx_hal_pcd.c ****       len = ep->maxpacket;
 4270              		.loc 1 2206 11
 4271 0074 FB68     		ldr	r3, [r7, #12]
 4272 0076 DB68     		ldr	r3, [r3, #12]
ARM GAS  /tmp/ccQdZtFR.s 			page 114


 4273 0078 FB61     		str	r3, [r7, #28]
 4274              	.L176:
2207:Drivers/STM32F4xx_HAL_Driver/Src/stm32f4xx_hal_pcd.c ****     }
2208:Drivers/STM32F4xx_HAL_Driver/Src/stm32f4xx_hal_pcd.c ****     len32b = (len + 3U) / 4U;
 4275              		.loc 1 2208 19
 4276 007a FB69     		ldr	r3, [r7, #28]
 4277 007c 0333     		adds	r3, r3, #3
 4278              		.loc 1 2208 12
 4279 007e 9B08     		lsrs	r3, r3, #2
 4280 0080 BB61     		str	r3, [r7, #24]
2209:Drivers/STM32F4xx_HAL_Driver/Src/stm32f4xx_hal_pcd.c **** 
2210:Drivers/STM32F4xx_HAL_Driver/Src/stm32f4xx_hal_pcd.c ****     (void)USB_WritePacket(USBx, ep->xfer_buff, (uint8_t)epnum, (uint16_t)len,
 4281              		.loc 1 2210 11
 4282 0082 FB68     		ldr	r3, [r7, #12]
 4283 0084 1969     		ldr	r1, [r3, #16]
 4284 0086 3B68     		ldr	r3, [r7]
 4285 0088 DAB2     		uxtb	r2, r3
 4286 008a FB69     		ldr	r3, [r7, #28]
 4287 008c 98B2     		uxth	r0, r3
2211:Drivers/STM32F4xx_HAL_Driver/Src/stm32f4xx_hal_pcd.c ****                           (uint8_t)hpcd->Init.dma_enable);
 4288              		.loc 1 2211 46
 4289 008e 7B68     		ldr	r3, [r7, #4]
 4290 0090 1B69     		ldr	r3, [r3, #16]
2210:Drivers/STM32F4xx_HAL_Driver/Src/stm32f4xx_hal_pcd.c ****                           (uint8_t)hpcd->Init.dma_enable);
 4291              		.loc 1 2210 11
 4292 0092 DBB2     		uxtb	r3, r3
 4293 0094 0093     		str	r3, [sp]
 4294 0096 0346     		mov	r3, r0
 4295 0098 7869     		ldr	r0, [r7, #20]
 4296 009a FFF7FEFF 		bl	USB_WritePacket
2212:Drivers/STM32F4xx_HAL_Driver/Src/stm32f4xx_hal_pcd.c **** 
2213:Drivers/STM32F4xx_HAL_Driver/Src/stm32f4xx_hal_pcd.c ****     ep->xfer_buff  += len;
 4297              		.loc 1 2213 20
 4298 009e FB68     		ldr	r3, [r7, #12]
 4299 00a0 1A69     		ldr	r2, [r3, #16]
 4300 00a2 FB69     		ldr	r3, [r7, #28]
 4301 00a4 1A44     		add	r2, r2, r3
 4302 00a6 FB68     		ldr	r3, [r7, #12]
 4303 00a8 1A61     		str	r2, [r3, #16]
2214:Drivers/STM32F4xx_HAL_Driver/Src/stm32f4xx_hal_pcd.c ****     ep->xfer_count += len;
 4304              		.loc 1 2214 20
 4305 00aa FB68     		ldr	r3, [r7, #12]
 4306 00ac 1A6A     		ldr	r2, [r3, #32]
 4307 00ae FB69     		ldr	r3, [r7, #28]
 4308 00b0 1A44     		add	r2, r2, r3
 4309 00b2 FB68     		ldr	r3, [r7, #12]
 4310 00b4 1A62     		str	r2, [r3, #32]
 4311              	.L175:
2198:Drivers/STM32F4xx_HAL_Driver/Src/stm32f4xx_hal_pcd.c ****          (ep->xfer_count < ep->xfer_len) && (ep->xfer_len != 0U))
 4312              		.loc 1 2198 12
 4313 00b6 3B68     		ldr	r3, [r7]
 4314 00b8 5A01     		lsls	r2, r3, #5
 4315 00ba 3B69     		ldr	r3, [r7, #16]
 4316 00bc 1344     		add	r3, r3, r2
 4317 00be 03F51063 		add	r3, r3, #2304
2198:Drivers/STM32F4xx_HAL_Driver/Src/stm32f4xx_hal_pcd.c ****          (ep->xfer_count < ep->xfer_len) && (ep->xfer_len != 0U))
 4318              		.loc 1 2198 28
ARM GAS  /tmp/ccQdZtFR.s 			page 115


 4319 00c2 9B69     		ldr	r3, [r3, #24]
2198:Drivers/STM32F4xx_HAL_Driver/Src/stm32f4xx_hal_pcd.c ****          (ep->xfer_count < ep->xfer_len) && (ep->xfer_len != 0U))
 4320              		.loc 1 2198 38
 4321 00c4 9BB2     		uxth	r3, r3
2198:Drivers/STM32F4xx_HAL_Driver/Src/stm32f4xx_hal_pcd.c ****          (ep->xfer_count < ep->xfer_len) && (ep->xfer_len != 0U))
 4322              		.loc 1 2198 9
 4323 00c6 BA69     		ldr	r2, [r7, #24]
 4324 00c8 9A42     		cmp	r2, r3
 4325 00ca 09D8     		bhi	.L177
2199:Drivers/STM32F4xx_HAL_Driver/Src/stm32f4xx_hal_pcd.c ****   {
 4326              		.loc 1 2199 13 discriminator 1
 4327 00cc FB68     		ldr	r3, [r7, #12]
 4328 00ce 1A6A     		ldr	r2, [r3, #32]
2199:Drivers/STM32F4xx_HAL_Driver/Src/stm32f4xx_hal_pcd.c ****   {
 4329              		.loc 1 2199 30 discriminator 1
 4330 00d0 FB68     		ldr	r3, [r7, #12]
 4331 00d2 9B69     		ldr	r3, [r3, #24]
2198:Drivers/STM32F4xx_HAL_Driver/Src/stm32f4xx_hal_pcd.c ****          (ep->xfer_count < ep->xfer_len) && (ep->xfer_len != 0U))
 4332              		.loc 1 2198 78 discriminator 1
 4333 00d4 9A42     		cmp	r2, r3
 4334 00d6 03D2     		bcs	.L177
2199:Drivers/STM32F4xx_HAL_Driver/Src/stm32f4xx_hal_pcd.c ****   {
 4335              		.loc 1 2199 48
 4336 00d8 FB68     		ldr	r3, [r7, #12]
 4337 00da 9B69     		ldr	r3, [r3, #24]
2199:Drivers/STM32F4xx_HAL_Driver/Src/stm32f4xx_hal_pcd.c ****   {
 4338              		.loc 1 2199 42
 4339 00dc 002B     		cmp	r3, #0
 4340 00de BED1     		bne	.L178
 4341              	.L177:
2215:Drivers/STM32F4xx_HAL_Driver/Src/stm32f4xx_hal_pcd.c ****   }
2216:Drivers/STM32F4xx_HAL_Driver/Src/stm32f4xx_hal_pcd.c **** 
2217:Drivers/STM32F4xx_HAL_Driver/Src/stm32f4xx_hal_pcd.c ****   if (ep->xfer_len <= ep->xfer_count)
 4342              		.loc 1 2217 9
 4343 00e0 FB68     		ldr	r3, [r7, #12]
 4344 00e2 9A69     		ldr	r2, [r3, #24]
 4345              		.loc 1 2217 25
 4346 00e4 FB68     		ldr	r3, [r7, #12]
 4347 00e6 1B6A     		ldr	r3, [r3, #32]
 4348              		.loc 1 2217 6
 4349 00e8 9A42     		cmp	r2, r3
 4350 00ea 11D8     		bhi	.L179
2218:Drivers/STM32F4xx_HAL_Driver/Src/stm32f4xx_hal_pcd.c ****   {
2219:Drivers/STM32F4xx_HAL_Driver/Src/stm32f4xx_hal_pcd.c ****     fifoemptymsk = (uint32_t)(0x1UL << (epnum & EP_ADDR_MSK));
 4351              		.loc 1 2219 47
 4352 00ec 3B68     		ldr	r3, [r7]
 4353 00ee 03F00F03 		and	r3, r3, #15
 4354              		.loc 1 2219 18
 4355 00f2 0122     		movs	r2, #1
 4356 00f4 02FA03F3 		lsl	r3, r2, r3
 4357 00f8 BB60     		str	r3, [r7, #8]
2220:Drivers/STM32F4xx_HAL_Driver/Src/stm32f4xx_hal_pcd.c ****     USBx_DEVICE->DIEPEMPMSK &= ~fifoemptymsk;
 4358              		.loc 1 2220 29
 4359 00fa 3B69     		ldr	r3, [r7, #16]
 4360 00fc 03F50063 		add	r3, r3, #2048
 4361 0100 5A6B     		ldr	r2, [r3, #52]
 4362              		.loc 1 2220 32
ARM GAS  /tmp/ccQdZtFR.s 			page 116


 4363 0102 BB68     		ldr	r3, [r7, #8]
 4364 0104 DB43     		mvns	r3, r3
 4365              		.loc 1 2220 29
 4366 0106 3969     		ldr	r1, [r7, #16]
 4367 0108 01F50061 		add	r1, r1, #2048
 4368 010c 1340     		ands	r3, r3, r2
 4369 010e 4B63     		str	r3, [r1, #52]
 4370              	.L179:
2221:Drivers/STM32F4xx_HAL_Driver/Src/stm32f4xx_hal_pcd.c ****   }
2222:Drivers/STM32F4xx_HAL_Driver/Src/stm32f4xx_hal_pcd.c **** 
2223:Drivers/STM32F4xx_HAL_Driver/Src/stm32f4xx_hal_pcd.c ****   return HAL_OK;
 4371              		.loc 1 2223 10
 4372 0110 0023     		movs	r3, #0
 4373              	.L173:
2224:Drivers/STM32F4xx_HAL_Driver/Src/stm32f4xx_hal_pcd.c **** }
 4374              		.loc 1 2224 1
 4375 0112 1846     		mov	r0, r3
 4376 0114 2037     		adds	r7, r7, #32
 4377              	.LCFI195:
 4378              		.cfi_def_cfa_offset 8
 4379 0116 BD46     		mov	sp, r7
 4380              	.LCFI196:
 4381              		.cfi_def_cfa_register 13
 4382              		@ sp needed
 4383 0118 80BD     		pop	{r7, pc}
 4384              		.cfi_endproc
 4385              	.LFE270:
 4387              		.section	.text.PCD_EP_OutXfrComplete_int,"ax",%progbits
 4388              		.align	1
 4389              		.syntax unified
 4390              		.thumb
 4391              		.thumb_func
 4393              	PCD_EP_OutXfrComplete_int:
 4394              	.LFB271:
2225:Drivers/STM32F4xx_HAL_Driver/Src/stm32f4xx_hal_pcd.c **** 
2226:Drivers/STM32F4xx_HAL_Driver/Src/stm32f4xx_hal_pcd.c **** 
2227:Drivers/STM32F4xx_HAL_Driver/Src/stm32f4xx_hal_pcd.c **** /**
2228:Drivers/STM32F4xx_HAL_Driver/Src/stm32f4xx_hal_pcd.c ****   * @brief  process EP OUT transfer complete interrupt.
2229:Drivers/STM32F4xx_HAL_Driver/Src/stm32f4xx_hal_pcd.c ****   * @param  hpcd PCD handle
2230:Drivers/STM32F4xx_HAL_Driver/Src/stm32f4xx_hal_pcd.c ****   * @param  epnum endpoint number
2231:Drivers/STM32F4xx_HAL_Driver/Src/stm32f4xx_hal_pcd.c ****   * @retval HAL status
2232:Drivers/STM32F4xx_HAL_Driver/Src/stm32f4xx_hal_pcd.c ****   */
2233:Drivers/STM32F4xx_HAL_Driver/Src/stm32f4xx_hal_pcd.c **** static HAL_StatusTypeDef PCD_EP_OutXfrComplete_int(PCD_HandleTypeDef *hpcd, uint32_t epnum)
2234:Drivers/STM32F4xx_HAL_Driver/Src/stm32f4xx_hal_pcd.c **** {
 4395              		.loc 1 2234 1
 4396              		.cfi_startproc
 4397              		@ args = 0, pretend = 0, frame = 32
 4398              		@ frame_needed = 1, uses_anonymous_args = 0
 4399 0000 80B5     		push	{r7, lr}
 4400              	.LCFI197:
 4401              		.cfi_def_cfa_offset 8
 4402              		.cfi_offset 7, -8
 4403              		.cfi_offset 14, -4
 4404 0002 88B0     		sub	sp, sp, #32
 4405              	.LCFI198:
 4406              		.cfi_def_cfa_offset 40
 4407 0004 00AF     		add	r7, sp, #0
ARM GAS  /tmp/ccQdZtFR.s 			page 117


 4408              	.LCFI199:
 4409              		.cfi_def_cfa_register 7
 4410 0006 7860     		str	r0, [r7, #4]
 4411 0008 3960     		str	r1, [r7]
2235:Drivers/STM32F4xx_HAL_Driver/Src/stm32f4xx_hal_pcd.c ****   USB_OTG_EPTypeDef *ep;
2236:Drivers/STM32F4xx_HAL_Driver/Src/stm32f4xx_hal_pcd.c ****   USB_OTG_GlobalTypeDef *USBx = hpcd->Instance;
 4412              		.loc 1 2236 26
 4413 000a 7B68     		ldr	r3, [r7, #4]
 4414 000c 1B68     		ldr	r3, [r3]
 4415 000e FB61     		str	r3, [r7, #28]
2237:Drivers/STM32F4xx_HAL_Driver/Src/stm32f4xx_hal_pcd.c ****   uint32_t USBx_BASE = (uint32_t)USBx;
 4416              		.loc 1 2237 12
 4417 0010 FB69     		ldr	r3, [r7, #28]
 4418 0012 BB61     		str	r3, [r7, #24]
2238:Drivers/STM32F4xx_HAL_Driver/Src/stm32f4xx_hal_pcd.c ****   uint32_t gSNPSiD = *(__IO uint32_t *)(&USBx->CID + 0x1U);
 4419              		.loc 1 2238 41
 4420 0014 FB69     		ldr	r3, [r7, #28]
 4421 0016 3C33     		adds	r3, r3, #60
 4422              		.loc 1 2238 23
 4423 0018 0433     		adds	r3, r3, #4
 4424              		.loc 1 2238 12
 4425 001a 1B68     		ldr	r3, [r3]
 4426 001c 7B61     		str	r3, [r7, #20]
2239:Drivers/STM32F4xx_HAL_Driver/Src/stm32f4xx_hal_pcd.c ****   uint32_t DoepintReg = USBx_OUTEP(epnum)->DOEPINT;
 4427              		.loc 1 2239 25
 4428 001e 3B68     		ldr	r3, [r7]
 4429 0020 5A01     		lsls	r2, r3, #5
 4430 0022 BB69     		ldr	r3, [r7, #24]
 4431 0024 1344     		add	r3, r3, r2
 4432 0026 03F53063 		add	r3, r3, #2816
 4433              		.loc 1 2239 12
 4434 002a 9B68     		ldr	r3, [r3, #8]
 4435 002c 3B61     		str	r3, [r7, #16]
2240:Drivers/STM32F4xx_HAL_Driver/Src/stm32f4xx_hal_pcd.c **** 
2241:Drivers/STM32F4xx_HAL_Driver/Src/stm32f4xx_hal_pcd.c ****   if (hpcd->Init.dma_enable == 1U)
 4436              		.loc 1 2241 17
 4437 002e 7B68     		ldr	r3, [r7, #4]
 4438 0030 1B69     		ldr	r3, [r3, #16]
 4439              		.loc 1 2241 6
 4440 0032 012B     		cmp	r3, #1
 4441 0034 7BD1     		bne	.L181
2242:Drivers/STM32F4xx_HAL_Driver/Src/stm32f4xx_hal_pcd.c ****   {
2243:Drivers/STM32F4xx_HAL_Driver/Src/stm32f4xx_hal_pcd.c ****     if ((DoepintReg & USB_OTG_DOEPINT_STUP) == USB_OTG_DOEPINT_STUP) /* Class C */
 4442              		.loc 1 2243 21
 4443 0036 3B69     		ldr	r3, [r7, #16]
 4444 0038 03F00803 		and	r3, r3, #8
 4445              		.loc 1 2243 8
 4446 003c 002B     		cmp	r3, #0
 4447 003e 15D0     		beq	.L182
2244:Drivers/STM32F4xx_HAL_Driver/Src/stm32f4xx_hal_pcd.c ****     {
2245:Drivers/STM32F4xx_HAL_Driver/Src/stm32f4xx_hal_pcd.c ****       /* StupPktRcvd = 1 this is a setup packet */
2246:Drivers/STM32F4xx_HAL_Driver/Src/stm32f4xx_hal_pcd.c ****       if ((gSNPSiD > USB_OTG_CORE_ID_300A) &&
 4448              		.loc 1 2246 10
 4449 0040 7B69     		ldr	r3, [r7, #20]
 4450 0042 614A     		ldr	r2, .L194
 4451 0044 9342     		cmp	r3, r2
 4452 0046 40F2B980 		bls	.L183
ARM GAS  /tmp/ccQdZtFR.s 			page 118


2247:Drivers/STM32F4xx_HAL_Driver/Src/stm32f4xx_hal_pcd.c ****           ((DoepintReg & USB_OTG_DOEPINT_STPKTRX) == USB_OTG_DOEPINT_STPKTRX))
 4453              		.loc 1 2247 24 discriminator 1
 4454 004a 3B69     		ldr	r3, [r7, #16]
 4455 004c 03F40043 		and	r3, r3, #32768
2246:Drivers/STM32F4xx_HAL_Driver/Src/stm32f4xx_hal_pcd.c ****           ((DoepintReg & USB_OTG_DOEPINT_STPKTRX) == USB_OTG_DOEPINT_STPKTRX))
 4456              		.loc 1 2246 44 discriminator 1
 4457 0050 002B     		cmp	r3, #0
 4458 0052 00F0B380 		beq	.L183
2248:Drivers/STM32F4xx_HAL_Driver/Src/stm32f4xx_hal_pcd.c ****       {
2249:Drivers/STM32F4xx_HAL_Driver/Src/stm32f4xx_hal_pcd.c ****         CLEAR_OUT_EP_INTR(epnum, USB_OTG_DOEPINT_STPKTRX);
 4459              		.loc 1 2249 9
 4460 0056 3B68     		ldr	r3, [r7]
 4461 0058 5A01     		lsls	r2, r3, #5
 4462 005a BB69     		ldr	r3, [r7, #24]
 4463 005c 1344     		add	r3, r3, r2
 4464 005e 03F53063 		add	r3, r3, #2816
 4465 0062 1A46     		mov	r2, r3
 4466 0064 4FF40043 		mov	r3, #32768
 4467 0068 9360     		str	r3, [r2, #8]
 4468 006a A7E0     		b	.L183
 4469              	.L182:
2250:Drivers/STM32F4xx_HAL_Driver/Src/stm32f4xx_hal_pcd.c ****       }
2251:Drivers/STM32F4xx_HAL_Driver/Src/stm32f4xx_hal_pcd.c ****     }
2252:Drivers/STM32F4xx_HAL_Driver/Src/stm32f4xx_hal_pcd.c ****     else if ((DoepintReg & USB_OTG_DOEPINT_OTEPSPR) == USB_OTG_DOEPINT_OTEPSPR) /* Class E */
 4470              		.loc 1 2252 26
 4471 006c 3B69     		ldr	r3, [r7, #16]
 4472 006e 03F02003 		and	r3, r3, #32
 4473              		.loc 1 2252 13
 4474 0072 002B     		cmp	r3, #0
 4475 0074 09D0     		beq	.L184
2253:Drivers/STM32F4xx_HAL_Driver/Src/stm32f4xx_hal_pcd.c ****     {
2254:Drivers/STM32F4xx_HAL_Driver/Src/stm32f4xx_hal_pcd.c ****       CLEAR_OUT_EP_INTR(epnum, USB_OTG_DOEPINT_OTEPSPR);
 4476              		.loc 1 2254 7
 4477 0076 3B68     		ldr	r3, [r7]
 4478 0078 5A01     		lsls	r2, r3, #5
 4479 007a BB69     		ldr	r3, [r7, #24]
 4480 007c 1344     		add	r3, r3, r2
 4481 007e 03F53063 		add	r3, r3, #2816
 4482 0082 1A46     		mov	r2, r3
 4483 0084 2023     		movs	r3, #32
 4484 0086 9360     		str	r3, [r2, #8]
 4485 0088 98E0     		b	.L183
 4486              	.L184:
2255:Drivers/STM32F4xx_HAL_Driver/Src/stm32f4xx_hal_pcd.c ****     }
2256:Drivers/STM32F4xx_HAL_Driver/Src/stm32f4xx_hal_pcd.c ****     else if ((DoepintReg & (USB_OTG_DOEPINT_STUP | USB_OTG_DOEPINT_OTEPSPR)) == 0U)
 4487              		.loc 1 2256 26
 4488 008a 3B69     		ldr	r3, [r7, #16]
 4489 008c 03F02803 		and	r3, r3, #40
 4490              		.loc 1 2256 13
 4491 0090 002B     		cmp	r3, #0
 4492 0092 40F09380 		bne	.L183
2257:Drivers/STM32F4xx_HAL_Driver/Src/stm32f4xx_hal_pcd.c ****     {
2258:Drivers/STM32F4xx_HAL_Driver/Src/stm32f4xx_hal_pcd.c ****       /* StupPktRcvd = 1 this is a setup packet */
2259:Drivers/STM32F4xx_HAL_Driver/Src/stm32f4xx_hal_pcd.c ****       if ((gSNPSiD > USB_OTG_CORE_ID_300A) &&
 4493              		.loc 1 2259 10
 4494 0096 7B69     		ldr	r3, [r7, #20]
 4495 0098 4B4A     		ldr	r2, .L194
ARM GAS  /tmp/ccQdZtFR.s 			page 119


 4496 009a 9342     		cmp	r3, r2
 4497 009c 0FD9     		bls	.L185
2260:Drivers/STM32F4xx_HAL_Driver/Src/stm32f4xx_hal_pcd.c ****           ((DoepintReg & USB_OTG_DOEPINT_STPKTRX) == USB_OTG_DOEPINT_STPKTRX))
 4498              		.loc 1 2260 24 discriminator 1
 4499 009e 3B69     		ldr	r3, [r7, #16]
 4500 00a0 03F40043 		and	r3, r3, #32768
2259:Drivers/STM32F4xx_HAL_Driver/Src/stm32f4xx_hal_pcd.c ****           ((DoepintReg & USB_OTG_DOEPINT_STPKTRX) == USB_OTG_DOEPINT_STPKTRX))
 4501              		.loc 1 2259 44 discriminator 1
 4502 00a4 002B     		cmp	r3, #0
 4503 00a6 0AD0     		beq	.L185
2261:Drivers/STM32F4xx_HAL_Driver/Src/stm32f4xx_hal_pcd.c ****       {
2262:Drivers/STM32F4xx_HAL_Driver/Src/stm32f4xx_hal_pcd.c ****         CLEAR_OUT_EP_INTR(epnum, USB_OTG_DOEPINT_STPKTRX);
 4504              		.loc 1 2262 9
 4505 00a8 3B68     		ldr	r3, [r7]
 4506 00aa 5A01     		lsls	r2, r3, #5
 4507 00ac BB69     		ldr	r3, [r7, #24]
 4508 00ae 1344     		add	r3, r3, r2
 4509 00b0 03F53063 		add	r3, r3, #2816
 4510 00b4 1A46     		mov	r2, r3
 4511 00b6 4FF40043 		mov	r3, #32768
 4512 00ba 9360     		str	r3, [r2, #8]
 4513 00bc 7EE0     		b	.L183
 4514              	.L185:
2263:Drivers/STM32F4xx_HAL_Driver/Src/stm32f4xx_hal_pcd.c ****       }
2264:Drivers/STM32F4xx_HAL_Driver/Src/stm32f4xx_hal_pcd.c ****       else
2265:Drivers/STM32F4xx_HAL_Driver/Src/stm32f4xx_hal_pcd.c ****       {
2266:Drivers/STM32F4xx_HAL_Driver/Src/stm32f4xx_hal_pcd.c ****         ep = &hpcd->OUT_ep[epnum];
 4515              		.loc 1 2266 12
 4516 00be 3A68     		ldr	r2, [r7]
 4517 00c0 1346     		mov	r3, r2
 4518 00c2 DB00     		lsls	r3, r3, #3
 4519 00c4 1344     		add	r3, r3, r2
 4520 00c6 9B00     		lsls	r3, r3, #2
 4521 00c8 03F51E73 		add	r3, r3, #632
 4522 00cc 7A68     		ldr	r2, [r7, #4]
 4523 00ce 1344     		add	r3, r3, r2
 4524 00d0 0433     		adds	r3, r3, #4
 4525 00d2 FB60     		str	r3, [r7, #12]
2267:Drivers/STM32F4xx_HAL_Driver/Src/stm32f4xx_hal_pcd.c **** 
2268:Drivers/STM32F4xx_HAL_Driver/Src/stm32f4xx_hal_pcd.c ****         /* out data packet received over EP */
2269:Drivers/STM32F4xx_HAL_Driver/Src/stm32f4xx_hal_pcd.c ****         ep->xfer_count = ep->xfer_size - (USBx_OUTEP(epnum)->DOEPTSIZ & USB_OTG_DOEPTSIZ_XFRSIZ);
 4526              		.loc 1 2269 28
 4527 00d4 FB68     		ldr	r3, [r7, #12]
 4528 00d6 DA69     		ldr	r2, [r3, #28]
 4529              		.loc 1 2269 43
 4530 00d8 3B68     		ldr	r3, [r7]
 4531 00da 5901     		lsls	r1, r3, #5
 4532 00dc BB69     		ldr	r3, [r7, #24]
 4533 00de 0B44     		add	r3, r3, r1
 4534 00e0 03F53063 		add	r3, r3, #2816
 4535              		.loc 1 2269 60
 4536 00e4 1B69     		ldr	r3, [r3, #16]
 4537              		.loc 1 2269 71
 4538 00e6 C3F31203 		ubfx	r3, r3, #0, #19
 4539              		.loc 1 2269 40
 4540 00ea D21A     		subs	r2, r2, r3
 4541              		.loc 1 2269 24
ARM GAS  /tmp/ccQdZtFR.s 			page 120


 4542 00ec FB68     		ldr	r3, [r7, #12]
 4543 00ee 1A62     		str	r2, [r3, #32]
2270:Drivers/STM32F4xx_HAL_Driver/Src/stm32f4xx_hal_pcd.c **** 
2271:Drivers/STM32F4xx_HAL_Driver/Src/stm32f4xx_hal_pcd.c ****         if (epnum == 0U)
 4544              		.loc 1 2271 12
 4545 00f0 3B68     		ldr	r3, [r7]
 4546 00f2 002B     		cmp	r3, #0
 4547 00f4 14D1     		bne	.L187
2272:Drivers/STM32F4xx_HAL_Driver/Src/stm32f4xx_hal_pcd.c ****         {
2273:Drivers/STM32F4xx_HAL_Driver/Src/stm32f4xx_hal_pcd.c ****           if (ep->xfer_len == 0U)
 4548              		.loc 1 2273 17
 4549 00f6 FB68     		ldr	r3, [r7, #12]
 4550 00f8 9B69     		ldr	r3, [r3, #24]
 4551              		.loc 1 2273 14
 4552 00fa 002B     		cmp	r3, #0
 4553 00fc 09D1     		bne	.L188
2274:Drivers/STM32F4xx_HAL_Driver/Src/stm32f4xx_hal_pcd.c ****           {
2275:Drivers/STM32F4xx_HAL_Driver/Src/stm32f4xx_hal_pcd.c ****             /* this is ZLP, so prepare EP0 for next setup */
2276:Drivers/STM32F4xx_HAL_Driver/Src/stm32f4xx_hal_pcd.c ****             (void)USB_EP0_OutStart(hpcd->Instance, 1U, (uint8_t *)hpcd->Setup);
 4554              		.loc 1 2276 40
 4555 00fe 7B68     		ldr	r3, [r7, #4]
 4556 0100 1868     		ldr	r0, [r3]
 4557              		.loc 1 2276 67
 4558 0102 7B68     		ldr	r3, [r7, #4]
 4559 0104 03F2C443 		addw	r3, r3, #1220
 4560              		.loc 1 2276 19
 4561 0108 1A46     		mov	r2, r3
 4562 010a 0121     		movs	r1, #1
 4563 010c FFF7FEFF 		bl	USB_EP0_OutStart
 4564 0110 06E0     		b	.L187
 4565              	.L188:
2277:Drivers/STM32F4xx_HAL_Driver/Src/stm32f4xx_hal_pcd.c ****           }
2278:Drivers/STM32F4xx_HAL_Driver/Src/stm32f4xx_hal_pcd.c ****           else
2279:Drivers/STM32F4xx_HAL_Driver/Src/stm32f4xx_hal_pcd.c ****           {
2280:Drivers/STM32F4xx_HAL_Driver/Src/stm32f4xx_hal_pcd.c ****             ep->xfer_buff += ep->xfer_count;
 4566              		.loc 1 2280 27
 4567 0112 FB68     		ldr	r3, [r7, #12]
 4568 0114 1A69     		ldr	r2, [r3, #16]
 4569              		.loc 1 2280 32
 4570 0116 FB68     		ldr	r3, [r7, #12]
 4571 0118 1B6A     		ldr	r3, [r3, #32]
 4572              		.loc 1 2280 27
 4573 011a 1A44     		add	r2, r2, r3
 4574 011c FB68     		ldr	r3, [r7, #12]
 4575 011e 1A61     		str	r2, [r3, #16]
 4576              	.L187:
2281:Drivers/STM32F4xx_HAL_Driver/Src/stm32f4xx_hal_pcd.c ****           }
2282:Drivers/STM32F4xx_HAL_Driver/Src/stm32f4xx_hal_pcd.c ****         }
2283:Drivers/STM32F4xx_HAL_Driver/Src/stm32f4xx_hal_pcd.c **** 
2284:Drivers/STM32F4xx_HAL_Driver/Src/stm32f4xx_hal_pcd.c **** #if (USE_HAL_PCD_REGISTER_CALLBACKS == 1U)
2285:Drivers/STM32F4xx_HAL_Driver/Src/stm32f4xx_hal_pcd.c ****         hpcd->DataOutStageCallback(hpcd, (uint8_t)epnum);
2286:Drivers/STM32F4xx_HAL_Driver/Src/stm32f4xx_hal_pcd.c **** #else
2287:Drivers/STM32F4xx_HAL_Driver/Src/stm32f4xx_hal_pcd.c ****         HAL_PCD_DataOutStageCallback(hpcd, (uint8_t)epnum);
 4577              		.loc 1 2287 9
 4578 0120 3B68     		ldr	r3, [r7]
 4579 0122 DBB2     		uxtb	r3, r3
 4580 0124 1946     		mov	r1, r3
ARM GAS  /tmp/ccQdZtFR.s 			page 121


 4581 0126 7868     		ldr	r0, [r7, #4]
 4582 0128 FFF7FEFF 		bl	HAL_PCD_DataOutStageCallback
 4583 012c 46E0     		b	.L183
 4584              	.L181:
2288:Drivers/STM32F4xx_HAL_Driver/Src/stm32f4xx_hal_pcd.c **** #endif /* USE_HAL_PCD_REGISTER_CALLBACKS */
2289:Drivers/STM32F4xx_HAL_Driver/Src/stm32f4xx_hal_pcd.c ****       }
2290:Drivers/STM32F4xx_HAL_Driver/Src/stm32f4xx_hal_pcd.c ****     }
2291:Drivers/STM32F4xx_HAL_Driver/Src/stm32f4xx_hal_pcd.c ****     else
2292:Drivers/STM32F4xx_HAL_Driver/Src/stm32f4xx_hal_pcd.c ****     {
2293:Drivers/STM32F4xx_HAL_Driver/Src/stm32f4xx_hal_pcd.c ****       /* ... */
2294:Drivers/STM32F4xx_HAL_Driver/Src/stm32f4xx_hal_pcd.c ****     }
2295:Drivers/STM32F4xx_HAL_Driver/Src/stm32f4xx_hal_pcd.c ****   }
2296:Drivers/STM32F4xx_HAL_Driver/Src/stm32f4xx_hal_pcd.c ****   else
2297:Drivers/STM32F4xx_HAL_Driver/Src/stm32f4xx_hal_pcd.c ****   {
2298:Drivers/STM32F4xx_HAL_Driver/Src/stm32f4xx_hal_pcd.c ****     if (gSNPSiD == USB_OTG_CORE_ID_310A)
 4585              		.loc 1 2298 8
 4586 012e 7B69     		ldr	r3, [r7, #20]
 4587 0130 264A     		ldr	r2, .L194+4
 4588 0132 9342     		cmp	r3, r2
 4589 0134 24D1     		bne	.L189
2299:Drivers/STM32F4xx_HAL_Driver/Src/stm32f4xx_hal_pcd.c ****     {
2300:Drivers/STM32F4xx_HAL_Driver/Src/stm32f4xx_hal_pcd.c ****       /* StupPktRcvd = 1 this is a setup packet */
2301:Drivers/STM32F4xx_HAL_Driver/Src/stm32f4xx_hal_pcd.c ****       if ((DoepintReg & USB_OTG_DOEPINT_STPKTRX) == USB_OTG_DOEPINT_STPKTRX)
 4590              		.loc 1 2301 23
 4591 0136 3B69     		ldr	r3, [r7, #16]
 4592 0138 03F40043 		and	r3, r3, #32768
 4593              		.loc 1 2301 10
 4594 013c 002B     		cmp	r3, #0
 4595 013e 0AD0     		beq	.L190
2302:Drivers/STM32F4xx_HAL_Driver/Src/stm32f4xx_hal_pcd.c ****       {
2303:Drivers/STM32F4xx_HAL_Driver/Src/stm32f4xx_hal_pcd.c ****         CLEAR_OUT_EP_INTR(epnum, USB_OTG_DOEPINT_STPKTRX);
 4596              		.loc 1 2303 9
 4597 0140 3B68     		ldr	r3, [r7]
 4598 0142 5A01     		lsls	r2, r3, #5
 4599 0144 BB69     		ldr	r3, [r7, #24]
 4600 0146 1344     		add	r3, r3, r2
 4601 0148 03F53063 		add	r3, r3, #2816
 4602 014c 1A46     		mov	r2, r3
 4603 014e 4FF40043 		mov	r3, #32768
 4604 0152 9360     		str	r3, [r2, #8]
 4605 0154 32E0     		b	.L183
 4606              	.L190:
2304:Drivers/STM32F4xx_HAL_Driver/Src/stm32f4xx_hal_pcd.c ****       }
2305:Drivers/STM32F4xx_HAL_Driver/Src/stm32f4xx_hal_pcd.c ****       else
2306:Drivers/STM32F4xx_HAL_Driver/Src/stm32f4xx_hal_pcd.c ****       {
2307:Drivers/STM32F4xx_HAL_Driver/Src/stm32f4xx_hal_pcd.c ****         if ((DoepintReg & USB_OTG_DOEPINT_OTEPSPR) == USB_OTG_DOEPINT_OTEPSPR)
 4607              		.loc 1 2307 25
 4608 0156 3B69     		ldr	r3, [r7, #16]
 4609 0158 03F02003 		and	r3, r3, #32
 4610              		.loc 1 2307 12
 4611 015c 002B     		cmp	r3, #0
 4612 015e 08D0     		beq	.L191
2308:Drivers/STM32F4xx_HAL_Driver/Src/stm32f4xx_hal_pcd.c ****         {
2309:Drivers/STM32F4xx_HAL_Driver/Src/stm32f4xx_hal_pcd.c ****           CLEAR_OUT_EP_INTR(epnum, USB_OTG_DOEPINT_OTEPSPR);
 4613              		.loc 1 2309 11
 4614 0160 3B68     		ldr	r3, [r7]
 4615 0162 5A01     		lsls	r2, r3, #5
ARM GAS  /tmp/ccQdZtFR.s 			page 122


 4616 0164 BB69     		ldr	r3, [r7, #24]
 4617 0166 1344     		add	r3, r3, r2
 4618 0168 03F53063 		add	r3, r3, #2816
 4619 016c 1A46     		mov	r2, r3
 4620 016e 2023     		movs	r3, #32
 4621 0170 9360     		str	r3, [r2, #8]
 4622              	.L191:
2310:Drivers/STM32F4xx_HAL_Driver/Src/stm32f4xx_hal_pcd.c ****         }
2311:Drivers/STM32F4xx_HAL_Driver/Src/stm32f4xx_hal_pcd.c **** 
2312:Drivers/STM32F4xx_HAL_Driver/Src/stm32f4xx_hal_pcd.c **** #if (USE_HAL_PCD_REGISTER_CALLBACKS == 1U)
2313:Drivers/STM32F4xx_HAL_Driver/Src/stm32f4xx_hal_pcd.c ****         hpcd->DataOutStageCallback(hpcd, (uint8_t)epnum);
2314:Drivers/STM32F4xx_HAL_Driver/Src/stm32f4xx_hal_pcd.c **** #else
2315:Drivers/STM32F4xx_HAL_Driver/Src/stm32f4xx_hal_pcd.c ****         HAL_PCD_DataOutStageCallback(hpcd, (uint8_t)epnum);
 4623              		.loc 1 2315 9
 4624 0172 3B68     		ldr	r3, [r7]
 4625 0174 DBB2     		uxtb	r3, r3
 4626 0176 1946     		mov	r1, r3
 4627 0178 7868     		ldr	r0, [r7, #4]
 4628 017a FFF7FEFF 		bl	HAL_PCD_DataOutStageCallback
 4629 017e 1DE0     		b	.L183
 4630              	.L189:
2316:Drivers/STM32F4xx_HAL_Driver/Src/stm32f4xx_hal_pcd.c **** #endif /* USE_HAL_PCD_REGISTER_CALLBACKS */
2317:Drivers/STM32F4xx_HAL_Driver/Src/stm32f4xx_hal_pcd.c ****       }
2318:Drivers/STM32F4xx_HAL_Driver/Src/stm32f4xx_hal_pcd.c ****     }
2319:Drivers/STM32F4xx_HAL_Driver/Src/stm32f4xx_hal_pcd.c ****     else
2320:Drivers/STM32F4xx_HAL_Driver/Src/stm32f4xx_hal_pcd.c ****     {
2321:Drivers/STM32F4xx_HAL_Driver/Src/stm32f4xx_hal_pcd.c ****       if ((epnum == 0U) && (hpcd->OUT_ep[epnum].xfer_len == 0U))
 4631              		.loc 1 2321 10
 4632 0180 3B68     		ldr	r3, [r7]
 4633 0182 002B     		cmp	r3, #0
 4634 0184 14D1     		bne	.L192
 4635              		.loc 1 2321 48 discriminator 1
 4636 0186 7968     		ldr	r1, [r7, #4]
 4637 0188 3A68     		ldr	r2, [r7]
 4638 018a 1346     		mov	r3, r2
 4639 018c DB00     		lsls	r3, r3, #3
 4640 018e 1344     		add	r3, r3, r2
 4641 0190 9B00     		lsls	r3, r3, #2
 4642 0192 0B44     		add	r3, r3, r1
 4643 0194 03F52573 		add	r3, r3, #660
 4644 0198 1B68     		ldr	r3, [r3]
 4645              		.loc 1 2321 25 discriminator 1
 4646 019a 002B     		cmp	r3, #0
 4647 019c 08D1     		bne	.L192
2322:Drivers/STM32F4xx_HAL_Driver/Src/stm32f4xx_hal_pcd.c ****       {
2323:Drivers/STM32F4xx_HAL_Driver/Src/stm32f4xx_hal_pcd.c ****         /* this is ZLP, so prepare EP0 for next setup */
2324:Drivers/STM32F4xx_HAL_Driver/Src/stm32f4xx_hal_pcd.c ****         (void)USB_EP0_OutStart(hpcd->Instance, 0U, (uint8_t *)hpcd->Setup);
 4648              		.loc 1 2324 36
 4649 019e 7B68     		ldr	r3, [r7, #4]
 4650 01a0 1868     		ldr	r0, [r3]
 4651              		.loc 1 2324 63
 4652 01a2 7B68     		ldr	r3, [r7, #4]
 4653 01a4 03F2C443 		addw	r3, r3, #1220
 4654              		.loc 1 2324 15
 4655 01a8 1A46     		mov	r2, r3
 4656 01aa 0021     		movs	r1, #0
 4657 01ac FFF7FEFF 		bl	USB_EP0_OutStart
ARM GAS  /tmp/ccQdZtFR.s 			page 123


 4658              	.L192:
2325:Drivers/STM32F4xx_HAL_Driver/Src/stm32f4xx_hal_pcd.c ****       }
2326:Drivers/STM32F4xx_HAL_Driver/Src/stm32f4xx_hal_pcd.c **** 
2327:Drivers/STM32F4xx_HAL_Driver/Src/stm32f4xx_hal_pcd.c **** #if (USE_HAL_PCD_REGISTER_CALLBACKS == 1U)
2328:Drivers/STM32F4xx_HAL_Driver/Src/stm32f4xx_hal_pcd.c ****       hpcd->DataOutStageCallback(hpcd, (uint8_t)epnum);
2329:Drivers/STM32F4xx_HAL_Driver/Src/stm32f4xx_hal_pcd.c **** #else
2330:Drivers/STM32F4xx_HAL_Driver/Src/stm32f4xx_hal_pcd.c ****       HAL_PCD_DataOutStageCallback(hpcd, (uint8_t)epnum);
 4659              		.loc 1 2330 7
 4660 01b0 3B68     		ldr	r3, [r7]
 4661 01b2 DBB2     		uxtb	r3, r3
 4662 01b4 1946     		mov	r1, r3
 4663 01b6 7868     		ldr	r0, [r7, #4]
 4664 01b8 FFF7FEFF 		bl	HAL_PCD_DataOutStageCallback
 4665              	.L183:
2331:Drivers/STM32F4xx_HAL_Driver/Src/stm32f4xx_hal_pcd.c **** #endif /* USE_HAL_PCD_REGISTER_CALLBACKS */
2332:Drivers/STM32F4xx_HAL_Driver/Src/stm32f4xx_hal_pcd.c ****     }
2333:Drivers/STM32F4xx_HAL_Driver/Src/stm32f4xx_hal_pcd.c ****   }
2334:Drivers/STM32F4xx_HAL_Driver/Src/stm32f4xx_hal_pcd.c **** 
2335:Drivers/STM32F4xx_HAL_Driver/Src/stm32f4xx_hal_pcd.c ****   return HAL_OK;
 4666              		.loc 1 2335 10
 4667 01bc 0023     		movs	r3, #0
2336:Drivers/STM32F4xx_HAL_Driver/Src/stm32f4xx_hal_pcd.c **** }
 4668              		.loc 1 2336 1
 4669 01be 1846     		mov	r0, r3
 4670 01c0 2037     		adds	r7, r7, #32
 4671              	.LCFI200:
 4672              		.cfi_def_cfa_offset 8
 4673 01c2 BD46     		mov	sp, r7
 4674              	.LCFI201:
 4675              		.cfi_def_cfa_register 13
 4676              		@ sp needed
 4677 01c4 80BD     		pop	{r7, pc}
 4678              	.L195:
 4679 01c6 00BF     		.align	2
 4680              	.L194:
 4681 01c8 0A30544F 		.word	1330917386
 4682 01cc 0A31544F 		.word	1330917642
 4683              		.cfi_endproc
 4684              	.LFE271:
 4686              		.section	.text.PCD_EP_OutSetupPacket_int,"ax",%progbits
 4687              		.align	1
 4688              		.syntax unified
 4689              		.thumb
 4690              		.thumb_func
 4692              	PCD_EP_OutSetupPacket_int:
 4693              	.LFB272:
2337:Drivers/STM32F4xx_HAL_Driver/Src/stm32f4xx_hal_pcd.c **** 
2338:Drivers/STM32F4xx_HAL_Driver/Src/stm32f4xx_hal_pcd.c **** 
2339:Drivers/STM32F4xx_HAL_Driver/Src/stm32f4xx_hal_pcd.c **** /**
2340:Drivers/STM32F4xx_HAL_Driver/Src/stm32f4xx_hal_pcd.c ****   * @brief  process EP OUT setup packet received interrupt.
2341:Drivers/STM32F4xx_HAL_Driver/Src/stm32f4xx_hal_pcd.c ****   * @param  hpcd PCD handle
2342:Drivers/STM32F4xx_HAL_Driver/Src/stm32f4xx_hal_pcd.c ****   * @param  epnum endpoint number
2343:Drivers/STM32F4xx_HAL_Driver/Src/stm32f4xx_hal_pcd.c ****   * @retval HAL status
2344:Drivers/STM32F4xx_HAL_Driver/Src/stm32f4xx_hal_pcd.c ****   */
2345:Drivers/STM32F4xx_HAL_Driver/Src/stm32f4xx_hal_pcd.c **** static HAL_StatusTypeDef PCD_EP_OutSetupPacket_int(PCD_HandleTypeDef *hpcd, uint32_t epnum)
2346:Drivers/STM32F4xx_HAL_Driver/Src/stm32f4xx_hal_pcd.c **** {
 4694              		.loc 1 2346 1
ARM GAS  /tmp/ccQdZtFR.s 			page 124


 4695              		.cfi_startproc
 4696              		@ args = 0, pretend = 0, frame = 24
 4697              		@ frame_needed = 1, uses_anonymous_args = 0
 4698 0000 80B5     		push	{r7, lr}
 4699              	.LCFI202:
 4700              		.cfi_def_cfa_offset 8
 4701              		.cfi_offset 7, -8
 4702              		.cfi_offset 14, -4
 4703 0002 86B0     		sub	sp, sp, #24
 4704              	.LCFI203:
 4705              		.cfi_def_cfa_offset 32
 4706 0004 00AF     		add	r7, sp, #0
 4707              	.LCFI204:
 4708              		.cfi_def_cfa_register 7
 4709 0006 7860     		str	r0, [r7, #4]
 4710 0008 3960     		str	r1, [r7]
2347:Drivers/STM32F4xx_HAL_Driver/Src/stm32f4xx_hal_pcd.c ****   USB_OTG_GlobalTypeDef *USBx = hpcd->Instance;
 4711              		.loc 1 2347 26
 4712 000a 7B68     		ldr	r3, [r7, #4]
 4713 000c 1B68     		ldr	r3, [r3]
 4714 000e 7B61     		str	r3, [r7, #20]
2348:Drivers/STM32F4xx_HAL_Driver/Src/stm32f4xx_hal_pcd.c ****   uint32_t USBx_BASE = (uint32_t)USBx;
 4715              		.loc 1 2348 12
 4716 0010 7B69     		ldr	r3, [r7, #20]
 4717 0012 3B61     		str	r3, [r7, #16]
2349:Drivers/STM32F4xx_HAL_Driver/Src/stm32f4xx_hal_pcd.c ****   uint32_t gSNPSiD = *(__IO uint32_t *)(&USBx->CID + 0x1U);
 4718              		.loc 1 2349 41
 4719 0014 7B69     		ldr	r3, [r7, #20]
 4720 0016 3C33     		adds	r3, r3, #60
 4721              		.loc 1 2349 23
 4722 0018 0433     		adds	r3, r3, #4
 4723              		.loc 1 2349 12
 4724 001a 1B68     		ldr	r3, [r3]
 4725 001c FB60     		str	r3, [r7, #12]
2350:Drivers/STM32F4xx_HAL_Driver/Src/stm32f4xx_hal_pcd.c ****   uint32_t DoepintReg = USBx_OUTEP(epnum)->DOEPINT;
 4726              		.loc 1 2350 25
 4727 001e 3B68     		ldr	r3, [r7]
 4728 0020 5A01     		lsls	r2, r3, #5
 4729 0022 3B69     		ldr	r3, [r7, #16]
 4730 0024 1344     		add	r3, r3, r2
 4731 0026 03F53063 		add	r3, r3, #2816
 4732              		.loc 1 2350 12
 4733 002a 9B68     		ldr	r3, [r3, #8]
 4734 002c BB60     		str	r3, [r7, #8]
2351:Drivers/STM32F4xx_HAL_Driver/Src/stm32f4xx_hal_pcd.c **** 
2352:Drivers/STM32F4xx_HAL_Driver/Src/stm32f4xx_hal_pcd.c ****   if ((gSNPSiD > USB_OTG_CORE_ID_300A) &&
 4735              		.loc 1 2352 6
 4736 002e FB68     		ldr	r3, [r7, #12]
 4737 0030 154A     		ldr	r2, .L200
 4738 0032 9342     		cmp	r3, r2
 4739 0034 0ED9     		bls	.L197
2353:Drivers/STM32F4xx_HAL_Driver/Src/stm32f4xx_hal_pcd.c ****       ((DoepintReg & USB_OTG_DOEPINT_STPKTRX) == USB_OTG_DOEPINT_STPKTRX))
 4740              		.loc 1 2353 20 discriminator 1
 4741 0036 BB68     		ldr	r3, [r7, #8]
 4742 0038 03F40043 		and	r3, r3, #32768
2352:Drivers/STM32F4xx_HAL_Driver/Src/stm32f4xx_hal_pcd.c ****       ((DoepintReg & USB_OTG_DOEPINT_STPKTRX) == USB_OTG_DOEPINT_STPKTRX))
 4743              		.loc 1 2352 40 discriminator 1
ARM GAS  /tmp/ccQdZtFR.s 			page 125


 4744 003c 002B     		cmp	r3, #0
 4745 003e 09D0     		beq	.L197
2354:Drivers/STM32F4xx_HAL_Driver/Src/stm32f4xx_hal_pcd.c ****   {
2355:Drivers/STM32F4xx_HAL_Driver/Src/stm32f4xx_hal_pcd.c ****     CLEAR_OUT_EP_INTR(epnum, USB_OTG_DOEPINT_STPKTRX);
 4746              		.loc 1 2355 5
 4747 0040 3B68     		ldr	r3, [r7]
 4748 0042 5A01     		lsls	r2, r3, #5
 4749 0044 3B69     		ldr	r3, [r7, #16]
 4750 0046 1344     		add	r3, r3, r2
 4751 0048 03F53063 		add	r3, r3, #2816
 4752 004c 1A46     		mov	r2, r3
 4753 004e 4FF40043 		mov	r3, #32768
 4754 0052 9360     		str	r3, [r2, #8]
 4755              	.L197:
2356:Drivers/STM32F4xx_HAL_Driver/Src/stm32f4xx_hal_pcd.c ****   }
2357:Drivers/STM32F4xx_HAL_Driver/Src/stm32f4xx_hal_pcd.c **** 
2358:Drivers/STM32F4xx_HAL_Driver/Src/stm32f4xx_hal_pcd.c ****   /* Inform the upper layer that a setup packet is available */
2359:Drivers/STM32F4xx_HAL_Driver/Src/stm32f4xx_hal_pcd.c **** #if (USE_HAL_PCD_REGISTER_CALLBACKS == 1U)
2360:Drivers/STM32F4xx_HAL_Driver/Src/stm32f4xx_hal_pcd.c ****   hpcd->SetupStageCallback(hpcd);
2361:Drivers/STM32F4xx_HAL_Driver/Src/stm32f4xx_hal_pcd.c **** #else
2362:Drivers/STM32F4xx_HAL_Driver/Src/stm32f4xx_hal_pcd.c ****   HAL_PCD_SetupStageCallback(hpcd);
 4756              		.loc 1 2362 3
 4757 0054 7868     		ldr	r0, [r7, #4]
 4758 0056 FFF7FEFF 		bl	HAL_PCD_SetupStageCallback
2363:Drivers/STM32F4xx_HAL_Driver/Src/stm32f4xx_hal_pcd.c **** #endif /* USE_HAL_PCD_REGISTER_CALLBACKS */
2364:Drivers/STM32F4xx_HAL_Driver/Src/stm32f4xx_hal_pcd.c **** 
2365:Drivers/STM32F4xx_HAL_Driver/Src/stm32f4xx_hal_pcd.c ****   if ((gSNPSiD > USB_OTG_CORE_ID_300A) && (hpcd->Init.dma_enable == 1U))
 4759              		.loc 1 2365 6
 4760 005a FB68     		ldr	r3, [r7, #12]
 4761 005c 0A4A     		ldr	r2, .L200
 4762 005e 9342     		cmp	r3, r2
 4763 0060 0CD9     		bls	.L198
 4764              		.loc 1 2365 54 discriminator 1
 4765 0062 7B68     		ldr	r3, [r7, #4]
 4766 0064 1B69     		ldr	r3, [r3, #16]
 4767              		.loc 1 2365 40 discriminator 1
 4768 0066 012B     		cmp	r3, #1
 4769 0068 08D1     		bne	.L198
2366:Drivers/STM32F4xx_HAL_Driver/Src/stm32f4xx_hal_pcd.c ****   {
2367:Drivers/STM32F4xx_HAL_Driver/Src/stm32f4xx_hal_pcd.c ****     (void)USB_EP0_OutStart(hpcd->Instance, 1U, (uint8_t *)hpcd->Setup);
 4770              		.loc 1 2367 32
 4771 006a 7B68     		ldr	r3, [r7, #4]
 4772 006c 1868     		ldr	r0, [r3]
 4773              		.loc 1 2367 59
 4774 006e 7B68     		ldr	r3, [r7, #4]
 4775 0070 03F2C443 		addw	r3, r3, #1220
 4776              		.loc 1 2367 11
 4777 0074 1A46     		mov	r2, r3
 4778 0076 0121     		movs	r1, #1
 4779 0078 FFF7FEFF 		bl	USB_EP0_OutStart
 4780              	.L198:
2368:Drivers/STM32F4xx_HAL_Driver/Src/stm32f4xx_hal_pcd.c ****   }
2369:Drivers/STM32F4xx_HAL_Driver/Src/stm32f4xx_hal_pcd.c **** 
2370:Drivers/STM32F4xx_HAL_Driver/Src/stm32f4xx_hal_pcd.c ****   return HAL_OK;
 4781              		.loc 1 2370 10
 4782 007c 0023     		movs	r3, #0
2371:Drivers/STM32F4xx_HAL_Driver/Src/stm32f4xx_hal_pcd.c **** }
ARM GAS  /tmp/ccQdZtFR.s 			page 126


 4783              		.loc 1 2371 1
 4784 007e 1846     		mov	r0, r3
 4785 0080 1837     		adds	r7, r7, #24
 4786              	.LCFI205:
 4787              		.cfi_def_cfa_offset 8
 4788 0082 BD46     		mov	sp, r7
 4789              	.LCFI206:
 4790              		.cfi_def_cfa_register 13
 4791              		@ sp needed
 4792 0084 80BD     		pop	{r7, pc}
 4793              	.L201:
 4794 0086 00BF     		.align	2
 4795              	.L200:
 4796 0088 0A30544F 		.word	1330917386
 4797              		.cfi_endproc
 4798              	.LFE272:
 4800              		.text
 4801              	.Letext0:
 4802              		.file 2 "/usr/local/share/gcc-arm-none-eabi-10.3-2021.10/arm-none-eabi/include/machine/_default_ty
 4803              		.file 3 "/usr/local/share/gcc-arm-none-eabi-10.3-2021.10/arm-none-eabi/include/sys/_stdint.h"
 4804              		.file 4 "Drivers/CMSIS/Device/ST/STM32F4xx/Include/stm32f446xx.h"
 4805              		.file 5 "Drivers/STM32F4xx_HAL_Driver/Inc/stm32f4xx_hal_def.h"
 4806              		.file 6 "Drivers/STM32F4xx_HAL_Driver/Inc/stm32f4xx_ll_usb.h"
 4807              		.file 7 "Drivers/STM32F4xx_HAL_Driver/Inc/stm32f4xx_hal_pcd.h"
ARM GAS  /tmp/ccQdZtFR.s 			page 127


DEFINED SYMBOLS
                            *ABS*:0000000000000000 stm32f4xx_hal_pcd.c
     /tmp/ccQdZtFR.s:20     .text.HAL_PCD_Init:0000000000000000 $t
     /tmp/ccQdZtFR.s:26     .text.HAL_PCD_Init:0000000000000000 HAL_PCD_Init
     /tmp/ccQdZtFR.s:481    .text.HAL_PCD_MspInit:0000000000000000 HAL_PCD_MspInit
     /tmp/ccQdZtFR.s:401    .text.HAL_PCD_DeInit:0000000000000000 $t
     /tmp/ccQdZtFR.s:407    .text.HAL_PCD_DeInit:0000000000000000 HAL_PCD_DeInit
     /tmp/ccQdZtFR.s:523    .text.HAL_PCD_MspDeInit:0000000000000000 HAL_PCD_MspDeInit
     /tmp/ccQdZtFR.s:475    .text.HAL_PCD_MspInit:0000000000000000 $t
     /tmp/ccQdZtFR.s:517    .text.HAL_PCD_MspDeInit:0000000000000000 $t
     /tmp/ccQdZtFR.s:559    .text.HAL_PCD_Start:0000000000000000 $t
     /tmp/ccQdZtFR.s:565    .text.HAL_PCD_Start:0000000000000000 HAL_PCD_Start
     /tmp/ccQdZtFR.s:651    .text.HAL_PCD_Stop:0000000000000000 $t
     /tmp/ccQdZtFR.s:657    .text.HAL_PCD_Stop:0000000000000000 HAL_PCD_Stop
     /tmp/ccQdZtFR.s:750    .text.HAL_PCD_IRQHandler:0000000000000000 $t
     /tmp/ccQdZtFR.s:756    .text.HAL_PCD_IRQHandler:0000000000000000 HAL_PCD_IRQHandler
     /tmp/ccQdZtFR.s:4393   .text.PCD_EP_OutXfrComplete_int:0000000000000000 PCD_EP_OutXfrComplete_int
     /tmp/ccQdZtFR.s:4692   .text.PCD_EP_OutSetupPacket_int:0000000000000000 PCD_EP_OutSetupPacket_int
     /tmp/ccQdZtFR.s:2515   .text.HAL_PCD_ISOOUTIncompleteCallback:0000000000000000 HAL_PCD_ISOOUTIncompleteCallback
     /tmp/ccQdZtFR.s:2261   .text.HAL_PCD_DataInStageCallback:0000000000000000 HAL_PCD_DataInStageCallback
     /tmp/ccQdZtFR.s:2559   .text.HAL_PCD_ISOINIncompleteCallback:0000000000000000 HAL_PCD_ISOINIncompleteCallback
     /tmp/ccQdZtFR.s:4174   .text.PCD_WriteEmptyTxFifo:0000000000000000 PCD_WriteEmptyTxFifo
     /tmp/ccQdZtFR.s:2473   .text.HAL_PCD_ResumeCallback:0000000000000000 HAL_PCD_ResumeCallback
     /tmp/ccQdZtFR.s:2431   .text.HAL_PCD_SuspendCallback:0000000000000000 HAL_PCD_SuspendCallback
     /tmp/ccQdZtFR.s:2389   .text.HAL_PCD_ResetCallback:0000000000000000 HAL_PCD_ResetCallback
     /tmp/ccQdZtFR.s:2347   .text.HAL_PCD_SOFCallback:0000000000000000 HAL_PCD_SOFCallback
     /tmp/ccQdZtFR.s:3794   .text.HAL_PCD_EP_Abort:0000000000000000 HAL_PCD_EP_Abort
     /tmp/ccQdZtFR.s:2603   .text.HAL_PCD_ConnectCallback:0000000000000000 HAL_PCD_ConnectCallback
     /tmp/ccQdZtFR.s:2645   .text.HAL_PCD_DisconnectCallback:0000000000000000 HAL_PCD_DisconnectCallback
     /tmp/ccQdZtFR.s:2141   .text.HAL_PCD_WKUP_IRQHandler:0000000000000000 $t
     /tmp/ccQdZtFR.s:2147   .text.HAL_PCD_WKUP_IRQHandler:0000000000000000 HAL_PCD_WKUP_IRQHandler
     /tmp/ccQdZtFR.s:2206   .text.HAL_PCD_WKUP_IRQHandler:0000000000000038 $d
     /tmp/ccQdZtFR.s:2211   .text.HAL_PCD_DataOutStageCallback:0000000000000000 $t
     /tmp/ccQdZtFR.s:2217   .text.HAL_PCD_DataOutStageCallback:0000000000000000 HAL_PCD_DataOutStageCallback
     /tmp/ccQdZtFR.s:2255   .text.HAL_PCD_DataInStageCallback:0000000000000000 $t
     /tmp/ccQdZtFR.s:2299   .text.HAL_PCD_SetupStageCallback:0000000000000000 $t
     /tmp/ccQdZtFR.s:2305   .text.HAL_PCD_SetupStageCallback:0000000000000000 HAL_PCD_SetupStageCallback
     /tmp/ccQdZtFR.s:2341   .text.HAL_PCD_SOFCallback:0000000000000000 $t
     /tmp/ccQdZtFR.s:2383   .text.HAL_PCD_ResetCallback:0000000000000000 $t
     /tmp/ccQdZtFR.s:2425   .text.HAL_PCD_SuspendCallback:0000000000000000 $t
     /tmp/ccQdZtFR.s:2467   .text.HAL_PCD_ResumeCallback:0000000000000000 $t
     /tmp/ccQdZtFR.s:2509   .text.HAL_PCD_ISOOUTIncompleteCallback:0000000000000000 $t
     /tmp/ccQdZtFR.s:2553   .text.HAL_PCD_ISOINIncompleteCallback:0000000000000000 $t
     /tmp/ccQdZtFR.s:2597   .text.HAL_PCD_ConnectCallback:0000000000000000 $t
     /tmp/ccQdZtFR.s:2639   .text.HAL_PCD_DisconnectCallback:0000000000000000 $t
     /tmp/ccQdZtFR.s:2681   .text.HAL_PCD_DevConnect:0000000000000000 $t
     /tmp/ccQdZtFR.s:2687   .text.HAL_PCD_DevConnect:0000000000000000 HAL_PCD_DevConnect
     /tmp/ccQdZtFR.s:2768   .text.HAL_PCD_DevDisconnect:0000000000000000 $t
     /tmp/ccQdZtFR.s:2774   .text.HAL_PCD_DevDisconnect:0000000000000000 HAL_PCD_DevDisconnect
     /tmp/ccQdZtFR.s:2855   .text.HAL_PCD_SetAddress:0000000000000000 $t
     /tmp/ccQdZtFR.s:2861   .text.HAL_PCD_SetAddress:0000000000000000 HAL_PCD_SetAddress
     /tmp/ccQdZtFR.s:2927   .text.HAL_PCD_EP_Open:0000000000000000 $t
     /tmp/ccQdZtFR.s:2933   .text.HAL_PCD_EP_Open:0000000000000000 HAL_PCD_EP_Open
     /tmp/ccQdZtFR.s:3084   .text.HAL_PCD_EP_Close:0000000000000000 $t
     /tmp/ccQdZtFR.s:3090   .text.HAL_PCD_EP_Close:0000000000000000 HAL_PCD_EP_Close
     /tmp/ccQdZtFR.s:3200   .text.HAL_PCD_EP_Receive:0000000000000000 $t
     /tmp/ccQdZtFR.s:3206   .text.HAL_PCD_EP_Receive:0000000000000000 HAL_PCD_EP_Receive
ARM GAS  /tmp/ccQdZtFR.s 			page 128


     /tmp/ccQdZtFR.s:3323   .text.HAL_PCD_EP_GetRxCount:0000000000000000 $t
     /tmp/ccQdZtFR.s:3329   .text.HAL_PCD_EP_GetRxCount:0000000000000000 HAL_PCD_EP_GetRxCount
     /tmp/ccQdZtFR.s:3379   .text.HAL_PCD_EP_Transmit:0000000000000000 $t
     /tmp/ccQdZtFR.s:3385   .text.HAL_PCD_EP_Transmit:0000000000000000 HAL_PCD_EP_Transmit
     /tmp/ccQdZtFR.s:3502   .text.HAL_PCD_EP_SetStall:0000000000000000 $t
     /tmp/ccQdZtFR.s:3508   .text.HAL_PCD_EP_SetStall:0000000000000000 HAL_PCD_EP_SetStall
     /tmp/ccQdZtFR.s:3655   .text.HAL_PCD_EP_ClrStall:0000000000000000 $t
     /tmp/ccQdZtFR.s:3661   .text.HAL_PCD_EP_ClrStall:0000000000000000 HAL_PCD_EP_ClrStall
     /tmp/ccQdZtFR.s:3788   .text.HAL_PCD_EP_Abort:0000000000000000 $t
     /tmp/ccQdZtFR.s:3873   .text.HAL_PCD_EP_Flush:0000000000000000 $t
     /tmp/ccQdZtFR.s:3879   .text.HAL_PCD_EP_Flush:0000000000000000 HAL_PCD_EP_Flush
     /tmp/ccQdZtFR.s:3956   .text.HAL_PCD_ActivateRemoteWakeup:0000000000000000 $t
     /tmp/ccQdZtFR.s:3962   .text.HAL_PCD_ActivateRemoteWakeup:0000000000000000 HAL_PCD_ActivateRemoteWakeup
     /tmp/ccQdZtFR.s:4001   .text.HAL_PCD_DeActivateRemoteWakeup:0000000000000000 $t
     /tmp/ccQdZtFR.s:4007   .text.HAL_PCD_DeActivateRemoteWakeup:0000000000000000 HAL_PCD_DeActivateRemoteWakeup
     /tmp/ccQdZtFR.s:4046   .text.HAL_PCD_GetState:0000000000000000 $t
     /tmp/ccQdZtFR.s:4052   .text.HAL_PCD_GetState:0000000000000000 HAL_PCD_GetState
     /tmp/ccQdZtFR.s:4092   .text.HAL_PCD_SetTestMode:0000000000000000 $t
     /tmp/ccQdZtFR.s:4098   .text.HAL_PCD_SetTestMode:0000000000000000 HAL_PCD_SetTestMode
     /tmp/ccQdZtFR.s:4169   .text.PCD_WriteEmptyTxFifo:0000000000000000 $t
     /tmp/ccQdZtFR.s:4388   .text.PCD_EP_OutXfrComplete_int:0000000000000000 $t
     /tmp/ccQdZtFR.s:4681   .text.PCD_EP_OutXfrComplete_int:00000000000001c8 $d
     /tmp/ccQdZtFR.s:4687   .text.PCD_EP_OutSetupPacket_int:0000000000000000 $t
     /tmp/ccQdZtFR.s:4796   .text.PCD_EP_OutSetupPacket_int:0000000000000088 $d

UNDEFINED SYMBOLS
USB_DisableGlobalInt
USB_CoreInit
USB_SetCurrentMode
USB_DevInit
HAL_PCDEx_ActivateLPM
USB_DevDisconnect
USB_StopDevice
USB_EnableGlobalInt
USB_DevConnect
USB_FlushTxFifo
USB_GetMode
USB_ReadInterrupts
USB_ReadPacket
USB_ReadDevAllOutEpInterrupt
USB_ReadDevOutEPInterrupt
USB_ReadDevAllInEpInterrupt
USB_ReadDevInEPInterrupt
USB_EP0_OutStart
HAL_PCDEx_LPM_Callback
USB_ActivateSetup
USB_GetDevSpeed
HAL_RCC_GetHCLKFreq
USB_SetTurnaroundTime
USB_SetDevAddress
USB_ActivateEndpoint
USB_DeactivateEndpoint
USB_EP0StartXfer
USB_EPStartXfer
USB_EPSetStall
USB_EPClearStall
USB_EPStopXfer
ARM GAS  /tmp/ccQdZtFR.s 			page 129


USB_FlushRxFifo
USB_ActivateRemoteWakeup
USB_DeActivateRemoteWakeup
USB_WritePacket
