ARM GAS  /tmp/ccGlxyVe.s 			page 1


   1              		.cpu cortex-m4
   2              		.arch armv7e-m
   3              		.fpu fpv4-sp-d16
   4              		.eabi_attribute 27, 1
   5              		.eabi_attribute 28, 1
   6              		.eabi_attribute 20, 1
   7              		.eabi_attribute 21, 1
   8              		.eabi_attribute 23, 3
   9              		.eabi_attribute 24, 1
  10              		.eabi_attribute 25, 1
  11              		.eabi_attribute 26, 1
  12              		.eabi_attribute 30, 6
  13              		.eabi_attribute 34, 1
  14              		.eabi_attribute 18, 4
  15              		.file	"usbd_desc.c"
  16              		.text
  17              	.Ltext0:
  18              		.cfi_sections	.debug_frame
  19              		.global	FS_Desc
  20              		.section	.data.FS_Desc,"aw"
  21              		.align	2
  24              	FS_Desc:
  25 0000 00000000 		.word	USBD_FS_DeviceDescriptor
  26 0004 00000000 		.word	USBD_FS_LangIDStrDescriptor
  27 0008 00000000 		.word	USBD_FS_ManufacturerStrDescriptor
  28 000c 00000000 		.word	USBD_FS_ProductStrDescriptor
  29 0010 00000000 		.word	USBD_FS_SerialStrDescriptor
  30 0014 00000000 		.word	USBD_FS_ConfigStrDescriptor
  31 0018 00000000 		.word	USBD_FS_InterfaceStrDescriptor
  32 001c 00000000 		.word	USBD_FS_USR_BOSDescriptor
  33              		.global	USBD_FS_DeviceDesc
  34              		.section	.data.USBD_FS_DeviceDesc,"aw"
  35              		.align	2
  38              	USBD_FS_DeviceDesc:
  39 0000 12010102 		.ascii	"\022\001\001\002\002\002\000@\203\004@W\000\002\001"
  39      02020040 
  39      83044057 
  39      000201
  40 000f 020301   		.ascii	"\002\003\001"
  41              		.global	USBD_FS_BOSDesc
  42              		.section	.data.USBD_FS_BOSDesc,"aw"
  43              		.align	2
  46              	USBD_FS_BOSDesc:
  47 0000 050F0C00 		.ascii	"\005\017\014\000\001\007\020\002\002\000\000\000"
  47      01071002 
  47      02000000 
  48              		.global	USBD_LangIDDesc
  49              		.section	.data.USBD_LangIDDesc,"aw"
  50              		.align	2
  53              	USBD_LangIDDesc:
  54 0000 04030904 		.ascii	"\004\003\011\004"
  55              		.global	USBD_StrDesc
  56              		.section	.bss.USBD_StrDesc,"aw",%nobits
  57              		.align	2
  60              	USBD_StrDesc:
  61 0000 00000000 		.space	512
  61      00000000 
ARM GAS  /tmp/ccGlxyVe.s 			page 2


  61      00000000 
  61      00000000 
  61      00000000 
  62              		.global	USBD_StringSerial
  63              		.section	.data.USBD_StringSerial,"aw"
  64              		.align	2
  67              	USBD_StringSerial:
  68 0000 1A0300   		.ascii	"\032\003\000"
  69 0003 00000000 		.space	23
  69      00000000 
  69      00000000 
  69      00000000 
  69      00000000 
  70              		.section	.text.USBD_FS_DeviceDescriptor,"ax",%progbits
  71              		.align	1
  72              		.global	USBD_FS_DeviceDescriptor
  73              		.syntax unified
  74              		.thumb
  75              		.thumb_func
  77              	USBD_FS_DeviceDescriptor:
  78              	.LFB239:
  79              		.file 1 "USB_DEVICE/App/usbd_desc.c"
   1:USB_DEVICE/App/usbd_desc.c **** /* USER CODE BEGIN Header */
   2:USB_DEVICE/App/usbd_desc.c **** /**
   3:USB_DEVICE/App/usbd_desc.c ****   ******************************************************************************
   4:USB_DEVICE/App/usbd_desc.c ****   * @file           : App/usbd_desc.c
   5:USB_DEVICE/App/usbd_desc.c ****   * @version        : v1.0_Cube
   6:USB_DEVICE/App/usbd_desc.c ****   * @brief          : This file implements the USB device descriptors.
   7:USB_DEVICE/App/usbd_desc.c ****   ******************************************************************************
   8:USB_DEVICE/App/usbd_desc.c ****   * @attention
   9:USB_DEVICE/App/usbd_desc.c ****   *
  10:USB_DEVICE/App/usbd_desc.c ****   * Copyright (c) 2024 STMicroelectronics.
  11:USB_DEVICE/App/usbd_desc.c ****   * All rights reserved.
  12:USB_DEVICE/App/usbd_desc.c ****   *
  13:USB_DEVICE/App/usbd_desc.c ****   * This software is licensed under terms that can be found in the LICENSE file
  14:USB_DEVICE/App/usbd_desc.c ****   * in the root directory of this software component.
  15:USB_DEVICE/App/usbd_desc.c ****   * If no LICENSE file comes with this software, it is provided AS-IS.
  16:USB_DEVICE/App/usbd_desc.c ****   *
  17:USB_DEVICE/App/usbd_desc.c ****   ******************************************************************************
  18:USB_DEVICE/App/usbd_desc.c ****   */
  19:USB_DEVICE/App/usbd_desc.c **** /* USER CODE END Header */
  20:USB_DEVICE/App/usbd_desc.c **** 
  21:USB_DEVICE/App/usbd_desc.c **** /* Includes ------------------------------------------------------------------*/
  22:USB_DEVICE/App/usbd_desc.c **** #include "usbd_core.h"
  23:USB_DEVICE/App/usbd_desc.c **** #include "usbd_desc.h"
  24:USB_DEVICE/App/usbd_desc.c **** #include "usbd_conf.h"
  25:USB_DEVICE/App/usbd_desc.c **** 
  26:USB_DEVICE/App/usbd_desc.c **** /* USER CODE BEGIN INCLUDE */
  27:USB_DEVICE/App/usbd_desc.c **** 
  28:USB_DEVICE/App/usbd_desc.c **** /* USER CODE END INCLUDE */
  29:USB_DEVICE/App/usbd_desc.c **** 
  30:USB_DEVICE/App/usbd_desc.c **** /* Private typedef -----------------------------------------------------------*/
  31:USB_DEVICE/App/usbd_desc.c **** /* Private define ------------------------------------------------------------*/
  32:USB_DEVICE/App/usbd_desc.c **** /* Private macro -------------------------------------------------------------*/
  33:USB_DEVICE/App/usbd_desc.c **** 
  34:USB_DEVICE/App/usbd_desc.c **** /* USER CODE BEGIN PV */
  35:USB_DEVICE/App/usbd_desc.c **** /* Private variables ---------------------------------------------------------*/
ARM GAS  /tmp/ccGlxyVe.s 			page 3


  36:USB_DEVICE/App/usbd_desc.c **** 
  37:USB_DEVICE/App/usbd_desc.c **** /* USER CODE END PV */
  38:USB_DEVICE/App/usbd_desc.c **** 
  39:USB_DEVICE/App/usbd_desc.c **** /** @addtogroup STM32_USB_OTG_DEVICE_LIBRARY
  40:USB_DEVICE/App/usbd_desc.c ****   * @{
  41:USB_DEVICE/App/usbd_desc.c ****   */
  42:USB_DEVICE/App/usbd_desc.c **** 
  43:USB_DEVICE/App/usbd_desc.c **** /** @addtogroup USBD_DESC
  44:USB_DEVICE/App/usbd_desc.c ****   * @{
  45:USB_DEVICE/App/usbd_desc.c ****   */
  46:USB_DEVICE/App/usbd_desc.c **** 
  47:USB_DEVICE/App/usbd_desc.c **** /** @defgroup USBD_DESC_Private_TypesDefinitions USBD_DESC_Private_TypesDefinitions
  48:USB_DEVICE/App/usbd_desc.c ****   * @brief Private types.
  49:USB_DEVICE/App/usbd_desc.c ****   * @{
  50:USB_DEVICE/App/usbd_desc.c ****   */
  51:USB_DEVICE/App/usbd_desc.c **** 
  52:USB_DEVICE/App/usbd_desc.c **** /* USER CODE BEGIN PRIVATE_TYPES */
  53:USB_DEVICE/App/usbd_desc.c **** 
  54:USB_DEVICE/App/usbd_desc.c **** /* USER CODE END PRIVATE_TYPES */
  55:USB_DEVICE/App/usbd_desc.c **** 
  56:USB_DEVICE/App/usbd_desc.c **** /**
  57:USB_DEVICE/App/usbd_desc.c ****   * @}
  58:USB_DEVICE/App/usbd_desc.c ****   */
  59:USB_DEVICE/App/usbd_desc.c **** 
  60:USB_DEVICE/App/usbd_desc.c **** /** @defgroup USBD_DESC_Private_Defines USBD_DESC_Private_Defines
  61:USB_DEVICE/App/usbd_desc.c ****   * @brief Private defines.
  62:USB_DEVICE/App/usbd_desc.c ****   * @{
  63:USB_DEVICE/App/usbd_desc.c ****   */
  64:USB_DEVICE/App/usbd_desc.c **** 
  65:USB_DEVICE/App/usbd_desc.c **** #define USBD_VID     1155
  66:USB_DEVICE/App/usbd_desc.c **** #define USBD_LANGID_STRING     1033
  67:USB_DEVICE/App/usbd_desc.c **** #define USBD_MANUFACTURER_STRING     "STMicroelectronics"
  68:USB_DEVICE/App/usbd_desc.c **** #define USBD_PID_FS     22336
  69:USB_DEVICE/App/usbd_desc.c **** #define USBD_PRODUCT_STRING_FS     "STM32 Virtual ComPort"
  70:USB_DEVICE/App/usbd_desc.c **** #define USBD_CONFIGURATION_STRING_FS     "CDC Config"
  71:USB_DEVICE/App/usbd_desc.c **** #define USBD_INTERFACE_STRING_FS     "CDC Interface"
  72:USB_DEVICE/App/usbd_desc.c **** 
  73:USB_DEVICE/App/usbd_desc.c **** #define USB_SIZ_BOS_DESC            0x0C
  74:USB_DEVICE/App/usbd_desc.c **** 
  75:USB_DEVICE/App/usbd_desc.c **** /* USER CODE BEGIN PRIVATE_DEFINES */
  76:USB_DEVICE/App/usbd_desc.c **** 
  77:USB_DEVICE/App/usbd_desc.c **** /* USER CODE END PRIVATE_DEFINES */
  78:USB_DEVICE/App/usbd_desc.c **** 
  79:USB_DEVICE/App/usbd_desc.c **** /**
  80:USB_DEVICE/App/usbd_desc.c ****   * @}
  81:USB_DEVICE/App/usbd_desc.c ****   */
  82:USB_DEVICE/App/usbd_desc.c **** 
  83:USB_DEVICE/App/usbd_desc.c **** /* USER CODE BEGIN 0 */
  84:USB_DEVICE/App/usbd_desc.c **** 
  85:USB_DEVICE/App/usbd_desc.c **** /* USER CODE END 0 */
  86:USB_DEVICE/App/usbd_desc.c **** 
  87:USB_DEVICE/App/usbd_desc.c **** /** @defgroup USBD_DESC_Private_Macros USBD_DESC_Private_Macros
  88:USB_DEVICE/App/usbd_desc.c ****   * @brief Private macros.
  89:USB_DEVICE/App/usbd_desc.c ****   * @{
  90:USB_DEVICE/App/usbd_desc.c ****   */
  91:USB_DEVICE/App/usbd_desc.c **** 
  92:USB_DEVICE/App/usbd_desc.c **** /* USER CODE BEGIN PRIVATE_MACRO */
ARM GAS  /tmp/ccGlxyVe.s 			page 4


  93:USB_DEVICE/App/usbd_desc.c **** 
  94:USB_DEVICE/App/usbd_desc.c **** /* USER CODE END PRIVATE_MACRO */
  95:USB_DEVICE/App/usbd_desc.c **** 
  96:USB_DEVICE/App/usbd_desc.c **** /**
  97:USB_DEVICE/App/usbd_desc.c ****   * @}
  98:USB_DEVICE/App/usbd_desc.c ****   */
  99:USB_DEVICE/App/usbd_desc.c **** 
 100:USB_DEVICE/App/usbd_desc.c **** /** @defgroup USBD_DESC_Private_FunctionPrototypes USBD_DESC_Private_FunctionPrototypes
 101:USB_DEVICE/App/usbd_desc.c ****   * @brief Private functions declaration.
 102:USB_DEVICE/App/usbd_desc.c ****   * @{
 103:USB_DEVICE/App/usbd_desc.c ****   */
 104:USB_DEVICE/App/usbd_desc.c **** 
 105:USB_DEVICE/App/usbd_desc.c **** static void Get_SerialNum(void);
 106:USB_DEVICE/App/usbd_desc.c **** static void IntToUnicode(uint32_t value, uint8_t * pbuf, uint8_t len);
 107:USB_DEVICE/App/usbd_desc.c **** 
 108:USB_DEVICE/App/usbd_desc.c **** /**
 109:USB_DEVICE/App/usbd_desc.c ****   * @}
 110:USB_DEVICE/App/usbd_desc.c ****   */
 111:USB_DEVICE/App/usbd_desc.c **** 
 112:USB_DEVICE/App/usbd_desc.c **** /** @defgroup USBD_DESC_Private_FunctionPrototypes USBD_DESC_Private_FunctionPrototypes
 113:USB_DEVICE/App/usbd_desc.c ****   * @brief Private functions declaration for FS.
 114:USB_DEVICE/App/usbd_desc.c ****   * @{
 115:USB_DEVICE/App/usbd_desc.c ****   */
 116:USB_DEVICE/App/usbd_desc.c **** 
 117:USB_DEVICE/App/usbd_desc.c **** uint8_t * USBD_FS_DeviceDescriptor(USBD_SpeedTypeDef speed, uint16_t *length);
 118:USB_DEVICE/App/usbd_desc.c **** uint8_t * USBD_FS_LangIDStrDescriptor(USBD_SpeedTypeDef speed, uint16_t *length);
 119:USB_DEVICE/App/usbd_desc.c **** uint8_t * USBD_FS_ManufacturerStrDescriptor(USBD_SpeedTypeDef speed, uint16_t *length);
 120:USB_DEVICE/App/usbd_desc.c **** uint8_t * USBD_FS_ProductStrDescriptor(USBD_SpeedTypeDef speed, uint16_t *length);
 121:USB_DEVICE/App/usbd_desc.c **** uint8_t * USBD_FS_SerialStrDescriptor(USBD_SpeedTypeDef speed, uint16_t *length);
 122:USB_DEVICE/App/usbd_desc.c **** uint8_t * USBD_FS_ConfigStrDescriptor(USBD_SpeedTypeDef speed, uint16_t *length);
 123:USB_DEVICE/App/usbd_desc.c **** uint8_t * USBD_FS_InterfaceStrDescriptor(USBD_SpeedTypeDef speed, uint16_t *length);
 124:USB_DEVICE/App/usbd_desc.c **** #if (USBD_LPM_ENABLED == 1)
 125:USB_DEVICE/App/usbd_desc.c **** uint8_t * USBD_FS_USR_BOSDescriptor(USBD_SpeedTypeDef speed, uint16_t *length);
 126:USB_DEVICE/App/usbd_desc.c **** #endif /* (USBD_LPM_ENABLED == 1) */
 127:USB_DEVICE/App/usbd_desc.c **** 
 128:USB_DEVICE/App/usbd_desc.c **** /**
 129:USB_DEVICE/App/usbd_desc.c ****   * @}
 130:USB_DEVICE/App/usbd_desc.c ****   */
 131:USB_DEVICE/App/usbd_desc.c **** 
 132:USB_DEVICE/App/usbd_desc.c **** /** @defgroup USBD_DESC_Private_Variables USBD_DESC_Private_Variables
 133:USB_DEVICE/App/usbd_desc.c ****   * @brief Private variables.
 134:USB_DEVICE/App/usbd_desc.c ****   * @{
 135:USB_DEVICE/App/usbd_desc.c ****   */
 136:USB_DEVICE/App/usbd_desc.c **** 
 137:USB_DEVICE/App/usbd_desc.c **** USBD_DescriptorsTypeDef FS_Desc =
 138:USB_DEVICE/App/usbd_desc.c **** {
 139:USB_DEVICE/App/usbd_desc.c ****   USBD_FS_DeviceDescriptor
 140:USB_DEVICE/App/usbd_desc.c **** , USBD_FS_LangIDStrDescriptor
 141:USB_DEVICE/App/usbd_desc.c **** , USBD_FS_ManufacturerStrDescriptor
 142:USB_DEVICE/App/usbd_desc.c **** , USBD_FS_ProductStrDescriptor
 143:USB_DEVICE/App/usbd_desc.c **** , USBD_FS_SerialStrDescriptor
 144:USB_DEVICE/App/usbd_desc.c **** , USBD_FS_ConfigStrDescriptor
 145:USB_DEVICE/App/usbd_desc.c **** , USBD_FS_InterfaceStrDescriptor
 146:USB_DEVICE/App/usbd_desc.c **** #if (USBD_LPM_ENABLED == 1)
 147:USB_DEVICE/App/usbd_desc.c **** , USBD_FS_USR_BOSDescriptor
 148:USB_DEVICE/App/usbd_desc.c **** #endif /* (USBD_LPM_ENABLED == 1) */
 149:USB_DEVICE/App/usbd_desc.c **** };
ARM GAS  /tmp/ccGlxyVe.s 			page 5


 150:USB_DEVICE/App/usbd_desc.c **** 
 151:USB_DEVICE/App/usbd_desc.c **** #if defined ( __ICCARM__ ) /* IAR Compiler */
 152:USB_DEVICE/App/usbd_desc.c ****   #pragma data_alignment=4
 153:USB_DEVICE/App/usbd_desc.c **** #endif /* defined ( __ICCARM__ ) */
 154:USB_DEVICE/App/usbd_desc.c **** /** USB standard device descriptor. */
 155:USB_DEVICE/App/usbd_desc.c **** __ALIGN_BEGIN uint8_t USBD_FS_DeviceDesc[USB_LEN_DEV_DESC] __ALIGN_END =
 156:USB_DEVICE/App/usbd_desc.c **** {
 157:USB_DEVICE/App/usbd_desc.c ****   0x12,                       /*bLength */
 158:USB_DEVICE/App/usbd_desc.c ****   USB_DESC_TYPE_DEVICE,       /*bDescriptorType*/
 159:USB_DEVICE/App/usbd_desc.c **** #if (USBD_LPM_ENABLED == 1)
 160:USB_DEVICE/App/usbd_desc.c ****   0x01,                       /*bcdUSB */ /* changed to USB version 2.01
 161:USB_DEVICE/App/usbd_desc.c ****                                              in order to support LPM L1 suspend
 162:USB_DEVICE/App/usbd_desc.c ****                                              resume test of USBCV3.0*/
 163:USB_DEVICE/App/usbd_desc.c **** #else
 164:USB_DEVICE/App/usbd_desc.c ****   0x00,                       /*bcdUSB */
 165:USB_DEVICE/App/usbd_desc.c **** #endif /* (USBD_LPM_ENABLED == 1) */
 166:USB_DEVICE/App/usbd_desc.c ****   0x02,
 167:USB_DEVICE/App/usbd_desc.c ****   0x02,                       /*bDeviceClass*/
 168:USB_DEVICE/App/usbd_desc.c ****   0x02,                       /*bDeviceSubClass*/
 169:USB_DEVICE/App/usbd_desc.c ****   0x00,                       /*bDeviceProtocol*/
 170:USB_DEVICE/App/usbd_desc.c ****   USB_MAX_EP0_SIZE,           /*bMaxPacketSize*/
 171:USB_DEVICE/App/usbd_desc.c ****   LOBYTE(USBD_VID),           /*idVendor*/
 172:USB_DEVICE/App/usbd_desc.c ****   HIBYTE(USBD_VID),           /*idVendor*/
 173:USB_DEVICE/App/usbd_desc.c ****   LOBYTE(USBD_PID_FS),        /*idProduct*/
 174:USB_DEVICE/App/usbd_desc.c ****   HIBYTE(USBD_PID_FS),        /*idProduct*/
 175:USB_DEVICE/App/usbd_desc.c ****   0x00,                       /*bcdDevice rel. 2.00*/
 176:USB_DEVICE/App/usbd_desc.c ****   0x02,
 177:USB_DEVICE/App/usbd_desc.c ****   USBD_IDX_MFC_STR,           /*Index of manufacturer  string*/
 178:USB_DEVICE/App/usbd_desc.c ****   USBD_IDX_PRODUCT_STR,       /*Index of product string*/
 179:USB_DEVICE/App/usbd_desc.c ****   USBD_IDX_SERIAL_STR,        /*Index of serial number string*/
 180:USB_DEVICE/App/usbd_desc.c ****   USBD_MAX_NUM_CONFIGURATION  /*bNumConfigurations*/
 181:USB_DEVICE/App/usbd_desc.c **** };
 182:USB_DEVICE/App/usbd_desc.c **** 
 183:USB_DEVICE/App/usbd_desc.c **** /* USB_DeviceDescriptor */
 184:USB_DEVICE/App/usbd_desc.c **** /** BOS descriptor. */
 185:USB_DEVICE/App/usbd_desc.c **** #if (USBD_LPM_ENABLED == 1)
 186:USB_DEVICE/App/usbd_desc.c **** #if defined ( __ICCARM__ ) /* IAR Compiler */
 187:USB_DEVICE/App/usbd_desc.c ****   #pragma data_alignment=4
 188:USB_DEVICE/App/usbd_desc.c **** #endif /* defined ( __ICCARM__ ) */
 189:USB_DEVICE/App/usbd_desc.c **** __ALIGN_BEGIN uint8_t USBD_FS_BOSDesc[USB_SIZ_BOS_DESC] __ALIGN_END =
 190:USB_DEVICE/App/usbd_desc.c **** {
 191:USB_DEVICE/App/usbd_desc.c ****   0x5,
 192:USB_DEVICE/App/usbd_desc.c ****   USB_DESC_TYPE_BOS,
 193:USB_DEVICE/App/usbd_desc.c ****   0xC,
 194:USB_DEVICE/App/usbd_desc.c ****   0x0,
 195:USB_DEVICE/App/usbd_desc.c ****   0x1,  /* 1 device capability*/
 196:USB_DEVICE/App/usbd_desc.c ****         /* device capability*/
 197:USB_DEVICE/App/usbd_desc.c ****   0x7,
 198:USB_DEVICE/App/usbd_desc.c ****   USB_DEVICE_CAPABITY_TYPE,
 199:USB_DEVICE/App/usbd_desc.c ****   0x2,
 200:USB_DEVICE/App/usbd_desc.c ****   0x2,  /* LPM capability bit set*/
 201:USB_DEVICE/App/usbd_desc.c ****   0x0,
 202:USB_DEVICE/App/usbd_desc.c ****   0x0,
 203:USB_DEVICE/App/usbd_desc.c ****   0x0
 204:USB_DEVICE/App/usbd_desc.c **** };
 205:USB_DEVICE/App/usbd_desc.c **** #endif /* (USBD_LPM_ENABLED == 1) */
 206:USB_DEVICE/App/usbd_desc.c **** 
ARM GAS  /tmp/ccGlxyVe.s 			page 6


 207:USB_DEVICE/App/usbd_desc.c **** /**
 208:USB_DEVICE/App/usbd_desc.c ****   * @}
 209:USB_DEVICE/App/usbd_desc.c ****   */
 210:USB_DEVICE/App/usbd_desc.c **** 
 211:USB_DEVICE/App/usbd_desc.c **** /** @defgroup USBD_DESC_Private_Variables USBD_DESC_Private_Variables
 212:USB_DEVICE/App/usbd_desc.c ****   * @brief Private variables.
 213:USB_DEVICE/App/usbd_desc.c ****   * @{
 214:USB_DEVICE/App/usbd_desc.c ****   */
 215:USB_DEVICE/App/usbd_desc.c **** 
 216:USB_DEVICE/App/usbd_desc.c **** #if defined ( __ICCARM__ ) /* IAR Compiler */
 217:USB_DEVICE/App/usbd_desc.c ****   #pragma data_alignment=4
 218:USB_DEVICE/App/usbd_desc.c **** #endif /* defined ( __ICCARM__ ) */
 219:USB_DEVICE/App/usbd_desc.c **** 
 220:USB_DEVICE/App/usbd_desc.c **** /** USB lang identifier descriptor. */
 221:USB_DEVICE/App/usbd_desc.c **** __ALIGN_BEGIN uint8_t USBD_LangIDDesc[USB_LEN_LANGID_STR_DESC] __ALIGN_END =
 222:USB_DEVICE/App/usbd_desc.c **** {
 223:USB_DEVICE/App/usbd_desc.c ****      USB_LEN_LANGID_STR_DESC,
 224:USB_DEVICE/App/usbd_desc.c ****      USB_DESC_TYPE_STRING,
 225:USB_DEVICE/App/usbd_desc.c ****      LOBYTE(USBD_LANGID_STRING),
 226:USB_DEVICE/App/usbd_desc.c ****      HIBYTE(USBD_LANGID_STRING)
 227:USB_DEVICE/App/usbd_desc.c **** };
 228:USB_DEVICE/App/usbd_desc.c **** 
 229:USB_DEVICE/App/usbd_desc.c **** #if defined ( __ICCARM__ ) /* IAR Compiler */
 230:USB_DEVICE/App/usbd_desc.c ****   #pragma data_alignment=4
 231:USB_DEVICE/App/usbd_desc.c **** #endif /* defined ( __ICCARM__ ) */
 232:USB_DEVICE/App/usbd_desc.c **** /* Internal string descriptor. */
 233:USB_DEVICE/App/usbd_desc.c **** __ALIGN_BEGIN uint8_t USBD_StrDesc[USBD_MAX_STR_DESC_SIZ] __ALIGN_END;
 234:USB_DEVICE/App/usbd_desc.c **** 
 235:USB_DEVICE/App/usbd_desc.c **** #if defined ( __ICCARM__ ) /*!< IAR Compiler */
 236:USB_DEVICE/App/usbd_desc.c ****   #pragma data_alignment=4
 237:USB_DEVICE/App/usbd_desc.c **** #endif
 238:USB_DEVICE/App/usbd_desc.c **** __ALIGN_BEGIN uint8_t USBD_StringSerial[USB_SIZ_STRING_SERIAL] __ALIGN_END = {
 239:USB_DEVICE/App/usbd_desc.c ****   USB_SIZ_STRING_SERIAL,
 240:USB_DEVICE/App/usbd_desc.c ****   USB_DESC_TYPE_STRING,
 241:USB_DEVICE/App/usbd_desc.c **** };
 242:USB_DEVICE/App/usbd_desc.c **** 
 243:USB_DEVICE/App/usbd_desc.c **** /**
 244:USB_DEVICE/App/usbd_desc.c ****   * @}
 245:USB_DEVICE/App/usbd_desc.c ****   */
 246:USB_DEVICE/App/usbd_desc.c **** 
 247:USB_DEVICE/App/usbd_desc.c **** /** @defgroup USBD_DESC_Private_Functions USBD_DESC_Private_Functions
 248:USB_DEVICE/App/usbd_desc.c ****   * @brief Private functions.
 249:USB_DEVICE/App/usbd_desc.c ****   * @{
 250:USB_DEVICE/App/usbd_desc.c ****   */
 251:USB_DEVICE/App/usbd_desc.c **** 
 252:USB_DEVICE/App/usbd_desc.c **** /**
 253:USB_DEVICE/App/usbd_desc.c ****   * @brief  Return the device descriptor
 254:USB_DEVICE/App/usbd_desc.c ****   * @param  speed : Current device speed
 255:USB_DEVICE/App/usbd_desc.c ****   * @param  length : Pointer to data length variable
 256:USB_DEVICE/App/usbd_desc.c ****   * @retval Pointer to descriptor buffer
 257:USB_DEVICE/App/usbd_desc.c ****   */
 258:USB_DEVICE/App/usbd_desc.c **** uint8_t * USBD_FS_DeviceDescriptor(USBD_SpeedTypeDef speed, uint16_t *length)
 259:USB_DEVICE/App/usbd_desc.c **** {
  80              		.loc 1 259 1
  81              		.cfi_startproc
  82              		@ args = 0, pretend = 0, frame = 8
  83              		@ frame_needed = 1, uses_anonymous_args = 0
ARM GAS  /tmp/ccGlxyVe.s 			page 7


  84              		@ link register save eliminated.
  85 0000 80B4     		push	{r7}
  86              	.LCFI0:
  87              		.cfi_def_cfa_offset 4
  88              		.cfi_offset 7, -4
  89 0002 83B0     		sub	sp, sp, #12
  90              	.LCFI1:
  91              		.cfi_def_cfa_offset 16
  92 0004 00AF     		add	r7, sp, #0
  93              	.LCFI2:
  94              		.cfi_def_cfa_register 7
  95 0006 0346     		mov	r3, r0
  96 0008 3960     		str	r1, [r7]
  97 000a FB71     		strb	r3, [r7, #7]
 260:USB_DEVICE/App/usbd_desc.c ****   UNUSED(speed);
 261:USB_DEVICE/App/usbd_desc.c ****   *length = sizeof(USBD_FS_DeviceDesc);
  98              		.loc 1 261 11
  99 000c 3B68     		ldr	r3, [r7]
 100 000e 1222     		movs	r2, #18
 101 0010 1A80     		strh	r2, [r3]	@ movhi
 262:USB_DEVICE/App/usbd_desc.c ****   return USBD_FS_DeviceDesc;
 102              		.loc 1 262 10
 103 0012 034B     		ldr	r3, .L3
 263:USB_DEVICE/App/usbd_desc.c **** }
 104              		.loc 1 263 1
 105 0014 1846     		mov	r0, r3
 106 0016 0C37     		adds	r7, r7, #12
 107              	.LCFI3:
 108              		.cfi_def_cfa_offset 4
 109 0018 BD46     		mov	sp, r7
 110              	.LCFI4:
 111              		.cfi_def_cfa_register 13
 112              		@ sp needed
 113 001a 5DF8047B 		ldr	r7, [sp], #4
 114              	.LCFI5:
 115              		.cfi_restore 7
 116              		.cfi_def_cfa_offset 0
 117 001e 7047     		bx	lr
 118              	.L4:
 119              		.align	2
 120              	.L3:
 121 0020 00000000 		.word	USBD_FS_DeviceDesc
 122              		.cfi_endproc
 123              	.LFE239:
 125              		.section	.text.USBD_FS_LangIDStrDescriptor,"ax",%progbits
 126              		.align	1
 127              		.global	USBD_FS_LangIDStrDescriptor
 128              		.syntax unified
 129              		.thumb
 130              		.thumb_func
 132              	USBD_FS_LangIDStrDescriptor:
 133              	.LFB240:
 264:USB_DEVICE/App/usbd_desc.c **** 
 265:USB_DEVICE/App/usbd_desc.c **** /**
 266:USB_DEVICE/App/usbd_desc.c ****   * @brief  Return the LangID string descriptor
 267:USB_DEVICE/App/usbd_desc.c ****   * @param  speed : Current device speed
 268:USB_DEVICE/App/usbd_desc.c ****   * @param  length : Pointer to data length variable
ARM GAS  /tmp/ccGlxyVe.s 			page 8


 269:USB_DEVICE/App/usbd_desc.c ****   * @retval Pointer to descriptor buffer
 270:USB_DEVICE/App/usbd_desc.c ****   */
 271:USB_DEVICE/App/usbd_desc.c **** uint8_t * USBD_FS_LangIDStrDescriptor(USBD_SpeedTypeDef speed, uint16_t *length)
 272:USB_DEVICE/App/usbd_desc.c **** {
 134              		.loc 1 272 1
 135              		.cfi_startproc
 136              		@ args = 0, pretend = 0, frame = 8
 137              		@ frame_needed = 1, uses_anonymous_args = 0
 138              		@ link register save eliminated.
 139 0000 80B4     		push	{r7}
 140              	.LCFI6:
 141              		.cfi_def_cfa_offset 4
 142              		.cfi_offset 7, -4
 143 0002 83B0     		sub	sp, sp, #12
 144              	.LCFI7:
 145              		.cfi_def_cfa_offset 16
 146 0004 00AF     		add	r7, sp, #0
 147              	.LCFI8:
 148              		.cfi_def_cfa_register 7
 149 0006 0346     		mov	r3, r0
 150 0008 3960     		str	r1, [r7]
 151 000a FB71     		strb	r3, [r7, #7]
 273:USB_DEVICE/App/usbd_desc.c ****   UNUSED(speed);
 274:USB_DEVICE/App/usbd_desc.c ****   *length = sizeof(USBD_LangIDDesc);
 152              		.loc 1 274 11
 153 000c 3B68     		ldr	r3, [r7]
 154 000e 0422     		movs	r2, #4
 155 0010 1A80     		strh	r2, [r3]	@ movhi
 275:USB_DEVICE/App/usbd_desc.c ****   return USBD_LangIDDesc;
 156              		.loc 1 275 10
 157 0012 034B     		ldr	r3, .L7
 276:USB_DEVICE/App/usbd_desc.c **** }
 158              		.loc 1 276 1
 159 0014 1846     		mov	r0, r3
 160 0016 0C37     		adds	r7, r7, #12
 161              	.LCFI9:
 162              		.cfi_def_cfa_offset 4
 163 0018 BD46     		mov	sp, r7
 164              	.LCFI10:
 165              		.cfi_def_cfa_register 13
 166              		@ sp needed
 167 001a 5DF8047B 		ldr	r7, [sp], #4
 168              	.LCFI11:
 169              		.cfi_restore 7
 170              		.cfi_def_cfa_offset 0
 171 001e 7047     		bx	lr
 172              	.L8:
 173              		.align	2
 174              	.L7:
 175 0020 00000000 		.word	USBD_LangIDDesc
 176              		.cfi_endproc
 177              	.LFE240:
 179              		.section	.rodata
 180              		.align	2
 181              	.LC0:
 182 0000 53544D33 		.ascii	"STM32 Virtual ComPort\000"
 182      32205669 
ARM GAS  /tmp/ccGlxyVe.s 			page 9


 182      72747561 
 182      6C20436F 
 182      6D506F72 
 183              		.section	.text.USBD_FS_ProductStrDescriptor,"ax",%progbits
 184              		.align	1
 185              		.global	USBD_FS_ProductStrDescriptor
 186              		.syntax unified
 187              		.thumb
 188              		.thumb_func
 190              	USBD_FS_ProductStrDescriptor:
 191              	.LFB241:
 277:USB_DEVICE/App/usbd_desc.c **** 
 278:USB_DEVICE/App/usbd_desc.c **** /**
 279:USB_DEVICE/App/usbd_desc.c ****   * @brief  Return the product string descriptor
 280:USB_DEVICE/App/usbd_desc.c ****   * @param  speed : Current device speed
 281:USB_DEVICE/App/usbd_desc.c ****   * @param  length : Pointer to data length variable
 282:USB_DEVICE/App/usbd_desc.c ****   * @retval Pointer to descriptor buffer
 283:USB_DEVICE/App/usbd_desc.c ****   */
 284:USB_DEVICE/App/usbd_desc.c **** uint8_t * USBD_FS_ProductStrDescriptor(USBD_SpeedTypeDef speed, uint16_t *length)
 285:USB_DEVICE/App/usbd_desc.c **** {
 192              		.loc 1 285 1
 193              		.cfi_startproc
 194              		@ args = 0, pretend = 0, frame = 8
 195              		@ frame_needed = 1, uses_anonymous_args = 0
 196 0000 80B5     		push	{r7, lr}
 197              	.LCFI12:
 198              		.cfi_def_cfa_offset 8
 199              		.cfi_offset 7, -8
 200              		.cfi_offset 14, -4
 201 0002 82B0     		sub	sp, sp, #8
 202              	.LCFI13:
 203              		.cfi_def_cfa_offset 16
 204 0004 00AF     		add	r7, sp, #0
 205              	.LCFI14:
 206              		.cfi_def_cfa_register 7
 207 0006 0346     		mov	r3, r0
 208 0008 3960     		str	r1, [r7]
 209 000a FB71     		strb	r3, [r7, #7]
 286:USB_DEVICE/App/usbd_desc.c ****   if(speed == 0)
 210              		.loc 1 286 5
 211 000c FB79     		ldrb	r3, [r7, #7]	@ zero_extendqisi2
 212 000e 002B     		cmp	r3, #0
 213 0010 05D1     		bne	.L10
 287:USB_DEVICE/App/usbd_desc.c ****   {
 288:USB_DEVICE/App/usbd_desc.c ****     USBD_GetString((uint8_t *)USBD_PRODUCT_STRING_FS, USBD_StrDesc, length);
 214              		.loc 1 288 5
 215 0012 3A68     		ldr	r2, [r7]
 216 0014 0749     		ldr	r1, .L13
 217 0016 0848     		ldr	r0, .L13+4
 218 0018 FFF7FEFF 		bl	USBD_GetString
 219 001c 04E0     		b	.L11
 220              	.L10:
 289:USB_DEVICE/App/usbd_desc.c ****   }
 290:USB_DEVICE/App/usbd_desc.c ****   else
 291:USB_DEVICE/App/usbd_desc.c ****   {
 292:USB_DEVICE/App/usbd_desc.c ****     USBD_GetString((uint8_t *)USBD_PRODUCT_STRING_FS, USBD_StrDesc, length);
 221              		.loc 1 292 5
ARM GAS  /tmp/ccGlxyVe.s 			page 10


 222 001e 3A68     		ldr	r2, [r7]
 223 0020 0449     		ldr	r1, .L13
 224 0022 0548     		ldr	r0, .L13+4
 225 0024 FFF7FEFF 		bl	USBD_GetString
 226              	.L11:
 293:USB_DEVICE/App/usbd_desc.c ****   }
 294:USB_DEVICE/App/usbd_desc.c ****   return USBD_StrDesc;
 227              		.loc 1 294 10
 228 0028 024B     		ldr	r3, .L13
 295:USB_DEVICE/App/usbd_desc.c **** }
 229              		.loc 1 295 1
 230 002a 1846     		mov	r0, r3
 231 002c 0837     		adds	r7, r7, #8
 232              	.LCFI15:
 233              		.cfi_def_cfa_offset 8
 234 002e BD46     		mov	sp, r7
 235              	.LCFI16:
 236              		.cfi_def_cfa_register 13
 237              		@ sp needed
 238 0030 80BD     		pop	{r7, pc}
 239              	.L14:
 240 0032 00BF     		.align	2
 241              	.L13:
 242 0034 00000000 		.word	USBD_StrDesc
 243 0038 00000000 		.word	.LC0
 244              		.cfi_endproc
 245              	.LFE241:
 247              		.section	.rodata
 248 0016 0000     		.align	2
 249              	.LC1:
 250 0018 53544D69 		.ascii	"STMicroelectronics\000"
 250      63726F65 
 250      6C656374 
 250      726F6E69 
 250      637300
 251              		.section	.text.USBD_FS_ManufacturerStrDescriptor,"ax",%progbits
 252              		.align	1
 253              		.global	USBD_FS_ManufacturerStrDescriptor
 254              		.syntax unified
 255              		.thumb
 256              		.thumb_func
 258              	USBD_FS_ManufacturerStrDescriptor:
 259              	.LFB242:
 296:USB_DEVICE/App/usbd_desc.c **** 
 297:USB_DEVICE/App/usbd_desc.c **** /**
 298:USB_DEVICE/App/usbd_desc.c ****   * @brief  Return the manufacturer string descriptor
 299:USB_DEVICE/App/usbd_desc.c ****   * @param  speed : Current device speed
 300:USB_DEVICE/App/usbd_desc.c ****   * @param  length : Pointer to data length variable
 301:USB_DEVICE/App/usbd_desc.c ****   * @retval Pointer to descriptor buffer
 302:USB_DEVICE/App/usbd_desc.c ****   */
 303:USB_DEVICE/App/usbd_desc.c **** uint8_t * USBD_FS_ManufacturerStrDescriptor(USBD_SpeedTypeDef speed, uint16_t *length)
 304:USB_DEVICE/App/usbd_desc.c **** {
 260              		.loc 1 304 1
 261              		.cfi_startproc
 262              		@ args = 0, pretend = 0, frame = 8
 263              		@ frame_needed = 1, uses_anonymous_args = 0
 264 0000 80B5     		push	{r7, lr}
ARM GAS  /tmp/ccGlxyVe.s 			page 11


 265              	.LCFI17:
 266              		.cfi_def_cfa_offset 8
 267              		.cfi_offset 7, -8
 268              		.cfi_offset 14, -4
 269 0002 82B0     		sub	sp, sp, #8
 270              	.LCFI18:
 271              		.cfi_def_cfa_offset 16
 272 0004 00AF     		add	r7, sp, #0
 273              	.LCFI19:
 274              		.cfi_def_cfa_register 7
 275 0006 0346     		mov	r3, r0
 276 0008 3960     		str	r1, [r7]
 277 000a FB71     		strb	r3, [r7, #7]
 305:USB_DEVICE/App/usbd_desc.c ****   UNUSED(speed);
 306:USB_DEVICE/App/usbd_desc.c ****   USBD_GetString((uint8_t *)USBD_MANUFACTURER_STRING, USBD_StrDesc, length);
 278              		.loc 1 306 3
 279 000c 3A68     		ldr	r2, [r7]
 280 000e 0449     		ldr	r1, .L17
 281 0010 0448     		ldr	r0, .L17+4
 282 0012 FFF7FEFF 		bl	USBD_GetString
 307:USB_DEVICE/App/usbd_desc.c ****   return USBD_StrDesc;
 283              		.loc 1 307 10
 284 0016 024B     		ldr	r3, .L17
 308:USB_DEVICE/App/usbd_desc.c **** }
 285              		.loc 1 308 1
 286 0018 1846     		mov	r0, r3
 287 001a 0837     		adds	r7, r7, #8
 288              	.LCFI20:
 289              		.cfi_def_cfa_offset 8
 290 001c BD46     		mov	sp, r7
 291              	.LCFI21:
 292              		.cfi_def_cfa_register 13
 293              		@ sp needed
 294 001e 80BD     		pop	{r7, pc}
 295              	.L18:
 296              		.align	2
 297              	.L17:
 298 0020 00000000 		.word	USBD_StrDesc
 299 0024 18000000 		.word	.LC1
 300              		.cfi_endproc
 301              	.LFE242:
 303              		.section	.text.USBD_FS_SerialStrDescriptor,"ax",%progbits
 304              		.align	1
 305              		.global	USBD_FS_SerialStrDescriptor
 306              		.syntax unified
 307              		.thumb
 308              		.thumb_func
 310              	USBD_FS_SerialStrDescriptor:
 311              	.LFB243:
 309:USB_DEVICE/App/usbd_desc.c **** 
 310:USB_DEVICE/App/usbd_desc.c **** /**
 311:USB_DEVICE/App/usbd_desc.c ****   * @brief  Return the serial number string descriptor
 312:USB_DEVICE/App/usbd_desc.c ****   * @param  speed : Current device speed
 313:USB_DEVICE/App/usbd_desc.c ****   * @param  length : Pointer to data length variable
 314:USB_DEVICE/App/usbd_desc.c ****   * @retval Pointer to descriptor buffer
 315:USB_DEVICE/App/usbd_desc.c ****   */
 316:USB_DEVICE/App/usbd_desc.c **** uint8_t * USBD_FS_SerialStrDescriptor(USBD_SpeedTypeDef speed, uint16_t *length)
ARM GAS  /tmp/ccGlxyVe.s 			page 12


 317:USB_DEVICE/App/usbd_desc.c **** {
 312              		.loc 1 317 1
 313              		.cfi_startproc
 314              		@ args = 0, pretend = 0, frame = 8
 315              		@ frame_needed = 1, uses_anonymous_args = 0
 316 0000 80B5     		push	{r7, lr}
 317              	.LCFI22:
 318              		.cfi_def_cfa_offset 8
 319              		.cfi_offset 7, -8
 320              		.cfi_offset 14, -4
 321 0002 82B0     		sub	sp, sp, #8
 322              	.LCFI23:
 323              		.cfi_def_cfa_offset 16
 324 0004 00AF     		add	r7, sp, #0
 325              	.LCFI24:
 326              		.cfi_def_cfa_register 7
 327 0006 0346     		mov	r3, r0
 328 0008 3960     		str	r1, [r7]
 329 000a FB71     		strb	r3, [r7, #7]
 318:USB_DEVICE/App/usbd_desc.c ****   UNUSED(speed);
 319:USB_DEVICE/App/usbd_desc.c ****   *length = USB_SIZ_STRING_SERIAL;
 330              		.loc 1 319 11
 331 000c 3B68     		ldr	r3, [r7]
 332 000e 1A22     		movs	r2, #26
 333 0010 1A80     		strh	r2, [r3]	@ movhi
 320:USB_DEVICE/App/usbd_desc.c **** 
 321:USB_DEVICE/App/usbd_desc.c ****   /* Update the serial number string descriptor with the data from the unique
 322:USB_DEVICE/App/usbd_desc.c ****    * ID */
 323:USB_DEVICE/App/usbd_desc.c ****   Get_SerialNum();
 334              		.loc 1 323 3
 335 0012 FFF7FEFF 		bl	Get_SerialNum
 324:USB_DEVICE/App/usbd_desc.c ****   /* USER CODE BEGIN USBD_FS_SerialStrDescriptor */
 325:USB_DEVICE/App/usbd_desc.c **** 
 326:USB_DEVICE/App/usbd_desc.c ****   /* USER CODE END USBD_FS_SerialStrDescriptor */
 327:USB_DEVICE/App/usbd_desc.c ****   return (uint8_t *) USBD_StringSerial;
 336              		.loc 1 327 10
 337 0016 024B     		ldr	r3, .L21
 328:USB_DEVICE/App/usbd_desc.c **** }
 338              		.loc 1 328 1
 339 0018 1846     		mov	r0, r3
 340 001a 0837     		adds	r7, r7, #8
 341              	.LCFI25:
 342              		.cfi_def_cfa_offset 8
 343 001c BD46     		mov	sp, r7
 344              	.LCFI26:
 345              		.cfi_def_cfa_register 13
 346              		@ sp needed
 347 001e 80BD     		pop	{r7, pc}
 348              	.L22:
 349              		.align	2
 350              	.L21:
 351 0020 00000000 		.word	USBD_StringSerial
 352              		.cfi_endproc
 353              	.LFE243:
 355              		.section	.rodata
 356 002b 00       		.align	2
 357              	.LC2:
ARM GAS  /tmp/ccGlxyVe.s 			page 13


 358 002c 43444320 		.ascii	"CDC Config\000"
 358      436F6E66 
 358      696700
 359              		.section	.text.USBD_FS_ConfigStrDescriptor,"ax",%progbits
 360              		.align	1
 361              		.global	USBD_FS_ConfigStrDescriptor
 362              		.syntax unified
 363              		.thumb
 364              		.thumb_func
 366              	USBD_FS_ConfigStrDescriptor:
 367              	.LFB244:
 329:USB_DEVICE/App/usbd_desc.c **** 
 330:USB_DEVICE/App/usbd_desc.c **** /**
 331:USB_DEVICE/App/usbd_desc.c ****   * @brief  Return the configuration string descriptor
 332:USB_DEVICE/App/usbd_desc.c ****   * @param  speed : Current device speed
 333:USB_DEVICE/App/usbd_desc.c ****   * @param  length : Pointer to data length variable
 334:USB_DEVICE/App/usbd_desc.c ****   * @retval Pointer to descriptor buffer
 335:USB_DEVICE/App/usbd_desc.c ****   */
 336:USB_DEVICE/App/usbd_desc.c **** uint8_t * USBD_FS_ConfigStrDescriptor(USBD_SpeedTypeDef speed, uint16_t *length)
 337:USB_DEVICE/App/usbd_desc.c **** {
 368              		.loc 1 337 1
 369              		.cfi_startproc
 370              		@ args = 0, pretend = 0, frame = 8
 371              		@ frame_needed = 1, uses_anonymous_args = 0
 372 0000 80B5     		push	{r7, lr}
 373              	.LCFI27:
 374              		.cfi_def_cfa_offset 8
 375              		.cfi_offset 7, -8
 376              		.cfi_offset 14, -4
 377 0002 82B0     		sub	sp, sp, #8
 378              	.LCFI28:
 379              		.cfi_def_cfa_offset 16
 380 0004 00AF     		add	r7, sp, #0
 381              	.LCFI29:
 382              		.cfi_def_cfa_register 7
 383 0006 0346     		mov	r3, r0
 384 0008 3960     		str	r1, [r7]
 385 000a FB71     		strb	r3, [r7, #7]
 338:USB_DEVICE/App/usbd_desc.c ****   if(speed == USBD_SPEED_HIGH)
 386              		.loc 1 338 5
 387 000c FB79     		ldrb	r3, [r7, #7]	@ zero_extendqisi2
 388 000e 002B     		cmp	r3, #0
 389 0010 05D1     		bne	.L24
 339:USB_DEVICE/App/usbd_desc.c ****   {
 340:USB_DEVICE/App/usbd_desc.c ****     USBD_GetString((uint8_t *)USBD_CONFIGURATION_STRING_FS, USBD_StrDesc, length);
 390              		.loc 1 340 5
 391 0012 3A68     		ldr	r2, [r7]
 392 0014 0749     		ldr	r1, .L27
 393 0016 0848     		ldr	r0, .L27+4
 394 0018 FFF7FEFF 		bl	USBD_GetString
 395 001c 04E0     		b	.L25
 396              	.L24:
 341:USB_DEVICE/App/usbd_desc.c ****   }
 342:USB_DEVICE/App/usbd_desc.c ****   else
 343:USB_DEVICE/App/usbd_desc.c ****   {
 344:USB_DEVICE/App/usbd_desc.c ****     USBD_GetString((uint8_t *)USBD_CONFIGURATION_STRING_FS, USBD_StrDesc, length);
 397              		.loc 1 344 5
ARM GAS  /tmp/ccGlxyVe.s 			page 14


 398 001e 3A68     		ldr	r2, [r7]
 399 0020 0449     		ldr	r1, .L27
 400 0022 0548     		ldr	r0, .L27+4
 401 0024 FFF7FEFF 		bl	USBD_GetString
 402              	.L25:
 345:USB_DEVICE/App/usbd_desc.c ****   }
 346:USB_DEVICE/App/usbd_desc.c ****   return USBD_StrDesc;
 403              		.loc 1 346 10
 404 0028 024B     		ldr	r3, .L27
 347:USB_DEVICE/App/usbd_desc.c **** }
 405              		.loc 1 347 1
 406 002a 1846     		mov	r0, r3
 407 002c 0837     		adds	r7, r7, #8
 408              	.LCFI30:
 409              		.cfi_def_cfa_offset 8
 410 002e BD46     		mov	sp, r7
 411              	.LCFI31:
 412              		.cfi_def_cfa_register 13
 413              		@ sp needed
 414 0030 80BD     		pop	{r7, pc}
 415              	.L28:
 416 0032 00BF     		.align	2
 417              	.L27:
 418 0034 00000000 		.word	USBD_StrDesc
 419 0038 2C000000 		.word	.LC2
 420              		.cfi_endproc
 421              	.LFE244:
 423              		.section	.rodata
 424 0037 00       		.align	2
 425              	.LC3:
 426 0038 43444320 		.ascii	"CDC Interface\000"
 426      496E7465 
 426      72666163 
 426      6500
 427              		.section	.text.USBD_FS_InterfaceStrDescriptor,"ax",%progbits
 428              		.align	1
 429              		.global	USBD_FS_InterfaceStrDescriptor
 430              		.syntax unified
 431              		.thumb
 432              		.thumb_func
 434              	USBD_FS_InterfaceStrDescriptor:
 435              	.LFB245:
 348:USB_DEVICE/App/usbd_desc.c **** 
 349:USB_DEVICE/App/usbd_desc.c **** /**
 350:USB_DEVICE/App/usbd_desc.c ****   * @brief  Return the interface string descriptor
 351:USB_DEVICE/App/usbd_desc.c ****   * @param  speed : Current device speed
 352:USB_DEVICE/App/usbd_desc.c ****   * @param  length : Pointer to data length variable
 353:USB_DEVICE/App/usbd_desc.c ****   * @retval Pointer to descriptor buffer
 354:USB_DEVICE/App/usbd_desc.c ****   */
 355:USB_DEVICE/App/usbd_desc.c **** uint8_t * USBD_FS_InterfaceStrDescriptor(USBD_SpeedTypeDef speed, uint16_t *length)
 356:USB_DEVICE/App/usbd_desc.c **** {
 436              		.loc 1 356 1
 437              		.cfi_startproc
 438              		@ args = 0, pretend = 0, frame = 8
 439              		@ frame_needed = 1, uses_anonymous_args = 0
 440 0000 80B5     		push	{r7, lr}
 441              	.LCFI32:
ARM GAS  /tmp/ccGlxyVe.s 			page 15


 442              		.cfi_def_cfa_offset 8
 443              		.cfi_offset 7, -8
 444              		.cfi_offset 14, -4
 445 0002 82B0     		sub	sp, sp, #8
 446              	.LCFI33:
 447              		.cfi_def_cfa_offset 16
 448 0004 00AF     		add	r7, sp, #0
 449              	.LCFI34:
 450              		.cfi_def_cfa_register 7
 451 0006 0346     		mov	r3, r0
 452 0008 3960     		str	r1, [r7]
 453 000a FB71     		strb	r3, [r7, #7]
 357:USB_DEVICE/App/usbd_desc.c ****   if(speed == 0)
 454              		.loc 1 357 5
 455 000c FB79     		ldrb	r3, [r7, #7]	@ zero_extendqisi2
 456 000e 002B     		cmp	r3, #0
 457 0010 05D1     		bne	.L30
 358:USB_DEVICE/App/usbd_desc.c ****   {
 359:USB_DEVICE/App/usbd_desc.c ****     USBD_GetString((uint8_t *)USBD_INTERFACE_STRING_FS, USBD_StrDesc, length);
 458              		.loc 1 359 5
 459 0012 3A68     		ldr	r2, [r7]
 460 0014 0749     		ldr	r1, .L33
 461 0016 0848     		ldr	r0, .L33+4
 462 0018 FFF7FEFF 		bl	USBD_GetString
 463 001c 04E0     		b	.L31
 464              	.L30:
 360:USB_DEVICE/App/usbd_desc.c ****   }
 361:USB_DEVICE/App/usbd_desc.c ****   else
 362:USB_DEVICE/App/usbd_desc.c ****   {
 363:USB_DEVICE/App/usbd_desc.c ****     USBD_GetString((uint8_t *)USBD_INTERFACE_STRING_FS, USBD_StrDesc, length);
 465              		.loc 1 363 5
 466 001e 3A68     		ldr	r2, [r7]
 467 0020 0449     		ldr	r1, .L33
 468 0022 0548     		ldr	r0, .L33+4
 469 0024 FFF7FEFF 		bl	USBD_GetString
 470              	.L31:
 364:USB_DEVICE/App/usbd_desc.c ****   }
 365:USB_DEVICE/App/usbd_desc.c ****   return USBD_StrDesc;
 471              		.loc 1 365 10
 472 0028 024B     		ldr	r3, .L33
 366:USB_DEVICE/App/usbd_desc.c **** }
 473              		.loc 1 366 1
 474 002a 1846     		mov	r0, r3
 475 002c 0837     		adds	r7, r7, #8
 476              	.LCFI35:
 477              		.cfi_def_cfa_offset 8
 478 002e BD46     		mov	sp, r7
 479              	.LCFI36:
 480              		.cfi_def_cfa_register 13
 481              		@ sp needed
 482 0030 80BD     		pop	{r7, pc}
 483              	.L34:
 484 0032 00BF     		.align	2
 485              	.L33:
 486 0034 00000000 		.word	USBD_StrDesc
 487 0038 38000000 		.word	.LC3
 488              		.cfi_endproc
ARM GAS  /tmp/ccGlxyVe.s 			page 16


 489              	.LFE245:
 491              		.section	.text.USBD_FS_USR_BOSDescriptor,"ax",%progbits
 492              		.align	1
 493              		.global	USBD_FS_USR_BOSDescriptor
 494              		.syntax unified
 495              		.thumb
 496              		.thumb_func
 498              	USBD_FS_USR_BOSDescriptor:
 499              	.LFB246:
 367:USB_DEVICE/App/usbd_desc.c **** 
 368:USB_DEVICE/App/usbd_desc.c **** #if (USBD_LPM_ENABLED == 1)
 369:USB_DEVICE/App/usbd_desc.c **** /**
 370:USB_DEVICE/App/usbd_desc.c ****   * @brief  Return the BOS descriptor
 371:USB_DEVICE/App/usbd_desc.c ****   * @param  speed : Current device speed
 372:USB_DEVICE/App/usbd_desc.c ****   * @param  length : Pointer to data length variable
 373:USB_DEVICE/App/usbd_desc.c ****   * @retval Pointer to descriptor buffer
 374:USB_DEVICE/App/usbd_desc.c ****   */
 375:USB_DEVICE/App/usbd_desc.c **** uint8_t * USBD_FS_USR_BOSDescriptor(USBD_SpeedTypeDef speed, uint16_t *length)
 376:USB_DEVICE/App/usbd_desc.c **** {
 500              		.loc 1 376 1
 501              		.cfi_startproc
 502              		@ args = 0, pretend = 0, frame = 8
 503              		@ frame_needed = 1, uses_anonymous_args = 0
 504              		@ link register save eliminated.
 505 0000 80B4     		push	{r7}
 506              	.LCFI37:
 507              		.cfi_def_cfa_offset 4
 508              		.cfi_offset 7, -4
 509 0002 83B0     		sub	sp, sp, #12
 510              	.LCFI38:
 511              		.cfi_def_cfa_offset 16
 512 0004 00AF     		add	r7, sp, #0
 513              	.LCFI39:
 514              		.cfi_def_cfa_register 7
 515 0006 0346     		mov	r3, r0
 516 0008 3960     		str	r1, [r7]
 517 000a FB71     		strb	r3, [r7, #7]
 377:USB_DEVICE/App/usbd_desc.c ****   UNUSED(speed);
 378:USB_DEVICE/App/usbd_desc.c ****   *length = sizeof(USBD_FS_BOSDesc);
 518              		.loc 1 378 11
 519 000c 3B68     		ldr	r3, [r7]
 520 000e 0C22     		movs	r2, #12
 521 0010 1A80     		strh	r2, [r3]	@ movhi
 379:USB_DEVICE/App/usbd_desc.c ****   return (uint8_t*)USBD_FS_BOSDesc;
 522              		.loc 1 379 10
 523 0012 034B     		ldr	r3, .L37
 380:USB_DEVICE/App/usbd_desc.c **** }
 524              		.loc 1 380 1
 525 0014 1846     		mov	r0, r3
 526 0016 0C37     		adds	r7, r7, #12
 527              	.LCFI40:
 528              		.cfi_def_cfa_offset 4
 529 0018 BD46     		mov	sp, r7
 530              	.LCFI41:
 531              		.cfi_def_cfa_register 13
 532              		@ sp needed
 533 001a 5DF8047B 		ldr	r7, [sp], #4
ARM GAS  /tmp/ccGlxyVe.s 			page 17


 534              	.LCFI42:
 535              		.cfi_restore 7
 536              		.cfi_def_cfa_offset 0
 537 001e 7047     		bx	lr
 538              	.L38:
 539              		.align	2
 540              	.L37:
 541 0020 00000000 		.word	USBD_FS_BOSDesc
 542              		.cfi_endproc
 543              	.LFE246:
 545              		.section	.text.Get_SerialNum,"ax",%progbits
 546              		.align	1
 547              		.syntax unified
 548              		.thumb
 549              		.thumb_func
 551              	Get_SerialNum:
 552              	.LFB247:
 381:USB_DEVICE/App/usbd_desc.c **** #endif /* (USBD_LPM_ENABLED == 1) */
 382:USB_DEVICE/App/usbd_desc.c **** 
 383:USB_DEVICE/App/usbd_desc.c **** /**
 384:USB_DEVICE/App/usbd_desc.c ****   * @brief  Create the serial number string descriptor
 385:USB_DEVICE/App/usbd_desc.c ****   * @param  None
 386:USB_DEVICE/App/usbd_desc.c ****   * @retval None
 387:USB_DEVICE/App/usbd_desc.c ****   */
 388:USB_DEVICE/App/usbd_desc.c **** static void Get_SerialNum(void)
 389:USB_DEVICE/App/usbd_desc.c **** {
 553              		.loc 1 389 1
 554              		.cfi_startproc
 555              		@ args = 0, pretend = 0, frame = 16
 556              		@ frame_needed = 1, uses_anonymous_args = 0
 557 0000 80B5     		push	{r7, lr}
 558              	.LCFI43:
 559              		.cfi_def_cfa_offset 8
 560              		.cfi_offset 7, -8
 561              		.cfi_offset 14, -4
 562 0002 84B0     		sub	sp, sp, #16
 563              	.LCFI44:
 564              		.cfi_def_cfa_offset 24
 565 0004 00AF     		add	r7, sp, #0
 566              	.LCFI45:
 567              		.cfi_def_cfa_register 7
 390:USB_DEVICE/App/usbd_desc.c ****   uint32_t deviceserial0;
 391:USB_DEVICE/App/usbd_desc.c ****   uint32_t deviceserial1;
 392:USB_DEVICE/App/usbd_desc.c ****   uint32_t deviceserial2;
 393:USB_DEVICE/App/usbd_desc.c **** 
 394:USB_DEVICE/App/usbd_desc.c ****   deviceserial0 = *(uint32_t *) DEVICE_ID1;
 568              		.loc 1 394 19
 569 0006 0F4B     		ldr	r3, .L42
 570              		.loc 1 394 17
 571 0008 1B68     		ldr	r3, [r3]
 572 000a FB60     		str	r3, [r7, #12]
 395:USB_DEVICE/App/usbd_desc.c ****   deviceserial1 = *(uint32_t *) DEVICE_ID2;
 573              		.loc 1 395 19
 574 000c 0E4B     		ldr	r3, .L42+4
 575              		.loc 1 395 17
 576 000e 1B68     		ldr	r3, [r3]
 577 0010 BB60     		str	r3, [r7, #8]
ARM GAS  /tmp/ccGlxyVe.s 			page 18


 396:USB_DEVICE/App/usbd_desc.c ****   deviceserial2 = *(uint32_t *) DEVICE_ID3;
 578              		.loc 1 396 19
 579 0012 0E4B     		ldr	r3, .L42+8
 580              		.loc 1 396 17
 581 0014 1B68     		ldr	r3, [r3]
 582 0016 7B60     		str	r3, [r7, #4]
 397:USB_DEVICE/App/usbd_desc.c **** 
 398:USB_DEVICE/App/usbd_desc.c ****   deviceserial0 += deviceserial2;
 583              		.loc 1 398 17
 584 0018 FA68     		ldr	r2, [r7, #12]
 585 001a 7B68     		ldr	r3, [r7, #4]
 586 001c 1344     		add	r3, r3, r2
 587 001e FB60     		str	r3, [r7, #12]
 399:USB_DEVICE/App/usbd_desc.c **** 
 400:USB_DEVICE/App/usbd_desc.c ****   if (deviceserial0 != 0)
 588              		.loc 1 400 6
 589 0020 FB68     		ldr	r3, [r7, #12]
 590 0022 002B     		cmp	r3, #0
 591 0024 09D0     		beq	.L41
 401:USB_DEVICE/App/usbd_desc.c ****   {
 402:USB_DEVICE/App/usbd_desc.c ****     IntToUnicode(deviceserial0, &USBD_StringSerial[2], 8);
 592              		.loc 1 402 5
 593 0026 0822     		movs	r2, #8
 594 0028 0949     		ldr	r1, .L42+12
 595 002a F868     		ldr	r0, [r7, #12]
 596 002c FFF7FEFF 		bl	IntToUnicode
 403:USB_DEVICE/App/usbd_desc.c ****     IntToUnicode(deviceserial1, &USBD_StringSerial[18], 4);
 597              		.loc 1 403 5
 598 0030 0422     		movs	r2, #4
 599 0032 0849     		ldr	r1, .L42+16
 600 0034 B868     		ldr	r0, [r7, #8]
 601 0036 FFF7FEFF 		bl	IntToUnicode
 602              	.L41:
 404:USB_DEVICE/App/usbd_desc.c ****   }
 405:USB_DEVICE/App/usbd_desc.c **** }
 603              		.loc 1 405 1
 604 003a 00BF     		nop
 605 003c 1037     		adds	r7, r7, #16
 606              	.LCFI46:
 607              		.cfi_def_cfa_offset 8
 608 003e BD46     		mov	sp, r7
 609              	.LCFI47:
 610              		.cfi_def_cfa_register 13
 611              		@ sp needed
 612 0040 80BD     		pop	{r7, pc}
 613              	.L43:
 614 0042 00BF     		.align	2
 615              	.L42:
 616 0044 107AFF1F 		.word	536836624
 617 0048 147AFF1F 		.word	536836628
 618 004c 187AFF1F 		.word	536836632
 619 0050 02000000 		.word	USBD_StringSerial+2
 620 0054 12000000 		.word	USBD_StringSerial+18
 621              		.cfi_endproc
 622              	.LFE247:
 624              		.section	.text.IntToUnicode,"ax",%progbits
 625              		.align	1
ARM GAS  /tmp/ccGlxyVe.s 			page 19


 626              		.syntax unified
 627              		.thumb
 628              		.thumb_func
 630              	IntToUnicode:
 631              	.LFB248:
 406:USB_DEVICE/App/usbd_desc.c **** 
 407:USB_DEVICE/App/usbd_desc.c **** /**
 408:USB_DEVICE/App/usbd_desc.c ****   * @brief  Convert Hex 32Bits value into char
 409:USB_DEVICE/App/usbd_desc.c ****   * @param  value: value to convert
 410:USB_DEVICE/App/usbd_desc.c ****   * @param  pbuf: pointer to the buffer
 411:USB_DEVICE/App/usbd_desc.c ****   * @param  len: buffer length
 412:USB_DEVICE/App/usbd_desc.c ****   * @retval None
 413:USB_DEVICE/App/usbd_desc.c ****   */
 414:USB_DEVICE/App/usbd_desc.c **** static void IntToUnicode(uint32_t value, uint8_t * pbuf, uint8_t len)
 415:USB_DEVICE/App/usbd_desc.c **** {
 632              		.loc 1 415 1
 633              		.cfi_startproc
 634              		@ args = 0, pretend = 0, frame = 24
 635              		@ frame_needed = 1, uses_anonymous_args = 0
 636              		@ link register save eliminated.
 637 0000 80B4     		push	{r7}
 638              	.LCFI48:
 639              		.cfi_def_cfa_offset 4
 640              		.cfi_offset 7, -4
 641 0002 87B0     		sub	sp, sp, #28
 642              	.LCFI49:
 643              		.cfi_def_cfa_offset 32
 644 0004 00AF     		add	r7, sp, #0
 645              	.LCFI50:
 646              		.cfi_def_cfa_register 7
 647 0006 F860     		str	r0, [r7, #12]
 648 0008 B960     		str	r1, [r7, #8]
 649 000a 1346     		mov	r3, r2
 650 000c FB71     		strb	r3, [r7, #7]
 416:USB_DEVICE/App/usbd_desc.c ****   uint8_t idx = 0;
 651              		.loc 1 416 11
 652 000e 0023     		movs	r3, #0
 653 0010 FB75     		strb	r3, [r7, #23]
 417:USB_DEVICE/App/usbd_desc.c **** 
 418:USB_DEVICE/App/usbd_desc.c ****   for (idx = 0; idx < len; idx++)
 654              		.loc 1 418 12
 655 0012 0023     		movs	r3, #0
 656 0014 FB75     		strb	r3, [r7, #23]
 657              		.loc 1 418 3
 658 0016 27E0     		b	.L45
 659              	.L48:
 419:USB_DEVICE/App/usbd_desc.c ****   {
 420:USB_DEVICE/App/usbd_desc.c ****     if (((value >> 28)) < 0xA)
 660              		.loc 1 420 17
 661 0018 FB68     		ldr	r3, [r7, #12]
 662 001a 1B0F     		lsrs	r3, r3, #28
 663              		.loc 1 420 8
 664 001c 092B     		cmp	r3, #9
 665 001e 0BD8     		bhi	.L46
 421:USB_DEVICE/App/usbd_desc.c ****     {
 422:USB_DEVICE/App/usbd_desc.c ****       pbuf[2 * idx] = (value >> 28) + '0';
 666              		.loc 1 422 30
ARM GAS  /tmp/ccGlxyVe.s 			page 20


 667 0020 FB68     		ldr	r3, [r7, #12]
 668 0022 1B0F     		lsrs	r3, r3, #28
 669              		.loc 1 422 37
 670 0024 DAB2     		uxtb	r2, r3
 671              		.loc 1 422 14
 672 0026 FB7D     		ldrb	r3, [r7, #23]	@ zero_extendqisi2
 673 0028 5B00     		lsls	r3, r3, #1
 674 002a 1946     		mov	r1, r3
 675              		.loc 1 422 11
 676 002c BB68     		ldr	r3, [r7, #8]
 677 002e 0B44     		add	r3, r3, r1
 678              		.loc 1 422 37
 679 0030 3032     		adds	r2, r2, #48
 680 0032 D2B2     		uxtb	r2, r2
 681              		.loc 1 422 21
 682 0034 1A70     		strb	r2, [r3]
 683 0036 0AE0     		b	.L47
 684              	.L46:
 423:USB_DEVICE/App/usbd_desc.c ****     }
 424:USB_DEVICE/App/usbd_desc.c ****     else
 425:USB_DEVICE/App/usbd_desc.c ****     {
 426:USB_DEVICE/App/usbd_desc.c ****       pbuf[2 * idx] = (value >> 28) + 'A' - 10;
 685              		.loc 1 426 30
 686 0038 FB68     		ldr	r3, [r7, #12]
 687 003a 1B0F     		lsrs	r3, r3, #28
 688              		.loc 1 426 43
 689 003c DAB2     		uxtb	r2, r3
 690              		.loc 1 426 14
 691 003e FB7D     		ldrb	r3, [r7, #23]	@ zero_extendqisi2
 692 0040 5B00     		lsls	r3, r3, #1
 693 0042 1946     		mov	r1, r3
 694              		.loc 1 426 11
 695 0044 BB68     		ldr	r3, [r7, #8]
 696 0046 0B44     		add	r3, r3, r1
 697              		.loc 1 426 43
 698 0048 3732     		adds	r2, r2, #55
 699 004a D2B2     		uxtb	r2, r2
 700              		.loc 1 426 21
 701 004c 1A70     		strb	r2, [r3]
 702              	.L47:
 427:USB_DEVICE/App/usbd_desc.c ****     }
 428:USB_DEVICE/App/usbd_desc.c **** 
 429:USB_DEVICE/App/usbd_desc.c ****     value = value << 4;
 703              		.loc 1 429 11 discriminator 2
 704 004e FB68     		ldr	r3, [r7, #12]
 705 0050 1B01     		lsls	r3, r3, #4
 706 0052 FB60     		str	r3, [r7, #12]
 430:USB_DEVICE/App/usbd_desc.c **** 
 431:USB_DEVICE/App/usbd_desc.c ****     pbuf[2 * idx + 1] = 0;
 707              		.loc 1 431 12 discriminator 2
 708 0054 FB7D     		ldrb	r3, [r7, #23]	@ zero_extendqisi2
 709 0056 5B00     		lsls	r3, r3, #1
 710              		.loc 1 431 9 discriminator 2
 711 0058 0133     		adds	r3, r3, #1
 712 005a BA68     		ldr	r2, [r7, #8]
 713 005c 1344     		add	r3, r3, r2
 714              		.loc 1 431 23 discriminator 2
ARM GAS  /tmp/ccGlxyVe.s 			page 21


 715 005e 0022     		movs	r2, #0
 716 0060 1A70     		strb	r2, [r3]
 418:USB_DEVICE/App/usbd_desc.c ****   {
 717              		.loc 1 418 31 discriminator 2
 718 0062 FB7D     		ldrb	r3, [r7, #23]	@ zero_extendqisi2
 719 0064 0133     		adds	r3, r3, #1
 720 0066 FB75     		strb	r3, [r7, #23]
 721              	.L45:
 418:USB_DEVICE/App/usbd_desc.c ****   {
 722              		.loc 1 418 3 discriminator 1
 723 0068 FA7D     		ldrb	r2, [r7, #23]	@ zero_extendqisi2
 724 006a FB79     		ldrb	r3, [r7, #7]	@ zero_extendqisi2
 725 006c 9A42     		cmp	r2, r3
 726 006e D3D3     		bcc	.L48
 432:USB_DEVICE/App/usbd_desc.c ****   }
 433:USB_DEVICE/App/usbd_desc.c **** }
 727              		.loc 1 433 1
 728 0070 00BF     		nop
 729 0072 00BF     		nop
 730 0074 1C37     		adds	r7, r7, #28
 731              	.LCFI51:
 732              		.cfi_def_cfa_offset 4
 733 0076 BD46     		mov	sp, r7
 734              	.LCFI52:
 735              		.cfi_def_cfa_register 13
 736              		@ sp needed
 737 0078 5DF8047B 		ldr	r7, [sp], #4
 738              	.LCFI53:
 739              		.cfi_restore 7
 740              		.cfi_def_cfa_offset 0
 741 007c 7047     		bx	lr
 742              		.cfi_endproc
 743              	.LFE248:
 745              		.text
 746              	.Letext0:
 747              		.file 2 "/usr/local/share/gcc-arm-none-eabi-10.3-2021.10/arm-none-eabi/include/machine/_default_ty
 748              		.file 3 "/usr/local/share/gcc-arm-none-eabi-10.3-2021.10/arm-none-eabi/include/sys/_stdint.h"
 749              		.file 4 "Middlewares/ST/STM32_USB_Device_Library/Core/Inc/usbd_def.h"
 750              		.file 5 "USB_DEVICE/App/usbd_desc.h"
ARM GAS  /tmp/ccGlxyVe.s 			page 22

